	.file	"bench_montgomery.cpp"
	.text
	.section	.text$_ZNSt11char_traitsIcE6assignERcRKc,"x"
	.linkonce discard
	.globl	_ZNSt11char_traitsIcE6assignERcRKc
	.def	_ZNSt11char_traitsIcE6assignERcRKc;	.scl	2;	.type	32;	.endef
	.seh_proc	_ZNSt11char_traitsIcE6assignERcRKc
_ZNSt11char_traitsIcE6assignERcRKc:
.LFB221:
	pushq	%rbp
	.seh_pushreg	%rbp
	movq	%rsp, %rbp
	.seh_setframe	%rbp, 0
	.seh_endprologue
	movq	%rcx, 16(%rbp)
	movq	%rdx, 24(%rbp)
	movq	24(%rbp), %rax
	movzbl	(%rax), %eax
	movq	16(%rbp), %rdx
	movb	%al, (%rdx)
	nop
	popq	%rbp
	ret
	.seh_endproc
	.section	.text$_ZNSt11char_traitsIcE6lengthEPKc,"x"
	.linkonce discard
	.globl	_ZNSt11char_traitsIcE6lengthEPKc
	.def	_ZNSt11char_traitsIcE6lengthEPKc;	.scl	2;	.type	32;	.endef
	.seh_proc	_ZNSt11char_traitsIcE6lengthEPKc
_ZNSt11char_traitsIcE6lengthEPKc:
.LFB225:
	pushq	%rbp
	.seh_pushreg	%rbp
	movq	%rsp, %rbp
	.seh_setframe	%rbp, 0
	subq	$32, %rsp
	.seh_stackalloc	32
	.seh_endprologue
	movq	%rcx, 16(%rbp)
	movl	$0, %eax
	testb	%al, %al
	je	.L4
	movq	16(%rbp), %rax
	movq	%rax, %rcx
	call	_ZN9__gnu_cxx11char_traitsIcE6lengthEPKc
	jmp	.L5
.L4:
	movq	16(%rbp), %rax
	movq	%rax, %rcx
	call	strlen
	nop
.L5:
	addq	$32, %rsp
	popq	%rbp
	ret
	.seh_endproc
	.section	.text$_ZNSt11char_traitsIcE4copyEPcPKcy,"x"
	.linkonce discard
	.globl	_ZNSt11char_traitsIcE4copyEPcPKcy
	.def	_ZNSt11char_traitsIcE4copyEPcPKcy;	.scl	2;	.type	32;	.endef
	.seh_proc	_ZNSt11char_traitsIcE4copyEPcPKcy
_ZNSt11char_traitsIcE4copyEPcPKcy:
.LFB228:
	pushq	%rbp
	.seh_pushreg	%rbp
	movq	%rsp, %rbp
	.seh_setframe	%rbp, 0
	subq	$32, %rsp
	.seh_stackalloc	32
	.seh_endprologue
	movq	%rcx, 16(%rbp)
	movq	%rdx, 24(%rbp)
	movq	%r8, 32(%rbp)
	cmpq	$0, 32(%rbp)
	jne	.L7
	movq	16(%rbp), %rax
	jmp	.L8
.L7:
	movq	16(%rbp), %rdx
	movq	24(%rbp), %rax
	movq	%rdx, %rcx
	movq	%rax, %rdx
	movq	32(%rbp), %rax
	movq	%rax, %r8
	call	memcpy
	nop
.L8:
	addq	$32, %rsp
	popq	%rbp
	ret
	.seh_endproc
	.section .rdata,"dr"
.LC0:
	.ascii "stoll\0"
	.section	.text$_ZNSt7__cxx115stollERKNS_12basic_stringIcSt11char_traitsIcESaIcEEEPyi,"x"
	.linkonce discard
	.globl	_ZNSt7__cxx115stollERKNS_12basic_stringIcSt11char_traitsIcESaIcEEEPyi
	.def	_ZNSt7__cxx115stollERKNS_12basic_stringIcSt11char_traitsIcESaIcEEEPyi;	.scl	2;	.type	32;	.endef
	.seh_proc	_ZNSt7__cxx115stollERKNS_12basic_stringIcSt11char_traitsIcESaIcEEEPyi
_ZNSt7__cxx115stollERKNS_12basic_stringIcSt11char_traitsIcESaIcEEEPyi:
.LFB1352:
	pushq	%rbp
	.seh_pushreg	%rbp
	movq	%rsp, %rbp
	.seh_setframe	%rbp, 0
	subq	$48, %rsp
	.seh_stackalloc	48
	.seh_endprologue
	movq	%rcx, 16(%rbp)
	movq	%rdx, 24(%rbp)
	movl	%r8d, 32(%rbp)
	movq	16(%rbp), %rax
	movq	%rax, %rcx
	call	_ZNKSt7__cxx1112basic_stringIcSt11char_traitsIcESaIcEE5c_strEv
	movq	%rax, %rcx
	movq	24(%rbp), %r9
	leaq	.LC0(%rip), %rdx
	movq	.refptr.strtoll(%rip), %rax
	movl	32(%rbp), %r8d
	movl	%r8d, 32(%rsp)
	movq	%rcx, %r8
	movq	%rax, %rcx
	call	_ZN9__gnu_cxx6__stoaIxxcJiEEET0_PFT_PKT1_PPS3_DpT2_EPKcS5_PyS9_
	addq	$48, %rsp
	popq	%rbp
	ret
	.seh_endproc
	.section	.text$_ZStanSt13_Ios_FmtflagsS_,"x"
	.linkonce discard
	.globl	_ZStanSt13_Ios_FmtflagsS_
	.def	_ZStanSt13_Ios_FmtflagsS_;	.scl	2;	.type	32;	.endef
	.seh_proc	_ZStanSt13_Ios_FmtflagsS_
_ZStanSt13_Ios_FmtflagsS_:
.LFB1773:
	pushq	%rbp
	.seh_pushreg	%rbp
	movq	%rsp, %rbp
	.seh_setframe	%rbp, 0
	.seh_endprologue
	movl	%ecx, 16(%rbp)
	movl	%edx, 24(%rbp)
	movl	16(%rbp), %eax
	andl	24(%rbp), %eax
	popq	%rbp
	ret
	.seh_endproc
	.section	.text$_ZStorSt13_Ios_FmtflagsS_,"x"
	.linkonce discard
	.globl	_ZStorSt13_Ios_FmtflagsS_
	.def	_ZStorSt13_Ios_FmtflagsS_;	.scl	2;	.type	32;	.endef
	.seh_proc	_ZStorSt13_Ios_FmtflagsS_
_ZStorSt13_Ios_FmtflagsS_:
.LFB1774:
	pushq	%rbp
	.seh_pushreg	%rbp
	movq	%rsp, %rbp
	.seh_setframe	%rbp, 0
	.seh_endprologue
	movl	%ecx, 16(%rbp)
	movl	%edx, 24(%rbp)
	movl	16(%rbp), %eax
	orl	24(%rbp), %eax
	popq	%rbp
	ret
	.seh_endproc
	.section	.text$_ZStcoSt13_Ios_Fmtflags,"x"
	.linkonce discard
	.globl	_ZStcoSt13_Ios_Fmtflags
	.def	_ZStcoSt13_Ios_Fmtflags;	.scl	2;	.type	32;	.endef
	.seh_proc	_ZStcoSt13_Ios_Fmtflags
_ZStcoSt13_Ios_Fmtflags:
.LFB1776:
	pushq	%rbp
	.seh_pushreg	%rbp
	movq	%rsp, %rbp
	.seh_setframe	%rbp, 0
	.seh_endprologue
	movl	%ecx, 16(%rbp)
	movl	16(%rbp), %eax
	notl	%eax
	popq	%rbp
	ret
	.seh_endproc
	.section	.text$_ZStoRRSt13_Ios_FmtflagsS_,"x"
	.linkonce discard
	.globl	_ZStoRRSt13_Ios_FmtflagsS_
	.def	_ZStoRRSt13_Ios_FmtflagsS_;	.scl	2;	.type	32;	.endef
	.seh_proc	_ZStoRRSt13_Ios_FmtflagsS_
_ZStoRRSt13_Ios_FmtflagsS_:
.LFB1777:
	pushq	%rbp
	.seh_pushreg	%rbp
	movq	%rsp, %rbp
	.seh_setframe	%rbp, 0
	subq	$32, %rsp
	.seh_stackalloc	32
	.seh_endprologue
	movq	%rcx, 16(%rbp)
	movl	%edx, 24(%rbp)
	movq	16(%rbp), %rax
	movl	(%rax), %eax
	movl	24(%rbp), %edx
	movl	%eax, %ecx
	call	_ZStorSt13_Ios_FmtflagsS_
	movq	16(%rbp), %rdx
	movl	%eax, (%rdx)
	movq	16(%rbp), %rax
	addq	$32, %rsp
	popq	%rbp
	ret
	.seh_endproc
	.section	.text$_ZStaNRSt13_Ios_FmtflagsS_,"x"
	.linkonce discard
	.globl	_ZStaNRSt13_Ios_FmtflagsS_
	.def	_ZStaNRSt13_Ios_FmtflagsS_;	.scl	2;	.type	32;	.endef
	.seh_proc	_ZStaNRSt13_Ios_FmtflagsS_
_ZStaNRSt13_Ios_FmtflagsS_:
.LFB1778:
	pushq	%rbp
	.seh_pushreg	%rbp
	movq	%rsp, %rbp
	.seh_setframe	%rbp, 0
	subq	$32, %rsp
	.seh_stackalloc	32
	.seh_endprologue
	movq	%rcx, 16(%rbp)
	movl	%edx, 24(%rbp)
	movq	16(%rbp), %rax
	movl	(%rax), %eax
	movl	24(%rbp), %edx
	movl	%eax, %ecx
	call	_ZStanSt13_Ios_FmtflagsS_
	movq	16(%rbp), %rdx
	movl	%eax, (%rdx)
	movq	16(%rbp), %rax
	addq	$32, %rsp
	popq	%rbp
	ret
	.seh_endproc
	.section	.text$_ZNSt8ios_base4setfESt13_Ios_FmtflagsS0_,"x"
	.linkonce discard
	.align 2
	.globl	_ZNSt8ios_base4setfESt13_Ios_FmtflagsS0_
	.def	_ZNSt8ios_base4setfESt13_Ios_FmtflagsS0_;	.scl	2;	.type	32;	.endef
	.seh_proc	_ZNSt8ios_base4setfESt13_Ios_FmtflagsS0_
_ZNSt8ios_base4setfESt13_Ios_FmtflagsS0_:
.LFB1807:
	pushq	%rbp
	.seh_pushreg	%rbp
	movq	%rsp, %rbp
	.seh_setframe	%rbp, 0
	subq	$48, %rsp
	.seh_stackalloc	48
	.seh_endprologue
	movq	%rcx, 16(%rbp)
	movl	%edx, 24(%rbp)
	movl	%r8d, 32(%rbp)
	movq	16(%rbp), %rax
	movl	24(%rax), %eax
	movl	%eax, -4(%rbp)
	movl	32(%rbp), %eax
	movl	%eax, %ecx
	call	_ZStcoSt13_Ios_Fmtflags
	movl	%eax, %edx
	movq	16(%rbp), %rax
	addq	$24, %rax
	movq	%rax, %rcx
	call	_ZStaNRSt13_Ios_FmtflagsS_
	movl	32(%rbp), %edx
	movl	24(%rbp), %eax
	movl	%eax, %ecx
	call	_ZStanSt13_Ios_FmtflagsS_
	movl	%eax, %edx
	movq	16(%rbp), %rax
	addq	$24, %rax
	movq	%rax, %rcx
	call	_ZStoRRSt13_Ios_FmtflagsS_
	movl	-4(%rbp), %eax
	addq	$48, %rsp
	popq	%rbp
	ret
	.seh_endproc
	.section	.text$_ZSt5fixedRSt8ios_base,"x"
	.linkonce discard
	.globl	_ZSt5fixedRSt8ios_base
	.def	_ZSt5fixedRSt8ios_base;	.scl	2;	.type	32;	.endef
	.seh_proc	_ZSt5fixedRSt8ios_base
_ZSt5fixedRSt8ios_base:
.LFB1837:
	pushq	%rbp
	.seh_pushreg	%rbp
	movq	%rsp, %rbp
	.seh_setframe	%rbp, 0
	subq	$32, %rsp
	.seh_stackalloc	32
	.seh_endprologue
	movq	%rcx, 16(%rbp)
	movq	16(%rbp), %rax
	movl	$260, %r8d
	movl	$4, %edx
	movq	%rax, %rcx
	call	_ZNSt8ios_base4setfESt13_Ios_FmtflagsS0_
	movq	16(%rbp), %rax
	addq	$32, %rsp
	popq	%rbp
	ret
	.seh_endproc
	.section	.text$_ZNSt6chrono8durationIxSt5ratioILx1ELx1000000000EEEC1IxvEERKT_,"x"
	.linkonce discard
	.align 2
	.globl	_ZNSt6chrono8durationIxSt5ratioILx1ELx1000000000EEEC1IxvEERKT_
	.def	_ZNSt6chrono8durationIxSt5ratioILx1ELx1000000000EEEC1IxvEERKT_;	.scl	2;	.type	32;	.endef
	.seh_proc	_ZNSt6chrono8durationIxSt5ratioILx1ELx1000000000EEEC1IxvEERKT_
_ZNSt6chrono8durationIxSt5ratioILx1ELx1000000000EEEC1IxvEERKT_:
.LFB2489:
	pushq	%rbp
	.seh_pushreg	%rbp
	movq	%rsp, %rbp
	.seh_setframe	%rbp, 0
	.seh_endprologue
	movq	%rcx, 16(%rbp)
	movq	%rdx, 24(%rbp)
	movq	24(%rbp), %rax
	movq	(%rax), %rdx
	movq	16(%rbp), %rax
	movq	%rdx, (%rax)
	nop
	popq	%rbp
	ret
	.seh_endproc
	.section	.text$_ZNKSt6chrono8durationIxSt5ratioILx1ELx1000000000EEE5countEv,"x"
	.linkonce discard
	.align 2
	.globl	_ZNKSt6chrono8durationIxSt5ratioILx1ELx1000000000EEE5countEv
	.def	_ZNKSt6chrono8durationIxSt5ratioILx1ELx1000000000EEE5countEv;	.scl	2;	.type	32;	.endef
	.seh_proc	_ZNKSt6chrono8durationIxSt5ratioILx1ELx1000000000EEE5countEv
_ZNKSt6chrono8durationIxSt5ratioILx1ELx1000000000EEE5countEv:
.LFB2491:
	pushq	%rbp
	.seh_pushreg	%rbp
	movq	%rsp, %rbp
	.seh_setframe	%rbp, 0
	.seh_endprologue
	movq	%rcx, 16(%rbp)
	movq	16(%rbp), %rax
	movq	(%rax), %rax
	popq	%rbp
	ret
	.seh_endproc
	.section	.text$_ZSt12setprecisioni,"x"
	.linkonce discard
	.globl	_ZSt12setprecisioni
	.def	_ZSt12setprecisioni;	.scl	2;	.type	32;	.endef
	.seh_proc	_ZSt12setprecisioni
_ZSt12setprecisioni:
.LFB3150:
	pushq	%rbp
	.seh_pushreg	%rbp
	movq	%rsp, %rbp
	.seh_setframe	%rbp, 0
	.seh_endprologue
	movl	%ecx, 16(%rbp)
	movl	16(%rbp), %eax
	popq	%rbp
	ret
	.seh_endproc
.lcomm _ZL6g_sink,8,8
	.section .rdata,"dr"
	.align 8
.LC1:
	.ascii "Montgomery requires odd modulus\12\0"
	.section	.text$_ZN17MontgomeryContextC1Ey,"x"
	.linkonce discard
	.align 2
	.globl	_ZN17MontgomeryContextC1Ey
	.def	_ZN17MontgomeryContextC1Ey;	.scl	2;	.type	32;	.endef
	.seh_proc	_ZN17MontgomeryContextC1Ey
_ZN17MontgomeryContextC1Ey:
.LFB9691:
	pushq	%rbp
	.seh_pushreg	%rbp
	movq	%rsp, %rbp
	.seh_setframe	%rbp, 0
	subq	$32, %rsp
	.seh_stackalloc	32
	.seh_endprologue
	movq	%rcx, 16(%rbp)
	movq	%rdx, 24(%rbp)
	movq	16(%rbp), %rax
	movq	24(%rbp), %rdx
	movq	%rdx, (%rax)
	movq	16(%rbp), %rax
	movq	(%rax), %rax
	andl	$1, %eax
	testq	%rax, %rax
	jne	.L31
	leaq	.LC1(%rip), %rdx
	movq	.refptr._ZSt4cerr(%rip), %rax
	movq	%rax, %rcx
	call	_ZStlsISt11char_traitsIcEERSt13basic_ostreamIcT_ES5_PKc
	call	abort
.L31:
	movq	16(%rbp), %rax
	movq	(%rax), %rax
	movq	%rax, %rcx
	call	_ZN17MontgomeryContext13compute_n_invEy
	movq	16(%rbp), %rdx
	movq	%rax, 8(%rdx)
	movq	16(%rbp), %rax
	movq	(%rax), %rax
	movq	%rax, %rcx
	call	_ZN17MontgomeryContext15compute_r_mod_nEy
	movq	16(%rbp), %rdx
	movq	%rax, 16(%rdx)
	movq	16(%rbp), %rax
	movq	(%rax), %rcx
	movq	16(%rbp), %rax
	movq	16(%rax), %rdx
	movq	16(%rbp), %rax
	movq	16(%rax), %rax
	movq	%rcx, %r8
	movq	%rax, %rcx
	call	_ZN17MontgomeryContext9mulmod128Eyyy
	movq	16(%rbp), %rdx
	movq	%rax, 24(%rdx)
	nop
	addq	$32, %rsp
	popq	%rbp
	ret
	.seh_endproc
	.section	.text$_ZN17MontgomeryContext13compute_n_invEy,"x"
	.linkonce discard
	.globl	_ZN17MontgomeryContext13compute_n_invEy
	.def	_ZN17MontgomeryContext13compute_n_invEy;	.scl	2;	.type	32;	.endef
	.seh_proc	_ZN17MontgomeryContext13compute_n_invEy
_ZN17MontgomeryContext13compute_n_invEy:
.LFB9692:
	pushq	%rbp
	.seh_pushreg	%rbp
	movq	%rsp, %rbp
	.seh_setframe	%rbp, 0
	subq	$16, %rsp
	.seh_stackalloc	16
	.seh_endprologue
	movq	%rcx, 16(%rbp)
	movq	$1, -8(%rbp)
	movl	$0, -12(%rbp)
	jmp	.L33
.L34:
	movq	16(%rbp), %rax
	imulq	-8(%rbp), %rax
	movl	$2, %edx
	subq	%rax, %rdx
	movq	-8(%rbp), %rax
	imulq	%rdx, %rax
	movq	%rax, -8(%rbp)
	addl	$1, -12(%rbp)
.L33:
	cmpl	$5, -12(%rbp)
	jle	.L34
	movq	-8(%rbp), %rax
	addq	$16, %rsp
	popq	%rbp
	ret
	.seh_endproc
	.section	.text$_ZN17MontgomeryContext15compute_r_mod_nEy,"x"
	.linkonce discard
	.globl	_ZN17MontgomeryContext15compute_r_mod_nEy
	.def	_ZN17MontgomeryContext15compute_r_mod_nEy;	.scl	2;	.type	32;	.endef
	.seh_proc	_ZN17MontgomeryContext15compute_r_mod_nEy
_ZN17MontgomeryContext15compute_r_mod_nEy:
.LFB9693:
	pushq	%rbp
	.seh_pushreg	%rbp
	pushq	%rbx
	.seh_pushreg	%rbx
	subq	$104, %rsp
	.seh_stackalloc	104
	leaq	96(%rsp), %rbp
	.seh_setframe	%rbp, 96
	.seh_endprologue
	movq	%rcx, 32(%rbp)
	movl	$0, %eax
	movl	$1, %edx
	movq	%rax, -16(%rbp)
	movq	%rdx, -8(%rbp)
	movq	32(%rbp), %rcx
	movl	$0, %ebx
	movq	-16(%rbp), %rax
	movq	-8(%rbp), %rdx
	leaq	-32(%rbp), %r8
	leaq	-48(%rbp), %r9
	movq	%rax, -32(%rbp)
	movq	%rdx, -24(%rbp)
	movq	%rcx, -48(%rbp)
	movq	%rbx, -40(%rbp)
	movq	%r9, %rdx
	movq	%r8, %rcx
	call	__umodti3
	movaps	%xmm0, -64(%rbp)
	movq	-64(%rbp), %rax
	movq	-56(%rbp), %rdx
	addq	$104, %rsp
	popq	%rbx
	popq	%rbp
	ret
	.seh_endproc
	.section	.text$_ZN17MontgomeryContext9mulmod128Eyyy,"x"
	.linkonce discard
	.globl	_ZN17MontgomeryContext9mulmod128Eyyy
	.def	_ZN17MontgomeryContext9mulmod128Eyyy;	.scl	2;	.type	32;	.endef
	.seh_proc	_ZN17MontgomeryContext9mulmod128Eyyy
_ZN17MontgomeryContext9mulmod128Eyyy:
.LFB9694:
	pushq	%rbp
	.seh_pushreg	%rbp
	pushq	%rbx
	.seh_pushreg	%rbx
	subq	$88, %rsp
	.seh_stackalloc	88
	leaq	80(%rsp), %rbp
	.seh_setframe	%rbp, 80
	.seh_endprologue
	movq	%rcx, 32(%rbp)
	movq	%rdx, 40(%rbp)
	movq	%r8, 48(%rbp)
	movq	32(%rbp), %rax
	movl	$0, %edx
	movq	40(%rbp), %rcx
	movl	$0, %ebx
	movq	%rdx, %r9
	imulq	%rcx, %r9
	movq	%rbx, %r8
	imulq	%rax, %r8
	addq	%r9, %r8
	mulq	%rcx
	leaq	(%r8,%rdx), %rcx
	movq	%rcx, %rdx
	movq	48(%rbp), %rcx
	movl	$0, %ebx
	leaq	-16(%rbp), %r8
	leaq	-32(%rbp), %r9
	movq	%rax, -16(%rbp)
	movq	%rdx, -8(%rbp)
	movq	%rcx, -32(%rbp)
	movq	%rbx, -24(%rbp)
	movq	%r9, %rdx
	movq	%r8, %rcx
	call	__umodti3
	movaps	%xmm0, -48(%rbp)
	movq	-48(%rbp), %rax
	movq	-40(%rbp), %rdx
	addq	$88, %rsp
	popq	%rbx
	popq	%rbp
	ret
	.seh_endproc
	.section	.text$_ZNK17MontgomeryContext4redcEyy,"x"
	.linkonce discard
	.align 2
	.globl	_ZNK17MontgomeryContext4redcEyy
	.def	_ZNK17MontgomeryContext4redcEyy;	.scl	2;	.type	32;	.endef
	.seh_proc	_ZNK17MontgomeryContext4redcEyy
_ZNK17MontgomeryContext4redcEyy:
.LFB9695:
	pushq	%rbp
	.seh_pushreg	%rbp
	pushq	%rbx
	.seh_pushreg	%rbx
	subq	$56, %rsp
	.seh_stackalloc	56
	leaq	48(%rsp), %rbp
	.seh_setframe	%rbp, 48
	.seh_endprologue
	movq	%rcx, 32(%rbp)
	movq	%rdx, 40(%rbp)
	movq	%r8, 48(%rbp)
	movq	32(%rbp), %rax
	movq	8(%rax), %rax
	movq	40(%rbp), %rdx
	imulq	%rdx, %rax
	movq	%rax, -16(%rbp)
	movq	48(%rbp), %rax
	movl	$0, %edx
	movq	%rax, %rdx
	xorl	%eax, %eax
	movq	40(%rbp), %rcx
	movl	$0, %ebx
	orq	%rcx, %rax
	orq	%rbx, %rdx
	movq	%rax, -32(%rbp)
	movq	%rdx, -24(%rbp)
	movq	-16(%rbp), %rax
	movl	$0, %edx
	movq	32(%rbp), %rcx
	movq	(%rcx), %rcx
	movq	%rcx, %rcx
	movl	$0, %ebx
	movq	%rdx, %r9
	imulq	%rcx, %r9
	movq	%rbx, %r8
	imulq	%rax, %r8
	addq	%r9, %r8
	mulq	%rcx
	leaq	(%r8,%rdx), %rcx
	movq	%rcx, %rdx
	movq	%rax, -48(%rbp)
	movq	%rdx, -40(%rbp)
	movq	%rax, -48(%rbp)
	movq	%rdx, -40(%rbp)
	movq	-32(%rbp), %rcx
	movq	-24(%rbp), %rbx
	movq	-48(%rbp), %rax
	movq	-40(%rbp), %rdx
	addq	%rcx, %rax
	adcq	%rbx, %rdx
	movq	%rdx, %rax
	xorl	%edx, %edx
	movq	%rax, -8(%rbp)
	movq	32(%rbp), %rax
	movq	(%rax), %rax
	cmpq	%rax, -8(%rbp)
	jb	.L41
	movq	32(%rbp), %rax
	movq	(%rax), %rax
	subq	%rax, -8(%rbp)
.L41:
	movq	-8(%rbp), %rax
	addq	$56, %rsp
	popq	%rbx
	popq	%rbp
	ret
	.seh_endproc
	.section	.text$_ZNK17MontgomeryContext13to_montgomeryEy,"x"
	.linkonce discard
	.align 2
	.globl	_ZNK17MontgomeryContext13to_montgomeryEy
	.def	_ZNK17MontgomeryContext13to_montgomeryEy;	.scl	2;	.type	32;	.endef
	.seh_proc	_ZNK17MontgomeryContext13to_montgomeryEy
_ZNK17MontgomeryContext13to_montgomeryEy:
.LFB9696:
	pushq	%rbp
	.seh_pushreg	%rbp
	movq	%rsp, %rbp
	.seh_setframe	%rbp, 0
	subq	$32, %rsp
	.seh_stackalloc	32
	.seh_endprologue
	movq	%rcx, 16(%rbp)
	movq	%rdx, 24(%rbp)
	movq	16(%rbp), %rax
	movq	(%rax), %rcx
	movq	16(%rbp), %rax
	movq	24(%rax), %rdx
	movq	24(%rbp), %rax
	movq	%rcx, %r8
	movq	%rax, %rcx
	call	_ZN17MontgomeryContext9mulmod128Eyyy
	addq	$32, %rsp
	popq	%rbp
	ret
	.seh_endproc
	.section	.text$_ZNK17MontgomeryContext15from_montgomeryEy,"x"
	.linkonce discard
	.align 2
	.globl	_ZNK17MontgomeryContext15from_montgomeryEy
	.def	_ZNK17MontgomeryContext15from_montgomeryEy;	.scl	2;	.type	32;	.endef
	.seh_proc	_ZNK17MontgomeryContext15from_montgomeryEy
_ZNK17MontgomeryContext15from_montgomeryEy:
.LFB9697:
	pushq	%rbp
	.seh_pushreg	%rbp
	movq	%rsp, %rbp
	.seh_setframe	%rbp, 0
	subq	$32, %rsp
	.seh_stackalloc	32
	.seh_endprologue
	movq	%rcx, 16(%rbp)
	movq	%rdx, 24(%rbp)
	movq	24(%rbp), %rdx
	movq	16(%rbp), %rax
	movl	$0, %r8d
	movq	%rax, %rcx
	call	_ZNK17MontgomeryContext4redcEyy
	addq	$32, %rsp
	popq	%rbp
	ret
	.seh_endproc
	.section	.text$_ZNK17MontgomeryContext14montgomery_mulEyy,"x"
	.linkonce discard
	.align 2
	.globl	_ZNK17MontgomeryContext14montgomery_mulEyy
	.def	_ZNK17MontgomeryContext14montgomery_mulEyy;	.scl	2;	.type	32;	.endef
	.seh_proc	_ZNK17MontgomeryContext14montgomery_mulEyy
_ZNK17MontgomeryContext14montgomery_mulEyy:
.LFB9698:
	pushq	%rbp
	.seh_pushreg	%rbp
	pushq	%rbx
	.seh_pushreg	%rbx
	subq	$56, %rsp
	.seh_stackalloc	56
	leaq	48(%rsp), %rbp
	.seh_setframe	%rbp, 48
	.seh_endprologue
	movq	%rcx, 32(%rbp)
	movq	%rdx, 40(%rbp)
	movq	%r8, 48(%rbp)
	movq	40(%rbp), %rax
	movl	$0, %edx
	movq	48(%rbp), %rcx
	movl	$0, %ebx
	movq	%rdx, %r9
	imulq	%rcx, %r9
	movq	%rbx, %r8
	imulq	%rax, %r8
	addq	%r9, %r8
	mulq	%rcx
	leaq	(%r8,%rdx), %rcx
	movq	%rcx, %rdx
	movq	%rax, -16(%rbp)
	movq	%rdx, -8(%rbp)
	movq	%rax, -16(%rbp)
	movq	%rdx, -8(%rbp)
	movq	-16(%rbp), %rax
	movq	-8(%rbp), %rdx
	movq	%rdx, %rax
	xorl	%edx, %edx
	movq	%rax, %rcx
	movq	-16(%rbp), %rdx
	movq	32(%rbp), %rax
	movq	%rcx, %r8
	movq	%rax, %rcx
	call	_ZNK17MontgomeryContext4redcEyy
	addq	$56, %rsp
	popq	%rbx
	popq	%rbp
	ret
	.seh_endproc
	.section	.text$_ZNK17MontgomeryContext14montgomery_addEyy,"x"
	.linkonce discard
	.align 2
	.globl	_ZNK17MontgomeryContext14montgomery_addEyy
	.def	_ZNK17MontgomeryContext14montgomery_addEyy;	.scl	2;	.type	32;	.endef
	.seh_proc	_ZNK17MontgomeryContext14montgomery_addEyy
_ZNK17MontgomeryContext14montgomery_addEyy:
.LFB9699:
	pushq	%rbp
	.seh_pushreg	%rbp
	movq	%rsp, %rbp
	.seh_setframe	%rbp, 0
	subq	$16, %rsp
	.seh_stackalloc	16
	.seh_endprologue
	movq	%rcx, 16(%rbp)
	movq	%rdx, 24(%rbp)
	movq	%r8, 32(%rbp)
	movq	24(%rbp), %rdx
	movq	32(%rbp), %rax
	addq	%rdx, %rax
	movq	%rax, -8(%rbp)
	movq	16(%rbp), %rax
	movq	(%rax), %rax
	cmpq	%rax, -8(%rbp)
	jnb	.L50
	movq	-8(%rbp), %rax
	cmpq	24(%rbp), %rax
	jnb	.L51
.L50:
	movq	16(%rbp), %rax
	movq	(%rax), %rax
	subq	%rax, -8(%rbp)
.L51:
	movq	-8(%rbp), %rax
	addq	$16, %rsp
	popq	%rbp
	ret
	.seh_endproc
	.text
	.globl	_Z14classic_modaddyyy
	.def	_Z14classic_modaddyyy;	.scl	2;	.type	32;	.endef
	.seh_proc	_Z14classic_modaddyyy
_Z14classic_modaddyyy:
.LFB9700:
	pushq	%rbp
	.seh_pushreg	%rbp
	movq	%rsp, %rbp
	.seh_setframe	%rbp, 0
	.seh_endprologue
	movq	%rcx, 16(%rbp)
	movq	%rdx, 24(%rbp)
	movq	%r8, 32(%rbp)
	movq	16(%rbp), %rdx
	movq	24(%rbp), %rax
	addq	%rdx, %rax
	movl	$0, %edx
	divq	32(%rbp)
	movq	%rdx, %rax
	popq	%rbp
	ret
	.seh_endproc
	.globl	_Z14classic_modmulyyy
	.def	_Z14classic_modmulyyy;	.scl	2;	.type	32;	.endef
	.seh_proc	_Z14classic_modmulyyy
_Z14classic_modmulyyy:
.LFB9701:
	pushq	%rbp
	.seh_pushreg	%rbp
	pushq	%rbx
	.seh_pushreg	%rbx
	subq	$88, %rsp
	.seh_stackalloc	88
	leaq	80(%rsp), %rbp
	.seh_setframe	%rbp, 80
	.seh_endprologue
	movq	%rcx, 32(%rbp)
	movq	%rdx, 40(%rbp)
	movq	%r8, 48(%rbp)
	movq	32(%rbp), %rax
	movl	$0, %edx
	movq	40(%rbp), %rcx
	movl	$0, %ebx
	movq	%rdx, %r9
	imulq	%rcx, %r9
	movq	%rbx, %r8
	imulq	%rax, %r8
	addq	%r9, %r8
	mulq	%rcx
	leaq	(%r8,%rdx), %rcx
	movq	%rcx, %rdx
	movq	48(%rbp), %rcx
	movl	$0, %ebx
	leaq	-16(%rbp), %r8
	leaq	-32(%rbp), %r9
	movq	%rax, -16(%rbp)
	movq	%rdx, -8(%rbp)
	movq	%rcx, -32(%rbp)
	movq	%rbx, -24(%rbp)
	movq	%r9, %rdx
	movq	%r8, %rcx
	call	__umodti3
	movaps	%xmm0, -48(%rbp)
	movq	-48(%rbp), %rax
	movq	-40(%rbp), %rdx
	addq	$88, %rsp
	popq	%rbx
	popq	%rbp
	ret
	.seh_endproc
	.globl	_Z12reist_modaddxxx
	.def	_Z12reist_modaddxxx;	.scl	2;	.type	32;	.endef
	.seh_proc	_Z12reist_modaddxxx
_Z12reist_modaddxxx:
.LFB9702:
	pushq	%rbp
	.seh_pushreg	%rbp
	movq	%rsp, %rbp
	.seh_setframe	%rbp, 0
	subq	$16, %rsp
	.seh_stackalloc	16
	.seh_endprologue
	movq	%rcx, 16(%rbp)
	movq	%rdx, 24(%rbp)
	movq	%r8, 32(%rbp)
	movq	16(%rbp), %rdx
	movq	24(%rbp), %rax
	addq	%rdx, %rax
	movq	%rax, -8(%rbp)
	movq	32(%rbp), %rax
	sarq	%rax
	movq	%rax, -16(%rbp)
	movq	-8(%rbp), %rax
	cmpq	-16(%rbp), %rax
	jle	.L58
	movq	32(%rbp), %rax
	subq	%rax, -8(%rbp)
.L58:
	movq	-16(%rbp), %rax
	negq	%rax
	cmpq	%rax, -8(%rbp)
	jge	.L59
	movq	32(%rbp), %rax
	addq	%rax, -8(%rbp)
.L59:
	movq	-8(%rbp), %rax
	addq	$16, %rsp
	popq	%rbp
	ret
	.seh_endproc
	.globl	_Z12reist_modmulxxx
	.def	_Z12reist_modmulxxx;	.scl	2;	.type	32;	.endef
	.seh_proc	_Z12reist_modmulxxx
_Z12reist_modmulxxx:
.LFB9703:
	pushq	%rbp
	.seh_pushreg	%rbp
	pushq	%rbx
	.seh_pushreg	%rbx
	subq	$136, %rsp
	.seh_stackalloc	136
	leaq	128(%rsp), %rbp
	.seh_setframe	%rbp, 128
	.seh_endprologue
	movq	%rcx, 32(%rbp)
	movq	%rdx, 40(%rbp)
	movq	%r8, 48(%rbp)
	movq	32(%rbp), %rax
	cqto
	movq	40(%rbp), %rcx
	movq	%rcx, %rbx
	sarq	$63, %rbx
	movq	%rdx, %r9
	imulq	%rcx, %r9
	movq	%rbx, %r8
	imulq	%rax, %r8
	addq	%r9, %r8
	mulq	%rcx
	leaq	(%r8,%rdx), %rcx
	movq	%rcx, %rdx
	movq	%rax, -32(%rbp)
	movq	%rdx, -24(%rbp)
	movq	%rax, -32(%rbp)
	movq	%rdx, -24(%rbp)
	movq	48(%rbp), %rax
	cqto
	movq	-32(%rbp), %rcx
	movq	-24(%rbp), %rbx
	leaq	-64(%rbp), %r8
	leaq	-80(%rbp), %r9
	movq	%rcx, -64(%rbp)
	movq	%rbx, -56(%rbp)
	movq	%rax, -80(%rbp)
	movq	%rdx, -72(%rbp)
	movq	%r9, %rdx
	movq	%r8, %rcx
	call	__modti3
	movaps	%xmm0, -96(%rbp)
	movq	-96(%rbp), %rax
	movq	-88(%rbp), %rdx
	movq	%rax, -8(%rbp)
	movq	48(%rbp), %rax
	sarq	%rax
	movq	%rax, -40(%rbp)
	movq	-8(%rbp), %rax
	cmpq	-40(%rbp), %rax
	jle	.L62
	movq	48(%rbp), %rax
	subq	%rax, -8(%rbp)
.L62:
	movq	-40(%rbp), %rax
	negq	%rax
	cmpq	%rax, -8(%rbp)
	jge	.L63
	movq	48(%rbp), %rax
	addq	%rax, -8(%rbp)
.L63:
	movq	-8(%rbp), %rax
	addq	$136, %rsp
	popq	%rbx
	popq	%rbp
	ret
	.seh_endproc
	.align 2
	.def	_ZZ4mainENKUlxE_clEx;	.scl	3;	.type	32;	.endef
	.seh_proc	_ZZ4mainENKUlxE_clEx
_ZZ4mainENKUlxE_clEx:
.LFB9709:
	pushq	%rbp
	.seh_pushreg	%rbp
	movq	%rsp, %rbp
	.seh_setframe	%rbp, 0
	subq	$48, %rsp
	.seh_stackalloc	48
	.seh_endprologue
	movq	%rcx, 16(%rbp)
	movq	%rdx, 24(%rbp)
	movq	16(%rbp), %rax
	movq	(%rax), %rax
	movq	(%rax), %rax
	movq	%rax, -8(%rbp)
	movq	$0, -16(%rbp)
	jmp	.L66
.L67:
	movq	16(%rbp), %rax
	movq	16(%rax), %rax
	movq	(%rax), %rcx
	movq	16(%rbp), %rax
	movq	8(%rax), %rax
	movq	(%rax), %rdx
	movq	-8(%rbp), %rax
	movq	%rcx, %r8
	movq	%rax, %rcx
	call	_Z14classic_modaddyyy
	movq	%rax, -8(%rbp)
	addq	$1, -16(%rbp)
.L66:
	movq	-16(%rbp), %rax
	cmpq	24(%rbp), %rax
	jl	.L67
	movq	-8(%rbp), %rax
	movq	%rax, _ZL6g_sink(%rip)
	nop
	addq	$48, %rsp
	popq	%rbp
	ret
	.seh_endproc
	.align 2
	.def	_ZZ4mainENKUlxE0_clEx;	.scl	3;	.type	32;	.endef
	.seh_proc	_ZZ4mainENKUlxE0_clEx
_ZZ4mainENKUlxE0_clEx:
.LFB9710:
	pushq	%rbp
	.seh_pushreg	%rbp
	movq	%rsp, %rbp
	.seh_setframe	%rbp, 0
	subq	$48, %rsp
	.seh_stackalloc	48
	.seh_endprologue
	movq	%rcx, 16(%rbp)
	movq	%rdx, 24(%rbp)
	movq	16(%rbp), %rax
	movq	(%rax), %rax
	movq	(%rax), %rax
	movq	%rax, -8(%rbp)
	movq	$0, -16(%rbp)
	jmp	.L69
.L70:
	movq	16(%rbp), %rax
	movq	16(%rax), %rax
	movq	(%rax), %rax
	movq	%rax, %rcx
	movq	16(%rbp), %rax
	movq	8(%rax), %rax
	movq	(%rax), %rdx
	movq	-8(%rbp), %rax
	movq	%rcx, %r8
	movq	%rax, %rcx
	call	_Z12reist_modaddxxx
	movq	%rax, -8(%rbp)
	addq	$1, -16(%rbp)
.L69:
	movq	-16(%rbp), %rax
	cmpq	24(%rbp), %rax
	jl	.L70
	cmpq	$0, -8(%rbp)
	jns	.L71
	movq	16(%rbp), %rax
	movq	16(%rax), %rax
	movq	(%rax), %rdx
	movq	-8(%rbp), %rax
	addq	%rdx, %rax
	jmp	.L72
.L71:
	movq	-8(%rbp), %rax
.L72:
	movq	%rax, _ZL6g_sink(%rip)
	nop
	addq	$48, %rsp
	popq	%rbp
	ret
	.seh_endproc
	.align 2
	.def	_ZZ4mainENKUlxE1_clEx;	.scl	3;	.type	32;	.endef
	.seh_proc	_ZZ4mainENKUlxE1_clEx
_ZZ4mainENKUlxE1_clEx:
.LFB9711:
	pushq	%rbp
	.seh_pushreg	%rbp
	movq	%rsp, %rbp
	.seh_setframe	%rbp, 0
	subq	$48, %rsp
	.seh_stackalloc	48
	.seh_endprologue
	movq	%rcx, 16(%rbp)
	movq	%rdx, 24(%rbp)
	movq	16(%rbp), %rax
	movq	(%rax), %rax
	movq	(%rax), %rax
	movq	%rax, -8(%rbp)
	movq	$0, -16(%rbp)
	jmp	.L74
.L75:
	movq	16(%rbp), %rax
	movq	8(%rax), %rax
	movq	16(%rbp), %rdx
	movq	16(%rdx), %rdx
	movq	(%rdx), %rcx
	movq	-8(%rbp), %rdx
	movq	%rcx, %r8
	movq	%rax, %rcx
	call	_ZNK17MontgomeryContext14montgomery_addEyy
	movq	%rax, -8(%rbp)
	addq	$1, -16(%rbp)
.L74:
	movq	-16(%rbp), %rax
	cmpq	24(%rbp), %rax
	jl	.L75
	movq	16(%rbp), %rax
	movq	8(%rax), %rax
	movq	-8(%rbp), %rdx
	movq	%rax, %rcx
	call	_ZNK17MontgomeryContext15from_montgomeryEy
	movq	%rax, _ZL6g_sink(%rip)
	nop
	addq	$48, %rsp
	popq	%rbp
	ret
	.seh_endproc
	.align 2
	.def	_ZZ4mainENKUlxE2_clEx;	.scl	3;	.type	32;	.endef
	.seh_proc	_ZZ4mainENKUlxE2_clEx
_ZZ4mainENKUlxE2_clEx:
.LFB9712:
	pushq	%rbp
	.seh_pushreg	%rbp
	movq	%rsp, %rbp
	.seh_setframe	%rbp, 0
	subq	$48, %rsp
	.seh_stackalloc	48
	.seh_endprologue
	movq	%rcx, 16(%rbp)
	movq	%rdx, 24(%rbp)
	movq	16(%rbp), %rax
	movq	(%rax), %rax
	movq	(%rax), %rax
	movq	%rax, -8(%rbp)
	movq	$0, -16(%rbp)
	jmp	.L77
.L78:
	movq	16(%rbp), %rax
	movq	16(%rax), %rax
	movq	(%rax), %rcx
	movq	16(%rbp), %rax
	movq	8(%rax), %rax
	movq	(%rax), %rdx
	movq	-8(%rbp), %rax
	movq	%rcx, %r8
	movq	%rax, %rcx
	call	_Z14classic_modmulyyy
	movq	%rax, -8(%rbp)
	addq	$1, -16(%rbp)
.L77:
	movq	-16(%rbp), %rax
	cmpq	24(%rbp), %rax
	jl	.L78
	movq	-8(%rbp), %rax
	movq	%rax, _ZL6g_sink(%rip)
	nop
	addq	$48, %rsp
	popq	%rbp
	ret
	.seh_endproc
	.align 2
	.def	_ZZ4mainENKUlxE3_clEx;	.scl	3;	.type	32;	.endef
	.seh_proc	_ZZ4mainENKUlxE3_clEx
_ZZ4mainENKUlxE3_clEx:
.LFB9713:
	pushq	%rbp
	.seh_pushreg	%rbp
	movq	%rsp, %rbp
	.seh_setframe	%rbp, 0
	subq	$48, %rsp
	.seh_stackalloc	48
	.seh_endprologue
	movq	%rcx, 16(%rbp)
	movq	%rdx, 24(%rbp)
	movq	16(%rbp), %rax
	movq	(%rax), %rax
	movq	(%rax), %rax
	movq	%rax, -8(%rbp)
	movq	$0, -16(%rbp)
	jmp	.L80
.L81:
	movq	16(%rbp), %rax
	movq	16(%rax), %rax
	movq	(%rax), %rax
	movq	%rax, %rcx
	movq	16(%rbp), %rax
	movq	8(%rax), %rax
	movq	(%rax), %rdx
	movq	-8(%rbp), %rax
	movq	%rcx, %r8
	movq	%rax, %rcx
	call	_Z12reist_modmulxxx
	movq	%rax, -8(%rbp)
	addq	$1, -16(%rbp)
.L80:
	movq	-16(%rbp), %rax
	cmpq	24(%rbp), %rax
	jl	.L81
	cmpq	$0, -8(%rbp)
	jns	.L82
	movq	16(%rbp), %rax
	movq	16(%rax), %rax
	movq	(%rax), %rdx
	movq	-8(%rbp), %rax
	addq	%rdx, %rax
	jmp	.L83
.L82:
	movq	-8(%rbp), %rax
.L83:
	movq	%rax, _ZL6g_sink(%rip)
	nop
	addq	$48, %rsp
	popq	%rbp
	ret
	.seh_endproc
	.align 2
	.def	_ZZ4mainENKUlxE4_clEx;	.scl	3;	.type	32;	.endef
	.seh_proc	_ZZ4mainENKUlxE4_clEx
_ZZ4mainENKUlxE4_clEx:
.LFB9714:
	pushq	%rbp
	.seh_pushreg	%rbp
	movq	%rsp, %rbp
	.seh_setframe	%rbp, 0
	subq	$48, %rsp
	.seh_stackalloc	48
	.seh_endprologue
	movq	%rcx, 16(%rbp)
	movq	%rdx, 24(%rbp)
	movq	16(%rbp), %rax
	movq	(%rax), %rax
	movq	(%rax), %rax
	movq	%rax, -8(%rbp)
	movq	$0, -16(%rbp)
	jmp	.L85
.L86:
	movq	16(%rbp), %rax
	movq	8(%rax), %rax
	movq	16(%rbp), %rdx
	movq	16(%rdx), %rdx
	movq	(%rdx), %rcx
	movq	-8(%rbp), %rdx
	movq	%rcx, %r8
	movq	%rax, %rcx
	call	_ZNK17MontgomeryContext14montgomery_mulEyy
	movq	%rax, -8(%rbp)
	addq	$1, -16(%rbp)
.L85:
	movq	-16(%rbp), %rax
	cmpq	24(%rbp), %rax
	jl	.L86
	movq	16(%rbp), %rax
	movq	8(%rax), %rax
	movq	-8(%rbp), %rdx
	movq	%rax, %rcx
	call	_ZNK17MontgomeryContext15from_montgomeryEy
	movq	%rax, _ZL6g_sink(%rip)
	nop
	addq	$48, %rsp
	popq	%rbp
	ret
	.seh_endproc
	.align 2
	.def	_ZZ4mainENKUlxE5_clEx;	.scl	3;	.type	32;	.endef
	.seh_proc	_ZZ4mainENKUlxE5_clEx
_ZZ4mainENKUlxE5_clEx:
.LFB9715:
	pushq	%rbp
	.seh_pushreg	%rbp
	movq	%rsp, %rbp
	.seh_setframe	%rbp, 0
	subq	$64, %rsp
	.seh_stackalloc	64
	.seh_endprologue
	movq	%rcx, 16(%rbp)
	movq	%rdx, 24(%rbp)
	movq	16(%rbp), %rax
	movq	(%rax), %rax
	movq	(%rax), %rax
	movq	%rax, -8(%rbp)
	movq	16(%rbp), %rax
	movq	8(%rax), %rax
	movq	(%rax), %rax
	movq	%rax, -16(%rbp)
	movq	$0, -24(%rbp)
	movq	$0, -32(%rbp)
	jmp	.L88
.L89:
	movq	-32(%rbp), %rdx
	movq	-8(%rbp), %rax
	addq	%rdx, %rax
	addq	$1, %rax
	movq	%rax, -8(%rbp)
	movq	-8(%rbp), %rax
	xorq	%rax, -16(%rbp)
	movq	16(%rbp), %rax
	movq	16(%rax), %rax
	movq	(%rax), %r8
	movq	16(%rbp), %rax
	movq	16(%rax), %rax
	movq	(%rax), %rcx
	movq	-16(%rbp), %rax
	movl	$0, %edx
	divq	%rcx
	movq	%rdx, %r9
	movq	16(%rbp), %rax
	movq	16(%rax), %rax
	movq	(%rax), %rcx
	movq	-8(%rbp), %rax
	movl	$0, %edx
	divq	%rcx
	movq	%rdx, %rax
	movq	%r9, %rdx
	movq	%rax, %rcx
	call	_Z14classic_modmulyyy
	movq	%rax, -24(%rbp)
	addq	$1, -32(%rbp)
.L88:
	movq	-32(%rbp), %rax
	cmpq	24(%rbp), %rax
	jl	.L89
	movq	-24(%rbp), %rax
	movq	%rax, _ZL6g_sink(%rip)
	nop
	addq	$64, %rsp
	popq	%rbp
	ret
	.seh_endproc
	.align 2
	.def	_ZZ4mainENKUlxE6_clEx;	.scl	3;	.type	32;	.endef
	.seh_proc	_ZZ4mainENKUlxE6_clEx
_ZZ4mainENKUlxE6_clEx:
.LFB9716:
	pushq	%rbp
	.seh_pushreg	%rbp
	pushq	%rbx
	.seh_pushreg	%rbx
	subq	$88, %rsp
	.seh_stackalloc	88
	leaq	80(%rsp), %rbp
	.seh_setframe	%rbp, 80
	.seh_endprologue
	movq	%rcx, 32(%rbp)
	movq	%rdx, 40(%rbp)
	movq	32(%rbp), %rax
	movq	(%rax), %rax
	movq	(%rax), %rax
	movq	%rax, -8(%rbp)
	movq	32(%rbp), %rax
	movq	8(%rax), %rax
	movq	(%rax), %rax
	movq	%rax, -16(%rbp)
	movq	$0, -24(%rbp)
	movq	$0, -32(%rbp)
	jmp	.L91
.L92:
	movq	-32(%rbp), %rdx
	movq	-8(%rbp), %rax
	addq	%rdx, %rax
	addq	$1, %rax
	movq	%rax, -8(%rbp)
	movq	-8(%rbp), %rax
	xorq	%rax, -16(%rbp)
	movq	32(%rbp), %rax
	movq	16(%rax), %rcx
	movq	32(%rbp), %rax
	movq	24(%rax), %rax
	movq	(%rax), %r8
	movq	-8(%rbp), %rax
	movl	$0, %edx
	divq	%r8
	movq	%rdx, %rax
	movq	%rax, %rdx
	call	_ZNK17MontgomeryContext13to_montgomeryEy
	movq	%rax, -40(%rbp)
	movq	32(%rbp), %rax
	movq	16(%rax), %rcx
	movq	32(%rbp), %rax
	movq	24(%rax), %rax
	movq	(%rax), %r8
	movq	-16(%rbp), %rax
	movl	$0, %edx
	divq	%r8
	movq	%rdx, %rax
	movq	%rax, %rdx
	call	_ZNK17MontgomeryContext13to_montgomeryEy
	movq	%rax, -48(%rbp)
	movq	32(%rbp), %rax
	movq	16(%rax), %rbx
	movq	32(%rbp), %rax
	movq	16(%rax), %rax
	movq	-48(%rbp), %rcx
	movq	-40(%rbp), %rdx
	movq	%rcx, %r8
	movq	%rax, %rcx
	call	_ZNK17MontgomeryContext14montgomery_mulEyy
	movq	%rax, %rdx
	movq	%rbx, %rcx
	call	_ZNK17MontgomeryContext15from_montgomeryEy
	movq	%rax, -24(%rbp)
	addq	$1, -32(%rbp)
.L91:
	movq	-32(%rbp), %rax
	cmpq	40(%rbp), %rax
	jl	.L92
	movq	-24(%rbp), %rax
	movq	%rax, _ZL6g_sink(%rip)
	nop
	addq	$88, %rsp
	popq	%rbx
	popq	%rbp
	ret
	.seh_endproc
	.section .rdata,"dr"
	.align 8
.LC2:
	.ascii "========================================\12\0"
	.align 8
.LC3:
	.ascii "REIST vs Montgomery Arithmetic Benchmark\12\0"
	.align 8
.LC4:
	.ascii "Total operations per modulus = \0"
.LC5:
	.ascii "\12\12\0"
.LC6:
	.ascii "Modulus = \0"
.LC7:
	.ascii "\12\0"
.LC8:
	.ascii "\12--- Modular Addition ---\12\0"
.LC9:
	.ascii "Classic     : \0"
.LC10:
	.ascii " s\12\0"
.LC11:
	.ascii "REIST       : \0"
.LC12:
	.ascii "Montgomery  : \0"
	.align 8
.LC13:
	.ascii "\12--- Modular Multiplication ---\12\0"
	.align 8
.LC14:
	.ascii "\12--- Full Cycle (with conversion) ---\12\0"
.LC15:
	.ascii "Classic full    : \0"
.LC16:
	.ascii "Montgomery full : \0"
.LC17:
	.ascii "Overhead vs classic: \0"
.LC20:
	.ascii " %\12\12\0"
	.text
	.globl	main
	.def	main;	.scl	2;	.type	32;	.endef
	.seh_proc	main
main:
.LFB9705:
	pushq	%rbp
	.seh_pushreg	%rbp
	pushq	%rdi
	.seh_pushreg	%rdi
	pushq	%rsi
	.seh_pushreg	%rsi
	pushq	%rbx
	.seh_pushreg	%rbx
	subq	$616, %rsp
	.seh_stackalloc	616
	leaq	128(%rsp), %rbp
	.seh_setframe	%rbp, 128
	.seh_endprologue
	movl	%ecx, 528(%rbp)
	movq	%rdx, 536(%rbp)
	call	__main
	movq	$10000000, 472(%rbp)
	cmpl	$1, 528(%rbp)
	jle	.L94
	leaq	110(%rbp), %rax
	movq	%rax, 392(%rbp)
	nop
	nop
	movq	536(%rbp), %rax
	addq	$8, %rax
	movq	(%rax), %rdx
	leaq	110(%rbp), %rcx
	leaq	64(%rbp), %rax
	movq	%rcx, %r8
	movq	%rax, %rcx
.LEHB0:
	call	_ZNSt7__cxx1112basic_stringIcSt11char_traitsIcESaIcEEC1IS3_EEPKcRKS3_
.LEHE0:
	leaq	64(%rbp), %rax
	movl	$10, %r8d
	movl	$0, %edx
	movq	%rax, %rcx
.LEHB1:
	call	_ZNSt7__cxx115stollERKNS_12basic_stringIcSt11char_traitsIcESaIcEEEPyi
.LEHE1:
	movq	%rax, 472(%rbp)
	leaq	64(%rbp), %rax
	movq	%rax, %rcx
	call	_ZNSt7__cxx1112basic_stringIcSt11char_traitsIcESaIcEED1Ev
	leaq	110(%rbp), %rax
	movq	%rax, %rcx
	call	_ZNSt15__new_allocatorIcED2Ev
	nop
.L94:
	leaq	C.0.0(%rip), %rsi
	movl	$6, %edi
	leaq	111(%rbp), %rax
	movq	%rax, 384(%rbp)
	nop
	nop
	movq	%rsi, -96(%rbp)
	movq	%rdi, -88(%rbp)
	leaq	111(%rbp), %rcx
	leaq	-96(%rbp), %rdx
	leaq	32(%rbp), %rax
	movq	%rcx, %r8
	movq	%rax, %rcx
.LEHB2:
	call	_ZNSt6vectorIySaIyEEC1ESt16initializer_listIyERKS0_
.LEHE2:
	leaq	111(%rbp), %rax
	movq	%rax, %rcx
	call	_ZNSt15__new_allocatorIyED2Ev
	nop
	leaq	_ZSt5fixedRSt8ios_base(%rip), %rax
	movq	%rax, %rdx
	movq	.refptr._ZSt4cout(%rip), %rax
	movq	%rax, %rcx
.LEHB3:
	call	_ZNSolsEPFRSt8ios_baseS0_E
	movq	%rax, %rbx
	movl	$9, %ecx
	call	_ZSt12setprecisioni
	movl	%eax, %edx
	movq	%rbx, %rcx
	call	_ZStlsIcSt11char_traitsIcEERSt13basic_ostreamIT_T0_ES6_St13_Setprecision
	leaq	.LC2(%rip), %rdx
	movq	.refptr._ZSt4cout(%rip), %rax
	movq	%rax, %rcx
	call	_ZStlsISt11char_traitsIcEERSt13basic_ostreamIcT_ES5_PKc
	leaq	.LC3(%rip), %rdx
	movq	.refptr._ZSt4cout(%rip), %rax
	movq	%rax, %rcx
	call	_ZStlsISt11char_traitsIcEERSt13basic_ostreamIcT_ES5_PKc
	leaq	.LC2(%rip), %rdx
	movq	.refptr._ZSt4cout(%rip), %rax
	movq	%rax, %rcx
	call	_ZStlsISt11char_traitsIcEERSt13basic_ostreamIcT_ES5_PKc
	leaq	.LC4(%rip), %rdx
	movq	.refptr._ZSt4cout(%rip), %rax
	movq	%rax, %rcx
	call	_ZStlsISt11char_traitsIcEERSt13basic_ostreamIcT_ES5_PKc
	movq	%rax, %rcx
	movq	472(%rbp), %rax
	movq	%rax, %rdx
	call	_ZNSolsEx
	movq	%rax, %rcx
	leaq	.LC5(%rip), %rax
	movq	%rax, %rdx
	call	_ZStlsISt11char_traitsIcEERSt13basic_ostreamIcT_ES5_PKc
	leaq	32(%rbp), %rax
	movq	%rax, 464(%rbp)
	movq	464(%rbp), %rax
	movq	%rax, %rcx
	call	_ZNSt6vectorIySaIyEE5beginEv
	movq	%rax, 16(%rbp)
	movq	464(%rbp), %rax
	movq	%rax, %rcx
	call	_ZNSt6vectorIySaIyEE3endEv
	movq	%rax, 8(%rbp)
	jmp	.L95
.L101:
	movq	16(%rbp), %rax
	movq	(%rax), %rax
	movq	%rax, 24(%rbp)
	leaq	.LC2(%rip), %rdx
	movq	.refptr._ZSt4cout(%rip), %rax
	movq	%rax, %rcx
	call	_ZStlsISt11char_traitsIcEERSt13basic_ostreamIcT_ES5_PKc
	leaq	.LC6(%rip), %rdx
	movq	.refptr._ZSt4cout(%rip), %rax
	movq	%rax, %rcx
	call	_ZStlsISt11char_traitsIcEERSt13basic_ostreamIcT_ES5_PKc
	movq	%rax, %rcx
	movq	24(%rbp), %rax
	movq	%rax, %rdx
	call	_ZNSolsEy
	movq	%rax, %rcx
	leaq	.LC7(%rip), %rax
	movq	%rax, %rdx
	call	_ZStlsISt11char_traitsIcEERSt13basic_ostreamIcT_ES5_PKc
	leaq	.LC2(%rip), %rdx
	movq	.refptr._ZSt4cout(%rip), %rax
	movq	%rax, %rcx
	call	_ZStlsISt11char_traitsIcEERSt13basic_ostreamIcT_ES5_PKc
	movq	24(%rbp), %rdx
	leaq	-80(%rbp), %rax
	movq	%rax, %rcx
	call	_ZN17MontgomeryContextC1Ey
	movq	24(%rbp), %rcx
	movl	$1234567, %eax
	movl	$0, %edx
	divq	%rcx
	movq	%rdx, %rax
	movq	%rax, 0(%rbp)
	movq	24(%rbp), %rcx
	movl	$89101112, %eax
	movl	$0, %edx
	divq	%rcx
	movq	%rdx, %rax
	movq	%rax, -8(%rbp)
	movq	0(%rbp), %rax
	movq	%rax, -16(%rbp)
	movq	-8(%rbp), %rax
	movq	%rax, -24(%rbp)
	movq	%rbp, %rax
	movq	%rax, 112(%rbp)
	leaq	-8(%rbp), %rax
	movq	%rax, 120(%rbp)
	leaq	24(%rbp), %rax
	movq	%rax, 128(%rbp)
	movq	472(%rbp), %rdx
	leaq	112(%rbp), %rax
	movq	%rax, %rcx
	call	_Z9time_loopIZ4mainEUlxE_EdOT_x
	movq	%xmm0, %rax
	movq	%rax, 456(%rbp)
	leaq	-16(%rbp), %rax
	movq	%rax, 144(%rbp)
	leaq	-24(%rbp), %rax
	movq	%rax, 152(%rbp)
	leaq	24(%rbp), %rax
	movq	%rax, 160(%rbp)
	movq	472(%rbp), %rdx
	leaq	144(%rbp), %rax
	movq	%rax, %rcx
	call	_Z9time_loopIZ4mainEUlxE0_EdOT_x
	movq	%xmm0, %rax
	movq	%rax, 448(%rbp)
	movq	0(%rbp), %rdx
	leaq	-80(%rbp), %rax
	movq	%rax, %rcx
	call	_ZNK17MontgomeryContext13to_montgomeryEy
	movq	%rax, -32(%rbp)
	movq	-8(%rbp), %rdx
	leaq	-80(%rbp), %rax
	movq	%rax, %rcx
	call	_ZNK17MontgomeryContext13to_montgomeryEy
	movq	%rax, -40(%rbp)
	leaq	-32(%rbp), %rax
	movq	%rax, 176(%rbp)
	leaq	-80(%rbp), %rax
	movq	%rax, 184(%rbp)
	leaq	-40(%rbp), %rax
	movq	%rax, 192(%rbp)
	movq	472(%rbp), %rdx
	leaq	176(%rbp), %rax
	movq	%rax, %rcx
	call	_Z9time_loopIZ4mainEUlxE1_EdOT_x
	movq	%xmm0, %rax
	movq	%rax, 440(%rbp)
	leaq	.LC8(%rip), %rdx
	movq	.refptr._ZSt4cout(%rip), %rax
	movq	%rax, %rcx
	call	_ZStlsISt11char_traitsIcEERSt13basic_ostreamIcT_ES5_PKc
	leaq	.LC9(%rip), %rdx
	movq	.refptr._ZSt4cout(%rip), %rax
	movq	%rax, %rcx
	call	_ZStlsISt11char_traitsIcEERSt13basic_ostreamIcT_ES5_PKc
	movsd	456(%rbp), %xmm0
	movapd	%xmm0, %xmm1
	movq	%rax, %rcx
	call	_ZNSolsEd
	movq	%rax, %rcx
	leaq	.LC10(%rip), %rax
	movq	%rax, %rdx
	call	_ZStlsISt11char_traitsIcEERSt13basic_ostreamIcT_ES5_PKc
	leaq	.LC11(%rip), %rdx
	movq	.refptr._ZSt4cout(%rip), %rax
	movq	%rax, %rcx
	call	_ZStlsISt11char_traitsIcEERSt13basic_ostreamIcT_ES5_PKc
	movsd	448(%rbp), %xmm0
	movapd	%xmm0, %xmm1
	movq	%rax, %rcx
	call	_ZNSolsEd
	movq	%rax, %rcx
	leaq	.LC10(%rip), %rax
	movq	%rax, %rdx
	call	_ZStlsISt11char_traitsIcEERSt13basic_ostreamIcT_ES5_PKc
	leaq	.LC12(%rip), %rdx
	movq	.refptr._ZSt4cout(%rip), %rax
	movq	%rax, %rcx
	call	_ZStlsISt11char_traitsIcEERSt13basic_ostreamIcT_ES5_PKc
	movsd	440(%rbp), %xmm0
	movapd	%xmm0, %xmm1
	movq	%rax, %rcx
	call	_ZNSolsEd
	movq	%rax, %rcx
	leaq	.LC10(%rip), %rax
	movq	%rax, %rdx
	call	_ZStlsISt11char_traitsIcEERSt13basic_ostreamIcT_ES5_PKc
	movq	%rbp, %rax
	movq	%rax, 208(%rbp)
	leaq	-8(%rbp), %rax
	movq	%rax, 216(%rbp)
	leaq	24(%rbp), %rax
	movq	%rax, 224(%rbp)
	movq	472(%rbp), %rdx
	leaq	208(%rbp), %rax
	movq	%rax, %rcx
	call	_Z9time_loopIZ4mainEUlxE2_EdOT_x
	movq	%xmm0, %rax
	movq	%rax, 432(%rbp)
	leaq	-16(%rbp), %rax
	movq	%rax, 240(%rbp)
	leaq	-24(%rbp), %rax
	movq	%rax, 248(%rbp)
	leaq	24(%rbp), %rax
	movq	%rax, 256(%rbp)
	movq	472(%rbp), %rdx
	leaq	240(%rbp), %rax
	movq	%rax, %rcx
	call	_Z9time_loopIZ4mainEUlxE3_EdOT_x
	movq	%xmm0, %rax
	movq	%rax, 424(%rbp)
	leaq	-32(%rbp), %rax
	movq	%rax, 272(%rbp)
	leaq	-80(%rbp), %rax
	movq	%rax, 280(%rbp)
	leaq	-40(%rbp), %rax
	movq	%rax, 288(%rbp)
	movq	472(%rbp), %rdx
	leaq	272(%rbp), %rax
	movq	%rax, %rcx
	call	_Z9time_loopIZ4mainEUlxE4_EdOT_x
	movq	%xmm0, %rax
	movq	%rax, 416(%rbp)
	leaq	.LC13(%rip), %rdx
	movq	.refptr._ZSt4cout(%rip), %rax
	movq	%rax, %rcx
	call	_ZStlsISt11char_traitsIcEERSt13basic_ostreamIcT_ES5_PKc
	leaq	.LC9(%rip), %rdx
	movq	.refptr._ZSt4cout(%rip), %rax
	movq	%rax, %rcx
	call	_ZStlsISt11char_traitsIcEERSt13basic_ostreamIcT_ES5_PKc
	movsd	432(%rbp), %xmm0
	movapd	%xmm0, %xmm1
	movq	%rax, %rcx
	call	_ZNSolsEd
	movq	%rax, %rcx
	leaq	.LC10(%rip), %rax
	movq	%rax, %rdx
	call	_ZStlsISt11char_traitsIcEERSt13basic_ostreamIcT_ES5_PKc
	leaq	.LC11(%rip), %rdx
	movq	.refptr._ZSt4cout(%rip), %rax
	movq	%rax, %rcx
	call	_ZStlsISt11char_traitsIcEERSt13basic_ostreamIcT_ES5_PKc
	movsd	424(%rbp), %xmm0
	movapd	%xmm0, %xmm1
	movq	%rax, %rcx
	call	_ZNSolsEd
	movq	%rax, %rcx
	leaq	.LC10(%rip), %rax
	movq	%rax, %rdx
	call	_ZStlsISt11char_traitsIcEERSt13basic_ostreamIcT_ES5_PKc
	leaq	.LC12(%rip), %rdx
	movq	.refptr._ZSt4cout(%rip), %rax
	movq	%rax, %rcx
	call	_ZStlsISt11char_traitsIcEERSt13basic_ostreamIcT_ES5_PKc
	movsd	416(%rbp), %xmm0
	movapd	%xmm0, %xmm1
	movq	%rax, %rcx
	call	_ZNSolsEd
	movq	%rax, %rcx
	leaq	.LC10(%rip), %rax
	movq	%rax, %rdx
	call	_ZStlsISt11char_traitsIcEERSt13basic_ostreamIcT_ES5_PKc
	movq	%rbp, %rax
	movq	%rax, 304(%rbp)
	leaq	-8(%rbp), %rax
	movq	%rax, 312(%rbp)
	leaq	24(%rbp), %rax
	movq	%rax, 320(%rbp)
	movq	472(%rbp), %rdx
	leaq	304(%rbp), %rax
	movq	%rax, %rcx
	call	_Z9time_loopIZ4mainEUlxE5_EdOT_x
	movq	%xmm0, %rax
	movq	%rax, 408(%rbp)
	movq	%rbp, %rax
	movq	%rax, 336(%rbp)
	leaq	-8(%rbp), %rax
	movq	%rax, 344(%rbp)
	leaq	-80(%rbp), %rax
	movq	%rax, 352(%rbp)
	leaq	24(%rbp), %rax
	movq	%rax, 360(%rbp)
	movq	472(%rbp), %rdx
	leaq	336(%rbp), %rax
	movq	%rax, %rcx
	call	_Z9time_loopIZ4mainEUlxE6_EdOT_x
	movq	%xmm0, %rax
	movq	%rax, 400(%rbp)
	leaq	.LC14(%rip), %rdx
	movq	.refptr._ZSt4cout(%rip), %rax
	movq	%rax, %rcx
	call	_ZStlsISt11char_traitsIcEERSt13basic_ostreamIcT_ES5_PKc
	leaq	.LC15(%rip), %rdx
	movq	.refptr._ZSt4cout(%rip), %rax
	movq	%rax, %rcx
	call	_ZStlsISt11char_traitsIcEERSt13basic_ostreamIcT_ES5_PKc
	movsd	408(%rbp), %xmm0
	movapd	%xmm0, %xmm1
	movq	%rax, %rcx
	call	_ZNSolsEd
	movq	%rax, %rcx
	leaq	.LC10(%rip), %rax
	movq	%rax, %rdx
	call	_ZStlsISt11char_traitsIcEERSt13basic_ostreamIcT_ES5_PKc
	leaq	.LC16(%rip), %rdx
	movq	.refptr._ZSt4cout(%rip), %rax
	movq	%rax, %rcx
	call	_ZStlsISt11char_traitsIcEERSt13basic_ostreamIcT_ES5_PKc
	movsd	400(%rbp), %xmm0
	movapd	%xmm0, %xmm1
	movq	%rax, %rcx
	call	_ZNSolsEd
	movq	%rax, %rcx
	leaq	.LC10(%rip), %rax
	movq	%rax, %rdx
	call	_ZStlsISt11char_traitsIcEERSt13basic_ostreamIcT_ES5_PKc
	leaq	.LC17(%rip), %rdx
	movq	.refptr._ZSt4cout(%rip), %rax
	movq	%rax, %rcx
	call	_ZStlsISt11char_traitsIcEERSt13basic_ostreamIcT_ES5_PKc
	movsd	400(%rbp), %xmm0
	divsd	408(%rbp), %xmm0
	movsd	.LC18(%rip), %xmm2
	movapd	%xmm0, %xmm1
	subsd	%xmm2, %xmm1
	movsd	.LC19(%rip), %xmm0
	mulsd	%xmm1, %xmm0
	movapd	%xmm0, %xmm1
	movq	%rax, %rcx
	call	_ZNSolsEd
	movq	%rax, %rcx
	leaq	.LC20(%rip), %rax
	movq	%rax, %rdx
	call	_ZStlsISt11char_traitsIcEERSt13basic_ostreamIcT_ES5_PKc
.LEHE3:
	movq	16(%rbp), %rax
	addq	$8, %rax
	movq	%rax, 16(%rbp)
	nop
.L95:
	leaq	16(%rbp), %rax
	movq	%rax, 376(%rbp)
	movq	376(%rbp), %rax
	movq	(%rax), %rdx
	leaq	8(%rbp), %rax
	movq	%rax, 368(%rbp)
	movq	368(%rbp), %rax
	movq	(%rax), %rax
	cmpq	%rax, %rdx
	setne	%al
	testb	%al, %al
	jne	.L101
	movl	$0, %ebx
	leaq	32(%rbp), %rax
	movq	%rax, %rcx
	call	_ZNSt6vectorIySaIyEED1Ev
	movl	%ebx, %eax
	jmp	.L111
.L108:
	movq	%rax, %rbx
	leaq	64(%rbp), %rax
	movq	%rax, %rcx
	call	_ZNSt7__cxx1112basic_stringIcSt11char_traitsIcESaIcEED1Ev
	jmp	.L104
.L107:
	movq	%rax, %rbx
.L104:
	leaq	110(%rbp), %rax
	movq	%rax, %rcx
	call	_ZNSt15__new_allocatorIcED2Ev
	nop
	movq	%rbx, %rax
	movq	%rax, %rcx
.LEHB4:
	call	_Unwind_Resume
.L109:
	movq	%rax, %rbx
	leaq	111(%rbp), %rax
	movq	%rax, %rcx
	call	_ZNSt15__new_allocatorIyED2Ev
	nop
	movq	%rbx, %rax
	movq	%rax, %rcx
	call	_Unwind_Resume
.L110:
	movq	%rax, %rbx
	leaq	32(%rbp), %rax
	movq	%rax, %rcx
	call	_ZNSt6vectorIySaIyEED1Ev
	movq	%rbx, %rax
	movq	%rax, %rcx
	call	_Unwind_Resume
.LEHE4:
.L111:
	addq	$616, %rsp
	popq	%rbx
	popq	%rsi
	popq	%rdi
	popq	%rbp
	ret
	.seh_handler	__gxx_personality_seh0, @unwind, @except
	.seh_handlerdata
.LLSDA9705:
	.byte	0xff
	.byte	0xff
	.byte	0x1
	.uleb128 .LLSDACSE9705-.LLSDACSB9705
.LLSDACSB9705:
	.uleb128 .LEHB0-.LFB9705
	.uleb128 .LEHE0-.LEHB0
	.uleb128 .L107-.LFB9705
	.uleb128 0
	.uleb128 .LEHB1-.LFB9705
	.uleb128 .LEHE1-.LEHB1
	.uleb128 .L108-.LFB9705
	.uleb128 0
	.uleb128 .LEHB2-.LFB9705
	.uleb128 .LEHE2-.LEHB2
	.uleb128 .L109-.LFB9705
	.uleb128 0
	.uleb128 .LEHB3-.LFB9705
	.uleb128 .LEHE3-.LEHB3
	.uleb128 .L110-.LFB9705
	.uleb128 0
	.uleb128 .LEHB4-.LFB9705
	.uleb128 .LEHE4-.LEHB4
	.uleb128 0
	.uleb128 0
.LLSDACSE9705:
	.text
	.seh_endproc
	.section	.text$_ZN9__gnu_cxx11char_traitsIcE6lengthEPKc,"x"
	.linkonce discard
	.align 2
	.globl	_ZN9__gnu_cxx11char_traitsIcE6lengthEPKc
	.def	_ZN9__gnu_cxx11char_traitsIcE6lengthEPKc;	.scl	2;	.type	32;	.endef
	.seh_proc	_ZN9__gnu_cxx11char_traitsIcE6lengthEPKc
_ZN9__gnu_cxx11char_traitsIcE6lengthEPKc:
.LFB9717:
	pushq	%rbp
	.seh_pushreg	%rbp
	movq	%rsp, %rbp
	.seh_setframe	%rbp, 0
	subq	$48, %rsp
	.seh_stackalloc	48
	.seh_endprologue
	movq	%rcx, 16(%rbp)
	movq	$0, -8(%rbp)
	jmp	.L113
.L114:
	addq	$1, -8(%rbp)
.L113:
	movb	$0, -9(%rbp)
	movq	16(%rbp), %rdx
	movq	-8(%rbp), %rax
	leaq	(%rdx,%rax), %rcx
	leaq	-9(%rbp), %rax
	movq	%rax, %rdx
	call	_ZN9__gnu_cxx11char_traitsIcE2eqERKcS3_
	xorl	$1, %eax
	testb	%al, %al
	jne	.L114
	movq	-8(%rbp), %rax
	addq	$48, %rsp
	popq	%rbp
	ret
	.seh_endproc
	.section	.text$_ZNKSt7__cxx1112basic_stringIcSt11char_traitsIcESaIcEE5c_strEv,"x"
	.linkonce discard
	.align 2
	.globl	_ZNKSt7__cxx1112basic_stringIcSt11char_traitsIcESaIcEE5c_strEv
	.def	_ZNKSt7__cxx1112basic_stringIcSt11char_traitsIcESaIcEE5c_strEv;	.scl	2;	.type	32;	.endef
	.seh_proc	_ZNKSt7__cxx1112basic_stringIcSt11char_traitsIcESaIcEE5c_strEv
_ZNKSt7__cxx1112basic_stringIcSt11char_traitsIcESaIcEE5c_strEv:
.LFB9743:
	pushq	%rbp
	.seh_pushreg	%rbp
	movq	%rsp, %rbp
	.seh_setframe	%rbp, 0
	subq	$32, %rsp
	.seh_stackalloc	32
	.seh_endprologue
	movq	%rcx, 16(%rbp)
	movq	16(%rbp), %rax
	movq	%rax, %rcx
	call	_ZNKSt7__cxx1112basic_stringIcSt11char_traitsIcESaIcEE7_M_dataEv
	addq	$32, %rsp
	popq	%rbp
	ret
	.seh_endproc
	.section	.text$_ZZN9__gnu_cxx6__stoaIxxcJiEEET0_PFT_PKT1_PPS3_DpT2_EPKcS5_PyS9_EN11_Save_errnoC1Ev,"x"
	.linkonce discard
	.align 2
	.globl	_ZZN9__gnu_cxx6__stoaIxxcJiEEET0_PFT_PKT1_PPS3_DpT2_EPKcS5_PyS9_EN11_Save_errnoC1Ev
	.def	_ZZN9__gnu_cxx6__stoaIxxcJiEEET0_PFT_PKT1_PPS3_DpT2_EPKcS5_PyS9_EN11_Save_errnoC1Ev;	.scl	2;	.type	32;	.endef
	.seh_proc	_ZZN9__gnu_cxx6__stoaIxxcJiEEET0_PFT_PKT1_PPS3_DpT2_EPKcS5_PyS9_EN11_Save_errnoC1Ev
_ZZN9__gnu_cxx6__stoaIxxcJiEEET0_PFT_PKT1_PPS3_DpT2_EPKcS5_PyS9_EN11_Save_errnoC1Ev:
.LFB9774:
	pushq	%rbp
	.seh_pushreg	%rbp
	movq	%rsp, %rbp
	.seh_setframe	%rbp, 0
	subq	$32, %rsp
	.seh_stackalloc	32
	.seh_endprologue
	movq	%rcx, 16(%rbp)
	movq	__imp__errno(%rip), %rax
	call	*%rax
	movl	(%rax), %edx
	movq	16(%rbp), %rax
	movl	%edx, (%rax)
	movq	__imp__errno(%rip), %rax
	call	*%rax
	movl	$0, (%rax)
	nop
	addq	$32, %rsp
	popq	%rbp
	ret
	.seh_endproc
	.section	.text$_ZZN9__gnu_cxx6__stoaIxxcJiEEET0_PFT_PKT1_PPS3_DpT2_EPKcS5_PyS9_EN11_Save_errnoD1Ev,"x"
	.linkonce discard
	.align 2
	.globl	_ZZN9__gnu_cxx6__stoaIxxcJiEEET0_PFT_PKT1_PPS3_DpT2_EPKcS5_PyS9_EN11_Save_errnoD1Ev
	.def	_ZZN9__gnu_cxx6__stoaIxxcJiEEET0_PFT_PKT1_PPS3_DpT2_EPKcS5_PyS9_EN11_Save_errnoD1Ev;	.scl	2;	.type	32;	.endef
	.seh_proc	_ZZN9__gnu_cxx6__stoaIxxcJiEEET0_PFT_PKT1_PPS3_DpT2_EPKcS5_PyS9_EN11_Save_errnoD1Ev
_ZZN9__gnu_cxx6__stoaIxxcJiEEET0_PFT_PKT1_PPS3_DpT2_EPKcS5_PyS9_EN11_Save_errnoD1Ev:
.LFB9777:
	pushq	%rbp
	.seh_pushreg	%rbp
	pushq	%rbx
	.seh_pushreg	%rbx
	subq	$40, %rsp
	.seh_stackalloc	40
	leaq	32(%rsp), %rbp
	.seh_setframe	%rbp, 32
	.seh_endprologue
	movq	%rcx, 32(%rbp)
	movq	__imp__errno(%rip), %rax
	call	*%rax
	movl	(%rax), %eax
	testl	%eax, %eax
	sete	%al
	testb	%al, %al
	je	.L121
	movq	32(%rbp), %rax
	movl	(%rax), %ebx
	movq	__imp__errno(%rip), %rax
	call	*%rax
	movl	%ebx, (%rax)
.L121:
	nop
	addq	$40, %rsp
	popq	%rbx
	popq	%rbp
	ret
	.seh_handler	__gxx_personality_seh0, @unwind, @except
	.seh_handlerdata
.LLSDA9777:
	.byte	0xff
	.byte	0xff
	.byte	0x1
	.uleb128 .LLSDACSE9777-.LLSDACSB9777
.LLSDACSB9777:
.LLSDACSE9777:
	.section	.text$_ZZN9__gnu_cxx6__stoaIxxcJiEEET0_PFT_PKT1_PPS3_DpT2_EPKcS5_PyS9_EN11_Save_errnoD1Ev,"x"
	.linkonce discard
	.seh_endproc
	.section	.text$_ZZN9__gnu_cxx6__stoaIxxcJiEEET0_PFT_PKT1_PPS3_DpT2_EPKcS5_PyS9_EN10_Range_chk6_S_chkExSt17integral_constantIbLb0EE,"x"
	.linkonce discard
	.globl	_ZZN9__gnu_cxx6__stoaIxxcJiEEET0_PFT_PKT1_PPS3_DpT2_EPKcS5_PyS9_EN10_Range_chk6_S_chkExSt17integral_constantIbLb0EE
	.def	_ZZN9__gnu_cxx6__stoaIxxcJiEEET0_PFT_PKT1_PPS3_DpT2_EPKcS5_PyS9_EN10_Range_chk6_S_chkExSt17integral_constantIbLb0EE;	.scl	2;	.type	32;	.endef
	.seh_proc	_ZZN9__gnu_cxx6__stoaIxxcJiEEET0_PFT_PKT1_PPS3_DpT2_EPKcS5_PyS9_EN10_Range_chk6_S_chkExSt17integral_constantIbLb0EE
_ZZN9__gnu_cxx6__stoaIxxcJiEEET0_PFT_PKT1_PPS3_DpT2_EPKcS5_PyS9_EN10_Range_chk6_S_chkExSt17integral_constantIbLb0EE:
.LFB9778:
	pushq	%rbp
	.seh_pushreg	%rbp
	movq	%rsp, %rbp
	.seh_setframe	%rbp, 0
	.seh_endprologue
	movq	%rcx, 16(%rbp)
	movl	$0, %eax
	popq	%rbp
	ret
	.seh_endproc
	.section	.text$_ZN9__gnu_cxx6__stoaIxxcJiEEET0_PFT_PKT1_PPS3_DpT2_EPKcS5_PyS9_,"x"
	.linkonce discard
	.globl	_ZN9__gnu_cxx6__stoaIxxcJiEEET0_PFT_PKT1_PPS3_DpT2_EPKcS5_PyS9_
	.def	_ZN9__gnu_cxx6__stoaIxxcJiEEET0_PFT_PKT1_PPS3_DpT2_EPKcS5_PyS9_;	.scl	2;	.type	32;	.endef
	.seh_proc	_ZN9__gnu_cxx6__stoaIxxcJiEEET0_PFT_PKT1_PPS3_DpT2_EPKcS5_PyS9_
_ZN9__gnu_cxx6__stoaIxxcJiEEET0_PFT_PKT1_PPS3_DpT2_EPKcS5_PyS9_:
.LFB9771:
	pushq	%rbp
	.seh_pushreg	%rbp
	pushq	%rbx
	.seh_pushreg	%rbx
	subq	$88, %rsp
	.seh_stackalloc	88
	leaq	80(%rsp), %rbp
	.seh_setframe	%rbp, 80
	.seh_endprologue
	movq	%rcx, 32(%rbp)
	movq	%rdx, 40(%rbp)
	movq	%r8, 48(%rbp)
	movq	%r9, 56(%rbp)
	leaq	-36(%rbp), %rax
	movq	%rax, %rcx
.LEHB5:
	call	_ZZN9__gnu_cxx6__stoaIxxcJiEEET0_PFT_PKT1_PPS3_DpT2_EPKcS5_PyS9_EN11_Save_errnoC1Ev
.LEHE5:
	movq	32(%rbp), %r9
	movl	64(%rbp), %edx
	leaq	-32(%rbp), %rax
	movq	48(%rbp), %rcx
	movl	%edx, %r8d
	movq	%rax, %rdx
.LEHB6:
	call	*%r9
	movq	%rax, -8(%rbp)
	movq	-32(%rbp), %rax
	cmpq	%rax, 48(%rbp)
	jne	.L125
	movq	40(%rbp), %rax
	movq	%rax, %rcx
	call	_ZSt24__throw_invalid_argumentPKc
.L125:
	movq	__imp__errno(%rip), %rax
	call	*%rax
	movl	(%rax), %eax
	cmpl	$34, %eax
	je	.L126
	movq	-8(%rbp), %rax
	movl	%ebx, %edx
	movq	%rax, %rcx
	call	_ZZN9__gnu_cxx6__stoaIxxcJiEEET0_PFT_PKT1_PPS3_DpT2_EPKcS5_PyS9_EN10_Range_chk6_S_chkExSt17integral_constantIbLb0EE
	testb	%al, %al
	je	.L127
.L126:
	movl	$1, %eax
	jmp	.L128
.L127:
	movl	$0, %eax
.L128:
	testb	%al, %al
	je	.L129
	movq	40(%rbp), %rax
	movq	%rax, %rcx
	call	_ZSt20__throw_out_of_rangePKc
.LEHE6:
.L129:
	movq	-8(%rbp), %rax
	movq	%rax, -16(%rbp)
	cmpq	$0, 56(%rbp)
	je	.L130
	movq	-32(%rbp), %rax
	subq	48(%rbp), %rax
	movq	%rax, %rdx
	movq	56(%rbp), %rax
	movq	%rdx, (%rax)
.L130:
	movq	-16(%rbp), %rbx
	leaq	-36(%rbp), %rax
	movq	%rax, %rcx
	call	_ZZN9__gnu_cxx6__stoaIxxcJiEEET0_PFT_PKT1_PPS3_DpT2_EPKcS5_PyS9_EN11_Save_errnoD1Ev
	movq	%rbx, %rax
	jmp	.L134
.L133:
	movq	%rax, %rbx
	leaq	-36(%rbp), %rax
	movq	%rax, %rcx
	call	_ZZN9__gnu_cxx6__stoaIxxcJiEEET0_PFT_PKT1_PPS3_DpT2_EPKcS5_PyS9_EN11_Save_errnoD1Ev
	movq	%rbx, %rax
	movq	%rax, %rcx
.LEHB7:
	call	_Unwind_Resume
.LEHE7:
.L134:
	addq	$88, %rsp
	popq	%rbx
	popq	%rbp
	ret
	.seh_handler	__gxx_personality_seh0, @unwind, @except
	.seh_handlerdata
.LLSDA9771:
	.byte	0xff
	.byte	0xff
	.byte	0x1
	.uleb128 .LLSDACSE9771-.LLSDACSB9771
.LLSDACSB9771:
	.uleb128 .LEHB5-.LFB9771
	.uleb128 .LEHE5-.LEHB5
	.uleb128 0
	.uleb128 0
	.uleb128 .LEHB6-.LFB9771
	.uleb128 .LEHE6-.LEHB6
	.uleb128 .L133-.LFB9771
	.uleb128 0
	.uleb128 .LEHB7-.LFB9771
	.uleb128 .LEHE7-.LEHB7
	.uleb128 0
	.uleb128 0
.LLSDACSE9771:
	.section	.text$_ZN9__gnu_cxx6__stoaIxxcJiEEET0_PFT_PKT1_PPS3_DpT2_EPKcS5_PyS9_,"x"
	.linkonce discard
	.seh_endproc
	.section	.text$_ZNSt7__cxx1112basic_stringIcSt11char_traitsIcESaIcEE12_Alloc_hiderD1Ev,"x"
	.linkonce discard
	.align 2
	.globl	_ZNSt7__cxx1112basic_stringIcSt11char_traitsIcESaIcEE12_Alloc_hiderD1Ev
	.def	_ZNSt7__cxx1112basic_stringIcSt11char_traitsIcESaIcEE12_Alloc_hiderD1Ev;	.scl	2;	.type	32;	.endef
	.seh_proc	_ZNSt7__cxx1112basic_stringIcSt11char_traitsIcESaIcEE12_Alloc_hiderD1Ev
_ZNSt7__cxx1112basic_stringIcSt11char_traitsIcESaIcEE12_Alloc_hiderD1Ev:
.LFB9819:
	pushq	%rbp
	.seh_pushreg	%rbp
	movq	%rsp, %rbp
	.seh_setframe	%rbp, 0
	subq	$48, %rsp
	.seh_stackalloc	48
	.seh_endprologue
	movq	%rcx, 16(%rbp)
	movq	16(%rbp), %rax
	movq	%rax, -8(%rbp)
	movq	-8(%rbp), %rax
	movq	%rax, %rcx
	call	_ZNSt15__new_allocatorIcED2Ev
	nop
	nop
	addq	$48, %rsp
	popq	%rbp
	ret
	.seh_endproc
	.section	.text$_ZNSt7__cxx1112basic_stringIcSt11char_traitsIcESaIcEED1Ev,"x"
	.linkonce discard
	.align 2
	.globl	_ZNSt7__cxx1112basic_stringIcSt11char_traitsIcESaIcEED1Ev
	.def	_ZNSt7__cxx1112basic_stringIcSt11char_traitsIcESaIcEED1Ev;	.scl	2;	.type	32;	.endef
	.seh_proc	_ZNSt7__cxx1112basic_stringIcSt11char_traitsIcESaIcEED1Ev
_ZNSt7__cxx1112basic_stringIcSt11char_traitsIcESaIcEED1Ev:
.LFB9824:
	pushq	%rbp
	.seh_pushreg	%rbp
	movq	%rsp, %rbp
	.seh_setframe	%rbp, 0
	subq	$32, %rsp
	.seh_stackalloc	32
	.seh_endprologue
	movq	%rcx, 16(%rbp)
	movq	16(%rbp), %rax
	movq	%rax, %rcx
	call	_ZNSt7__cxx1112basic_stringIcSt11char_traitsIcESaIcEE10_M_disposeEv
	movq	16(%rbp), %rax
	movq	%rax, %rcx
	call	_ZNSt7__cxx1112basic_stringIcSt11char_traitsIcESaIcEE12_Alloc_hiderD1Ev
	nop
	addq	$32, %rsp
	popq	%rbp
	ret
	.seh_handler	__gxx_personality_seh0, @unwind, @except
	.seh_handlerdata
.LLSDA9824:
	.byte	0xff
	.byte	0xff
	.byte	0x1
	.uleb128 .LLSDACSE9824-.LLSDACSB9824
.LLSDACSB9824:
.LLSDACSE9824:
	.section	.text$_ZNSt7__cxx1112basic_stringIcSt11char_traitsIcESaIcEED1Ev,"x"
	.linkonce discard
	.seh_endproc
	.section	.text$_ZNKSt6chrono10time_pointINS_3_V212system_clockENS_8durationIxSt5ratioILx1ELx1000000000EEEEE16time_since_epochEv,"x"
	.linkonce discard
	.align 2
	.globl	_ZNKSt6chrono10time_pointINS_3_V212system_clockENS_8durationIxSt5ratioILx1ELx1000000000EEEEE16time_since_epochEv
	.def	_ZNKSt6chrono10time_pointINS_3_V212system_clockENS_8durationIxSt5ratioILx1ELx1000000000EEEEE16time_since_epochEv;	.scl	2;	.type	32;	.endef
	.seh_proc	_ZNKSt6chrono10time_pointINS_3_V212system_clockENS_8durationIxSt5ratioILx1ELx1000000000EEEEE16time_since_epochEv
_ZNKSt6chrono10time_pointINS_3_V212system_clockENS_8durationIxSt5ratioILx1ELx1000000000EEEEE16time_since_epochEv:
.LFB9993:
	pushq	%rbp
	.seh_pushreg	%rbp
	movq	%rsp, %rbp
	.seh_setframe	%rbp, 0
	.seh_endprologue
	movq	%rcx, 16(%rbp)
	movq	16(%rbp), %rax
	movq	(%rax), %rax
	popq	%rbp
	ret
	.seh_endproc
	.section .rdata,"dr"
	.align 8
.LC21:
	.ascii "basic_string: construction from null is not valid\0"
	.section	.text$_ZNSt7__cxx1112basic_stringIcSt11char_traitsIcESaIcEEC1IS3_EEPKcRKS3_,"x"
	.linkonce discard
	.align 2
	.globl	_ZNSt7__cxx1112basic_stringIcSt11char_traitsIcESaIcEEC1IS3_EEPKcRKS3_
	.def	_ZNSt7__cxx1112basic_stringIcSt11char_traitsIcESaIcEEC1IS3_EEPKcRKS3_;	.scl	2;	.type	32;	.endef
	.seh_proc	_ZNSt7__cxx1112basic_stringIcSt11char_traitsIcESaIcEEC1IS3_EEPKcRKS3_
_ZNSt7__cxx1112basic_stringIcSt11char_traitsIcESaIcEEC1IS3_EEPKcRKS3_:
.LFB10040:
	pushq	%rbp
	.seh_pushreg	%rbp
	pushq	%rsi
	.seh_pushreg	%rsi
	pushq	%rbx
	.seh_pushreg	%rbx
	subq	$48, %rsp
	.seh_stackalloc	48
	leaq	48(%rsp), %rbp
	.seh_setframe	%rbp, 48
	.seh_endprologue
	movq	%rcx, 32(%rbp)
	movq	%rdx, 40(%rbp)
	movq	%r8, 48(%rbp)
	movq	32(%rbp), %rbx
	movq	32(%rbp), %rax
	movq	%rax, %rcx
	call	_ZNSt7__cxx1112basic_stringIcSt11char_traitsIcESaIcEE13_M_local_dataEv
	movq	48(%rbp), %rdx
	movq	%rdx, %r8
	movq	%rax, %rdx
	movq	%rbx, %rcx
	call	_ZNSt7__cxx1112basic_stringIcSt11char_traitsIcESaIcEE12_Alloc_hiderC1EPcRKS3_
	cmpq	$0, 40(%rbp)
	jne	.L140
	leaq	.LC21(%rip), %rax
	movq	%rax, %rcx
.LEHB8:
	call	_ZSt19__throw_logic_errorPKc
.L140:
	movq	40(%rbp), %rax
	movq	%rax, %rcx
	call	_ZNSt11char_traitsIcE6lengthEPKc
	movq	40(%rbp), %rdx
	addq	%rdx, %rax
	movq	%rax, -8(%rbp)
	movq	-8(%rbp), %rcx
	movq	40(%rbp), %rdx
	movq	32(%rbp), %rax
	movl	%esi, %r9d
	movq	%rcx, %r8
	movq	%rax, %rcx
	call	_ZNSt7__cxx1112basic_stringIcSt11char_traitsIcESaIcEE12_M_constructIPKcEEvT_S8_St20forward_iterator_tag
.LEHE8:
	jmp	.L143
.L142:
	movq	%rax, %rbx
	movq	32(%rbp), %rax
	movq	%rax, %rcx
	call	_ZNSt7__cxx1112basic_stringIcSt11char_traitsIcESaIcEE12_Alloc_hiderD1Ev
	movq	%rbx, %rax
	movq	%rax, %rcx
.LEHB9:
	call	_Unwind_Resume
	nop
.LEHE9:
.L143:
	addq	$48, %rsp
	popq	%rbx
	popq	%rsi
	popq	%rbp
	ret
	.seh_handler	__gxx_personality_seh0, @unwind, @except
	.seh_handlerdata
.LLSDA10040:
	.byte	0xff
	.byte	0xff
	.byte	0x1
	.uleb128 .LLSDACSE10040-.LLSDACSB10040
.LLSDACSB10040:
	.uleb128 .LEHB8-.LFB10040
	.uleb128 .LEHE8-.LEHB8
	.uleb128 .L142-.LFB10040
	.uleb128 0
	.uleb128 .LEHB9-.LFB10040
	.uleb128 .LEHE9-.LEHB9
	.uleb128 0
	.uleb128 0
.LLSDACSE10040:
	.section	.text$_ZNSt7__cxx1112basic_stringIcSt11char_traitsIcESaIcEEC1IS3_EEPKcRKS3_,"x"
	.linkonce discard
	.seh_endproc
	.section	.text$_ZNSt6vectorIySaIyEEC1ESt16initializer_listIyERKS0_,"x"
	.linkonce discard
	.align 2
	.globl	_ZNSt6vectorIySaIyEEC1ESt16initializer_listIyERKS0_
	.def	_ZNSt6vectorIySaIyEEC1ESt16initializer_listIyERKS0_;	.scl	2;	.type	32;	.endef
	.seh_proc	_ZNSt6vectorIySaIyEEC1ESt16initializer_listIyERKS0_
_ZNSt6vectorIySaIyEEC1ESt16initializer_listIyERKS0_:
.LFB10049:
	pushq	%rbp
	.seh_pushreg	%rbp
	pushq	%rsi
	.seh_pushreg	%rsi
	pushq	%rbx
	.seh_pushreg	%rbx
	subq	$48, %rsp
	.seh_stackalloc	48
	leaq	48(%rsp), %rbp
	.seh_setframe	%rbp, 48
	.seh_endprologue
	movq	%rcx, 32(%rbp)
	movq	%rdx, %rbx
	movq	(%rbx), %rax
	movq	8(%rbx), %rdx
	movq	%rax, -16(%rbp)
	movq	%rdx, -8(%rbp)
	movq	%r8, 48(%rbp)
	movq	32(%rbp), %rax
	movq	48(%rbp), %rdx
	movq	%rax, %rcx
	call	_ZNSt12_Vector_baseIySaIyEEC2ERKS0_
	leaq	-16(%rbp), %rax
	movq	%rax, %rcx
	call	_ZNKSt16initializer_listIyE4sizeEv
	movq	%rax, %rsi
	leaq	-16(%rbp), %rax
	movq	%rax, %rcx
	call	_ZNKSt16initializer_listIyE3endEv
	movq	%rax, %rbx
	leaq	-16(%rbp), %rax
	movq	%rax, %rcx
	call	_ZNKSt16initializer_listIyE5beginEv
	movq	%rax, %rdx
	movq	32(%rbp), %rax
	movq	%rsi, %r9
	movq	%rbx, %r8
	movq	%rax, %rcx
.LEHB10:
	call	_ZNSt6vectorIySaIyEE21_M_range_initialize_nIPKyS4_EEvT_T0_y
.LEHE10:
	jmp	.L147
.L146:
	movq	%rax, %rbx
	movq	32(%rbp), %rax
	movq	%rax, %rcx
	call	_ZNSt12_Vector_baseIySaIyEED2Ev
	movq	%rbx, %rax
	movq	%rax, %rcx
.LEHB11:
	call	_Unwind_Resume
	nop
.LEHE11:
.L147:
	addq	$48, %rsp
	popq	%rbx
	popq	%rsi
	popq	%rbp
	ret
	.seh_handler	__gxx_personality_seh0, @unwind, @except
	.seh_handlerdata
.LLSDA10049:
	.byte	0xff
	.byte	0xff
	.byte	0x1
	.uleb128 .LLSDACSE10049-.LLSDACSB10049
.LLSDACSB10049:
	.uleb128 .LEHB10-.LFB10049
	.uleb128 .LEHE10-.LEHB10
	.uleb128 .L146-.LFB10049
	.uleb128 0
	.uleb128 .LEHB11-.LFB10049
	.uleb128 .LEHE11-.LEHB11
	.uleb128 0
	.uleb128 0
.LLSDACSE10049:
	.section	.text$_ZNSt6vectorIySaIyEEC1ESt16initializer_listIyERKS0_,"x"
	.linkonce discard
	.seh_endproc
	.section	.text$_ZNSt6vectorIySaIyEED1Ev,"x"
	.linkonce discard
	.align 2
	.globl	_ZNSt6vectorIySaIyEED1Ev
	.def	_ZNSt6vectorIySaIyEED1Ev;	.scl	2;	.type	32;	.endef
	.seh_proc	_ZNSt6vectorIySaIyEED1Ev
_ZNSt6vectorIySaIyEED1Ev:
.LFB10052:
	pushq	%rbp
	.seh_pushreg	%rbp
	movq	%rsp, %rbp
	.seh_setframe	%rbp, 0
	subq	$64, %rsp
	.seh_stackalloc	64
	.seh_endprologue
	movq	%rcx, 16(%rbp)
	movq	16(%rbp), %rax
	movq	%rax, %rcx
	call	_ZNSt12_Vector_baseIySaIyEE19_M_get_Tp_allocatorEv
	movq	16(%rbp), %rdx
	movq	8(%rdx), %rdx
	movq	16(%rbp), %rcx
	movq	(%rcx), %rcx
	movq	%rcx, -8(%rbp)
	movq	%rdx, -16(%rbp)
	movq	%rax, -24(%rbp)
	movq	-16(%rbp), %rdx
	movq	-8(%rbp), %rax
	movq	%rax, %rcx
	call	_ZSt8_DestroyIPyEvT_S1_
	nop
	movq	16(%rbp), %rax
	movq	%rax, %rcx
	call	_ZNSt12_Vector_baseIySaIyEED2Ev
	nop
	addq	$64, %rsp
	popq	%rbp
	ret
	.seh_endproc
	.section	.text$_ZNSt6vectorIySaIyEE5beginEv,"x"
	.linkonce discard
	.align 2
	.globl	_ZNSt6vectorIySaIyEE5beginEv
	.def	_ZNSt6vectorIySaIyEE5beginEv;	.scl	2;	.type	32;	.endef
	.seh_proc	_ZNSt6vectorIySaIyEE5beginEv
_ZNSt6vectorIySaIyEE5beginEv:
.LFB10056:
	pushq	%rbp
	.seh_pushreg	%rbp
	movq	%rsp, %rbp
	.seh_setframe	%rbp, 0
	subq	$16, %rsp
	.seh_stackalloc	16
	.seh_endprologue
	movq	%rcx, 16(%rbp)
	movq	16(%rbp), %rax
	movq	%rax, -8(%rbp)
	movq	-8(%rbp), %rax
	movq	(%rax), %rax
	movq	%rax, -16(%rbp)
	nop
	movq	-16(%rbp), %rax
	addq	$16, %rsp
	popq	%rbp
	ret
	.seh_endproc
	.section	.text$_ZNSt6vectorIySaIyEE3endEv,"x"
	.linkonce discard
	.align 2
	.globl	_ZNSt6vectorIySaIyEE3endEv
	.def	_ZNSt6vectorIySaIyEE3endEv;	.scl	2;	.type	32;	.endef
	.seh_proc	_ZNSt6vectorIySaIyEE3endEv
_ZNSt6vectorIySaIyEE3endEv:
.LFB10057:
	pushq	%rbp
	.seh_pushreg	%rbp
	movq	%rsp, %rbp
	.seh_setframe	%rbp, 0
	subq	$16, %rsp
	.seh_stackalloc	16
	.seh_endprologue
	movq	%rcx, 16(%rbp)
	movq	16(%rbp), %rax
	addq	$8, %rax
	movq	%rax, -8(%rbp)
	movq	-8(%rbp), %rax
	movq	(%rax), %rax
	movq	%rax, -16(%rbp)
	nop
	movq	-16(%rbp), %rax
	addq	$16, %rsp
	popq	%rbp
	ret
	.seh_endproc
	.text
	.def	_Z9time_loopIZ4mainEUlxE_EdOT_x;	.scl	3;	.type	32;	.endef
	.seh_proc	_Z9time_loopIZ4mainEUlxE_EdOT_x
_Z9time_loopIZ4mainEUlxE_EdOT_x:
.LFB10060:
	pushq	%rbp
	.seh_pushreg	%rbp
	movq	%rsp, %rbp
	.seh_setframe	%rbp, 0
	subq	$64, %rsp
	.seh_stackalloc	64
	.seh_endprologue
	movq	%rcx, 16(%rbp)
	movq	%rdx, 24(%rbp)
	call	_ZNSt6chrono3_V212system_clock3nowEv
	movq	%rax, -24(%rbp)
	movq	24(%rbp), %rdx
	movq	16(%rbp), %rax
	movq	%rax, %rcx
	call	_ZZ4mainENKUlxE_clEx
	call	_ZNSt6chrono3_V212system_clock3nowEv
	movq	%rax, -32(%rbp)
	leaq	-24(%rbp), %rdx
	leaq	-32(%rbp), %rax
	movq	%rax, %rcx
	call	_ZNSt6chronomiINS_3_V212system_clockENS_8durationIxSt5ratioILx1ELx1000000000EEEES6_EENSt11common_typeIJT0_T1_EE4typeERKNS_10time_pointIT_S8_EERKNSC_ISD_S9_EE
	movq	%rax, -8(%rbp)
	leaq	-8(%rbp), %rdx
	leaq	-16(%rbp), %rax
	movq	%rax, %rcx
	call	_ZNSt6chrono8durationIdSt5ratioILx1ELx1EEEC1IxS1_ILx1ELx1000000000EEvEERKNS0_IT_T0_EE
	leaq	-16(%rbp), %rax
	movq	%rax, %rcx
	call	_ZNKSt6chrono8durationIdSt5ratioILx1ELx1EEE5countEv
	addq	$64, %rsp
	popq	%rbp
	ret
	.seh_endproc
	.def	_Z9time_loopIZ4mainEUlxE0_EdOT_x;	.scl	3;	.type	32;	.endef
	.seh_proc	_Z9time_loopIZ4mainEUlxE0_EdOT_x
_Z9time_loopIZ4mainEUlxE0_EdOT_x:
.LFB10062:
	pushq	%rbp
	.seh_pushreg	%rbp
	movq	%rsp, %rbp
	.seh_setframe	%rbp, 0
	subq	$64, %rsp
	.seh_stackalloc	64
	.seh_endprologue
	movq	%rcx, 16(%rbp)
	movq	%rdx, 24(%rbp)
	call	_ZNSt6chrono3_V212system_clock3nowEv
	movq	%rax, -24(%rbp)
	movq	24(%rbp), %rdx
	movq	16(%rbp), %rax
	movq	%rax, %rcx
	call	_ZZ4mainENKUlxE0_clEx
	call	_ZNSt6chrono3_V212system_clock3nowEv
	movq	%rax, -32(%rbp)
	leaq	-24(%rbp), %rdx
	leaq	-32(%rbp), %rax
	movq	%rax, %rcx
	call	_ZNSt6chronomiINS_3_V212system_clockENS_8durationIxSt5ratioILx1ELx1000000000EEEES6_EENSt11common_typeIJT0_T1_EE4typeERKNS_10time_pointIT_S8_EERKNSC_ISD_S9_EE
	movq	%rax, -8(%rbp)
	leaq	-8(%rbp), %rdx
	leaq	-16(%rbp), %rax
	movq	%rax, %rcx
	call	_ZNSt6chrono8durationIdSt5ratioILx1ELx1EEEC1IxS1_ILx1ELx1000000000EEvEERKNS0_IT_T0_EE
	leaq	-16(%rbp), %rax
	movq	%rax, %rcx
	call	_ZNKSt6chrono8durationIdSt5ratioILx1ELx1EEE5countEv
	addq	$64, %rsp
	popq	%rbp
	ret
	.seh_endproc
	.def	_Z9time_loopIZ4mainEUlxE1_EdOT_x;	.scl	3;	.type	32;	.endef
	.seh_proc	_Z9time_loopIZ4mainEUlxE1_EdOT_x
_Z9time_loopIZ4mainEUlxE1_EdOT_x:
.LFB10063:
	pushq	%rbp
	.seh_pushreg	%rbp
	movq	%rsp, %rbp
	.seh_setframe	%rbp, 0
	subq	$64, %rsp
	.seh_stackalloc	64
	.seh_endprologue
	movq	%rcx, 16(%rbp)
	movq	%rdx, 24(%rbp)
	call	_ZNSt6chrono3_V212system_clock3nowEv
	movq	%rax, -24(%rbp)
	movq	24(%rbp), %rdx
	movq	16(%rbp), %rax
	movq	%rax, %rcx
	call	_ZZ4mainENKUlxE1_clEx
	call	_ZNSt6chrono3_V212system_clock3nowEv
	movq	%rax, -32(%rbp)
	leaq	-24(%rbp), %rdx
	leaq	-32(%rbp), %rax
	movq	%rax, %rcx
	call	_ZNSt6chronomiINS_3_V212system_clockENS_8durationIxSt5ratioILx1ELx1000000000EEEES6_EENSt11common_typeIJT0_T1_EE4typeERKNS_10time_pointIT_S8_EERKNSC_ISD_S9_EE
	movq	%rax, -8(%rbp)
	leaq	-8(%rbp), %rdx
	leaq	-16(%rbp), %rax
	movq	%rax, %rcx
	call	_ZNSt6chrono8durationIdSt5ratioILx1ELx1EEEC1IxS1_ILx1ELx1000000000EEvEERKNS0_IT_T0_EE
	leaq	-16(%rbp), %rax
	movq	%rax, %rcx
	call	_ZNKSt6chrono8durationIdSt5ratioILx1ELx1EEE5countEv
	addq	$64, %rsp
	popq	%rbp
	ret
	.seh_endproc
	.def	_Z9time_loopIZ4mainEUlxE2_EdOT_x;	.scl	3;	.type	32;	.endef
	.seh_proc	_Z9time_loopIZ4mainEUlxE2_EdOT_x
_Z9time_loopIZ4mainEUlxE2_EdOT_x:
.LFB10065:
	pushq	%rbp
	.seh_pushreg	%rbp
	movq	%rsp, %rbp
	.seh_setframe	%rbp, 0
	subq	$64, %rsp
	.seh_stackalloc	64
	.seh_endprologue
	movq	%rcx, 16(%rbp)
	movq	%rdx, 24(%rbp)
	call	_ZNSt6chrono3_V212system_clock3nowEv
	movq	%rax, -24(%rbp)
	movq	24(%rbp), %rdx
	movq	16(%rbp), %rax
	movq	%rax, %rcx
	call	_ZZ4mainENKUlxE2_clEx
	call	_ZNSt6chrono3_V212system_clock3nowEv
	movq	%rax, -32(%rbp)
	leaq	-24(%rbp), %rdx
	leaq	-32(%rbp), %rax
	movq	%rax, %rcx
	call	_ZNSt6chronomiINS_3_V212system_clockENS_8durationIxSt5ratioILx1ELx1000000000EEEES6_EENSt11common_typeIJT0_T1_EE4typeERKNS_10time_pointIT_S8_EERKNSC_ISD_S9_EE
	movq	%rax, -8(%rbp)
	leaq	-8(%rbp), %rdx
	leaq	-16(%rbp), %rax
	movq	%rax, %rcx
	call	_ZNSt6chrono8durationIdSt5ratioILx1ELx1EEEC1IxS1_ILx1ELx1000000000EEvEERKNS0_IT_T0_EE
	leaq	-16(%rbp), %rax
	movq	%rax, %rcx
	call	_ZNKSt6chrono8durationIdSt5ratioILx1ELx1EEE5countEv
	addq	$64, %rsp
	popq	%rbp
	ret
	.seh_endproc
	.def	_Z9time_loopIZ4mainEUlxE3_EdOT_x;	.scl	3;	.type	32;	.endef
	.seh_proc	_Z9time_loopIZ4mainEUlxE3_EdOT_x
_Z9time_loopIZ4mainEUlxE3_EdOT_x:
.LFB10066:
	pushq	%rbp
	.seh_pushreg	%rbp
	movq	%rsp, %rbp
	.seh_setframe	%rbp, 0
	subq	$64, %rsp
	.seh_stackalloc	64
	.seh_endprologue
	movq	%rcx, 16(%rbp)
	movq	%rdx, 24(%rbp)
	call	_ZNSt6chrono3_V212system_clock3nowEv
	movq	%rax, -24(%rbp)
	movq	24(%rbp), %rdx
	movq	16(%rbp), %rax
	movq	%rax, %rcx
	call	_ZZ4mainENKUlxE3_clEx
	call	_ZNSt6chrono3_V212system_clock3nowEv
	movq	%rax, -32(%rbp)
	leaq	-24(%rbp), %rdx
	leaq	-32(%rbp), %rax
	movq	%rax, %rcx
	call	_ZNSt6chronomiINS_3_V212system_clockENS_8durationIxSt5ratioILx1ELx1000000000EEEES6_EENSt11common_typeIJT0_T1_EE4typeERKNS_10time_pointIT_S8_EERKNSC_ISD_S9_EE
	movq	%rax, -8(%rbp)
	leaq	-8(%rbp), %rdx
	leaq	-16(%rbp), %rax
	movq	%rax, %rcx
	call	_ZNSt6chrono8durationIdSt5ratioILx1ELx1EEEC1IxS1_ILx1ELx1000000000EEvEERKNS0_IT_T0_EE
	leaq	-16(%rbp), %rax
	movq	%rax, %rcx
	call	_ZNKSt6chrono8durationIdSt5ratioILx1ELx1EEE5countEv
	addq	$64, %rsp
	popq	%rbp
	ret
	.seh_endproc
	.def	_Z9time_loopIZ4mainEUlxE4_EdOT_x;	.scl	3;	.type	32;	.endef
	.seh_proc	_Z9time_loopIZ4mainEUlxE4_EdOT_x
_Z9time_loopIZ4mainEUlxE4_EdOT_x:
.LFB10067:
	pushq	%rbp
	.seh_pushreg	%rbp
	movq	%rsp, %rbp
	.seh_setframe	%rbp, 0
	subq	$64, %rsp
	.seh_stackalloc	64
	.seh_endprologue
	movq	%rcx, 16(%rbp)
	movq	%rdx, 24(%rbp)
	call	_ZNSt6chrono3_V212system_clock3nowEv
	movq	%rax, -24(%rbp)
	movq	24(%rbp), %rdx
	movq	16(%rbp), %rax
	movq	%rax, %rcx
	call	_ZZ4mainENKUlxE4_clEx
	call	_ZNSt6chrono3_V212system_clock3nowEv
	movq	%rax, -32(%rbp)
	leaq	-24(%rbp), %rdx
	leaq	-32(%rbp), %rax
	movq	%rax, %rcx
	call	_ZNSt6chronomiINS_3_V212system_clockENS_8durationIxSt5ratioILx1ELx1000000000EEEES6_EENSt11common_typeIJT0_T1_EE4typeERKNS_10time_pointIT_S8_EERKNSC_ISD_S9_EE
	movq	%rax, -8(%rbp)
	leaq	-8(%rbp), %rdx
	leaq	-16(%rbp), %rax
	movq	%rax, %rcx
	call	_ZNSt6chrono8durationIdSt5ratioILx1ELx1EEEC1IxS1_ILx1ELx1000000000EEvEERKNS0_IT_T0_EE
	leaq	-16(%rbp), %rax
	movq	%rax, %rcx
	call	_ZNKSt6chrono8durationIdSt5ratioILx1ELx1EEE5countEv
	addq	$64, %rsp
	popq	%rbp
	ret
	.seh_endproc
	.def	_Z9time_loopIZ4mainEUlxE5_EdOT_x;	.scl	3;	.type	32;	.endef
	.seh_proc	_Z9time_loopIZ4mainEUlxE5_EdOT_x
_Z9time_loopIZ4mainEUlxE5_EdOT_x:
.LFB10068:
	pushq	%rbp
	.seh_pushreg	%rbp
	movq	%rsp, %rbp
	.seh_setframe	%rbp, 0
	subq	$64, %rsp
	.seh_stackalloc	64
	.seh_endprologue
	movq	%rcx, 16(%rbp)
	movq	%rdx, 24(%rbp)
	call	_ZNSt6chrono3_V212system_clock3nowEv
	movq	%rax, -24(%rbp)
	movq	24(%rbp), %rdx
	movq	16(%rbp), %rax
	movq	%rax, %rcx
	call	_ZZ4mainENKUlxE5_clEx
	call	_ZNSt6chrono3_V212system_clock3nowEv
	movq	%rax, -32(%rbp)
	leaq	-24(%rbp), %rdx
	leaq	-32(%rbp), %rax
	movq	%rax, %rcx
	call	_ZNSt6chronomiINS_3_V212system_clockENS_8durationIxSt5ratioILx1ELx1000000000EEEES6_EENSt11common_typeIJT0_T1_EE4typeERKNS_10time_pointIT_S8_EERKNSC_ISD_S9_EE
	movq	%rax, -8(%rbp)
	leaq	-8(%rbp), %rdx
	leaq	-16(%rbp), %rax
	movq	%rax, %rcx
	call	_ZNSt6chrono8durationIdSt5ratioILx1ELx1EEEC1IxS1_ILx1ELx1000000000EEvEERKNS0_IT_T0_EE
	leaq	-16(%rbp), %rax
	movq	%rax, %rcx
	call	_ZNKSt6chrono8durationIdSt5ratioILx1ELx1EEE5countEv
	addq	$64, %rsp
	popq	%rbp
	ret
	.seh_endproc
	.def	_Z9time_loopIZ4mainEUlxE6_EdOT_x;	.scl	3;	.type	32;	.endef
	.seh_proc	_Z9time_loopIZ4mainEUlxE6_EdOT_x
_Z9time_loopIZ4mainEUlxE6_EdOT_x:
.LFB10069:
	pushq	%rbp
	.seh_pushreg	%rbp
	movq	%rsp, %rbp
	.seh_setframe	%rbp, 0
	subq	$64, %rsp
	.seh_stackalloc	64
	.seh_endprologue
	movq	%rcx, 16(%rbp)
	movq	%rdx, 24(%rbp)
	call	_ZNSt6chrono3_V212system_clock3nowEv
	movq	%rax, -24(%rbp)
	movq	24(%rbp), %rdx
	movq	16(%rbp), %rax
	movq	%rax, %rcx
	call	_ZZ4mainENKUlxE6_clEx
	call	_ZNSt6chrono3_V212system_clock3nowEv
	movq	%rax, -32(%rbp)
	leaq	-24(%rbp), %rdx
	leaq	-32(%rbp), %rax
	movq	%rax, %rcx
	call	_ZNSt6chronomiINS_3_V212system_clockENS_8durationIxSt5ratioILx1ELx1000000000EEEES6_EENSt11common_typeIJT0_T1_EE4typeERKNS_10time_pointIT_S8_EERKNSC_ISD_S9_EE
	movq	%rax, -8(%rbp)
	leaq	-8(%rbp), %rdx
	leaq	-16(%rbp), %rax
	movq	%rax, %rcx
	call	_ZNSt6chrono8durationIdSt5ratioILx1ELx1EEEC1IxS1_ILx1ELx1000000000EEvEERKNS0_IT_T0_EE
	leaq	-16(%rbp), %rax
	movq	%rax, %rcx
	call	_ZNKSt6chrono8durationIdSt5ratioILx1ELx1EEE5countEv
	addq	$64, %rsp
	popq	%rbp
	ret
	.seh_endproc
	.section	.text$_ZN9__gnu_cxx11char_traitsIcE2eqERKcS3_,"x"
	.linkonce discard
	.globl	_ZN9__gnu_cxx11char_traitsIcE2eqERKcS3_
	.def	_ZN9__gnu_cxx11char_traitsIcE2eqERKcS3_;	.scl	2;	.type	32;	.endef
	.seh_proc	_ZN9__gnu_cxx11char_traitsIcE2eqERKcS3_
_ZN9__gnu_cxx11char_traitsIcE2eqERKcS3_:
.LFB10070:
	pushq	%rbp
	.seh_pushreg	%rbp
	movq	%rsp, %rbp
	.seh_setframe	%rbp, 0
	.seh_endprologue
	movq	%rcx, 16(%rbp)
	movq	%rdx, 24(%rbp)
	movq	16(%rbp), %rax
	movzbl	(%rax), %edx
	movq	24(%rbp), %rax
	movzbl	(%rax), %eax
	cmpb	%al, %dl
	sete	%al
	popq	%rbp
	ret
	.seh_endproc
	.section	.text$_ZNKSt7__cxx1112basic_stringIcSt11char_traitsIcESaIcEE7_M_dataEv,"x"
	.linkonce discard
	.align 2
	.globl	_ZNKSt7__cxx1112basic_stringIcSt11char_traitsIcESaIcEE7_M_dataEv
	.def	_ZNKSt7__cxx1112basic_stringIcSt11char_traitsIcESaIcEE7_M_dataEv;	.scl	2;	.type	32;	.endef
	.seh_proc	_ZNKSt7__cxx1112basic_stringIcSt11char_traitsIcESaIcEE7_M_dataEv
_ZNKSt7__cxx1112basic_stringIcSt11char_traitsIcESaIcEE7_M_dataEv:
.LFB10073:
	pushq	%rbp
	.seh_pushreg	%rbp
	movq	%rsp, %rbp
	.seh_setframe	%rbp, 0
	.seh_endprologue
	movq	%rcx, 16(%rbp)
	movq	16(%rbp), %rax
	movq	(%rax), %rax
	popq	%rbp
	ret
	.seh_endproc
	.section	.text$_ZNSt7__cxx1112basic_stringIcSt11char_traitsIcESaIcEE13_M_local_dataEv,"x"
	.linkonce discard
	.align 2
	.globl	_ZNSt7__cxx1112basic_stringIcSt11char_traitsIcESaIcEE13_M_local_dataEv
	.def	_ZNSt7__cxx1112basic_stringIcSt11char_traitsIcESaIcEE13_M_local_dataEv;	.scl	2;	.type	32;	.endef
	.seh_proc	_ZNSt7__cxx1112basic_stringIcSt11char_traitsIcESaIcEE13_M_local_dataEv
_ZNSt7__cxx1112basic_stringIcSt11char_traitsIcESaIcEE13_M_local_dataEv:
.LFB10074:
	pushq	%rbp
	.seh_pushreg	%rbp
	movq	%rsp, %rbp
	.seh_setframe	%rbp, 0
	subq	$32, %rsp
	.seh_stackalloc	32
	.seh_endprologue
	movq	%rcx, 16(%rbp)
	movq	16(%rbp), %rax
	addq	$16, %rax
	movq	%rax, %rcx
	call	_ZNSt19__ptr_traits_ptr_toIPccLb0EE10pointer_toERc
	addq	$32, %rsp
	popq	%rbp
	ret
	.seh_endproc
	.section	.text$_ZNSt7__cxx1112basic_stringIcSt11char_traitsIcESaIcEE13_M_set_lengthEy,"x"
	.linkonce discard
	.align 2
	.globl	_ZNSt7__cxx1112basic_stringIcSt11char_traitsIcESaIcEE13_M_set_lengthEy
	.def	_ZNSt7__cxx1112basic_stringIcSt11char_traitsIcESaIcEE13_M_set_lengthEy;	.scl	2;	.type	32;	.endef
	.seh_proc	_ZNSt7__cxx1112basic_stringIcSt11char_traitsIcESaIcEE13_M_set_lengthEy
_ZNSt7__cxx1112basic_stringIcSt11char_traitsIcESaIcEE13_M_set_lengthEy:
.LFB10079:
	pushq	%rbp
	.seh_pushreg	%rbp
	movq	%rsp, %rbp
	.seh_setframe	%rbp, 0
	subq	$48, %rsp
	.seh_stackalloc	48
	.seh_endprologue
	movq	%rcx, 16(%rbp)
	movq	%rdx, 24(%rbp)
	movq	24(%rbp), %rdx
	movq	16(%rbp), %rax
	movq	%rax, %rcx
	call	_ZNSt7__cxx1112basic_stringIcSt11char_traitsIcESaIcEE9_M_lengthEy
	movb	$0, -1(%rbp)
	movq	16(%rbp), %rax
	movq	%rax, %rcx
	call	_ZNKSt7__cxx1112basic_stringIcSt11char_traitsIcESaIcEE7_M_dataEv
	movq	24(%rbp), %rdx
	leaq	(%rax,%rdx), %rcx
	leaq	-1(%rbp), %rax
	movq	%rax, %rdx
	call	_ZNSt11char_traitsIcE6assignERcRKc
	nop
	addq	$48, %rsp
	popq	%rbp
	ret
	.seh_endproc
	.section	.text$_ZNSt7__cxx1112basic_stringIcSt11char_traitsIcESaIcEE10_M_disposeEv,"x"
	.linkonce discard
	.align 2
	.globl	_ZNSt7__cxx1112basic_stringIcSt11char_traitsIcESaIcEE10_M_disposeEv
	.def	_ZNSt7__cxx1112basic_stringIcSt11char_traitsIcESaIcEE10_M_disposeEv;	.scl	2;	.type	32;	.endef
	.seh_proc	_ZNSt7__cxx1112basic_stringIcSt11char_traitsIcESaIcEE10_M_disposeEv
_ZNSt7__cxx1112basic_stringIcSt11char_traitsIcESaIcEE10_M_disposeEv:
.LFB10080:
	pushq	%rbp
	.seh_pushreg	%rbp
	movq	%rsp, %rbp
	.seh_setframe	%rbp, 0
	subq	$32, %rsp
	.seh_stackalloc	32
	.seh_endprologue
	movq	%rcx, 16(%rbp)
	movq	16(%rbp), %rax
	movq	%rax, %rcx
	call	_ZNKSt7__cxx1112basic_stringIcSt11char_traitsIcESaIcEE11_M_is_localEv
	xorl	$1, %eax
	testb	%al, %al
	je	.L178
	movq	16(%rbp), %rax
	movq	16(%rax), %rdx
	movq	16(%rbp), %rax
	movq	%rax, %rcx
	call	_ZNSt7__cxx1112basic_stringIcSt11char_traitsIcESaIcEE10_M_destroyEy
.L178:
	nop
	addq	$32, %rsp
	popq	%rbp
	ret
	.seh_endproc
	.section	.text$_ZNSt7__cxx1112basic_stringIcSt11char_traitsIcESaIcEE16_M_get_allocatorEv,"x"
	.linkonce discard
	.align 2
	.globl	_ZNSt7__cxx1112basic_stringIcSt11char_traitsIcESaIcEE16_M_get_allocatorEv
	.def	_ZNSt7__cxx1112basic_stringIcSt11char_traitsIcESaIcEE16_M_get_allocatorEv;	.scl	2;	.type	32;	.endef
	.seh_proc	_ZNSt7__cxx1112basic_stringIcSt11char_traitsIcESaIcEE16_M_get_allocatorEv
_ZNSt7__cxx1112basic_stringIcSt11char_traitsIcESaIcEE16_M_get_allocatorEv:
.LFB10083:
	pushq	%rbp
	.seh_pushreg	%rbp
	movq	%rsp, %rbp
	.seh_setframe	%rbp, 0
	.seh_endprologue
	movq	%rcx, 16(%rbp)
	movq	16(%rbp), %rax
	popq	%rbp
	ret
	.seh_endproc
	.section	.text$_ZNKSt7__cxx1112basic_stringIcSt11char_traitsIcESaIcEE11_M_is_localEv,"x"
	.linkonce discard
	.align 2
	.globl	_ZNKSt7__cxx1112basic_stringIcSt11char_traitsIcESaIcEE11_M_is_localEv
	.def	_ZNKSt7__cxx1112basic_stringIcSt11char_traitsIcESaIcEE11_M_is_localEv;	.scl	2;	.type	32;	.endef
	.seh_proc	_ZNKSt7__cxx1112basic_stringIcSt11char_traitsIcESaIcEE11_M_is_localEv
_ZNKSt7__cxx1112basic_stringIcSt11char_traitsIcESaIcEE11_M_is_localEv:
.LFB10085:
	pushq	%rbp
	.seh_pushreg	%rbp
	pushq	%rbx
	.seh_pushreg	%rbx
	subq	$40, %rsp
	.seh_stackalloc	40
	leaq	32(%rsp), %rbp
	.seh_setframe	%rbp, 32
	.seh_endprologue
	movq	%rcx, 32(%rbp)
	movq	32(%rbp), %rax
	movq	%rax, %rcx
	call	_ZNKSt7__cxx1112basic_stringIcSt11char_traitsIcESaIcEE7_M_dataEv
	movq	%rax, %rbx
	movq	32(%rbp), %rax
	movq	%rax, %rcx
	call	_ZNKSt7__cxx1112basic_stringIcSt11char_traitsIcESaIcEE13_M_local_dataEv
	cmpq	%rax, %rbx
	sete	%al
	testb	%al, %al
	je	.L182
	movq	32(%rbp), %rax
	movq	8(%rax), %rax
	cmpq	$15, %rax
	movl	$1, %eax
	jmp	.L184
.L182:
	movl	$0, %eax
.L184:
	addq	$40, %rsp
	popq	%rbx
	popq	%rbp
	ret
	.seh_endproc
	.section	.text$_ZNSt7__cxx1112basic_stringIcSt11char_traitsIcESaIcEE7_M_dataEPc,"x"
	.linkonce discard
	.align 2
	.globl	_ZNSt7__cxx1112basic_stringIcSt11char_traitsIcESaIcEE7_M_dataEPc
	.def	_ZNSt7__cxx1112basic_stringIcSt11char_traitsIcESaIcEE7_M_dataEPc;	.scl	2;	.type	32;	.endef
	.seh_proc	_ZNSt7__cxx1112basic_stringIcSt11char_traitsIcESaIcEE7_M_dataEPc
_ZNSt7__cxx1112basic_stringIcSt11char_traitsIcESaIcEE7_M_dataEPc:
.LFB10087:
	pushq	%rbp
	.seh_pushreg	%rbp
	movq	%rsp, %rbp
	.seh_setframe	%rbp, 0
	.seh_endprologue
	movq	%rcx, 16(%rbp)
	movq	%rdx, 24(%rbp)
	movq	16(%rbp), %rax
	movq	24(%rbp), %rdx
	movq	%rdx, (%rax)
	nop
	popq	%rbp
	ret
	.seh_endproc
	.section	.text$_ZNSt7__cxx1112basic_stringIcSt11char_traitsIcESaIcEE11_M_capacityEy,"x"
	.linkonce discard
	.align 2
	.globl	_ZNSt7__cxx1112basic_stringIcSt11char_traitsIcESaIcEE11_M_capacityEy
	.def	_ZNSt7__cxx1112basic_stringIcSt11char_traitsIcESaIcEE11_M_capacityEy;	.scl	2;	.type	32;	.endef
	.seh_proc	_ZNSt7__cxx1112basic_stringIcSt11char_traitsIcESaIcEE11_M_capacityEy
_ZNSt7__cxx1112basic_stringIcSt11char_traitsIcESaIcEE11_M_capacityEy:
.LFB10088:
	pushq	%rbp
	.seh_pushreg	%rbp
	movq	%rsp, %rbp
	.seh_setframe	%rbp, 0
	.seh_endprologue
	movq	%rcx, 16(%rbp)
	movq	%rdx, 24(%rbp)
	movq	16(%rbp), %rax
	movq	24(%rbp), %rdx
	movq	%rdx, 16(%rax)
	nop
	popq	%rbp
	ret
	.seh_endproc
	.section	.text$_ZNSt7__cxx1112basic_stringIcSt11char_traitsIcESaIcEE9_M_lengthEy,"x"
	.linkonce discard
	.align 2
	.globl	_ZNSt7__cxx1112basic_stringIcSt11char_traitsIcESaIcEE9_M_lengthEy
	.def	_ZNSt7__cxx1112basic_stringIcSt11char_traitsIcESaIcEE9_M_lengthEy;	.scl	2;	.type	32;	.endef
	.seh_proc	_ZNSt7__cxx1112basic_stringIcSt11char_traitsIcESaIcEE9_M_lengthEy
_ZNSt7__cxx1112basic_stringIcSt11char_traitsIcESaIcEE9_M_lengthEy:
.LFB10089:
	pushq	%rbp
	.seh_pushreg	%rbp
	movq	%rsp, %rbp
	.seh_setframe	%rbp, 0
	.seh_endprologue
	movq	%rcx, 16(%rbp)
	movq	%rdx, 24(%rbp)
	movq	16(%rbp), %rax
	movq	24(%rbp), %rdx
	movq	%rdx, 8(%rax)
	nop
	popq	%rbp
	ret
	.seh_endproc
	.section	.text$_ZNSt15__new_allocatorIcED2Ev,"x"
	.linkonce discard
	.align 2
	.globl	_ZNSt15__new_allocatorIcED2Ev
	.def	_ZNSt15__new_allocatorIcED2Ev;	.scl	2;	.type	32;	.endef
	.seh_proc	_ZNSt15__new_allocatorIcED2Ev
_ZNSt15__new_allocatorIcED2Ev:
.LFB10125:
	pushq	%rbp
	.seh_pushreg	%rbp
	movq	%rsp, %rbp
	.seh_setframe	%rbp, 0
	.seh_endprologue
	movq	%rcx, 16(%rbp)
	nop
	popq	%rbp
	ret
	.seh_endproc
	.section	.text$_ZNSt7__cxx1112basic_stringIcSt11char_traitsIcESaIcEE12_Alloc_hiderC1EPcRKS3_,"x"
	.linkonce discard
	.align 2
	.globl	_ZNSt7__cxx1112basic_stringIcSt11char_traitsIcESaIcEE12_Alloc_hiderC1EPcRKS3_
	.def	_ZNSt7__cxx1112basic_stringIcSt11char_traitsIcESaIcEE12_Alloc_hiderC1EPcRKS3_;	.scl	2;	.type	32;	.endef
	.seh_proc	_ZNSt7__cxx1112basic_stringIcSt11char_traitsIcESaIcEE12_Alloc_hiderC1EPcRKS3_
_ZNSt7__cxx1112basic_stringIcSt11char_traitsIcESaIcEE12_Alloc_hiderC1EPcRKS3_:
.LFB10129:
	pushq	%rbp
	.seh_pushreg	%rbp
	movq	%rsp, %rbp
	.seh_setframe	%rbp, 0
	subq	$32, %rsp
	.seh_stackalloc	32
	.seh_endprologue
	movq	%rcx, 16(%rbp)
	movq	%rdx, 24(%rbp)
	movq	%r8, 32(%rbp)
	movq	16(%rbp), %rax
	movq	%rax, -8(%rbp)
	movq	32(%rbp), %rax
	movq	%rax, -16(%rbp)
	movq	-8(%rbp), %rax
	movq	%rax, -24(%rbp)
	movq	-16(%rbp), %rax
	movq	%rax, -32(%rbp)
	nop
	nop
	movq	16(%rbp), %rax
	movq	24(%rbp), %rdx
	movq	%rdx, (%rax)
	nop
	addq	$32, %rsp
	popq	%rbp
	ret
	.seh_endproc
	.section	.text$_ZZNSt7__cxx1112basic_stringIcSt11char_traitsIcESaIcEE12_M_constructIPKcEEvT_S8_St20forward_iterator_tagEN6_GuardC1EPS4_,"x"
	.linkonce discard
	.align 2
	.globl	_ZZNSt7__cxx1112basic_stringIcSt11char_traitsIcESaIcEE12_M_constructIPKcEEvT_S8_St20forward_iterator_tagEN6_GuardC1EPS4_
	.def	_ZZNSt7__cxx1112basic_stringIcSt11char_traitsIcESaIcEE12_M_constructIPKcEEvT_S8_St20forward_iterator_tagEN6_GuardC1EPS4_;	.scl	2;	.type	32;	.endef
	.seh_proc	_ZZNSt7__cxx1112basic_stringIcSt11char_traitsIcESaIcEE12_M_constructIPKcEEvT_S8_St20forward_iterator_tagEN6_GuardC1EPS4_
_ZZNSt7__cxx1112basic_stringIcSt11char_traitsIcESaIcEE12_M_constructIPKcEEvT_S8_St20forward_iterator_tagEN6_GuardC1EPS4_:
.LFB10133:
	pushq	%rbp
	.seh_pushreg	%rbp
	movq	%rsp, %rbp
	.seh_setframe	%rbp, 0
	.seh_endprologue
	movq	%rcx, 16(%rbp)
	movq	%rdx, 24(%rbp)
	movq	16(%rbp), %rax
	movq	24(%rbp), %rdx
	movq	%rdx, (%rax)
	nop
	popq	%rbp
	ret
	.seh_endproc
	.section	.text$_ZZNSt7__cxx1112basic_stringIcSt11char_traitsIcESaIcEE12_M_constructIPKcEEvT_S8_St20forward_iterator_tagEN6_GuardD1Ev,"x"
	.linkonce discard
	.align 2
	.globl	_ZZNSt7__cxx1112basic_stringIcSt11char_traitsIcESaIcEE12_M_constructIPKcEEvT_S8_St20forward_iterator_tagEN6_GuardD1Ev
	.def	_ZZNSt7__cxx1112basic_stringIcSt11char_traitsIcESaIcEE12_M_constructIPKcEEvT_S8_St20forward_iterator_tagEN6_GuardD1Ev;	.scl	2;	.type	32;	.endef
	.seh_proc	_ZZNSt7__cxx1112basic_stringIcSt11char_traitsIcESaIcEE12_M_constructIPKcEEvT_S8_St20forward_iterator_tagEN6_GuardD1Ev
_ZZNSt7__cxx1112basic_stringIcSt11char_traitsIcESaIcEE12_M_constructIPKcEEvT_S8_St20forward_iterator_tagEN6_GuardD1Ev:
.LFB10136:
	pushq	%rbp
	.seh_pushreg	%rbp
	movq	%rsp, %rbp
	.seh_setframe	%rbp, 0
	subq	$32, %rsp
	.seh_stackalloc	32
	.seh_endprologue
	movq	%rcx, 16(%rbp)
	movq	16(%rbp), %rax
	movq	(%rax), %rax
	testq	%rax, %rax
	je	.L193
	movq	16(%rbp), %rax
	movq	(%rax), %rax
	movq	%rax, %rcx
	call	_ZNSt7__cxx1112basic_stringIcSt11char_traitsIcESaIcEE10_M_disposeEv
.L193:
	nop
	addq	$32, %rsp
	popq	%rbp
	ret
	.seh_handler	__gxx_personality_seh0, @unwind, @except
	.seh_handlerdata
.LLSDA10136:
	.byte	0xff
	.byte	0xff
	.byte	0x1
	.uleb128 .LLSDACSE10136-.LLSDACSB10136
.LLSDACSB10136:
.LLSDACSE10136:
	.section	.text$_ZZNSt7__cxx1112basic_stringIcSt11char_traitsIcESaIcEE12_M_constructIPKcEEvT_S8_St20forward_iterator_tagEN6_GuardD1Ev,"x"
	.linkonce discard
	.seh_endproc
	.section	.text$_ZNSt7__cxx1112basic_stringIcSt11char_traitsIcESaIcEE12_M_constructIPKcEEvT_S8_St20forward_iterator_tag,"x"
	.linkonce discard
	.align 2
	.globl	_ZNSt7__cxx1112basic_stringIcSt11char_traitsIcESaIcEE12_M_constructIPKcEEvT_S8_St20forward_iterator_tag
	.def	_ZNSt7__cxx1112basic_stringIcSt11char_traitsIcESaIcEE12_M_constructIPKcEEvT_S8_St20forward_iterator_tag;	.scl	2;	.type	32;	.endef
	.seh_proc	_ZNSt7__cxx1112basic_stringIcSt11char_traitsIcESaIcEE12_M_constructIPKcEEvT_S8_St20forward_iterator_tag
_ZNSt7__cxx1112basic_stringIcSt11char_traitsIcESaIcEE12_M_constructIPKcEEvT_S8_St20forward_iterator_tag:
.LFB10130:
	pushq	%rbp
	.seh_pushreg	%rbp
	movq	%rsp, %rbp
	.seh_setframe	%rbp, 0
	subq	$96, %rsp
	.seh_stackalloc	96
	.seh_endprologue
	movq	%rcx, 16(%rbp)
	movq	%rdx, 24(%rbp)
	movq	%r8, 32(%rbp)
	movq	24(%rbp), %rax
	movq	%rax, -56(%rbp)
	movq	32(%rbp), %rax
	movq	%rax, -8(%rbp)
	nop
	movq	-56(%rbp), %rax
	movq	%rax, -16(%rbp)
	movq	-8(%rbp), %rax
	movq	%rax, -24(%rbp)
	movq	-24(%rbp), %rax
	subq	-16(%rbp), %rax
	nop
	movq	%rax, -40(%rbp)
	movq	-40(%rbp), %rax
	cmpq	$15, %rax
	jbe	.L198
	leaq	-40(%rbp), %rax
	movq	16(%rbp), %rcx
	movl	$0, %r8d
	movq	%rax, %rdx
	call	_ZNSt7__cxx1112basic_stringIcSt11char_traitsIcESaIcEE9_M_createERyy
	movq	%rax, %rdx
	movq	16(%rbp), %rax
	movq	%rax, %rcx
	call	_ZNSt7__cxx1112basic_stringIcSt11char_traitsIcESaIcEE7_M_dataEPc
	movq	-40(%rbp), %rdx
	movq	16(%rbp), %rax
	movq	%rax, %rcx
	call	_ZNSt7__cxx1112basic_stringIcSt11char_traitsIcESaIcEE11_M_capacityEy
	jmp	.L199
.L198:
	movq	16(%rbp), %rax
	movq	%rax, -32(%rbp)
	nop
.L199:
	movq	16(%rbp), %rdx
	leaq	-48(%rbp), %rax
	movq	%rax, %rcx
	call	_ZZNSt7__cxx1112basic_stringIcSt11char_traitsIcESaIcEE12_M_constructIPKcEEvT_S8_St20forward_iterator_tagEN6_GuardC1EPS4_
	movq	16(%rbp), %rax
	movq	%rax, %rcx
	call	_ZNKSt7__cxx1112basic_stringIcSt11char_traitsIcESaIcEE7_M_dataEv
	movq	%rax, %rcx
	movq	32(%rbp), %rdx
	movq	24(%rbp), %rax
	movq	%rdx, %r8
	movq	%rax, %rdx
	call	_ZNSt7__cxx1112basic_stringIcSt11char_traitsIcESaIcEE13_S_copy_charsIPKcEEvPcT_S9_
	movq	$0, -48(%rbp)
	movq	-40(%rbp), %rdx
	movq	16(%rbp), %rax
	movq	%rax, %rcx
	call	_ZNSt7__cxx1112basic_stringIcSt11char_traitsIcESaIcEE13_M_set_lengthEy
	leaq	-48(%rbp), %rax
	movq	%rax, %rcx
	call	_ZZNSt7__cxx1112basic_stringIcSt11char_traitsIcESaIcEE12_M_constructIPKcEEvT_S8_St20forward_iterator_tagEN6_GuardD1Ev
	nop
	addq	$96, %rsp
	popq	%rbp
	ret
	.seh_endproc
	.section	.text$_ZNSt15__new_allocatorIyED2Ev,"x"
	.linkonce discard
	.align 2
	.globl	_ZNSt15__new_allocatorIyED2Ev
	.def	_ZNSt15__new_allocatorIyED2Ev;	.scl	2;	.type	32;	.endef
	.seh_proc	_ZNSt15__new_allocatorIyED2Ev
_ZNSt15__new_allocatorIyED2Ev:
.LFB10201:
	pushq	%rbp
	.seh_pushreg	%rbp
	movq	%rsp, %rbp
	.seh_setframe	%rbp, 0
	.seh_endprologue
	movq	%rcx, 16(%rbp)
	nop
	popq	%rbp
	ret
	.seh_endproc
	.section	.text$_ZNSt12_Vector_baseIySaIyEE12_Vector_implD1Ev,"x"
	.linkonce discard
	.align 2
	.globl	_ZNSt12_Vector_baseIySaIyEE12_Vector_implD1Ev
	.def	_ZNSt12_Vector_baseIySaIyEE12_Vector_implD1Ev;	.scl	2;	.type	32;	.endef
	.seh_proc	_ZNSt12_Vector_baseIySaIyEE12_Vector_implD1Ev
_ZNSt12_Vector_baseIySaIyEE12_Vector_implD1Ev:
.LFB10206:
	pushq	%rbp
	.seh_pushreg	%rbp
	movq	%rsp, %rbp
	.seh_setframe	%rbp, 0
	subq	$48, %rsp
	.seh_stackalloc	48
	.seh_endprologue
	movq	%rcx, 16(%rbp)
	movq	16(%rbp), %rax
	movq	%rax, -8(%rbp)
	movq	-8(%rbp), %rax
	movq	%rax, %rcx
	call	_ZNSt15__new_allocatorIyED2Ev
	nop
	nop
	addq	$48, %rsp
	popq	%rbp
	ret
	.seh_endproc
	.section	.text$_ZNSt12_Vector_baseIySaIyEEC2ERKS0_,"x"
	.linkonce discard
	.align 2
	.globl	_ZNSt12_Vector_baseIySaIyEEC2ERKS0_
	.def	_ZNSt12_Vector_baseIySaIyEEC2ERKS0_;	.scl	2;	.type	32;	.endef
	.seh_proc	_ZNSt12_Vector_baseIySaIyEEC2ERKS0_
_ZNSt12_Vector_baseIySaIyEEC2ERKS0_:
.LFB10207:
	pushq	%rbp
	.seh_pushreg	%rbp
	movq	%rsp, %rbp
	.seh_setframe	%rbp, 0
	subq	$32, %rsp
	.seh_stackalloc	32
	.seh_endprologue
	movq	%rcx, 16(%rbp)
	movq	%rdx, 24(%rbp)
	movq	16(%rbp), %rax
	movq	24(%rbp), %rdx
	movq	%rax, %rcx
	call	_ZNSt12_Vector_baseIySaIyEE12_Vector_implC1ERKS0_
	nop
	addq	$32, %rsp
	popq	%rbp
	ret
	.seh_endproc
	.section	.text$_ZNSt12_Vector_baseIySaIyEED2Ev,"x"
	.linkonce discard
	.align 2
	.globl	_ZNSt12_Vector_baseIySaIyEED2Ev
	.def	_ZNSt12_Vector_baseIySaIyEED2Ev;	.scl	2;	.type	32;	.endef
	.seh_proc	_ZNSt12_Vector_baseIySaIyEED2Ev
_ZNSt12_Vector_baseIySaIyEED2Ev:
.LFB10210:
	pushq	%rbp
	.seh_pushreg	%rbp
	movq	%rsp, %rbp
	.seh_setframe	%rbp, 0
	subq	$32, %rsp
	.seh_stackalloc	32
	.seh_endprologue
	movq	%rcx, 16(%rbp)
	movq	16(%rbp), %rax
	movq	16(%rax), %rdx
	movq	16(%rbp), %rax
	movq	(%rax), %rax
	subq	%rax, %rdx
	movq	%rdx, %rax
	sarq	$3, %rax
	movq	%rax, %rcx
	movq	16(%rbp), %rax
	movq	(%rax), %rdx
	movq	16(%rbp), %rax
	movq	%rcx, %r8
	movq	%rax, %rcx
	call	_ZNSt12_Vector_baseIySaIyEE13_M_deallocateEPyy
	movq	16(%rbp), %rax
	movq	%rax, %rcx
	call	_ZNSt12_Vector_baseIySaIyEE12_Vector_implD1Ev
	nop
	addq	$32, %rsp
	popq	%rbp
	ret
	.seh_handler	__gxx_personality_seh0, @unwind, @except
	.seh_handlerdata
.LLSDA10210:
	.byte	0xff
	.byte	0xff
	.byte	0x1
	.uleb128 .LLSDACSE10210-.LLSDACSB10210
.LLSDACSB10210:
.LLSDACSE10210:
	.section	.text$_ZNSt12_Vector_baseIySaIyEED2Ev,"x"
	.linkonce discard
	.seh_endproc
	.section	.text$_ZNKSt16initializer_listIyE5beginEv,"x"
	.linkonce discard
	.align 2
	.globl	_ZNKSt16initializer_listIyE5beginEv
	.def	_ZNKSt16initializer_listIyE5beginEv;	.scl	2;	.type	32;	.endef
	.seh_proc	_ZNKSt16initializer_listIyE5beginEv
_ZNKSt16initializer_listIyE5beginEv:
.LFB10212:
	pushq	%rbp
	.seh_pushreg	%rbp
	movq	%rsp, %rbp
	.seh_setframe	%rbp, 0
	.seh_endprologue
	movq	%rcx, 16(%rbp)
	movq	16(%rbp), %rax
	movq	(%rax), %rax
	popq	%rbp
	ret
	.seh_endproc
	.section	.text$_ZNKSt16initializer_listIyE3endEv,"x"
	.linkonce discard
	.align 2
	.globl	_ZNKSt16initializer_listIyE3endEv
	.def	_ZNKSt16initializer_listIyE3endEv;	.scl	2;	.type	32;	.endef
	.seh_proc	_ZNKSt16initializer_listIyE3endEv
_ZNKSt16initializer_listIyE3endEv:
.LFB10213:
	pushq	%rbp
	.seh_pushreg	%rbp
	pushq	%rbx
	.seh_pushreg	%rbx
	subq	$40, %rsp
	.seh_stackalloc	40
	leaq	32(%rsp), %rbp
	.seh_setframe	%rbp, 32
	.seh_endprologue
	movq	%rcx, 32(%rbp)
	movq	32(%rbp), %rax
	movq	%rax, %rcx
	call	_ZNKSt16initializer_listIyE5beginEv
	movq	%rax, %rbx
	movq	32(%rbp), %rax
	movq	%rax, %rcx
	call	_ZNKSt16initializer_listIyE4sizeEv
	salq	$3, %rax
	addq	%rbx, %rax
	addq	$40, %rsp
	popq	%rbx
	popq	%rbp
	ret
	.seh_endproc
	.section	.text$_ZNKSt16initializer_listIyE4sizeEv,"x"
	.linkonce discard
	.align 2
	.globl	_ZNKSt16initializer_listIyE4sizeEv
	.def	_ZNKSt16initializer_listIyE4sizeEv;	.scl	2;	.type	32;	.endef
	.seh_proc	_ZNKSt16initializer_listIyE4sizeEv
_ZNKSt16initializer_listIyE4sizeEv:
.LFB10214:
	pushq	%rbp
	.seh_pushreg	%rbp
	movq	%rsp, %rbp
	.seh_setframe	%rbp, 0
	.seh_endprologue
	movq	%rcx, 16(%rbp)
	movq	16(%rbp), %rax
	movq	8(%rax), %rax
	popq	%rbp
	ret
	.seh_endproc
	.section	.text$_ZNSt6vectorIySaIyEE21_M_range_initialize_nIPKyS4_EEvT_T0_y,"x"
	.linkonce discard
	.align 2
	.globl	_ZNSt6vectorIySaIyEE21_M_range_initialize_nIPKyS4_EEvT_T0_y
	.def	_ZNSt6vectorIySaIyEE21_M_range_initialize_nIPKyS4_EEvT_T0_y;	.scl	2;	.type	32;	.endef
	.seh_proc	_ZNSt6vectorIySaIyEE21_M_range_initialize_nIPKyS4_EEvT_T0_y
_ZNSt6vectorIySaIyEE21_M_range_initialize_nIPKyS4_EEvT_T0_y:
.LFB10215:
	pushq	%rbp
	.seh_pushreg	%rbp
	pushq	%rbx
	.seh_pushreg	%rbx
	subq	$56, %rsp
	.seh_stackalloc	56
	leaq	48(%rsp), %rbp
	.seh_setframe	%rbp, 48
	.seh_endprologue
	movq	%rcx, 32(%rbp)
	movq	%rdx, 40(%rbp)
	movq	%r8, 48(%rbp)
	movq	%r9, 56(%rbp)
	movq	32(%rbp), %rbx
	movq	32(%rbp), %rax
	movq	%rax, %rcx
	call	_ZNSt12_Vector_baseIySaIyEE19_M_get_Tp_allocatorEv
	movq	%rax, %rdx
	movq	56(%rbp), %rax
	movq	%rax, %rcx
	call	_ZNSt6vectorIySaIyEE17_S_check_init_lenEyRKS0_
	movq	%rax, %rdx
	movq	%rbx, %rcx
	call	_ZNSt12_Vector_baseIySaIyEE11_M_allocateEy
	movq	%rax, -8(%rbp)
	movq	32(%rbp), %rax
	movq	-8(%rbp), %rdx
	movq	%rdx, 8(%rax)
	movq	32(%rbp), %rax
	movq	8(%rax), %rdx
	movq	32(%rbp), %rax
	movq	%rdx, (%rax)
	movq	56(%rbp), %rax
	leaq	0(,%rax,8), %rdx
	movq	-8(%rbp), %rax
	addq	%rax, %rdx
	movq	32(%rbp), %rax
	movq	%rdx, 16(%rax)
	movq	32(%rbp), %rax
	movq	%rax, %rcx
	call	_ZNSt12_Vector_baseIySaIyEE19_M_get_Tp_allocatorEv
	movq	%rax, %rcx
	leaq	40(%rbp), %rax
	movq	(%rax), %rax
	movq	-8(%rbp), %r8
	movq	48(%rbp), %rdx
	movq	%rcx, %r9
	movq	%rax, %rcx
	call	_ZSt22__uninitialized_copy_aIPKyS1_PyyET1_T_T0_S3_RSaIT2_E
	movq	32(%rbp), %rdx
	movq	%rax, 8(%rdx)
	nop
	addq	$56, %rsp
	popq	%rbx
	popq	%rbp
	ret
	.seh_endproc
	.section	.text$_ZNSt12_Vector_baseIySaIyEE19_M_get_Tp_allocatorEv,"x"
	.linkonce discard
	.align 2
	.globl	_ZNSt12_Vector_baseIySaIyEE19_M_get_Tp_allocatorEv
	.def	_ZNSt12_Vector_baseIySaIyEE19_M_get_Tp_allocatorEv;	.scl	2;	.type	32;	.endef
	.seh_proc	_ZNSt12_Vector_baseIySaIyEE19_M_get_Tp_allocatorEv
_ZNSt12_Vector_baseIySaIyEE19_M_get_Tp_allocatorEv:
.LFB10216:
	pushq	%rbp
	.seh_pushreg	%rbp
	movq	%rsp, %rbp
	.seh_setframe	%rbp, 0
	.seh_endprologue
	movq	%rcx, 16(%rbp)
	movq	16(%rbp), %rax
	popq	%rbp
	ret
	.seh_endproc
	.section	.text$_ZNSt6chronomiINS_3_V212system_clockENS_8durationIxSt5ratioILx1ELx1000000000EEEES6_EENSt11common_typeIJT0_T1_EE4typeERKNS_10time_pointIT_S8_EERKNSC_ISD_S9_EE,"x"
	.linkonce discard
	.globl	_ZNSt6chronomiINS_3_V212system_clockENS_8durationIxSt5ratioILx1ELx1000000000EEEES6_EENSt11common_typeIJT0_T1_EE4typeERKNS_10time_pointIT_S8_EERKNSC_ISD_S9_EE
	.def	_ZNSt6chronomiINS_3_V212system_clockENS_8durationIxSt5ratioILx1ELx1000000000EEEES6_EENSt11common_typeIJT0_T1_EE4typeERKNS_10time_pointIT_S8_EERKNSC_ISD_S9_EE;	.scl	2;	.type	32;	.endef
	.seh_proc	_ZNSt6chronomiINS_3_V212system_clockENS_8durationIxSt5ratioILx1ELx1000000000EEEES6_EENSt11common_typeIJT0_T1_EE4typeERKNS_10time_pointIT_S8_EERKNSC_ISD_S9_EE
_ZNSt6chronomiINS_3_V212system_clockENS_8durationIxSt5ratioILx1ELx1000000000EEEES6_EENSt11common_typeIJT0_T1_EE4typeERKNS_10time_pointIT_S8_EERKNSC_ISD_S9_EE:
.LFB10221:
	pushq	%rbp
	.seh_pushreg	%rbp
	movq	%rsp, %rbp
	.seh_setframe	%rbp, 0
	subq	$48, %rsp
	.seh_stackalloc	48
	.seh_endprologue
	movq	%rcx, 16(%rbp)
	movq	%rdx, 24(%rbp)
	movq	24(%rbp), %rax
	movq	%rax, %rcx
	call	_ZNKSt6chrono10time_pointINS_3_V212system_clockENS_8durationIxSt5ratioILx1ELx1000000000EEEEE16time_since_epochEv
	movq	%rax, -16(%rbp)
	movq	16(%rbp), %rax
	movq	%rax, %rcx
	call	_ZNKSt6chrono10time_pointINS_3_V212system_clockENS_8durationIxSt5ratioILx1ELx1000000000EEEEE16time_since_epochEv
	movq	%rax, -8(%rbp)
	leaq	-16(%rbp), %rdx
	leaq	-8(%rbp), %rax
	movq	%rax, %rcx
	call	_ZNSt6chronomiIxSt5ratioILx1ELx1000000000EExS2_EENSt11common_typeIJNS_8durationIT_T0_EENS4_IT1_T2_EEEE4typeERKS7_RKSA_
	addq	$48, %rsp
	popq	%rbp
	ret
	.seh_endproc
	.section	.text$_ZNSt6chrono8durationIdSt5ratioILx1ELx1EEEC1IxS1_ILx1ELx1000000000EEvEERKNS0_IT_T0_EE,"x"
	.linkonce discard
	.align 2
	.globl	_ZNSt6chrono8durationIdSt5ratioILx1ELx1EEEC1IxS1_ILx1ELx1000000000EEvEERKNS0_IT_T0_EE
	.def	_ZNSt6chrono8durationIdSt5ratioILx1ELx1EEEC1IxS1_ILx1ELx1000000000EEvEERKNS0_IT_T0_EE;	.scl	2;	.type	32;	.endef
	.seh_proc	_ZNSt6chrono8durationIdSt5ratioILx1ELx1EEEC1IxS1_ILx1ELx1000000000EEvEERKNS0_IT_T0_EE
_ZNSt6chrono8durationIdSt5ratioILx1ELx1EEEC1IxS1_ILx1ELx1000000000EEvEERKNS0_IT_T0_EE:
.LFB10224:
	pushq	%rbp
	.seh_pushreg	%rbp
	movq	%rsp, %rbp
	.seh_setframe	%rbp, 0
	subq	$48, %rsp
	.seh_stackalloc	48
	.seh_endprologue
	movq	%rcx, 16(%rbp)
	movq	%rdx, 24(%rbp)
	movq	24(%rbp), %rax
	movq	%rax, %rcx
	call	_ZNSt6chrono13duration_castINS_8durationIdSt5ratioILx1ELx1EEEExS2_ILx1ELx1000000000EEEENSt9enable_ifIXsrNS_13__is_durationIT_EE5valueES8_E4typeERKNS1_IT0_T1_EE
	movq	%rax, %xmm0
	movsd	%xmm0, -8(%rbp)
	leaq	-8(%rbp), %rax
	movq	%rax, %rcx
	call	_ZNKSt6chrono8durationIdSt5ratioILx1ELx1EEE5countEv
	movq	%xmm0, %rax
	movq	16(%rbp), %rdx
	movq	%rax, (%rdx)
	nop
	addq	$48, %rsp
	popq	%rbp
	ret
	.seh_endproc
	.section	.text$_ZNKSt6chrono8durationIdSt5ratioILx1ELx1EEE5countEv,"x"
	.linkonce discard
	.align 2
	.globl	_ZNKSt6chrono8durationIdSt5ratioILx1ELx1EEE5countEv
	.def	_ZNKSt6chrono8durationIdSt5ratioILx1ELx1EEE5countEv;	.scl	2;	.type	32;	.endef
	.seh_proc	_ZNKSt6chrono8durationIdSt5ratioILx1ELx1EEE5countEv
_ZNKSt6chrono8durationIdSt5ratioILx1ELx1EEE5countEv:
.LFB10225:
	pushq	%rbp
	.seh_pushreg	%rbp
	movq	%rsp, %rbp
	.seh_setframe	%rbp, 0
	.seh_endprologue
	movq	%rcx, 16(%rbp)
	movq	16(%rbp), %rax
	movsd	(%rax), %xmm0
	popq	%rbp
	ret
	.seh_endproc
	.section	.text$_ZNSt19__ptr_traits_ptr_toIPccLb0EE10pointer_toERc,"x"
	.linkonce discard
	.globl	_ZNSt19__ptr_traits_ptr_toIPccLb0EE10pointer_toERc
	.def	_ZNSt19__ptr_traits_ptr_toIPccLb0EE10pointer_toERc;	.scl	2;	.type	32;	.endef
	.seh_proc	_ZNSt19__ptr_traits_ptr_toIPccLb0EE10pointer_toERc
_ZNSt19__ptr_traits_ptr_toIPccLb0EE10pointer_toERc:
.LFB10226:
	pushq	%rbp
	.seh_pushreg	%rbp
	movq	%rsp, %rbp
	.seh_setframe	%rbp, 0
	subq	$16, %rsp
	.seh_stackalloc	16
	.seh_endprologue
	movq	%rcx, 16(%rbp)
	movq	16(%rbp), %rax
	movq	%rax, -8(%rbp)
	movq	-8(%rbp), %rax
	movq	%rax, -16(%rbp)
	movq	-16(%rbp), %rax
	nop
	addq	$16, %rsp
	popq	%rbp
	ret
	.seh_endproc
	.section	.text$_ZNSt7__cxx1112basic_stringIcSt11char_traitsIcESaIcEE10_M_destroyEy,"x"
	.linkonce discard
	.align 2
	.globl	_ZNSt7__cxx1112basic_stringIcSt11char_traitsIcESaIcEE10_M_destroyEy
	.def	_ZNSt7__cxx1112basic_stringIcSt11char_traitsIcESaIcEE10_M_destroyEy;	.scl	2;	.type	32;	.endef
	.seh_proc	_ZNSt7__cxx1112basic_stringIcSt11char_traitsIcESaIcEE10_M_destroyEy
_ZNSt7__cxx1112basic_stringIcSt11char_traitsIcESaIcEE10_M_destroyEy:
.LFB10230:
	pushq	%rbp
	.seh_pushreg	%rbp
	pushq	%rsi
	.seh_pushreg	%rsi
	pushq	%rbx
	.seh_pushreg	%rbx
	subq	$64, %rsp
	.seh_stackalloc	64
	leaq	64(%rsp), %rbp
	.seh_setframe	%rbp, 64
	.seh_endprologue
	movq	%rcx, 32(%rbp)
	movq	%rdx, 40(%rbp)
	movq	40(%rbp), %rax
	leaq	1(%rax), %rsi
	movq	32(%rbp), %rax
	movq	%rax, %rcx
	call	_ZNKSt7__cxx1112basic_stringIcSt11char_traitsIcESaIcEE7_M_dataEv
	movq	%rax, %rbx
	movq	32(%rbp), %rax
	movq	%rax, %rcx
	call	_ZNSt7__cxx1112basic_stringIcSt11char_traitsIcESaIcEE16_M_get_allocatorEv
	movq	%rax, -8(%rbp)
	movq	%rbx, -16(%rbp)
	movq	%rsi, -24(%rbp)
	movq	-24(%rbp), %rcx
	movq	-16(%rbp), %rdx
	movq	-8(%rbp), %rax
	movq	%rcx, %r8
	movq	%rax, %rcx
	call	_ZNSt15__new_allocatorIcE10deallocateEPcy
	nop
	nop
	addq	$64, %rsp
	popq	%rbx
	popq	%rsi
	popq	%rbp
	ret
	.seh_endproc
	.section .rdata,"dr"
.LC22:
	.ascii "basic_string::_M_create\0"
	.section	.text$_ZNSt7__cxx1112basic_stringIcSt11char_traitsIcESaIcEE9_M_createERyy,"x"
	.linkonce discard
	.align 2
	.globl	_ZNSt7__cxx1112basic_stringIcSt11char_traitsIcESaIcEE9_M_createERyy
	.def	_ZNSt7__cxx1112basic_stringIcSt11char_traitsIcESaIcEE9_M_createERyy;	.scl	2;	.type	32;	.endef
	.seh_proc	_ZNSt7__cxx1112basic_stringIcSt11char_traitsIcESaIcEE9_M_createERyy
_ZNSt7__cxx1112basic_stringIcSt11char_traitsIcESaIcEE9_M_createERyy:
.LFB10232:
	pushq	%rbp
	.seh_pushreg	%rbp
	pushq	%rbx
	.seh_pushreg	%rbx
	subq	$40, %rsp
	.seh_stackalloc	40
	leaq	32(%rsp), %rbp
	.seh_setframe	%rbp, 32
	.seh_endprologue
	movq	%rcx, 32(%rbp)
	movq	%rdx, 40(%rbp)
	movq	%r8, 48(%rbp)
	movq	40(%rbp), %rax
	movq	(%rax), %rbx
	movq	32(%rbp), %rax
	movq	%rax, %rcx
	call	_ZNKSt7__cxx1112basic_stringIcSt11char_traitsIcESaIcEE8max_sizeEv
	cmpq	%rbx, %rax
	setb	%al
	testb	%al, %al
	je	.L225
	leaq	.LC22(%rip), %rax
	movq	%rax, %rcx
	call	_ZSt20__throw_length_errorPKc
.L225:
	movq	40(%rbp), %rax
	movq	(%rax), %rax
	cmpq	%rax, 48(%rbp)
	jnb	.L226
	movq	40(%rbp), %rax
	movq	(%rax), %rdx
	movq	48(%rbp), %rax
	addq	%rax, %rax
	cmpq	%rax, %rdx
	jnb	.L226
	movq	48(%rbp), %rax
	leaq	(%rax,%rax), %rdx
	movq	40(%rbp), %rax
	movq	%rdx, (%rax)
	movq	40(%rbp), %rax
	movq	(%rax), %rbx
	movq	32(%rbp), %rax
	movq	%rax, %rcx
	call	_ZNKSt7__cxx1112basic_stringIcSt11char_traitsIcESaIcEE8max_sizeEv
	cmpq	%rbx, %rax
	setb	%al
	testb	%al, %al
	je	.L226
	movq	32(%rbp), %rax
	movq	%rax, %rcx
	call	_ZNKSt7__cxx1112basic_stringIcSt11char_traitsIcESaIcEE8max_sizeEv
	movq	40(%rbp), %rdx
	movq	%rax, (%rdx)
.L226:
	movq	40(%rbp), %rax
	movq	(%rax), %rax
	leaq	1(%rax), %rbx
	movq	32(%rbp), %rax
	movq	%rax, %rcx
	call	_ZNSt7__cxx1112basic_stringIcSt11char_traitsIcESaIcEE16_M_get_allocatorEv
	movq	%rbx, %rdx
	movq	%rax, %rcx
	call	_ZNSt7__cxx1112basic_stringIcSt11char_traitsIcESaIcEE11_S_allocateERS3_y
	addq	$40, %rsp
	popq	%rbx
	popq	%rbp
	ret
	.seh_endproc
	.section	.text$_ZNSt7__cxx1112basic_stringIcSt11char_traitsIcESaIcEE7_S_copyEPcPKcy,"x"
	.linkonce discard
	.globl	_ZNSt7__cxx1112basic_stringIcSt11char_traitsIcESaIcEE7_S_copyEPcPKcy
	.def	_ZNSt7__cxx1112basic_stringIcSt11char_traitsIcESaIcEE7_S_copyEPcPKcy;	.scl	2;	.type	32;	.endef
	.seh_proc	_ZNSt7__cxx1112basic_stringIcSt11char_traitsIcESaIcEE7_S_copyEPcPKcy
_ZNSt7__cxx1112basic_stringIcSt11char_traitsIcESaIcEE7_S_copyEPcPKcy:
.LFB10233:
	pushq	%rbp
	.seh_pushreg	%rbp
	movq	%rsp, %rbp
	.seh_setframe	%rbp, 0
	subq	$32, %rsp
	.seh_stackalloc	32
	.seh_endprologue
	movq	%rcx, 16(%rbp)
	movq	%rdx, 24(%rbp)
	movq	%r8, 32(%rbp)
	cmpq	$1, 32(%rbp)
	jne	.L229
	movq	24(%rbp), %rdx
	movq	16(%rbp), %rax
	movq	%rax, %rcx
	call	_ZNSt11char_traitsIcE6assignERcRKc
	jmp	.L231
.L229:
	movq	32(%rbp), %rcx
	movq	24(%rbp), %rdx
	movq	16(%rbp), %rax
	movq	%rcx, %r8
	movq	%rax, %rcx
	call	_ZNSt11char_traitsIcE4copyEPcPKcy
.L231:
	nop
	addq	$32, %rsp
	popq	%rbp
	ret
	.seh_endproc
	.section	.text$_ZNKSt7__cxx1112basic_stringIcSt11char_traitsIcESaIcEE13_M_local_dataEv,"x"
	.linkonce discard
	.align 2
	.globl	_ZNKSt7__cxx1112basic_stringIcSt11char_traitsIcESaIcEE13_M_local_dataEv
	.def	_ZNKSt7__cxx1112basic_stringIcSt11char_traitsIcESaIcEE13_M_local_dataEv;	.scl	2;	.type	32;	.endef
	.seh_proc	_ZNKSt7__cxx1112basic_stringIcSt11char_traitsIcESaIcEE13_M_local_dataEv
_ZNKSt7__cxx1112basic_stringIcSt11char_traitsIcESaIcEE13_M_local_dataEv:
.LFB10234:
	pushq	%rbp
	.seh_pushreg	%rbp
	movq	%rsp, %rbp
	.seh_setframe	%rbp, 0
	subq	$32, %rsp
	.seh_stackalloc	32
	.seh_endprologue
	movq	%rcx, 16(%rbp)
	movq	16(%rbp), %rax
	addq	$16, %rax
	movq	%rax, %rcx
	call	_ZNSt19__ptr_traits_ptr_toIPKcS0_Lb0EE10pointer_toERS0_
	addq	$32, %rsp
	popq	%rbp
	ret
	.seh_endproc
	.section	.text$_ZSt3minIyERKT_S2_S2_,"x"
	.linkonce discard
	.globl	_ZSt3minIyERKT_S2_S2_
	.def	_ZSt3minIyERKT_S2_S2_;	.scl	2;	.type	32;	.endef
	.seh_proc	_ZSt3minIyERKT_S2_S2_
_ZSt3minIyERKT_S2_S2_:
.LFB10257:
	pushq	%rbp
	.seh_pushreg	%rbp
	movq	%rsp, %rbp
	.seh_setframe	%rbp, 0
	.seh_endprologue
	movq	%rcx, 16(%rbp)
	movq	%rdx, 24(%rbp)
	movq	24(%rbp), %rax
	movq	(%rax), %rdx
	movq	16(%rbp), %rax
	movq	(%rax), %rax
	cmpq	%rax, %rdx
	jnb	.L235
	movq	24(%rbp), %rax
	jmp	.L236
.L235:
	movq	16(%rbp), %rax
.L236:
	popq	%rbp
	ret
	.seh_endproc
	.section	.text$_ZNKSt7__cxx1112basic_stringIcSt11char_traitsIcESaIcEE8max_sizeEv,"x"
	.linkonce discard
	.align 2
	.globl	_ZNKSt7__cxx1112basic_stringIcSt11char_traitsIcESaIcEE8max_sizeEv
	.def	_ZNKSt7__cxx1112basic_stringIcSt11char_traitsIcESaIcEE8max_sizeEv;	.scl	2;	.type	32;	.endef
	.seh_proc	_ZNKSt7__cxx1112basic_stringIcSt11char_traitsIcESaIcEE8max_sizeEv
_ZNKSt7__cxx1112basic_stringIcSt11char_traitsIcESaIcEE8max_sizeEv:
.LFB10256:
	pushq	%rbp
	.seh_pushreg	%rbp
	movq	%rsp, %rbp
	.seh_setframe	%rbp, 0
	subq	$80, %rsp
	.seh_stackalloc	80
	.seh_endprologue
	movq	%rcx, 16(%rbp)
	movabsq	$9223372036854775807, %rax
	movq	%rax, -32(%rbp)
	movq	16(%rbp), %rax
	movq	%rax, %rcx
	call	_ZNKSt7__cxx1112basic_stringIcSt11char_traitsIcESaIcEE16_M_get_allocatorEv
	movq	%rax, -8(%rbp)
	movq	-8(%rbp), %rax
	movq	%rax, -16(%rbp)
	movq	-16(%rbp), %rax
	movq	%rax, -24(%rbp)
	movabsq	$9223372036854775807, %rax
	nop
	nop
	movq	%rax, -40(%rbp)
	leaq	-40(%rbp), %rdx
	leaq	-32(%rbp), %rax
	movq	%rax, %rcx
	call	_ZSt3minIyERKT_S2_S2_
	movq	(%rax), %rax
	subq	$1, %rax
	addq	$80, %rsp
	popq	%rbp
	ret
	.seh_endproc
	.section	.text$_ZNSt7__cxx1112basic_stringIcSt11char_traitsIcESaIcEE13_S_copy_charsIPKcEEvPcT_S9_,"x"
	.linkonce discard
	.globl	_ZNSt7__cxx1112basic_stringIcSt11char_traitsIcESaIcEE13_S_copy_charsIPKcEEvPcT_S9_
	.def	_ZNSt7__cxx1112basic_stringIcSt11char_traitsIcESaIcEE13_S_copy_charsIPKcEEvPcT_S9_;	.scl	2;	.type	32;	.endef
	.seh_proc	_ZNSt7__cxx1112basic_stringIcSt11char_traitsIcESaIcEE13_S_copy_charsIPKcEEvPcT_S9_
_ZNSt7__cxx1112basic_stringIcSt11char_traitsIcESaIcEE13_S_copy_charsIPKcEEvPcT_S9_:
.LFB10258:
	pushq	%rbp
	.seh_pushreg	%rbp
	movq	%rsp, %rbp
	.seh_setframe	%rbp, 0
	subq	$48, %rsp
	.seh_stackalloc	48
	.seh_endprologue
	movq	%rcx, 16(%rbp)
	movq	%rdx, 24(%rbp)
	movq	%r8, 32(%rbp)
	movq	32(%rbp), %rax
	subq	24(%rbp), %rax
	movq	%rax, %rcx
	movq	24(%rbp), %rax
	movq	%rax, -8(%rbp)
	movq	-8(%rbp), %rdx
	movq	16(%rbp), %rax
	movq	%rcx, %r8
	movq	%rax, %rcx
	call	_ZNSt7__cxx1112basic_stringIcSt11char_traitsIcESaIcEE7_S_copyEPcPKcy
	nop
	addq	$48, %rsp
	popq	%rbp
	ret
	.seh_endproc
	.section	.text$_ZNSt12_Vector_baseIySaIyEE12_Vector_implC1ERKS0_,"x"
	.linkonce discard
	.align 2
	.globl	_ZNSt12_Vector_baseIySaIyEE12_Vector_implC1ERKS0_
	.def	_ZNSt12_Vector_baseIySaIyEE12_Vector_implC1ERKS0_;	.scl	2;	.type	32;	.endef
	.seh_proc	_ZNSt12_Vector_baseIySaIyEE12_Vector_implC1ERKS0_
_ZNSt12_Vector_baseIySaIyEE12_Vector_implC1ERKS0_:
.LFB10299:
	pushq	%rbp
	.seh_pushreg	%rbp
	movq	%rsp, %rbp
	.seh_setframe	%rbp, 0
	subq	$64, %rsp
	.seh_stackalloc	64
	.seh_endprologue
	movq	%rcx, 16(%rbp)
	movq	%rdx, 24(%rbp)
	movq	16(%rbp), %rax
	movq	%rax, -8(%rbp)
	movq	24(%rbp), %rax
	movq	%rax, -16(%rbp)
	movq	-8(%rbp), %rax
	movq	%rax, -24(%rbp)
	movq	-16(%rbp), %rax
	movq	%rax, -32(%rbp)
	nop
	nop
	movq	16(%rbp), %rax
	movq	%rax, %rcx
	call	_ZNSt12_Vector_baseIySaIyEE17_Vector_impl_dataC2Ev
	nop
	addq	$64, %rsp
	popq	%rbp
	ret
	.seh_endproc
	.section	.text$_ZNSt12_Vector_baseIySaIyEE13_M_deallocateEPyy,"x"
	.linkonce discard
	.align 2
	.globl	_ZNSt12_Vector_baseIySaIyEE13_M_deallocateEPyy
	.def	_ZNSt12_Vector_baseIySaIyEE13_M_deallocateEPyy;	.scl	2;	.type	32;	.endef
	.seh_proc	_ZNSt12_Vector_baseIySaIyEE13_M_deallocateEPyy
_ZNSt12_Vector_baseIySaIyEE13_M_deallocateEPyy:
.LFB10300:
	pushq	%rbp
	.seh_pushreg	%rbp
	movq	%rsp, %rbp
	.seh_setframe	%rbp, 0
	subq	$64, %rsp
	.seh_stackalloc	64
	.seh_endprologue
	movq	%rcx, 16(%rbp)
	movq	%rdx, 24(%rbp)
	movq	%r8, 32(%rbp)
	cmpq	$0, 24(%rbp)
	je	.L247
	movq	16(%rbp), %rax
	movq	%rax, -8(%rbp)
	movq	24(%rbp), %rax
	movq	%rax, -16(%rbp)
	movq	32(%rbp), %rax
	movq	%rax, -24(%rbp)
	movq	-24(%rbp), %rcx
	movq	-16(%rbp), %rdx
	movq	-8(%rbp), %rax
	movq	%rcx, %r8
	movq	%rax, %rcx
	call	_ZNSt15__new_allocatorIyE10deallocateEPyy
	nop
.L247:
	nop
	addq	$64, %rsp
	popq	%rbp
	ret
	.seh_endproc
	.section .rdata,"dr"
	.align 8
.LC23:
	.ascii "cannot create std::vector larger than max_size()\0"
	.section	.text$_ZNSt6vectorIySaIyEE17_S_check_init_lenEyRKS0_,"x"
	.linkonce discard
	.globl	_ZNSt6vectorIySaIyEE17_S_check_init_lenEyRKS0_
	.def	_ZNSt6vectorIySaIyEE17_S_check_init_lenEyRKS0_;	.scl	2;	.type	32;	.endef
	.seh_proc	_ZNSt6vectorIySaIyEE17_S_check_init_lenEyRKS0_
_ZNSt6vectorIySaIyEE17_S_check_init_lenEyRKS0_:
.LFB10301:
	pushq	%rbp
	.seh_pushreg	%rbp
	pushq	%rbx
	.seh_pushreg	%rbx
	subq	$72, %rsp
	.seh_stackalloc	72
	leaq	64(%rsp), %rbp
	.seh_setframe	%rbp, 64
	.seh_endprologue
	movq	%rcx, 32(%rbp)
	movq	%rdx, 40(%rbp)
	movq	40(%rbp), %rax
	movq	%rax, -8(%rbp)
	leaq	-25(%rbp), %rax
	movq	%rax, -16(%rbp)
	movq	-8(%rbp), %rax
	movq	%rax, -24(%rbp)
	nop
	nop
	leaq	-25(%rbp), %rax
	movq	%rax, %rcx
	call	_ZNSt6vectorIySaIyEE11_S_max_sizeERKS0_
	cmpq	32(%rbp), %rax
	setb	%bl
	leaq	-25(%rbp), %rax
	movq	%rax, %rcx
	call	_ZNSt15__new_allocatorIyED2Ev
	nop
	testb	%bl, %bl
	je	.L249
	leaq	.LC23(%rip), %rax
	movq	%rax, %rcx
	call	_ZSt20__throw_length_errorPKc
.L249:
	movq	32(%rbp), %rax
	addq	$72, %rsp
	popq	%rbx
	popq	%rbp
	ret
	.seh_endproc
	.section	.text$_ZNSt12_Vector_baseIySaIyEE11_M_allocateEy,"x"
	.linkonce discard
	.align 2
	.globl	_ZNSt12_Vector_baseIySaIyEE11_M_allocateEy
	.def	_ZNSt12_Vector_baseIySaIyEE11_M_allocateEy;	.scl	2;	.type	32;	.endef
	.seh_proc	_ZNSt12_Vector_baseIySaIyEE11_M_allocateEy
_ZNSt12_Vector_baseIySaIyEE11_M_allocateEy:
.LFB10302:
	pushq	%rbp
	.seh_pushreg	%rbp
	movq	%rsp, %rbp
	.seh_setframe	%rbp, 0
	subq	$48, %rsp
	.seh_stackalloc	48
	.seh_endprologue
	movq	%rcx, 16(%rbp)
	movq	%rdx, 24(%rbp)
	cmpq	$0, 24(%rbp)
	je	.L252
	movq	16(%rbp), %rax
	movq	%rax, -8(%rbp)
	movq	24(%rbp), %rax
	movq	%rax, -16(%rbp)
	movq	-16(%rbp), %rdx
	movq	-8(%rbp), %rax
	movl	$0, %r8d
	movq	%rax, %rcx
	call	_ZNSt15__new_allocatorIyE8allocateEyPKv
	nop
	jmp	.L254
.L252:
	movl	$0, %eax
.L254:
	addq	$48, %rsp
	popq	%rbp
	ret
	.seh_endproc
	.section	.text$_ZSt22__uninitialized_copy_aIPKyS1_PyyET1_T_T0_S3_RSaIT2_E,"x"
	.linkonce discard
	.globl	_ZSt22__uninitialized_copy_aIPKyS1_PyyET1_T_T0_S3_RSaIT2_E
	.def	_ZSt22__uninitialized_copy_aIPKyS1_PyyET1_T_T0_S3_RSaIT2_E;	.scl	2;	.type	32;	.endef
	.seh_proc	_ZSt22__uninitialized_copy_aIPKyS1_PyyET1_T_T0_S3_RSaIT2_E
_ZSt22__uninitialized_copy_aIPKyS1_PyyET1_T_T0_S3_RSaIT2_E:
.LFB10304:
	pushq	%rbp
	.seh_pushreg	%rbp
	movq	%rsp, %rbp
	.seh_setframe	%rbp, 0
	subq	$32, %rsp
	.seh_stackalloc	32
	.seh_endprologue
	movq	%rcx, 16(%rbp)
	movq	%rdx, 24(%rbp)
	movq	%r8, 32(%rbp)
	movq	%r9, 40(%rbp)
	movq	32(%rbp), %rcx
	movq	24(%rbp), %rdx
	movq	16(%rbp), %rax
	movq	%rcx, %r8
	movq	%rax, %rcx
	call	_ZSt18uninitialized_copyIPKyPyET0_T_S4_S3_
	addq	$32, %rsp
	popq	%rbp
	ret
	.seh_endproc
	.section	.text$_ZSt8_DestroyIPyEvT_S1_,"x"
	.linkonce discard
	.globl	_ZSt8_DestroyIPyEvT_S1_
	.def	_ZSt8_DestroyIPyEvT_S1_;	.scl	2;	.type	32;	.endef
	.seh_proc	_ZSt8_DestroyIPyEvT_S1_
_ZSt8_DestroyIPyEvT_S1_:
.LFB10305:
	pushq	%rbp
	.seh_pushreg	%rbp
	movq	%rsp, %rbp
	.seh_setframe	%rbp, 0
	.seh_endprologue
	movq	%rcx, 16(%rbp)
	movq	%rdx, 24(%rbp)
	nop
	popq	%rbp
	ret
	.seh_endproc
	.section	.text$_ZNSt6chronomiIxSt5ratioILx1ELx1000000000EExS2_EENSt11common_typeIJNS_8durationIT_T0_EENS4_IT1_T2_EEEE4typeERKS7_RKSA_,"x"
	.linkonce discard
	.globl	_ZNSt6chronomiIxSt5ratioILx1ELx1000000000EExS2_EENSt11common_typeIJNS_8durationIT_T0_EENS4_IT1_T2_EEEE4typeERKS7_RKSA_
	.def	_ZNSt6chronomiIxSt5ratioILx1ELx1000000000EExS2_EENSt11common_typeIJNS_8durationIT_T0_EENS4_IT1_T2_EEEE4typeERKS7_RKSA_;	.scl	2;	.type	32;	.endef
	.seh_proc	_ZNSt6chronomiIxSt5ratioILx1ELx1000000000EExS2_EENSt11common_typeIJNS_8durationIT_T0_EENS4_IT1_T2_EEEE4typeERKS7_RKSA_
_ZNSt6chronomiIxSt5ratioILx1ELx1000000000EExS2_EENSt11common_typeIJNS_8durationIT_T0_EENS4_IT1_T2_EEEE4typeERKS7_RKSA_:
.LFB10306:
	pushq	%rbp
	.seh_pushreg	%rbp
	pushq	%rbx
	.seh_pushreg	%rbx
	subq	$72, %rsp
	.seh_stackalloc	72
	leaq	64(%rsp), %rbp
	.seh_setframe	%rbp, 64
	.seh_endprologue
	movq	%rcx, 32(%rbp)
	movq	%rdx, 40(%rbp)
	movq	32(%rbp), %rax
	movq	(%rax), %rax
	movq	%rax, -16(%rbp)
	leaq	-16(%rbp), %rax
	movq	%rax, %rcx
	call	_ZNKSt6chrono8durationIxSt5ratioILx1ELx1000000000EEE5countEv
	movq	%rax, %rbx
	movq	40(%rbp), %rax
	movq	(%rax), %rax
	movq	%rax, -8(%rbp)
	leaq	-8(%rbp), %rax
	movq	%rax, %rcx
	call	_ZNKSt6chrono8durationIxSt5ratioILx1ELx1000000000EEE5countEv
	subq	%rax, %rbx
	movq	%rbx, %rdx
	movq	%rdx, -24(%rbp)
	leaq	-24(%rbp), %rdx
	leaq	-32(%rbp), %rax
	movq	%rax, %rcx
	call	_ZNSt6chrono8durationIxSt5ratioILx1ELx1000000000EEEC1IxvEERKT_
	movq	-32(%rbp), %rax
	addq	$72, %rsp
	popq	%rbx
	popq	%rbp
	ret
	.seh_endproc
	.section	.text$_ZNSt6chrono13duration_castINS_8durationIdSt5ratioILx1ELx1EEEExS2_ILx1ELx1000000000EEEENSt9enable_ifIXsrNS_13__is_durationIT_EE5valueES8_E4typeERKNS1_IT0_T1_EE,"x"
	.linkonce discard
	.globl	_ZNSt6chrono13duration_castINS_8durationIdSt5ratioILx1ELx1EEEExS2_ILx1ELx1000000000EEEENSt9enable_ifIXsrNS_13__is_durationIT_EE5valueES8_E4typeERKNS1_IT0_T1_EE
	.def	_ZNSt6chrono13duration_castINS_8durationIdSt5ratioILx1ELx1EEEExS2_ILx1ELx1000000000EEEENSt9enable_ifIXsrNS_13__is_durationIT_EE5valueES8_E4typeERKNS1_IT0_T1_EE;	.scl	2;	.type	32;	.endef
	.seh_proc	_ZNSt6chrono13duration_castINS_8durationIdSt5ratioILx1ELx1EEEExS2_ILx1ELx1000000000EEEENSt9enable_ifIXsrNS_13__is_durationIT_EE5valueES8_E4typeERKNS1_IT0_T1_EE
_ZNSt6chrono13duration_castINS_8durationIdSt5ratioILx1ELx1EEEExS2_ILx1ELx1000000000EEEENSt9enable_ifIXsrNS_13__is_durationIT_EE5valueES8_E4typeERKNS1_IT0_T1_EE:
.LFB10307:
	pushq	%rbp
	.seh_pushreg	%rbp
	movq	%rsp, %rbp
	.seh_setframe	%rbp, 0
	subq	$32, %rsp
	.seh_stackalloc	32
	.seh_endprologue
	movq	%rcx, 16(%rbp)
	movq	16(%rbp), %rax
	movq	%rax, %rcx
	call	_ZNSt6chrono20__duration_cast_implINS_8durationIdSt5ratioILx1ELx1EEEES2_ILx1ELx1000000000EEdLb1ELb0EE6__castIxS5_EES4_RKNS1_IT_T0_EE
	addq	$32, %rsp
	popq	%rbp
	ret
	.seh_endproc
	.section	.text$_ZNSt7__cxx1112basic_stringIcSt11char_traitsIcESaIcEE11_S_allocateERS3_y,"x"
	.linkonce discard
	.globl	_ZNSt7__cxx1112basic_stringIcSt11char_traitsIcESaIcEE11_S_allocateERS3_y
	.def	_ZNSt7__cxx1112basic_stringIcSt11char_traitsIcESaIcEE11_S_allocateERS3_y;	.scl	2;	.type	32;	.endef
	.seh_proc	_ZNSt7__cxx1112basic_stringIcSt11char_traitsIcESaIcEE11_S_allocateERS3_y
_ZNSt7__cxx1112basic_stringIcSt11char_traitsIcESaIcEE11_S_allocateERS3_y:
.LFB10313:
	pushq	%rbp
	.seh_pushreg	%rbp
	movq	%rsp, %rbp
	.seh_setframe	%rbp, 0
	subq	$64, %rsp
	.seh_stackalloc	64
	.seh_endprologue
	movq	%rcx, 16(%rbp)
	movq	%rdx, 24(%rbp)
	movq	16(%rbp), %rax
	movq	%rax, -16(%rbp)
	movq	24(%rbp), %rax
	movq	%rax, -24(%rbp)
	movq	-24(%rbp), %rdx
	movq	-16(%rbp), %rax
	movl	$0, %r8d
	movq	%rax, %rcx
	call	_ZNSt15__new_allocatorIcE8allocateEyPKv
	nop
	movq	%rax, -8(%rbp)
	movq	-8(%rbp), %rax
	addq	$64, %rsp
	popq	%rbp
	ret
	.seh_endproc
	.section	.text$_ZNSt19__ptr_traits_ptr_toIPKcS0_Lb0EE10pointer_toERS0_,"x"
	.linkonce discard
	.globl	_ZNSt19__ptr_traits_ptr_toIPKcS0_Lb0EE10pointer_toERS0_
	.def	_ZNSt19__ptr_traits_ptr_toIPKcS0_Lb0EE10pointer_toERS0_;	.scl	2;	.type	32;	.endef
	.seh_proc	_ZNSt19__ptr_traits_ptr_toIPKcS0_Lb0EE10pointer_toERS0_
_ZNSt19__ptr_traits_ptr_toIPKcS0_Lb0EE10pointer_toERS0_:
.LFB10314:
	pushq	%rbp
	.seh_pushreg	%rbp
	movq	%rsp, %rbp
	.seh_setframe	%rbp, 0
	subq	$16, %rsp
	.seh_stackalloc	16
	.seh_endprologue
	movq	%rcx, 16(%rbp)
	movq	16(%rbp), %rax
	movq	%rax, -8(%rbp)
	movq	-8(%rbp), %rax
	movq	%rax, -16(%rbp)
	movq	-16(%rbp), %rax
	nop
	addq	$16, %rsp
	popq	%rbp
	ret
	.seh_endproc
	.section	.text$_ZNKSt7__cxx1112basic_stringIcSt11char_traitsIcESaIcEE16_M_get_allocatorEv,"x"
	.linkonce discard
	.align 2
	.globl	_ZNKSt7__cxx1112basic_stringIcSt11char_traitsIcESaIcEE16_M_get_allocatorEv
	.def	_ZNKSt7__cxx1112basic_stringIcSt11char_traitsIcESaIcEE16_M_get_allocatorEv;	.scl	2;	.type	32;	.endef
	.seh_proc	_ZNKSt7__cxx1112basic_stringIcSt11char_traitsIcESaIcEE16_M_get_allocatorEv
_ZNKSt7__cxx1112basic_stringIcSt11char_traitsIcESaIcEE16_M_get_allocatorEv:
.LFB10328:
	pushq	%rbp
	.seh_pushreg	%rbp
	movq	%rsp, %rbp
	.seh_setframe	%rbp, 0
	.seh_endprologue
	movq	%rcx, 16(%rbp)
	movq	16(%rbp), %rax
	popq	%rbp
	ret
	.seh_endproc
	.section	.text$_ZNSt12_Vector_baseIySaIyEE17_Vector_impl_dataC2Ev,"x"
	.linkonce discard
	.align 2
	.globl	_ZNSt12_Vector_baseIySaIyEE17_Vector_impl_dataC2Ev
	.def	_ZNSt12_Vector_baseIySaIyEE17_Vector_impl_dataC2Ev;	.scl	2;	.type	32;	.endef
	.seh_proc	_ZNSt12_Vector_baseIySaIyEE17_Vector_impl_dataC2Ev
_ZNSt12_Vector_baseIySaIyEE17_Vector_impl_dataC2Ev:
.LFB10373:
	pushq	%rbp
	.seh_pushreg	%rbp
	movq	%rsp, %rbp
	.seh_setframe	%rbp, 0
	.seh_endprologue
	movq	%rcx, 16(%rbp)
	movq	16(%rbp), %rax
	movq	$0, (%rax)
	movq	16(%rbp), %rax
	movq	$0, 8(%rax)
	movq	16(%rbp), %rax
	movq	$0, 16(%rax)
	nop
	popq	%rbp
	ret
	.seh_endproc
	.section	.text$_ZNSt6vectorIySaIyEE11_S_max_sizeERKS0_,"x"
	.linkonce discard
	.globl	_ZNSt6vectorIySaIyEE11_S_max_sizeERKS0_
	.def	_ZNSt6vectorIySaIyEE11_S_max_sizeERKS0_;	.scl	2;	.type	32;	.endef
	.seh_proc	_ZNSt6vectorIySaIyEE11_S_max_sizeERKS0_
_ZNSt6vectorIySaIyEE11_S_max_sizeERKS0_:
.LFB10376:
	pushq	%rbp
	.seh_pushreg	%rbp
	movq	%rsp, %rbp
	.seh_setframe	%rbp, 0
	subq	$80, %rsp
	.seh_stackalloc	80
	.seh_endprologue
	movq	%rcx, 16(%rbp)
	movabsq	$1152921504606846975, %rax
	movq	%rax, -32(%rbp)
	movq	16(%rbp), %rax
	movq	%rax, -8(%rbp)
	movq	-8(%rbp), %rax
	movq	%rax, -16(%rbp)
	movq	-16(%rbp), %rax
	movq	%rax, -24(%rbp)
	movabsq	$1152921504606846975, %rax
	nop
	nop
	movq	%rax, -40(%rbp)
	leaq	-40(%rbp), %rdx
	leaq	-32(%rbp), %rax
	movq	%rax, %rcx
	call	_ZSt3minIyERKT_S2_S2_
	movq	(%rax), %rax
	addq	$80, %rsp
	popq	%rbp
	ret
	.seh_endproc
	.section	.text$_ZSt18uninitialized_copyIPKyPyET0_T_S4_S3_,"x"
	.linkonce discard
	.globl	_ZSt18uninitialized_copyIPKyPyET0_T_S4_S3_
	.def	_ZSt18uninitialized_copyIPKyPyET0_T_S4_S3_;	.scl	2;	.type	32;	.endef
	.seh_proc	_ZSt18uninitialized_copyIPKyPyET0_T_S4_S3_
_ZSt18uninitialized_copyIPKyPyET0_T_S4_S3_:
.LFB10378:
	pushq	%rbp
	.seh_pushreg	%rbp
	movq	%rsp, %rbp
	.seh_setframe	%rbp, 0
	subq	$64, %rsp
	.seh_stackalloc	64
	.seh_endprologue
	movq	%rcx, 16(%rbp)
	movq	%rdx, 24(%rbp)
	movq	%r8, 32(%rbp)
	movq	24(%rbp), %rax
	subq	16(%rbp), %rax
	sarq	$3, %rax
	movq	%rax, -8(%rbp)
	cmpq	$0, -8(%rbp)
	jle	.L279
	movq	-8(%rbp), %rax
	leaq	0(,%rax,8), %rdx
	movq	16(%rbp), %rax
	movq	%rax, -24(%rbp)
	movq	-24(%rbp), %rcx
	movq	32(%rbp), %rax
	movq	%rax, -16(%rbp)
	movq	-16(%rbp), %rax
	movq	%rdx, %r8
	movq	%rcx, %rdx
	movq	%rax, %rcx
	call	memcpy
	movq	-8(%rbp), %rax
	salq	$3, %rax
	addq	%rax, 32(%rbp)
.L279:
	movq	32(%rbp), %rax
	addq	$64, %rsp
	popq	%rbp
	ret
	.seh_endproc
	.section	.text$_ZNSt6chrono20__duration_cast_implINS_8durationIdSt5ratioILx1ELx1EEEES2_ILx1ELx1000000000EEdLb1ELb0EE6__castIxS5_EES4_RKNS1_IT_T0_EE,"x"
	.linkonce discard
	.globl	_ZNSt6chrono20__duration_cast_implINS_8durationIdSt5ratioILx1ELx1EEEES2_ILx1ELx1000000000EEdLb1ELb0EE6__castIxS5_EES4_RKNS1_IT_T0_EE
	.def	_ZNSt6chrono20__duration_cast_implINS_8durationIdSt5ratioILx1ELx1EEEES2_ILx1ELx1000000000EEdLb1ELb0EE6__castIxS5_EES4_RKNS1_IT_T0_EE;	.scl	2;	.type	32;	.endef
	.seh_proc	_ZNSt6chrono20__duration_cast_implINS_8durationIdSt5ratioILx1ELx1EEEES2_ILx1ELx1000000000EEdLb1ELb0EE6__castIxS5_EES4_RKNS1_IT_T0_EE
_ZNSt6chrono20__duration_cast_implINS_8durationIdSt5ratioILx1ELx1EEEES2_ILx1ELx1000000000EEdLb1ELb0EE6__castIxS5_EES4_RKNS1_IT_T0_EE:
.LFB10381:
	pushq	%rbp
	.seh_pushreg	%rbp
	movq	%rsp, %rbp
	.seh_setframe	%rbp, 0
	subq	$48, %rsp
	.seh_stackalloc	48
	.seh_endprologue
	movq	%rcx, 16(%rbp)
	movq	16(%rbp), %rax
	movq	%rax, %rcx
	call	_ZNKSt6chrono8durationIxSt5ratioILx1ELx1000000000EEE5countEv
	pxor	%xmm0, %xmm0
	cvtsi2sdq	%rax, %xmm0
	movsd	.LC24(%rip), %xmm1
	divsd	%xmm1, %xmm0
	movsd	%xmm0, -8(%rbp)
	leaq	-8(%rbp), %rdx
	leaq	-16(%rbp), %rax
	movq	%rax, %rcx
	call	_ZNSt6chrono8durationIdSt5ratioILx1ELx1EEEC1IdvEERKT_
	movsd	-16(%rbp), %xmm0
	movq	%xmm0, %rax
	addq	$48, %rsp
	popq	%rbp
	ret
	.seh_endproc
	.section	.text$_ZNSt15__new_allocatorIcE10deallocateEPcy,"x"
	.linkonce discard
	.align 2
	.globl	_ZNSt15__new_allocatorIcE10deallocateEPcy
	.def	_ZNSt15__new_allocatorIcE10deallocateEPcy;	.scl	2;	.type	32;	.endef
	.seh_proc	_ZNSt15__new_allocatorIcE10deallocateEPcy
_ZNSt15__new_allocatorIcE10deallocateEPcy:
.LFB10383:
	pushq	%rbp
	.seh_pushreg	%rbp
	movq	%rsp, %rbp
	.seh_setframe	%rbp, 0
	subq	$32, %rsp
	.seh_stackalloc	32
	.seh_endprologue
	movq	%rcx, 16(%rbp)
	movq	%rdx, 24(%rbp)
	movq	%r8, 32(%rbp)
	movq	32(%rbp), %rdx
	movq	24(%rbp), %rax
	movq	%rax, %rcx
	call	_ZdlPvy
	nop
	addq	$32, %rsp
	popq	%rbp
	ret
	.seh_endproc
	.section	.text$_ZNSt15__new_allocatorIyE10deallocateEPyy,"x"
	.linkonce discard
	.align 2
	.globl	_ZNSt15__new_allocatorIyE10deallocateEPyy
	.def	_ZNSt15__new_allocatorIyE10deallocateEPyy;	.scl	2;	.type	32;	.endef
	.seh_proc	_ZNSt15__new_allocatorIyE10deallocateEPyy
_ZNSt15__new_allocatorIyE10deallocateEPyy:
.LFB10415:
	pushq	%rbp
	.seh_pushreg	%rbp
	movq	%rsp, %rbp
	.seh_setframe	%rbp, 0
	subq	$32, %rsp
	.seh_stackalloc	32
	.seh_endprologue
	movq	%rcx, 16(%rbp)
	movq	%rdx, 24(%rbp)
	movq	%r8, 32(%rbp)
	movq	32(%rbp), %rax
	leaq	0(,%rax,8), %rdx
	movq	24(%rbp), %rax
	movq	%rax, %rcx
	call	_ZdlPvy
	nop
	addq	$32, %rsp
	popq	%rbp
	ret
	.seh_endproc
	.section	.text$_ZNSt15__new_allocatorIyE8allocateEyPKv,"x"
	.linkonce discard
	.align 2
	.globl	_ZNSt15__new_allocatorIyE8allocateEyPKv
	.def	_ZNSt15__new_allocatorIyE8allocateEyPKv;	.scl	2;	.type	32;	.endef
	.seh_proc	_ZNSt15__new_allocatorIyE8allocateEyPKv
_ZNSt15__new_allocatorIyE8allocateEyPKv:
.LFB10417:
	pushq	%rbp
	.seh_pushreg	%rbp
	movq	%rsp, %rbp
	.seh_setframe	%rbp, 0
	subq	$48, %rsp
	.seh_stackalloc	48
	.seh_endprologue
	movq	%rcx, 16(%rbp)
	movq	%rdx, 24(%rbp)
	movq	%r8, 32(%rbp)
	movq	16(%rbp), %rax
	movq	%rax, -8(%rbp)
	movabsq	$1152921504606846975, %rax
	cmpq	24(%rbp), %rax
	setb	%al
	movzbl	%al, %eax
	testl	%eax, %eax
	setne	%al
	testb	%al, %al
	je	.L291
	movabsq	$2305843009213693951, %rax
	cmpq	24(%rbp), %rax
	jnb	.L292
	call	_ZSt28__throw_bad_array_new_lengthv
.L292:
	call	_ZSt17__throw_bad_allocv
.L291:
	movq	24(%rbp), %rax
	salq	$3, %rax
	movq	%rax, %rcx
	call	_Znwy
	nop
	addq	$48, %rsp
	popq	%rbp
	ret
	.seh_endproc
	.section	.text$_ZNSt6chrono8durationIdSt5ratioILx1ELx1EEEC1IdvEERKT_,"x"
	.linkonce discard
	.align 2
	.globl	_ZNSt6chrono8durationIdSt5ratioILx1ELx1EEEC1IdvEERKT_
	.def	_ZNSt6chrono8durationIdSt5ratioILx1ELx1EEEC1IdvEERKT_;	.scl	2;	.type	32;	.endef
	.seh_proc	_ZNSt6chrono8durationIdSt5ratioILx1ELx1EEEC1IdvEERKT_
_ZNSt6chrono8durationIdSt5ratioILx1ELx1EEEC1IdvEERKT_:
.LFB10422:
	pushq	%rbp
	.seh_pushreg	%rbp
	movq	%rsp, %rbp
	.seh_setframe	%rbp, 0
	.seh_endprologue
	movq	%rcx, 16(%rbp)
	movq	%rdx, 24(%rbp)
	movq	24(%rbp), %rax
	movsd	(%rax), %xmm0
	movq	16(%rbp), %rax
	movsd	%xmm0, (%rax)
	nop
	popq	%rbp
	ret
	.seh_endproc
	.section	.text$_ZNSt15__new_allocatorIcE8allocateEyPKv,"x"
	.linkonce discard
	.align 2
	.globl	_ZNSt15__new_allocatorIcE8allocateEyPKv
	.def	_ZNSt15__new_allocatorIcE8allocateEyPKv;	.scl	2;	.type	32;	.endef
	.seh_proc	_ZNSt15__new_allocatorIcE8allocateEyPKv
_ZNSt15__new_allocatorIcE8allocateEyPKv:
.LFB10423:
	pushq	%rbp
	.seh_pushreg	%rbp
	movq	%rsp, %rbp
	.seh_setframe	%rbp, 0
	subq	$48, %rsp
	.seh_stackalloc	48
	.seh_endprologue
	movq	%rcx, 16(%rbp)
	movq	%rdx, 24(%rbp)
	movq	%r8, 32(%rbp)
	movq	16(%rbp), %rax
	movq	%rax, -8(%rbp)
	movabsq	$9223372036854775807, %rax
	cmpq	24(%rbp), %rax
	setb	%al
	movzbl	%al, %eax
	testl	%eax, %eax
	setne	%al
	testb	%al, %al
	je	.L297
	call	_ZSt17__throw_bad_allocv
.L297:
	movq	24(%rbp), %rax
	movq	%rax, %rcx
	call	_Znwy
	nop
	addq	$48, %rsp
	popq	%rbp
	ret
	.seh_endproc
	.section .rdata,"dr"
	.align 32
C.0.0:
	.quad	257
	.quad	65537
	.quad	1000003
	.quad	10000019
	.quad	1000000007
	.quad	1000000000039
	.align 8
.LC18:
	.long	0
	.long	1072693248
	.align 8
.LC19:
	.long	0
	.long	1079574528
	.align 8
.LC24:
	.long	0
	.long	1104006501
	.def	__gxx_personality_seh0;	.scl	2;	.type	32;	.endef
	.def	__main;	.scl	2;	.type	32;	.endef
	.def	__modti3;	.scl	2;	.type	32;	.endef
	.def	__umodti3;	.scl	2;	.type	32;	.endef
	.ident	"GCC: (x86_64-posix-seh-rev0, Built by MinGW-Builds project) 15.2.0"
	.def	strlen;	.scl	2;	.type	32;	.endef
	.def	memcpy;	.scl	2;	.type	32;	.endef
	.def	_ZStlsISt11char_traitsIcEERSt13basic_ostreamIcT_ES5_PKc;	.scl	2;	.type	32;	.endef
	.def	abort;	.scl	2;	.type	32;	.endef
	.def	_ZNSolsEPFRSt8ios_baseS0_E;	.scl	2;	.type	32;	.endef
	.def	_ZStlsIcSt11char_traitsIcEERSt13basic_ostreamIT_T0_ES6_St13_Setprecision;	.scl	2;	.type	32;	.endef
	.def	_ZNSolsEx;	.scl	2;	.type	32;	.endef
	.def	_ZNSolsEy;	.scl	2;	.type	32;	.endef
	.def	_ZNSolsEd;	.scl	2;	.type	32;	.endef
	.def	_Unwind_Resume;	.scl	2;	.type	32;	.endef
	.def	_ZSt24__throw_invalid_argumentPKc;	.scl	2;	.type	32;	.endef
	.def	_ZSt20__throw_out_of_rangePKc;	.scl	2;	.type	32;	.endef
	.def	_ZSt19__throw_logic_errorPKc;	.scl	2;	.type	32;	.endef
	.def	_ZNSt6chrono3_V212system_clock3nowEv;	.scl	2;	.type	32;	.endef
	.def	_ZSt20__throw_length_errorPKc;	.scl	2;	.type	32;	.endef
	.def	_ZdlPvy;	.scl	2;	.type	32;	.endef
	.def	_ZSt28__throw_bad_array_new_lengthv;	.scl	2;	.type	32;	.endef
	.def	_ZSt17__throw_bad_allocv;	.scl	2;	.type	32;	.endef
	.def	_Znwy;	.scl	2;	.type	32;	.endef
	.section	.rdata$.refptr._ZSt4cout, "dr"
	.p2align	3, 0
	.globl	.refptr._ZSt4cout
	.linkonce	discard
.refptr._ZSt4cout:
	.quad	_ZSt4cout
	.section	.rdata$.refptr._ZSt4cerr, "dr"
	.p2align	3, 0
	.globl	.refptr._ZSt4cerr
	.linkonce	discard
.refptr._ZSt4cerr:
	.quad	_ZSt4cerr
	.section	.rdata$.refptr.strtoll, "dr"
	.p2align	3, 0
	.globl	.refptr.strtoll
	.linkonce	discard
.refptr.strtoll:
	.quad	strtoll
