	.file	"bench_chacha_reist.cpp"
	.text
	.section	.text$_ZNSt11char_traitsIcE6assignERcRKc,"x"
	.linkonce discard
	.globl	_ZNSt11char_traitsIcE6assignERcRKc
	.def	_ZNSt11char_traitsIcE6assignERcRKc;	.scl	2;	.type	32;	.endef
	.seh_proc	_ZNSt11char_traitsIcE6assignERcRKc
_ZNSt11char_traitsIcE6assignERcRKc:
.LFB221:
	pushq	%rbp
	.seh_pushreg	%rbp
	movq	%rsp, %rbp
	.seh_setframe	%rbp, 0
	.seh_endprologue
	movq	%rcx, 16(%rbp)
	movq	%rdx, 24(%rbp)
	movq	24(%rbp), %rax
	movzbl	(%rax), %eax
	movq	16(%rbp), %rdx
	movb	%al, (%rdx)
	nop
	popq	%rbp
	ret
	.seh_endproc
	.section	.text$_ZNSt11char_traitsIcE6lengthEPKc,"x"
	.linkonce discard
	.globl	_ZNSt11char_traitsIcE6lengthEPKc
	.def	_ZNSt11char_traitsIcE6lengthEPKc;	.scl	2;	.type	32;	.endef
	.seh_proc	_ZNSt11char_traitsIcE6lengthEPKc
_ZNSt11char_traitsIcE6lengthEPKc:
.LFB225:
	pushq	%rbp
	.seh_pushreg	%rbp
	movq	%rsp, %rbp
	.seh_setframe	%rbp, 0
	subq	$32, %rsp
	.seh_stackalloc	32
	.seh_endprologue
	movq	%rcx, 16(%rbp)
	movl	$0, %eax
	testb	%al, %al
	je	.L4
	movq	16(%rbp), %rax
	movq	%rax, %rcx
	call	_ZN9__gnu_cxx11char_traitsIcE6lengthEPKc
	jmp	.L5
.L4:
	movq	16(%rbp), %rax
	movq	%rax, %rcx
	call	strlen
	nop
.L5:
	addq	$32, %rsp
	popq	%rbp
	ret
	.seh_endproc
	.section	.text$_ZNSt11char_traitsIcE4moveEPcPKcy,"x"
	.linkonce discard
	.globl	_ZNSt11char_traitsIcE4moveEPcPKcy
	.def	_ZNSt11char_traitsIcE4moveEPcPKcy;	.scl	2;	.type	32;	.endef
	.seh_proc	_ZNSt11char_traitsIcE4moveEPcPKcy
_ZNSt11char_traitsIcE4moveEPcPKcy:
.LFB227:
	pushq	%rbp
	.seh_pushreg	%rbp
	movq	%rsp, %rbp
	.seh_setframe	%rbp, 0
	subq	$32, %rsp
	.seh_stackalloc	32
	.seh_endprologue
	movq	%rcx, 16(%rbp)
	movq	%rdx, 24(%rbp)
	movq	%r8, 32(%rbp)
	cmpq	$0, 32(%rbp)
	jne	.L7
	movq	16(%rbp), %rax
	jmp	.L8
.L7:
	movq	32(%rbp), %rcx
	movq	24(%rbp), %rdx
	movq	16(%rbp), %rax
	movq	%rcx, %r8
	movq	%rax, %rcx
	call	memmove
	nop
.L8:
	addq	$32, %rsp
	popq	%rbp
	ret
	.seh_endproc
	.section	.text$_ZNSt11char_traitsIcE4copyEPcPKcy,"x"
	.linkonce discard
	.globl	_ZNSt11char_traitsIcE4copyEPcPKcy
	.def	_ZNSt11char_traitsIcE4copyEPcPKcy;	.scl	2;	.type	32;	.endef
	.seh_proc	_ZNSt11char_traitsIcE4copyEPcPKcy
_ZNSt11char_traitsIcE4copyEPcPKcy:
.LFB228:
	pushq	%rbp
	.seh_pushreg	%rbp
	movq	%rsp, %rbp
	.seh_setframe	%rbp, 0
	subq	$32, %rsp
	.seh_stackalloc	32
	.seh_endprologue
	movq	%rcx, 16(%rbp)
	movq	%rdx, 24(%rbp)
	movq	%r8, 32(%rbp)
	cmpq	$0, 32(%rbp)
	jne	.L10
	movq	16(%rbp), %rax
	jmp	.L11
.L10:
	movq	16(%rbp), %rdx
	movq	24(%rbp), %rax
	movq	%rdx, %rcx
	movq	%rax, %rdx
	movq	32(%rbp), %rax
	movq	%rax, %r8
	call	memcpy
	nop
.L11:
	addq	$32, %rsp
	popq	%rbp
	ret
	.seh_endproc
	.section .rdata,"dr"
.LC0:
	.ascii "stoi\0"
	.section	.text$_ZNSt7__cxx114stoiERKNS_12basic_stringIcSt11char_traitsIcESaIcEEEPyi,"x"
	.linkonce discard
	.globl	_ZNSt7__cxx114stoiERKNS_12basic_stringIcSt11char_traitsIcESaIcEEEPyi
	.def	_ZNSt7__cxx114stoiERKNS_12basic_stringIcSt11char_traitsIcESaIcEEEPyi;	.scl	2;	.type	32;	.endef
	.seh_proc	_ZNSt7__cxx114stoiERKNS_12basic_stringIcSt11char_traitsIcESaIcEEEPyi
_ZNSt7__cxx114stoiERKNS_12basic_stringIcSt11char_traitsIcESaIcEEEPyi:
.LFB1349:
	pushq	%rbp
	.seh_pushreg	%rbp
	movq	%rsp, %rbp
	.seh_setframe	%rbp, 0
	subq	$48, %rsp
	.seh_stackalloc	48
	.seh_endprologue
	movq	%rcx, 16(%rbp)
	movq	%rdx, 24(%rbp)
	movl	%r8d, 32(%rbp)
	movq	16(%rbp), %rax
	movq	%rax, %rcx
	call	_ZNKSt7__cxx1112basic_stringIcSt11char_traitsIcESaIcEE5c_strEv
	movq	%rax, %rcx
	movq	24(%rbp), %r9
	leaq	.LC0(%rip), %rdx
	movq	.refptr.strtol(%rip), %rax
	movl	32(%rbp), %r8d
	movl	%r8d, 32(%rsp)
	movq	%rcx, %r8
	movq	%rax, %rcx
	call	_ZN9__gnu_cxx6__stoaIlicJiEEET0_PFT_PKT1_PPS3_DpT2_EPKcS5_PyS9_
	addq	$48, %rsp
	popq	%rbp
	ret
	.seh_endproc
	.section .rdata,"dr"
.LC1:
	.ascii "stoul\0"
	.section	.text$_ZNSt7__cxx115stoulERKNS_12basic_stringIcSt11char_traitsIcESaIcEEEPyi,"x"
	.linkonce discard
	.globl	_ZNSt7__cxx115stoulERKNS_12basic_stringIcSt11char_traitsIcESaIcEEEPyi
	.def	_ZNSt7__cxx115stoulERKNS_12basic_stringIcSt11char_traitsIcESaIcEEEPyi;	.scl	2;	.type	32;	.endef
	.seh_proc	_ZNSt7__cxx115stoulERKNS_12basic_stringIcSt11char_traitsIcESaIcEEEPyi
_ZNSt7__cxx115stoulERKNS_12basic_stringIcSt11char_traitsIcESaIcEEEPyi:
.LFB1351:
	pushq	%rbp
	.seh_pushreg	%rbp
	movq	%rsp, %rbp
	.seh_setframe	%rbp, 0
	subq	$48, %rsp
	.seh_stackalloc	48
	.seh_endprologue
	movq	%rcx, 16(%rbp)
	movq	%rdx, 24(%rbp)
	movl	%r8d, 32(%rbp)
	movq	16(%rbp), %rax
	movq	%rax, %rcx
	call	_ZNKSt7__cxx1112basic_stringIcSt11char_traitsIcESaIcEE5c_strEv
	movq	%rax, %rcx
	movq	24(%rbp), %r9
	leaq	.LC1(%rip), %rdx
	movq	.refptr.strtoul(%rip), %rax
	movl	32(%rbp), %r8d
	movl	%r8d, 32(%rsp)
	movq	%rcx, %r8
	movq	%rax, %rcx
	call	_ZN9__gnu_cxx6__stoaImmcJiEEET0_PFT_PKT1_PPS3_DpT2_EPKcS5_PyS9_
	addq	$48, %rsp
	popq	%rbp
	ret
	.seh_endproc
	.section	.text$_ZNSt8__detail14__to_chars_lenImEEjT_i,"x"
	.linkonce discard
	.globl	_ZNSt8__detail14__to_chars_lenImEEjT_i
	.def	_ZNSt8__detail14__to_chars_lenImEEjT_i;	.scl	2;	.type	32;	.endef
	.seh_proc	_ZNSt8__detail14__to_chars_lenImEEjT_i
_ZNSt8__detail14__to_chars_lenImEEjT_i:
.LFB1367:
	pushq	%rbp
	.seh_pushreg	%rbp
	movq	%rsp, %rbp
	.seh_setframe	%rbp, 0
	subq	$16, %rsp
	.seh_stackalloc	16
	.seh_endprologue
	movl	%ecx, 16(%rbp)
	movl	%edx, 24(%rbp)
	movl	$1, -4(%rbp)
	movl	24(%rbp), %eax
	imull	%eax, %eax
	movl	%eax, -8(%rbp)
	movl	24(%rbp), %eax
	movl	-8(%rbp), %edx
	imull	%edx, %eax
	movl	%eax, -12(%rbp)
	movl	24(%rbp), %eax
	movl	-12(%rbp), %edx
	imull	%edx, %eax
	movl	%eax, -16(%rbp)
.L22:
	movl	24(%rbp), %eax
	cmpl	%eax, 16(%rbp)
	jnb	.L17
	movl	-4(%rbp), %eax
	jmp	.L18
.L17:
	movl	16(%rbp), %eax
	cmpl	-8(%rbp), %eax
	jnb	.L19
	movl	-4(%rbp), %eax
	addl	$1, %eax
	jmp	.L18
.L19:
	movl	16(%rbp), %eax
	cmpl	-12(%rbp), %eax
	jnb	.L20
	movl	-4(%rbp), %eax
	addl	$2, %eax
	jmp	.L18
.L20:
	movl	16(%rbp), %eax
	cmpl	-16(%rbp), %eax
	jnb	.L21
	movl	-4(%rbp), %eax
	addl	$3, %eax
	jmp	.L18
.L21:
	movl	16(%rbp), %eax
	movl	$0, %edx
	divl	-16(%rbp)
	movl	%eax, 16(%rbp)
	addl	$4, -4(%rbp)
	jmp	.L22
.L18:
	addq	$16, %rsp
	popq	%rbp
	ret
	.seh_endproc
	.section	.text$_ZZNSt7__cxx119to_stringEmENKUlPcyE_clES0_y,"x"
	.linkonce discard
	.align 2
	.globl	_ZZNSt7__cxx119to_stringEmENKUlPcyE_clES0_y
	.def	_ZZNSt7__cxx119to_stringEmENKUlPcyE_clES0_y;	.scl	2;	.type	32;	.endef
	.seh_proc	_ZZNSt7__cxx119to_stringEmENKUlPcyE_clES0_y
_ZZNSt7__cxx119to_stringEmENKUlPcyE_clES0_y:
.LFB1368:
	pushq	%rbp
	.seh_pushreg	%rbp
	movq	%rsp, %rbp
	.seh_setframe	%rbp, 0
	subq	$32, %rsp
	.seh_stackalloc	32
	.seh_endprologue
	movq	%rcx, 16(%rbp)
	movq	%rdx, 24(%rbp)
	movq	%r8, 32(%rbp)
	movq	16(%rbp), %rax
	movl	(%rax), %edx
	movq	32(%rbp), %rax
	movl	%eax, %ecx
	movq	24(%rbp), %rax
	movl	%edx, %r8d
	movl	%ecx, %edx
	movq	%rax, %rcx
	call	_ZNSt8__detail18__to_chars_10_implImEEvPcjT_
	movq	32(%rbp), %rax
	addq	$32, %rsp
	popq	%rbp
	ret
	.seh_endproc
	.section	.text$_ZNSt7__cxx119to_stringEm,"x"
	.linkonce discard
	.globl	_ZNSt7__cxx119to_stringEm
	.def	_ZNSt7__cxx119to_stringEm;	.scl	2;	.type	32;	.endef
	.seh_proc	_ZNSt7__cxx119to_stringEm
_ZNSt7__cxx119to_stringEm:
.LFB1366:
	pushq	%rbp
	.seh_pushreg	%rbp
	movq	%rsp, %rbp
	.seh_setframe	%rbp, 0
	subq	$48, %rsp
	.seh_stackalloc	48
	.seh_endprologue
	movq	%rcx, 16(%rbp)
	movl	%edx, 24(%rbp)
	movl	24(%rbp), %eax
	movl	$10, %edx
	movl	%eax, %ecx
	call	_ZNSt8__detail14__to_chars_lenImEEjT_i
	movl	%eax, -4(%rbp)
	movq	16(%rbp), %rax
	movq	%rax, %rcx
	call	_ZNSt7__cxx1112basic_stringIcSt11char_traitsIcESaIcEEC1Ev
	movl	24(%rbp), %edx
	movl	-4(%rbp), %eax
	movq	16(%rbp), %rcx
	movl	%edx, %r8d
	movq	%rax, %rdx
	call	_ZNSt7__cxx1112basic_stringIcSt11char_traitsIcESaIcEE22__resize_and_overwriteIZNS_9to_stringEmEUlPcyE_EEvyT_
	movq	16(%rbp), %rax
	addq	$48, %rsp
	popq	%rbp
	ret
	.seh_handler	__gxx_personality_seh0, @unwind, @except
	.seh_handlerdata
.LLSDA1366:
	.byte	0xff
	.byte	0xff
	.byte	0x1
	.uleb128 .LLSDACSE1366-.LLSDACSB1366
.LLSDACSB1366:
.LLSDACSE1366:
	.section	.text$_ZNSt7__cxx119to_stringEm,"x"
	.linkonce discard
	.seh_endproc
	.section	.text$_ZNSt8__detail14__to_chars_lenIyEEjT_i,"x"
	.linkonce discard
	.globl	_ZNSt8__detail14__to_chars_lenIyEEjT_i
	.def	_ZNSt8__detail14__to_chars_lenIyEEjT_i;	.scl	2;	.type	32;	.endef
	.seh_proc	_ZNSt8__detail14__to_chars_lenIyEEjT_i
_ZNSt8__detail14__to_chars_lenIyEEjT_i:
.LFB1372:
	pushq	%rbp
	.seh_pushreg	%rbp
	movq	%rsp, %rbp
	.seh_setframe	%rbp, 0
	subq	$16, %rsp
	.seh_stackalloc	16
	.seh_endprologue
	movq	%rcx, 16(%rbp)
	movl	%edx, 24(%rbp)
	movl	$1, -4(%rbp)
	movl	24(%rbp), %eax
	imull	%eax, %eax
	movl	%eax, -8(%rbp)
	movl	24(%rbp), %eax
	movl	-8(%rbp), %edx
	imull	%edx, %eax
	movl	%eax, -12(%rbp)
	movl	24(%rbp), %eax
	movl	-12(%rbp), %edx
	imull	%edx, %eax
	movl	%eax, -16(%rbp)
.L33:
	movl	24(%rbp), %eax
	movl	%eax, %eax
	cmpq	%rax, 16(%rbp)
	jnb	.L28
	movl	-4(%rbp), %eax
	jmp	.L29
.L28:
	movl	-8(%rbp), %eax
	cmpq	%rax, 16(%rbp)
	jnb	.L30
	movl	-4(%rbp), %eax
	addl	$1, %eax
	jmp	.L29
.L30:
	movl	-12(%rbp), %eax
	cmpq	%rax, 16(%rbp)
	jnb	.L31
	movl	-4(%rbp), %eax
	addl	$2, %eax
	jmp	.L29
.L31:
	movl	-16(%rbp), %eax
	cmpq	%rax, 16(%rbp)
	jnb	.L32
	movl	-4(%rbp), %eax
	addl	$3, %eax
	jmp	.L29
.L32:
	movl	-16(%rbp), %ecx
	movq	16(%rbp), %rax
	movl	$0, %edx
	divq	%rcx
	movq	%rax, 16(%rbp)
	addl	$4, -4(%rbp)
	jmp	.L33
.L29:
	addq	$16, %rsp
	popq	%rbp
	ret
	.seh_endproc
	.section	.text$_ZZNSt7__cxx119to_stringEyENKUlPcyE_clES0_y,"x"
	.linkonce discard
	.align 2
	.globl	_ZZNSt7__cxx119to_stringEyENKUlPcyE_clES0_y
	.def	_ZZNSt7__cxx119to_stringEyENKUlPcyE_clES0_y;	.scl	2;	.type	32;	.endef
	.seh_proc	_ZZNSt7__cxx119to_stringEyENKUlPcyE_clES0_y
_ZZNSt7__cxx119to_stringEyENKUlPcyE_clES0_y:
.LFB1373:
	pushq	%rbp
	.seh_pushreg	%rbp
	movq	%rsp, %rbp
	.seh_setframe	%rbp, 0
	subq	$32, %rsp
	.seh_stackalloc	32
	.seh_endprologue
	movq	%rcx, 16(%rbp)
	movq	%rdx, 24(%rbp)
	movq	%r8, 32(%rbp)
	movq	16(%rbp), %rax
	movq	(%rax), %rdx
	movq	32(%rbp), %rax
	movl	%eax, %ecx
	movq	24(%rbp), %rax
	movq	%rdx, %r8
	movl	%ecx, %edx
	movq	%rax, %rcx
	call	_ZNSt8__detail18__to_chars_10_implIyEEvPcjT_
	movq	32(%rbp), %rax
	addq	$32, %rsp
	popq	%rbp
	ret
	.seh_endproc
	.section	.text$_ZNSt7__cxx119to_stringEy,"x"
	.linkonce discard
	.globl	_ZNSt7__cxx119to_stringEy
	.def	_ZNSt7__cxx119to_stringEy;	.scl	2;	.type	32;	.endef
	.seh_proc	_ZNSt7__cxx119to_stringEy
_ZNSt7__cxx119to_stringEy:
.LFB1371:
	pushq	%rbp
	.seh_pushreg	%rbp
	pushq	%rbx
	.seh_pushreg	%rbx
	subq	$56, %rsp
	.seh_stackalloc	56
	leaq	48(%rsp), %rbp
	.seh_setframe	%rbp, 48
	.seh_endprologue
	movq	%rcx, 32(%rbp)
	movq	%rdx, 40(%rbp)
	movq	40(%rbp), %rax
	movl	$10, %edx
	movq	%rax, %rcx
	call	_ZNSt8__detail14__to_chars_lenIyEEjT_i
	movl	%eax, -4(%rbp)
	movq	32(%rbp), %rax
	movq	%rax, %rcx
	call	_ZNSt7__cxx1112basic_stringIcSt11char_traitsIcESaIcEEC1Ev
	movq	40(%rbp), %rdx
	movl	-4(%rbp), %eax
	movq	32(%rbp), %rcx
	movq	%rdx, %r8
	movq	%rax, %rdx
.LEHB0:
	call	_ZNSt7__cxx1112basic_stringIcSt11char_traitsIcESaIcEE22__resize_and_overwriteIZNS_9to_stringEyEUlPcyE_EEvyT_
.LEHE0:
	jmp	.L40
.L39:
	movq	%rax, %rbx
	movq	32(%rbp), %rax
	movq	%rax, %rcx
	call	_ZNSt7__cxx1112basic_stringIcSt11char_traitsIcESaIcEED1Ev
	movq	%rbx, %rax
	movq	%rax, %rcx
.LEHB1:
	call	_Unwind_Resume
.LEHE1:
.L40:
	movq	32(%rbp), %rax
	addq	$56, %rsp
	popq	%rbx
	popq	%rbp
	ret
	.seh_handler	__gxx_personality_seh0, @unwind, @except
	.seh_handlerdata
.LLSDA1371:
	.byte	0xff
	.byte	0xff
	.byte	0x1
	.uleb128 .LLSDACSE1371-.LLSDACSB1371
.LLSDACSB1371:
	.uleb128 .LEHB0-.LFB1371
	.uleb128 .LEHE0-.LEHB0
	.uleb128 .L39-.LFB1371
	.uleb128 0
	.uleb128 .LEHB1-.LFB1371
	.uleb128 .LEHE1-.LEHB1
	.uleb128 0
	.uleb128 0
.LLSDACSE1371:
	.section	.text$_ZNSt7__cxx119to_stringEy,"x"
	.linkonce discard
	.seh_endproc
	.section	.text$_ZStanSt13_Ios_FmtflagsS_,"x"
	.linkonce discard
	.globl	_ZStanSt13_Ios_FmtflagsS_
	.def	_ZStanSt13_Ios_FmtflagsS_;	.scl	2;	.type	32;	.endef
	.seh_proc	_ZStanSt13_Ios_FmtflagsS_
_ZStanSt13_Ios_FmtflagsS_:
.LFB1773:
	pushq	%rbp
	.seh_pushreg	%rbp
	movq	%rsp, %rbp
	.seh_setframe	%rbp, 0
	.seh_endprologue
	movl	%ecx, 16(%rbp)
	movl	%edx, 24(%rbp)
	movl	16(%rbp), %eax
	andl	24(%rbp), %eax
	popq	%rbp
	ret
	.seh_endproc
	.section	.text$_ZStorSt13_Ios_FmtflagsS_,"x"
	.linkonce discard
	.globl	_ZStorSt13_Ios_FmtflagsS_
	.def	_ZStorSt13_Ios_FmtflagsS_;	.scl	2;	.type	32;	.endef
	.seh_proc	_ZStorSt13_Ios_FmtflagsS_
_ZStorSt13_Ios_FmtflagsS_:
.LFB1774:
	pushq	%rbp
	.seh_pushreg	%rbp
	movq	%rsp, %rbp
	.seh_setframe	%rbp, 0
	.seh_endprologue
	movl	%ecx, 16(%rbp)
	movl	%edx, 24(%rbp)
	movl	16(%rbp), %eax
	orl	24(%rbp), %eax
	popq	%rbp
	ret
	.seh_endproc
	.section	.text$_ZStcoSt13_Ios_Fmtflags,"x"
	.linkonce discard
	.globl	_ZStcoSt13_Ios_Fmtflags
	.def	_ZStcoSt13_Ios_Fmtflags;	.scl	2;	.type	32;	.endef
	.seh_proc	_ZStcoSt13_Ios_Fmtflags
_ZStcoSt13_Ios_Fmtflags:
.LFB1776:
	pushq	%rbp
	.seh_pushreg	%rbp
	movq	%rsp, %rbp
	.seh_setframe	%rbp, 0
	.seh_endprologue
	movl	%ecx, 16(%rbp)
	movl	16(%rbp), %eax
	notl	%eax
	popq	%rbp
	ret
	.seh_endproc
	.section	.text$_ZStoRRSt13_Ios_FmtflagsS_,"x"
	.linkonce discard
	.globl	_ZStoRRSt13_Ios_FmtflagsS_
	.def	_ZStoRRSt13_Ios_FmtflagsS_;	.scl	2;	.type	32;	.endef
	.seh_proc	_ZStoRRSt13_Ios_FmtflagsS_
_ZStoRRSt13_Ios_FmtflagsS_:
.LFB1777:
	pushq	%rbp
	.seh_pushreg	%rbp
	movq	%rsp, %rbp
	.seh_setframe	%rbp, 0
	subq	$32, %rsp
	.seh_stackalloc	32
	.seh_endprologue
	movq	%rcx, 16(%rbp)
	movl	%edx, 24(%rbp)
	movq	16(%rbp), %rax
	movl	(%rax), %eax
	movl	24(%rbp), %edx
	movl	%eax, %ecx
	call	_ZStorSt13_Ios_FmtflagsS_
	movq	16(%rbp), %rdx
	movl	%eax, (%rdx)
	movq	16(%rbp), %rax
	addq	$32, %rsp
	popq	%rbp
	ret
	.seh_endproc
	.section	.text$_ZStaNRSt13_Ios_FmtflagsS_,"x"
	.linkonce discard
	.globl	_ZStaNRSt13_Ios_FmtflagsS_
	.def	_ZStaNRSt13_Ios_FmtflagsS_;	.scl	2;	.type	32;	.endef
	.seh_proc	_ZStaNRSt13_Ios_FmtflagsS_
_ZStaNRSt13_Ios_FmtflagsS_:
.LFB1778:
	pushq	%rbp
	.seh_pushreg	%rbp
	movq	%rsp, %rbp
	.seh_setframe	%rbp, 0
	subq	$32, %rsp
	.seh_stackalloc	32
	.seh_endprologue
	movq	%rcx, 16(%rbp)
	movl	%edx, 24(%rbp)
	movq	16(%rbp), %rax
	movl	(%rax), %eax
	movl	24(%rbp), %edx
	movl	%eax, %ecx
	call	_ZStanSt13_Ios_FmtflagsS_
	movq	16(%rbp), %rdx
	movl	%eax, (%rdx)
	movq	16(%rbp), %rax
	addq	$32, %rsp
	popq	%rbp
	ret
	.seh_endproc
	.section	.text$_ZNSt8ios_base4setfESt13_Ios_FmtflagsS0_,"x"
	.linkonce discard
	.align 2
	.globl	_ZNSt8ios_base4setfESt13_Ios_FmtflagsS0_
	.def	_ZNSt8ios_base4setfESt13_Ios_FmtflagsS0_;	.scl	2;	.type	32;	.endef
	.seh_proc	_ZNSt8ios_base4setfESt13_Ios_FmtflagsS0_
_ZNSt8ios_base4setfESt13_Ios_FmtflagsS0_:
.LFB1807:
	pushq	%rbp
	.seh_pushreg	%rbp
	movq	%rsp, %rbp
	.seh_setframe	%rbp, 0
	subq	$48, %rsp
	.seh_stackalloc	48
	.seh_endprologue
	movq	%rcx, 16(%rbp)
	movl	%edx, 24(%rbp)
	movl	%r8d, 32(%rbp)
	movq	16(%rbp), %rax
	movl	24(%rax), %eax
	movl	%eax, -4(%rbp)
	movl	32(%rbp), %eax
	movl	%eax, %ecx
	call	_ZStcoSt13_Ios_Fmtflags
	movl	%eax, %edx
	movq	16(%rbp), %rax
	addq	$24, %rax
	movq	%rax, %rcx
	call	_ZStaNRSt13_Ios_FmtflagsS_
	movl	32(%rbp), %edx
	movl	24(%rbp), %eax
	movl	%eax, %ecx
	call	_ZStanSt13_Ios_FmtflagsS_
	movl	%eax, %edx
	movq	16(%rbp), %rax
	addq	$24, %rax
	movq	%rax, %rcx
	call	_ZStoRRSt13_Ios_FmtflagsS_
	movl	-4(%rbp), %eax
	addq	$48, %rsp
	popq	%rbp
	ret
	.seh_endproc
	.section	.text$_ZSt5fixedRSt8ios_base,"x"
	.linkonce discard
	.globl	_ZSt5fixedRSt8ios_base
	.def	_ZSt5fixedRSt8ios_base;	.scl	2;	.type	32;	.endef
	.seh_proc	_ZSt5fixedRSt8ios_base
_ZSt5fixedRSt8ios_base:
.LFB1837:
	pushq	%rbp
	.seh_pushreg	%rbp
	movq	%rsp, %rbp
	.seh_setframe	%rbp, 0
	subq	$32, %rsp
	.seh_stackalloc	32
	.seh_endprologue
	movq	%rcx, 16(%rbp)
	movq	16(%rbp), %rax
	movl	$260, %r8d
	movl	$4, %edx
	movq	%rax, %rcx
	call	_ZNSt8ios_base4setfESt13_Ios_FmtflagsS0_
	movq	16(%rbp), %rax
	addq	$32, %rsp
	popq	%rbp
	ret
	.seh_endproc
	.section	.text$_ZNSt6chrono8durationIxSt5ratioILx1ELx1000000000EEEC1IxvEERKT_,"x"
	.linkonce discard
	.align 2
	.globl	_ZNSt6chrono8durationIxSt5ratioILx1ELx1000000000EEEC1IxvEERKT_
	.def	_ZNSt6chrono8durationIxSt5ratioILx1ELx1000000000EEEC1IxvEERKT_;	.scl	2;	.type	32;	.endef
	.seh_proc	_ZNSt6chrono8durationIxSt5ratioILx1ELx1000000000EEEC1IxvEERKT_
_ZNSt6chrono8durationIxSt5ratioILx1ELx1000000000EEEC1IxvEERKT_:
.LFB2489:
	pushq	%rbp
	.seh_pushreg	%rbp
	movq	%rsp, %rbp
	.seh_setframe	%rbp, 0
	.seh_endprologue
	movq	%rcx, 16(%rbp)
	movq	%rdx, 24(%rbp)
	movq	24(%rbp), %rax
	movq	(%rax), %rdx
	movq	16(%rbp), %rax
	movq	%rdx, (%rax)
	nop
	popq	%rbp
	ret
	.seh_endproc
	.section	.text$_ZNKSt6chrono8durationIxSt5ratioILx1ELx1000000000EEE5countEv,"x"
	.linkonce discard
	.align 2
	.globl	_ZNKSt6chrono8durationIxSt5ratioILx1ELx1000000000EEE5countEv
	.def	_ZNKSt6chrono8durationIxSt5ratioILx1ELx1000000000EEE5countEv;	.scl	2;	.type	32;	.endef
	.seh_proc	_ZNKSt6chrono8durationIxSt5ratioILx1ELx1000000000EEE5countEv
_ZNKSt6chrono8durationIxSt5ratioILx1ELx1000000000EEE5countEv:
.LFB2491:
	pushq	%rbp
	.seh_pushreg	%rbp
	movq	%rsp, %rbp
	.seh_setframe	%rbp, 0
	.seh_endprologue
	movq	%rcx, 16(%rbp)
	movq	16(%rbp), %rax
	movq	(%rax), %rax
	popq	%rbp
	ret
	.seh_endproc
	.section	.text$_ZSt12setprecisioni,"x"
	.linkonce discard
	.globl	_ZSt12setprecisioni
	.def	_ZSt12setprecisioni;	.scl	2;	.type	32;	.endef
	.seh_proc	_ZSt12setprecisioni
_ZSt12setprecisioni:
.LFB2797:
	pushq	%rbp
	.seh_pushreg	%rbp
	movq	%rsp, %rbp
	.seh_setframe	%rbp, 0
	.seh_endprologue
	movl	%ecx, 16(%rbp)
	movl	16(%rbp), %eax
	popq	%rbp
	ret
	.seh_endproc
	.section	.text$_Z7std_addjj,"x"
	.linkonce discard
	.globl	_Z7std_addjj
	.def	_Z7std_addjj;	.scl	2;	.type	32;	.endef
	.seh_proc	_Z7std_addjj
_Z7std_addjj:
.LFB9323:
	pushq	%rbp
	.seh_pushreg	%rbp
	movq	%rsp, %rbp
	.seh_setframe	%rbp, 0
	.seh_endprologue
	movl	%ecx, 16(%rbp)
	movl	%edx, 24(%rbp)
	movl	16(%rbp), %edx
	movl	24(%rbp), %eax
	addl	%edx, %eax
	popq	%rbp
	ret
	.seh_endproc
	.section	.text$_Z11reist_add32jj,"x"
	.linkonce discard
	.globl	_Z11reist_add32jj
	.def	_Z11reist_add32jj;	.scl	2;	.type	32;	.endef
	.seh_proc	_Z11reist_add32jj
_Z11reist_add32jj:
.LFB9324:
	pushq	%rbp
	.seh_pushreg	%rbp
	movq	%rsp, %rbp
	.seh_setframe	%rbp, 0
	.seh_endprologue
	movl	%ecx, 16(%rbp)
	movl	%edx, 24(%rbp)
	movl	16(%rbp), %edx
	movl	24(%rbp), %eax
	addl	%edx, %eax
	popq	%rbp
	ret
	.seh_endproc
	.section	.text$_Z13chacha_qr_stdPj,"x"
	.linkonce discard
	.globl	_Z13chacha_qr_stdPj
	.def	_Z13chacha_qr_stdPj;	.scl	2;	.type	32;	.endef
	.seh_proc	_Z13chacha_qr_stdPj
_Z13chacha_qr_stdPj:
.LFB9325:
	pushq	%rbp
	.seh_pushreg	%rbp
	movq	%rsp, %rbp
	.seh_setframe	%rbp, 0
	.seh_endprologue
	movq	%rcx, 16(%rbp)
	movq	16(%rbp), %rax
	movl	(%rax), %edx
	movq	16(%rbp), %rax
	addq	$16, %rax
	movl	(%rax), %eax
	addl	%eax, %edx
	movq	16(%rbp), %rax
	movl	%edx, (%rax)
	movq	16(%rbp), %rax
	addq	$48, %rax
	movl	(%rax), %ecx
	movq	16(%rbp), %rax
	movl	(%rax), %edx
	movq	16(%rbp), %rax
	addq	$48, %rax
	xorl	%ecx, %edx
	movl	%edx, (%rax)
	movq	16(%rbp), %rax
	addq	$48, %rax
	movl	(%rax), %edx
	movq	16(%rbp), %rax
	addq	$48, %rax
	roll	$16, %edx
	movl	%edx, (%rax)
	movq	16(%rbp), %rax
	addq	$32, %rax
	movl	(%rax), %ecx
	movq	16(%rbp), %rax
	addq	$48, %rax
	movl	(%rax), %edx
	movq	16(%rbp), %rax
	addq	$32, %rax
	addl	%ecx, %edx
	movl	%edx, (%rax)
	movq	16(%rbp), %rax
	addq	$16, %rax
	movl	(%rax), %ecx
	movq	16(%rbp), %rax
	addq	$32, %rax
	movl	(%rax), %edx
	movq	16(%rbp), %rax
	addq	$16, %rax
	xorl	%ecx, %edx
	movl	%edx, (%rax)
	movq	16(%rbp), %rax
	addq	$16, %rax
	movl	(%rax), %edx
	movq	16(%rbp), %rax
	addq	$16, %rax
	roll	$12, %edx
	movl	%edx, (%rax)
	movq	16(%rbp), %rax
	movl	(%rax), %edx
	movq	16(%rbp), %rax
	addq	$16, %rax
	movl	(%rax), %eax
	addl	%eax, %edx
	movq	16(%rbp), %rax
	movl	%edx, (%rax)
	movq	16(%rbp), %rax
	addq	$48, %rax
	movl	(%rax), %ecx
	movq	16(%rbp), %rax
	movl	(%rax), %edx
	movq	16(%rbp), %rax
	addq	$48, %rax
	xorl	%ecx, %edx
	movl	%edx, (%rax)
	movq	16(%rbp), %rax
	addq	$48, %rax
	movl	(%rax), %edx
	movq	16(%rbp), %rax
	addq	$48, %rax
	roll	$8, %edx
	movl	%edx, (%rax)
	movq	16(%rbp), %rax
	addq	$32, %rax
	movl	(%rax), %ecx
	movq	16(%rbp), %rax
	addq	$48, %rax
	movl	(%rax), %edx
	movq	16(%rbp), %rax
	addq	$32, %rax
	addl	%ecx, %edx
	movl	%edx, (%rax)
	movq	16(%rbp), %rax
	addq	$16, %rax
	movl	(%rax), %ecx
	movq	16(%rbp), %rax
	addq	$32, %rax
	movl	(%rax), %edx
	movq	16(%rbp), %rax
	addq	$16, %rax
	xorl	%ecx, %edx
	movl	%edx, (%rax)
	movq	16(%rbp), %rax
	addq	$16, %rax
	movl	(%rax), %edx
	movq	16(%rbp), %rax
	addq	$16, %rax
	roll	$7, %edx
	movl	%edx, (%rax)
	nop
	popq	%rbp
	ret
	.seh_endproc
	.section	.text$_Z15chacha_qr_reistPj,"x"
	.linkonce discard
	.globl	_Z15chacha_qr_reistPj
	.def	_Z15chacha_qr_reistPj;	.scl	2;	.type	32;	.endef
	.seh_proc	_Z15chacha_qr_reistPj
_Z15chacha_qr_reistPj:
.LFB9326:
	pushq	%rbp
	.seh_pushreg	%rbp
	pushq	%rbx
	.seh_pushreg	%rbx
	subq	$40, %rsp
	.seh_stackalloc	40
	leaq	32(%rsp), %rbp
	.seh_setframe	%rbp, 32
	.seh_endprologue
	movq	%rcx, 32(%rbp)
	movq	32(%rbp), %rax
	addq	$16, %rax
	movl	(%rax), %edx
	movq	32(%rbp), %rax
	movl	(%rax), %eax
	movl	%eax, %ecx
	call	_Z11reist_add32jj
	movq	32(%rbp), %rdx
	movl	%eax, (%rdx)
	movq	32(%rbp), %rax
	addq	$48, %rax
	movl	(%rax), %ecx
	movq	32(%rbp), %rax
	movl	(%rax), %edx
	movq	32(%rbp), %rax
	addq	$48, %rax
	xorl	%ecx, %edx
	movl	%edx, (%rax)
	movq	32(%rbp), %rax
	addq	$48, %rax
	movl	(%rax), %edx
	movq	32(%rbp), %rax
	addq	$48, %rax
	roll	$16, %edx
	movl	%edx, (%rax)
	movq	32(%rbp), %rax
	addq	$48, %rax
	movl	(%rax), %edx
	movq	32(%rbp), %rax
	addq	$32, %rax
	movl	(%rax), %eax
	movq	32(%rbp), %rcx
	leaq	32(%rcx), %rbx
	movl	%eax, %ecx
	call	_Z11reist_add32jj
	movl	%eax, (%rbx)
	movq	32(%rbp), %rax
	addq	$16, %rax
	movl	(%rax), %ecx
	movq	32(%rbp), %rax
	addq	$32, %rax
	movl	(%rax), %edx
	movq	32(%rbp), %rax
	addq	$16, %rax
	xorl	%ecx, %edx
	movl	%edx, (%rax)
	movq	32(%rbp), %rax
	addq	$16, %rax
	movl	(%rax), %edx
	movq	32(%rbp), %rax
	addq	$16, %rax
	roll	$12, %edx
	movl	%edx, (%rax)
	movq	32(%rbp), %rax
	addq	$16, %rax
	movl	(%rax), %edx
	movq	32(%rbp), %rax
	movl	(%rax), %eax
	movl	%eax, %ecx
	call	_Z11reist_add32jj
	movq	32(%rbp), %rdx
	movl	%eax, (%rdx)
	movq	32(%rbp), %rax
	addq	$48, %rax
	movl	(%rax), %ecx
	movq	32(%rbp), %rax
	movl	(%rax), %edx
	movq	32(%rbp), %rax
	addq	$48, %rax
	xorl	%ecx, %edx
	movl	%edx, (%rax)
	movq	32(%rbp), %rax
	addq	$48, %rax
	movl	(%rax), %edx
	movq	32(%rbp), %rax
	addq	$48, %rax
	roll	$8, %edx
	movl	%edx, (%rax)
	movq	32(%rbp), %rax
	addq	$48, %rax
	movl	(%rax), %edx
	movq	32(%rbp), %rax
	addq	$32, %rax
	movl	(%rax), %eax
	movq	32(%rbp), %rcx
	leaq	32(%rcx), %rbx
	movl	%eax, %ecx
	call	_Z11reist_add32jj
	movl	%eax, (%rbx)
	movq	32(%rbp), %rax
	addq	$16, %rax
	movl	(%rax), %ecx
	movq	32(%rbp), %rax
	addq	$32, %rax
	movl	(%rax), %edx
	movq	32(%rbp), %rax
	addq	$16, %rax
	xorl	%ecx, %edx
	movl	%edx, (%rax)
	movq	32(%rbp), %rax
	addq	$16, %rax
	movl	(%rax), %edx
	movq	32(%rbp), %rax
	addq	$16, %rax
	roll	$7, %edx
	movl	%edx, (%rax)
	nop
	addq	$40, %rsp
	popq	%rbx
	popq	%rbp
	ret
	.seh_endproc
	.text
	.globl	_Z16chacha_block_stdPjPKj
	.def	_Z16chacha_block_stdPjPKj;	.scl	2;	.type	32;	.endef
	.seh_proc	_Z16chacha_block_stdPjPKj
_Z16chacha_block_stdPjPKj:
.LFB9327:
	pushq	%rbp
	.seh_pushreg	%rbp
	movq	%rsp, %rbp
	.seh_setframe	%rbp, 0
	subq	$112, %rsp
	.seh_stackalloc	112
	.seh_endprologue
	movq	%rcx, 16(%rbp)
	movq	%rdx, 24(%rbp)
	movq	24(%rbp), %rdx
	leaq	-80(%rbp), %rax
	movl	$64, %r8d
	movq	%rax, %rcx
	call	memcpy
	movl	$0, -4(%rbp)
	jmp	.L67
.L68:
	leaq	-80(%rbp), %rax
	movq	%rax, %rcx
	call	_Z13chacha_qr_stdPj
	leaq	-80(%rbp), %rax
	movq	%rax, %rcx
	call	_Z13chacha_qr_stdPj
	addl	$1, -4(%rbp)
.L67:
	cmpl	$9, -4(%rbp)
	jle	.L68
	movl	$0, -8(%rbp)
	jmp	.L69
.L70:
	movl	-8(%rbp), %eax
	cltq
	movl	-80(%rbp,%rax,4), %ecx
	movl	-8(%rbp), %eax
	cltq
	leaq	0(,%rax,4), %rdx
	movq	24(%rbp), %rax
	addq	%rdx, %rax
	movl	(%rax), %edx
	movl	-8(%rbp), %eax
	cltq
	leaq	0(,%rax,4), %r8
	movq	16(%rbp), %rax
	addq	%r8, %rax
	addl	%ecx, %edx
	movl	%edx, (%rax)
	addl	$1, -8(%rbp)
.L69:
	cmpl	$15, -8(%rbp)
	jle	.L70
	nop
	nop
	addq	$112, %rsp
	popq	%rbp
	ret
	.seh_endproc
	.globl	_Z18chacha_block_reistPjPKj
	.def	_Z18chacha_block_reistPjPKj;	.scl	2;	.type	32;	.endef
	.seh_proc	_Z18chacha_block_reistPjPKj
_Z18chacha_block_reistPjPKj:
.LFB9328:
	pushq	%rbp
	.seh_pushreg	%rbp
	pushq	%rbx
	.seh_pushreg	%rbx
	subq	$120, %rsp
	.seh_stackalloc	120
	leaq	112(%rsp), %rbp
	.seh_setframe	%rbp, 112
	.seh_endprologue
	movq	%rcx, 32(%rbp)
	movq	%rdx, 40(%rbp)
	movq	40(%rbp), %rdx
	leaq	-80(%rbp), %rax
	movl	$64, %r8d
	movq	%rax, %rcx
	call	memcpy
	movl	$0, -4(%rbp)
	jmp	.L72
.L73:
	leaq	-80(%rbp), %rax
	movq	%rax, %rcx
	call	_Z15chacha_qr_reistPj
	leaq	-80(%rbp), %rax
	movq	%rax, %rcx
	call	_Z15chacha_qr_reistPj
	addl	$1, -4(%rbp)
.L72:
	cmpl	$9, -4(%rbp)
	jle	.L73
	movl	$0, -8(%rbp)
	jmp	.L74
.L75:
	movl	-8(%rbp), %eax
	cltq
	leaq	0(,%rax,4), %rdx
	movq	40(%rbp), %rax
	addq	%rdx, %rax
	movl	(%rax), %edx
	movl	-8(%rbp), %eax
	cltq
	movl	-80(%rbp,%rax,4), %eax
	movl	-8(%rbp), %ecx
	movslq	%ecx, %rcx
	leaq	0(,%rcx,4), %r8
	movq	32(%rbp), %rcx
	leaq	(%r8,%rcx), %rbx
	movl	%eax, %ecx
	call	_Z7std_addjj
	movl	%eax, (%rbx)
	addl	$1, -8(%rbp)
.L74:
	cmpl	$15, -8(%rbp)
	jle	.L75
	nop
	nop
	addq	$120, %rsp
	popq	%rbx
	popq	%rbp
	ret
	.seh_endproc
	.align 2
	.def	_ZZ4mainENKUliE_clEi;	.scl	3;	.type	32;	.endef
	.seh_proc	_ZZ4mainENKUliE_clEi
_ZZ4mainENKUliE_clEi:
.LFB9334:
	pushq	%rbp
	.seh_pushreg	%rbp
	pushq	%rbx
	.seh_pushreg	%rbx
	subq	$56, %rsp
	.seh_stackalloc	56
	leaq	48(%rsp), %rbp
	.seh_setframe	%rbp, 48
	.seh_endprologue
	movq	%rcx, 32(%rbp)
	movl	%edx, 40(%rbp)
	movl	$0, -4(%rbp)
	jmp	.L77
.L78:
	movq	32(%rbp), %rax
	movq	8(%rax), %rax
	movl	(%rax), %edx
	movq	32(%rbp), %rax
	movq	(%rax), %rax
	movl	(%rax), %eax
	movq	32(%rbp), %rcx
	movq	(%rcx), %rbx
	movl	%eax, %ecx
	call	_Z7std_addjj
	movl	%eax, (%rbx)
	addl	$1, -4(%rbp)
.L77:
	movl	-4(%rbp), %eax
	cmpl	40(%rbp), %eax
	jl	.L78
	nop
	nop
	addq	$56, %rsp
	popq	%rbx
	popq	%rbp
	ret
	.seh_endproc
	.align 2
	.def	_ZZ4mainENKUliE0_clEi;	.scl	3;	.type	32;	.endef
	.seh_proc	_ZZ4mainENKUliE0_clEi
_ZZ4mainENKUliE0_clEi:
.LFB9335:
	pushq	%rbp
	.seh_pushreg	%rbp
	pushq	%rbx
	.seh_pushreg	%rbx
	subq	$56, %rsp
	.seh_stackalloc	56
	leaq	48(%rsp), %rbp
	.seh_setframe	%rbp, 48
	.seh_endprologue
	movq	%rcx, 32(%rbp)
	movl	%edx, 40(%rbp)
	movl	$0, -4(%rbp)
	jmp	.L80
.L81:
	movq	32(%rbp), %rax
	movq	8(%rax), %rax
	movl	(%rax), %edx
	movq	32(%rbp), %rax
	movq	(%rax), %rax
	movl	(%rax), %eax
	movq	32(%rbp), %rcx
	movq	(%rcx), %rbx
	movl	%eax, %ecx
	call	_Z11reist_add32jj
	movl	%eax, (%rbx)
	addl	$1, -4(%rbp)
.L80:
	movl	-4(%rbp), %eax
	cmpl	40(%rbp), %eax
	jl	.L81
	nop
	nop
	addq	$56, %rsp
	popq	%rbx
	popq	%rbp
	ret
	.seh_endproc
	.align 2
	.def	_ZZ4mainENKUliE1_clEi;	.scl	3;	.type	32;	.endef
	.seh_proc	_ZZ4mainENKUliE1_clEi
_ZZ4mainENKUliE1_clEi:
.LFB9336:
	pushq	%rbp
	.seh_pushreg	%rbp
	movq	%rsp, %rbp
	.seh_setframe	%rbp, 0
	subq	$48, %rsp
	.seh_stackalloc	48
	.seh_endprologue
	movq	%rcx, 16(%rbp)
	movl	%edx, 24(%rbp)
	movl	$0, -4(%rbp)
	jmp	.L83
.L84:
	movq	16(%rbp), %rax
	movq	8(%rax), %rdx
	movq	16(%rbp), %rax
	movq	(%rax), %rax
	movq	%rax, %rcx
	call	_Z16chacha_block_stdPjPKj
	addl	$1, -4(%rbp)
.L83:
	movl	-4(%rbp), %eax
	cmpl	24(%rbp), %eax
	jl	.L84
	nop
	nop
	addq	$48, %rsp
	popq	%rbp
	ret
	.seh_endproc
	.align 2
	.def	_ZZ4mainENKUliE2_clEi;	.scl	3;	.type	32;	.endef
	.seh_proc	_ZZ4mainENKUliE2_clEi
_ZZ4mainENKUliE2_clEi:
.LFB9337:
	pushq	%rbp
	.seh_pushreg	%rbp
	movq	%rsp, %rbp
	.seh_setframe	%rbp, 0
	subq	$48, %rsp
	.seh_stackalloc	48
	.seh_endprologue
	movq	%rcx, 16(%rbp)
	movl	%edx, 24(%rbp)
	movl	$0, -4(%rbp)
	jmp	.L86
.L87:
	movq	16(%rbp), %rax
	movq	8(%rax), %rdx
	movq	16(%rbp), %rax
	movq	(%rax), %rax
	movq	%rax, %rcx
	call	_Z18chacha_block_reistPjPKj
	addl	$1, -4(%rbp)
.L86:
	movl	-4(%rbp), %eax
	cmpl	24(%rbp), %eax
	jl	.L87
	nop
	nop
	addq	$48, %rsp
	popq	%rbp
	ret
	.seh_endproc
	.section .rdata,"dr"
.LC2:
	.ascii "Unknown\0"
.LC3:
	.ascii "Windows\0"
	.align 8
.LC4:
	.ascii "HARDWARE\\DESCRIPTION\\System\\CentralProcessor\\0\0"
.LC5:
	.ascii "ProcessorNameString\0"
.LC6:
	.ascii "~MHz\0"
.LC7:
	.ascii " MB\0"
	.align 8
.LC8:
	.ascii "========================================\12\0"
.LC9:
	.ascii "ChaCha20 REIST Benchmark\12\0"
.LC10:
	.ascii "System Information:\12\0"
.LC11:
	.ascii "  Hostname: \0"
.LC12:
	.ascii "\12\0"
.LC13:
	.ascii "  OS: \0"
.LC14:
	.ascii "  CPU Model: \0"
.LC15:
	.ascii "  CPU MHz: \0"
.LC16:
	.ascii "  Memory: \0"
	.align 8
.LC17:
	.ascii "\12--- Modular Addition (32-bit) ---\12\0"
.LC18:
	.ascii "std_add    : \0"
.LC19:
	.ascii " s\12\0"
.LC20:
	.ascii "reist_add32: \0"
.LC22:
	.ascii "Speed ratio: \0"
.LC23:
	.ascii "x (std / REIST)\12\0"
	.align 8
.LC25:
	.ascii "\12--- ChaCha20-like Cipher-Speed ---\12\0"
.LC26:
	.ascii "Classic : \0"
.LC27:
	.ascii " s (\0"
.LC29:
	.ascii " MB/s)\12\0"
.LC30:
	.ascii "REIST   : \0"
.LC31:
	.ascii "x (classic / REIST)\12\0"
	.text
	.globl	main
	.def	main;	.scl	2;	.type	32;	.endef
	.seh_proc	main
main:
.LFB9330:
	pushq	%rbp
	.seh_pushreg	%rbp
	pushq	%r15
	.seh_pushreg	%r15
	pushq	%r14
	.seh_pushreg	%r14
	pushq	%r13
	.seh_pushreg	%r13
	pushq	%r12
	.seh_pushreg	%r12
	pushq	%rdi
	.seh_pushreg	%rdi
	pushq	%rsi
	.seh_pushreg	%rsi
	pushq	%rbx
	.seh_pushreg	%rbx
	subq	$1256, %rsp
	.seh_stackalloc	1256
	leaq	128(%rsp), %rbp
	.seh_setframe	%rbp, 128
	.seh_endprologue
	movl	%ecx, 1200(%rbp)
	movq	%rdx, 1208(%rbp)
	call	__main
	movl	$1000000, 1116(%rbp)
	movl	$-889275714, 796(%rbp)
	cmpl	$1, 1200(%rbp)
	jle	.L89
	leaq	847(%rbp), %rax
	movq	%rax, 1064(%rbp)
	nop
	nop
	movq	1208(%rbp), %rax
	addq	$8, %rax
	movq	(%rax), %rdx
	leaq	847(%rbp), %rcx
	leaq	800(%rbp), %rax
	movq	%rcx, %r8
	movq	%rax, %rcx
.LEHB2:
	call	_ZNSt7__cxx1112basic_stringIcSt11char_traitsIcESaIcEEC1IS3_EEPKcRKS3_
.LEHE2:
	leaq	800(%rbp), %rax
	movl	$10, %r8d
	movl	$0, %edx
	movq	%rax, %rcx
.LEHB3:
	call	_ZNSt7__cxx114stoiERKNS_12basic_stringIcSt11char_traitsIcESaIcEEEPyi
.LEHE3:
	movl	%eax, 1116(%rbp)
	leaq	800(%rbp), %rax
	movq	%rax, %rcx
	call	_ZNSt7__cxx1112basic_stringIcSt11char_traitsIcESaIcEED1Ev
	leaq	847(%rbp), %rax
	movq	%rax, %rcx
	call	_ZNSt15__new_allocatorIcED2Ev
	nop
.L89:
	cmpl	$2, 1200(%rbp)
	jle	.L90
	leaq	895(%rbp), %rax
	movq	%rax, 1056(%rbp)
	nop
	nop
	movq	1208(%rbp), %rax
	addq	$16, %rax
	movq	(%rax), %rdx
	leaq	895(%rbp), %rcx
	leaq	848(%rbp), %rax
	movq	%rcx, %r8
	movq	%rax, %rcx
.LEHB4:
	call	_ZNSt7__cxx1112basic_stringIcSt11char_traitsIcESaIcEEC1IS3_EEPKcRKS3_
.LEHE4:
	leaq	848(%rbp), %rax
	movl	$10, %r8d
	movl	$0, %edx
	movq	%rax, %rcx
.LEHB5:
	call	_ZNSt7__cxx115stoulERKNS_12basic_stringIcSt11char_traitsIcESaIcEEEPyi
.LEHE5:
	movl	%eax, 796(%rbp)
	leaq	848(%rbp), %rax
	movq	%rax, %rcx
	call	_ZNSt7__cxx1112basic_stringIcSt11char_traitsIcESaIcEED1Ev
	leaq	895(%rbp), %rax
	movq	%rax, %rcx
	call	_ZNSt15__new_allocatorIcED2Ev
	nop
.L90:
	leaq	752(%rbp), %rax
	movq	%rax, %rcx
	call	_ZNSt7__cxx1112basic_stringIcSt11char_traitsIcESaIcEEC1Ev
	leaq	720(%rbp), %rax
	movq	%rax, %rcx
	call	_ZNSt7__cxx1112basic_stringIcSt11char_traitsIcESaIcEEC1Ev
	leaq	688(%rbp), %rax
	movq	%rax, %rcx
	call	_ZNSt7__cxx1112basic_stringIcSt11char_traitsIcESaIcEEC1Ev
	leaq	656(%rbp), %rax
	movq	%rax, %rcx
	call	_ZNSt7__cxx1112basic_stringIcSt11char_traitsIcESaIcEEC1Ev
	leaq	624(%rbp), %rax
	movq	%rax, %rcx
	call	_ZNSt7__cxx1112basic_stringIcSt11char_traitsIcESaIcEEC1Ev
	movl	$256, 364(%rbp)
	leaq	364(%rbp), %rdx
	leaq	368(%rbp), %rax
	movq	%rax, %rcx
	movq	__imp_GetComputerNameA(%rip), %rax
.LEHB6:
	call	*%rax
	testl	%eax, %eax
	setne	%al
	testb	%al, %al
	je	.L91
	leaq	368(%rbp), %rdx
	leaq	656(%rbp), %rax
	movq	%rax, %rcx
	call	_ZNSt7__cxx1112basic_stringIcSt11char_traitsIcESaIcEEaSEPKc
	jmp	.L92
.L91:
	leaq	.LC2(%rip), %rdx
	leaq	656(%rbp), %rax
	movq	%rax, %rcx
	call	_ZNSt7__cxx1112basic_stringIcSt11char_traitsIcESaIcEEaSEPKc
.L92:
	leaq	.LC3(%rip), %rdx
	leaq	624(%rbp), %rax
	movq	%rax, %rcx
	call	_ZNSt7__cxx1112basic_stringIcSt11char_traitsIcESaIcEEaSEPKc
	leaq	.LC4(%rip), %rax
	leaq	352(%rbp), %rdx
	movq	%rdx, 32(%rsp)
	movl	$131097, %r9d
	movl	$0, %r8d
	movq	%rax, %rdx
	movq	$-2147483646, %rcx
	movq	__imp_RegOpenKeyExA(%rip), %rax
	call	*%rax
	testl	%eax, %eax
	sete	%al
	testb	%al, %al
	je	.L93
	movl	$256, 284(%rbp)
	movq	352(%rbp), %rax
	leaq	.LC5(%rip), %rdx
	leaq	284(%rbp), %rcx
	movq	%rcx, 40(%rsp)
	leaq	16(%rbp), %rcx
	movq	%rcx, 32(%rsp)
	movl	$0, %r9d
	movl	$0, %r8d
	movq	%rax, %rcx
	movq	__imp_RegQueryValueExA(%rip), %rax
	call	*%rax
.LEHE6:
	testl	%eax, %eax
	sete	%al
	testb	%al, %al
	je	.L94
	leaq	943(%rbp), %rax
	movq	%rax, 1048(%rbp)
	nop
	nop
	leaq	943(%rbp), %rcx
	leaq	16(%rbp), %rdx
	leaq	896(%rbp), %rax
	movq	%rcx, %r8
	movq	%rax, %rcx
.LEHB7:
	call	_ZNSt7__cxx1112basic_stringIcSt11char_traitsIcESaIcEEC1IS3_EEPKcRKS3_
.LEHE7:
	leaq	896(%rbp), %rdx
	leaq	752(%rbp), %rax
	movq	%rax, %rcx
	call	_ZNSt7__cxx1112basic_stringIcSt11char_traitsIcESaIcEEaSEOS4_
	leaq	896(%rbp), %rax
	movq	%rax, %rcx
	call	_ZNSt7__cxx1112basic_stringIcSt11char_traitsIcESaIcEED1Ev
	leaq	943(%rbp), %rax
	movq	%rax, %rcx
	call	_ZNSt15__new_allocatorIcED2Ev
	nop
.L94:
	movl	$256, 284(%rbp)
	movq	352(%rbp), %rax
	leaq	.LC6(%rip), %rdx
	leaq	284(%rbp), %rcx
	movq	%rcx, 40(%rsp)
	leaq	16(%rbp), %rcx
	movq	%rcx, 32(%rsp)
	movl	$0, %r9d
	movl	$0, %r8d
	movq	%rax, %rcx
	movq	__imp_RegQueryValueExA(%rip), %rax
.LEHB8:
	call	*%rax
	testl	%eax, %eax
	sete	%al
	testb	%al, %al
	je	.L95
	leaq	16(%rbp), %rax
	movl	(%rax), %edx
	leaq	944(%rbp), %rax
	movq	%rax, %rcx
	call	_ZNSt7__cxx119to_stringEm
	leaq	944(%rbp), %rdx
	leaq	720(%rbp), %rax
	movq	%rax, %rcx
	call	_ZNSt7__cxx1112basic_stringIcSt11char_traitsIcESaIcEEaSEOS4_
	leaq	944(%rbp), %rax
	movq	%rax, %rcx
	call	_ZNSt7__cxx1112basic_stringIcSt11char_traitsIcESaIcEED1Ev
.L95:
	movq	352(%rbp), %rax
	movq	%rax, %rcx
	movq	__imp_RegCloseKey(%rip), %rax
	call	*%rax
.L93:
	movl	$64, 288(%rbp)
	leaq	288(%rbp), %rax
	movq	%rax, %rcx
	movq	__imp_GlobalMemoryStatusEx(%rip), %rax
	call	*%rax
	testl	%eax, %eax
	setne	%al
	testb	%al, %al
	je	.L96
	movq	296(%rbp), %rax
	shrq	$20, %rax
	movq	%rax, %rdx
	leaq	1008(%rbp), %rax
	movq	%rax, %rcx
	call	_ZNSt7__cxx119to_stringEy
.LEHE8:
	leaq	976(%rbp), %rax
	leaq	.LC7(%rip), %rcx
	leaq	1008(%rbp), %rdx
	movq	%rcx, %r8
	movq	%rax, %rcx
.LEHB9:
	call	_ZStplIcSt11char_traitsIcESaIcEENSt7__cxx1112basic_stringIT_T0_T1_EEOS8_PKS5_
.LEHE9:
	leaq	976(%rbp), %rdx
	leaq	688(%rbp), %rax
	movq	%rax, %rcx
	call	_ZNSt7__cxx1112basic_stringIcSt11char_traitsIcESaIcEEaSEOS4_
	leaq	976(%rbp), %rax
	movq	%rax, %rcx
	call	_ZNSt7__cxx1112basic_stringIcSt11char_traitsIcESaIcEED1Ev
	leaq	1008(%rbp), %rax
	movq	%rax, %rcx
	call	_ZNSt7__cxx1112basic_stringIcSt11char_traitsIcESaIcEED1Ev
.L96:
	leaq	_ZSt5fixedRSt8ios_base(%rip), %rax
	movq	%rax, %rdx
	movq	.refptr._ZSt4cout(%rip), %rax
	movq	%rax, %rcx
.LEHB10:
	call	_ZNSolsEPFRSt8ios_baseS0_E
	movq	%rax, %rbx
	movl	$6, %ecx
	call	_ZSt12setprecisioni
	movl	%eax, %edx
	movq	%rbx, %rcx
	call	_ZStlsIcSt11char_traitsIcEERSt13basic_ostreamIT_T0_ES6_St13_Setprecision
	leaq	.LC8(%rip), %rdx
	movq	.refptr._ZSt4cout(%rip), %rax
	movq	%rax, %rcx
	call	_ZStlsISt11char_traitsIcEERSt13basic_ostreamIcT_ES5_PKc
	leaq	.LC9(%rip), %rdx
	movq	.refptr._ZSt4cout(%rip), %rax
	movq	%rax, %rcx
	call	_ZStlsISt11char_traitsIcEERSt13basic_ostreamIcT_ES5_PKc
	leaq	.LC8(%rip), %rdx
	movq	.refptr._ZSt4cout(%rip), %rax
	movq	%rax, %rcx
	call	_ZStlsISt11char_traitsIcEERSt13basic_ostreamIcT_ES5_PKc
	leaq	.LC10(%rip), %rdx
	movq	.refptr._ZSt4cout(%rip), %rax
	movq	%rax, %rcx
	call	_ZStlsISt11char_traitsIcEERSt13basic_ostreamIcT_ES5_PKc
	leaq	.LC11(%rip), %rdx
	movq	.refptr._ZSt4cout(%rip), %rax
	movq	%rax, %rcx
	call	_ZStlsISt11char_traitsIcEERSt13basic_ostreamIcT_ES5_PKc
	movq	%rax, %rcx
	leaq	656(%rbp), %rax
	movq	%rax, %rdx
	call	_ZStlsIcSt11char_traitsIcESaIcEERSt13basic_ostreamIT_T0_ES7_RKNSt7__cxx1112basic_stringIS4_S5_T1_EE
	movq	%rax, %rcx
	leaq	.LC12(%rip), %rax
	movq	%rax, %rdx
	call	_ZStlsISt11char_traitsIcEERSt13basic_ostreamIcT_ES5_PKc
	leaq	.LC13(%rip), %rdx
	movq	.refptr._ZSt4cout(%rip), %rax
	movq	%rax, %rcx
	call	_ZStlsISt11char_traitsIcEERSt13basic_ostreamIcT_ES5_PKc
	movq	%rax, %rcx
	leaq	624(%rbp), %rax
	movq	%rax, %rdx
	call	_ZStlsIcSt11char_traitsIcESaIcEERSt13basic_ostreamIT_T0_ES7_RKNSt7__cxx1112basic_stringIS4_S5_T1_EE
	movq	%rax, %rcx
	leaq	.LC12(%rip), %rax
	movq	%rax, %rdx
	call	_ZStlsISt11char_traitsIcEERSt13basic_ostreamIcT_ES5_PKc
	leaq	.LC14(%rip), %rdx
	movq	.refptr._ZSt4cout(%rip), %rax
	movq	%rax, %rcx
	call	_ZStlsISt11char_traitsIcEERSt13basic_ostreamIcT_ES5_PKc
	movq	%rax, %rcx
	leaq	752(%rbp), %rax
	movq	%rax, %rdx
	call	_ZStlsIcSt11char_traitsIcESaIcEERSt13basic_ostreamIT_T0_ES7_RKNSt7__cxx1112basic_stringIS4_S5_T1_EE
	movq	%rax, %rcx
	leaq	.LC12(%rip), %rax
	movq	%rax, %rdx
	call	_ZStlsISt11char_traitsIcEERSt13basic_ostreamIcT_ES5_PKc
	leaq	.LC15(%rip), %rdx
	movq	.refptr._ZSt4cout(%rip), %rax
	movq	%rax, %rcx
	call	_ZStlsISt11char_traitsIcEERSt13basic_ostreamIcT_ES5_PKc
	movq	%rax, %rcx
	leaq	720(%rbp), %rax
	movq	%rax, %rdx
	call	_ZStlsIcSt11char_traitsIcESaIcEERSt13basic_ostreamIT_T0_ES7_RKNSt7__cxx1112basic_stringIS4_S5_T1_EE
	movq	%rax, %rcx
	leaq	.LC12(%rip), %rax
	movq	%rax, %rdx
	call	_ZStlsISt11char_traitsIcEERSt13basic_ostreamIcT_ES5_PKc
	leaq	.LC16(%rip), %rdx
	movq	.refptr._ZSt4cout(%rip), %rax
	movq	%rax, %rcx
	call	_ZStlsISt11char_traitsIcEERSt13basic_ostreamIcT_ES5_PKc
	movq	%rax, %rcx
	leaq	688(%rbp), %rax
	movq	%rax, %rdx
	call	_ZStlsIcSt11char_traitsIcESaIcEERSt13basic_ostreamIT_T0_ES7_RKNSt7__cxx1112basic_stringIS4_S5_T1_EE
	movq	%rax, %rcx
	leaq	.LC12(%rip), %rax
	movq	%rax, %rdx
	call	_ZStlsISt11char_traitsIcEERSt13basic_ostreamIcT_ES5_PKc
	leaq	.LC8(%rip), %rdx
	movq	.refptr._ZSt4cout(%rip), %rax
	movq	%rax, %rcx
	call	_ZStlsISt11char_traitsIcEERSt13basic_ostreamIcT_ES5_PKc
	movl	$305419896, 280(%rbp)
	leaq	280(%rbp), %rax
	movq	%rax, -80(%rbp)
	leaq	796(%rbp), %rax
	movq	%rax, -72(%rbp)
	movdqa	-80(%rbp), %xmm2
	movaps	%xmm2, -64(%rbp)
	movl	1116(%rbp), %edx
	leaq	-64(%rbp), %rax
	movq	%rax, %rcx
	call	_Z5benchIZ4mainEUliE_EdT_i
	movq	%xmm0, %rax
	movq	%rax, 1104(%rbp)
	leaq	280(%rbp), %rax
	movq	%rax, %r14
	leaq	796(%rbp), %rax
	movq	%rax, %r15
	movq	%r14, -64(%rbp)
	movq	%r15, -56(%rbp)
	movl	1116(%rbp), %edx
	leaq	-64(%rbp), %rax
	movq	%rax, %rcx
	call	_Z5benchIZ4mainEUliE0_EdT_i
	movq	%xmm0, %rax
	movq	%rax, 1096(%rbp)
	leaq	.LC17(%rip), %rdx
	movq	.refptr._ZSt4cout(%rip), %rax
	movq	%rax, %rcx
	call	_ZStlsISt11char_traitsIcEERSt13basic_ostreamIcT_ES5_PKc
	leaq	.LC18(%rip), %rdx
	movq	.refptr._ZSt4cout(%rip), %rax
	movq	%rax, %rcx
	call	_ZStlsISt11char_traitsIcEERSt13basic_ostreamIcT_ES5_PKc
	movsd	1104(%rbp), %xmm0
	movapd	%xmm0, %xmm1
	movq	%rax, %rcx
	call	_ZNSolsEd
	movq	%rax, %rcx
	leaq	.LC19(%rip), %rax
	movq	%rax, %rdx
	call	_ZStlsISt11char_traitsIcEERSt13basic_ostreamIcT_ES5_PKc
	leaq	.LC20(%rip), %rdx
	movq	.refptr._ZSt4cout(%rip), %rax
	movq	%rax, %rcx
	call	_ZStlsISt11char_traitsIcEERSt13basic_ostreamIcT_ES5_PKc
	movsd	1096(%rbp), %xmm0
	movapd	%xmm0, %xmm1
	movq	%rax, %rcx
	call	_ZNSolsEd
	movq	%rax, %rcx
	leaq	.LC19(%rip), %rax
	movq	%rax, %rdx
	call	_ZStlsISt11char_traitsIcEERSt13basic_ostreamIcT_ES5_PKc
	movsd	1096(%rbp), %xmm0
	pxor	%xmm1, %xmm1
	comisd	%xmm1, %xmm0
	jbe	.L97
	leaq	.LC22(%rip), %rdx
	movq	.refptr._ZSt4cout(%rip), %rax
	movq	%rax, %rcx
	call	_ZStlsISt11char_traitsIcEERSt13basic_ostreamIcT_ES5_PKc
	movsd	1104(%rbp), %xmm0
	divsd	1096(%rbp), %xmm0
	movapd	%xmm0, %xmm1
	movq	%rax, %rcx
	call	_ZNSolsEd
	movq	%rax, %rcx
	leaq	.LC23(%rip), %rax
	movq	%rax, %rdx
	call	_ZStlsISt11char_traitsIcEERSt13basic_ostreamIcT_ES5_PKc
.L97:
	movl	$0, 1112(%rbp)
	jmp	.L99
.L100:
	movl	1112(%rbp), %eax
	imull	$-1640531527, %eax, %edx
	movl	1112(%rbp), %eax
	cltq
	movl	%edx, -48(%rbp,%rax,4)
	addl	$1, 1112(%rbp)
.L99:
	cmpl	$15, 1112(%rbp)
	jle	.L100
	leaq	16(%rbp), %rax
	movq	%rax, %r12
	leaq	-48(%rbp), %rax
	movq	%rax, %r13
	movq	%r12, -64(%rbp)
	movq	%r13, -56(%rbp)
	movl	1116(%rbp), %edx
	leaq	-64(%rbp), %rax
	movq	%rax, %rcx
	call	_Z5benchIZ4mainEUliE1_EdT_i
	movq	%xmm0, %rax
	movq	%rax, 1088(%rbp)
	leaq	16(%rbp), %rax
	movq	%rax, %rsi
	leaq	-48(%rbp), %rax
	movq	%rax, %rdi
	movq	%rsi, -64(%rbp)
	movq	%rdi, -56(%rbp)
	movl	1116(%rbp), %edx
	leaq	-64(%rbp), %rax
	movq	%rax, %rcx
	call	_Z5benchIZ4mainEUliE2_EdT_i
	movq	%xmm0, %rax
	movq	%rax, 1080(%rbp)
	pxor	%xmm1, %xmm1
	cvtsi2sdl	1116(%rbp), %xmm1
	movsd	.LC24(%rip), %xmm0
	mulsd	%xmm1, %xmm0
	movsd	%xmm0, 1072(%rbp)
	leaq	.LC25(%rip), %rdx
	movq	.refptr._ZSt4cout(%rip), %rax
	movq	%rax, %rcx
	call	_ZStlsISt11char_traitsIcEERSt13basic_ostreamIcT_ES5_PKc
	leaq	.LC26(%rip), %rdx
	movq	.refptr._ZSt4cout(%rip), %rax
	movq	%rax, %rcx
	call	_ZStlsISt11char_traitsIcEERSt13basic_ostreamIcT_ES5_PKc
	movsd	1088(%rbp), %xmm0
	movapd	%xmm0, %xmm1
	movq	%rax, %rcx
	call	_ZNSolsEd
	movq	%rax, %rcx
	leaq	.LC27(%rip), %rax
	movq	%rax, %rdx
	call	_ZStlsISt11char_traitsIcEERSt13basic_ostreamIcT_ES5_PKc
	movsd	1072(%rbp), %xmm0
	divsd	1088(%rbp), %xmm0
	movsd	.LC28(%rip), %xmm1
	divsd	%xmm1, %xmm0
	movapd	%xmm0, %xmm1
	movq	%rax, %rcx
	call	_ZNSolsEd
	movq	%rax, %rcx
	leaq	.LC29(%rip), %rax
	movq	%rax, %rdx
	call	_ZStlsISt11char_traitsIcEERSt13basic_ostreamIcT_ES5_PKc
	leaq	.LC30(%rip), %rdx
	movq	.refptr._ZSt4cout(%rip), %rax
	movq	%rax, %rcx
	call	_ZStlsISt11char_traitsIcEERSt13basic_ostreamIcT_ES5_PKc
	movsd	1080(%rbp), %xmm0
	movapd	%xmm0, %xmm1
	movq	%rax, %rcx
	call	_ZNSolsEd
	movq	%rax, %rcx
	leaq	.LC27(%rip), %rax
	movq	%rax, %rdx
	call	_ZStlsISt11char_traitsIcEERSt13basic_ostreamIcT_ES5_PKc
	movsd	1072(%rbp), %xmm0
	divsd	1080(%rbp), %xmm0
	movsd	.LC28(%rip), %xmm1
	divsd	%xmm1, %xmm0
	movapd	%xmm0, %xmm1
	movq	%rax, %rcx
	call	_ZNSolsEd
	movq	%rax, %rcx
	leaq	.LC29(%rip), %rax
	movq	%rax, %rdx
	call	_ZStlsISt11char_traitsIcEERSt13basic_ostreamIcT_ES5_PKc
	movsd	1080(%rbp), %xmm0
	pxor	%xmm1, %xmm1
	comisd	%xmm1, %xmm0
	jbe	.L101
	leaq	.LC22(%rip), %rdx
	movq	.refptr._ZSt4cout(%rip), %rax
	movq	%rax, %rcx
	call	_ZStlsISt11char_traitsIcEERSt13basic_ostreamIcT_ES5_PKc
	movsd	1088(%rbp), %xmm0
	divsd	1080(%rbp), %xmm0
	movapd	%xmm0, %xmm1
	movq	%rax, %rcx
	call	_ZNSolsEd
	movq	%rax, %rcx
	leaq	.LC31(%rip), %rax
	movq	%rax, %rdx
	call	_ZStlsISt11char_traitsIcEERSt13basic_ostreamIcT_ES5_PKc
.LEHE10:
.L101:
	movl	$0, %ebx
	leaq	624(%rbp), %rax
	movq	%rax, %rcx
	call	_ZNSt7__cxx1112basic_stringIcSt11char_traitsIcESaIcEED1Ev
	leaq	656(%rbp), %rax
	movq	%rax, %rcx
	call	_ZNSt7__cxx1112basic_stringIcSt11char_traitsIcESaIcEED1Ev
	leaq	688(%rbp), %rax
	movq	%rax, %rcx
	call	_ZNSt7__cxx1112basic_stringIcSt11char_traitsIcESaIcEED1Ev
	leaq	720(%rbp), %rax
	movq	%rax, %rcx
	call	_ZNSt7__cxx1112basic_stringIcSt11char_traitsIcESaIcEED1Ev
	leaq	752(%rbp), %rax
	movq	%rax, %rcx
	call	_ZNSt7__cxx1112basic_stringIcSt11char_traitsIcESaIcEED1Ev
	movl	%ebx, %eax
	jmp	.L120
.L112:
	movq	%rax, %rbx
	leaq	800(%rbp), %rax
	movq	%rax, %rcx
	call	_ZNSt7__cxx1112basic_stringIcSt11char_traitsIcESaIcEED1Ev
	jmp	.L105
.L111:
	movq	%rax, %rbx
.L105:
	leaq	847(%rbp), %rax
	movq	%rax, %rcx
	call	_ZNSt15__new_allocatorIcED2Ev
	nop
	movq	%rbx, %rax
	movq	%rax, %rcx
.LEHB11:
	call	_Unwind_Resume
.L114:
	movq	%rax, %rbx
	leaq	848(%rbp), %rax
	movq	%rax, %rcx
	call	_ZNSt7__cxx1112basic_stringIcSt11char_traitsIcESaIcEED1Ev
	jmp	.L107
.L113:
	movq	%rax, %rbx
.L107:
	leaq	895(%rbp), %rax
	movq	%rax, %rcx
	call	_ZNSt15__new_allocatorIcED2Ev
	nop
	movq	%rbx, %rax
	movq	%rax, %rcx
	call	_Unwind_Resume
.L116:
	movq	%rax, %rbx
	leaq	943(%rbp), %rax
	movq	%rax, %rcx
	call	_ZNSt15__new_allocatorIcED2Ev
	nop
	jmp	.L109
.L117:
	movq	%rax, %rbx
	leaq	1008(%rbp), %rax
	movq	%rax, %rcx
	call	_ZNSt7__cxx1112basic_stringIcSt11char_traitsIcESaIcEED1Ev
	jmp	.L109
.L115:
	movq	%rax, %rbx
.L109:
	leaq	624(%rbp), %rax
	movq	%rax, %rcx
	call	_ZNSt7__cxx1112basic_stringIcSt11char_traitsIcESaIcEED1Ev
	leaq	656(%rbp), %rax
	movq	%rax, %rcx
	call	_ZNSt7__cxx1112basic_stringIcSt11char_traitsIcESaIcEED1Ev
	leaq	688(%rbp), %rax
	movq	%rax, %rcx
	call	_ZNSt7__cxx1112basic_stringIcSt11char_traitsIcESaIcEED1Ev
	leaq	720(%rbp), %rax
	movq	%rax, %rcx
	call	_ZNSt7__cxx1112basic_stringIcSt11char_traitsIcESaIcEED1Ev
	leaq	752(%rbp), %rax
	movq	%rax, %rcx
	call	_ZNSt7__cxx1112basic_stringIcSt11char_traitsIcESaIcEED1Ev
	movq	%rbx, %rax
	movq	%rax, %rcx
	call	_Unwind_Resume
.LEHE11:
.L120:
	addq	$1256, %rsp
	popq	%rbx
	popq	%rsi
	popq	%rdi
	popq	%r12
	popq	%r13
	popq	%r14
	popq	%r15
	popq	%rbp
	ret
	.seh_handler	__gxx_personality_seh0, @unwind, @except
	.seh_handlerdata
.LLSDA9330:
	.byte	0xff
	.byte	0xff
	.byte	0x1
	.uleb128 .LLSDACSE9330-.LLSDACSB9330
.LLSDACSB9330:
	.uleb128 .LEHB2-.LFB9330
	.uleb128 .LEHE2-.LEHB2
	.uleb128 .L111-.LFB9330
	.uleb128 0
	.uleb128 .LEHB3-.LFB9330
	.uleb128 .LEHE3-.LEHB3
	.uleb128 .L112-.LFB9330
	.uleb128 0
	.uleb128 .LEHB4-.LFB9330
	.uleb128 .LEHE4-.LEHB4
	.uleb128 .L113-.LFB9330
	.uleb128 0
	.uleb128 .LEHB5-.LFB9330
	.uleb128 .LEHE5-.LEHB5
	.uleb128 .L114-.LFB9330
	.uleb128 0
	.uleb128 .LEHB6-.LFB9330
	.uleb128 .LEHE6-.LEHB6
	.uleb128 .L115-.LFB9330
	.uleb128 0
	.uleb128 .LEHB7-.LFB9330
	.uleb128 .LEHE7-.LEHB7
	.uleb128 .L116-.LFB9330
	.uleb128 0
	.uleb128 .LEHB8-.LFB9330
	.uleb128 .LEHE8-.LEHB8
	.uleb128 .L115-.LFB9330
	.uleb128 0
	.uleb128 .LEHB9-.LFB9330
	.uleb128 .LEHE9-.LEHB9
	.uleb128 .L117-.LFB9330
	.uleb128 0
	.uleb128 .LEHB10-.LFB9330
	.uleb128 .LEHE10-.LEHB10
	.uleb128 .L115-.LFB9330
	.uleb128 0
	.uleb128 .LEHB11-.LFB9330
	.uleb128 .LEHE11-.LEHB11
	.uleb128 0
	.uleb128 0
.LLSDACSE9330:
	.text
	.seh_endproc
	.section	.text$_ZN9__gnu_cxx11char_traitsIcE6lengthEPKc,"x"
	.linkonce discard
	.align 2
	.globl	_ZN9__gnu_cxx11char_traitsIcE6lengthEPKc
	.def	_ZN9__gnu_cxx11char_traitsIcE6lengthEPKc;	.scl	2;	.type	32;	.endef
	.seh_proc	_ZN9__gnu_cxx11char_traitsIcE6lengthEPKc
_ZN9__gnu_cxx11char_traitsIcE6lengthEPKc:
.LFB9338:
	pushq	%rbp
	.seh_pushreg	%rbp
	movq	%rsp, %rbp
	.seh_setframe	%rbp, 0
	subq	$48, %rsp
	.seh_stackalloc	48
	.seh_endprologue
	movq	%rcx, 16(%rbp)
	movq	$0, -8(%rbp)
	jmp	.L122
.L123:
	addq	$1, -8(%rbp)
.L122:
	movb	$0, -9(%rbp)
	movq	16(%rbp), %rdx
	movq	-8(%rbp), %rax
	leaq	(%rdx,%rax), %rcx
	leaq	-9(%rbp), %rax
	movq	%rax, %rdx
	call	_ZN9__gnu_cxx11char_traitsIcE2eqERKcS3_
	xorl	$1, %eax
	testb	%al, %al
	jne	.L123
	movq	-8(%rbp), %rax
	addq	$48, %rsp
	popq	%rbp
	ret
	.seh_endproc
	.section	.text$_ZNKSt7__cxx1112basic_stringIcSt11char_traitsIcESaIcEE5c_strEv,"x"
	.linkonce discard
	.align 2
	.globl	_ZNKSt7__cxx1112basic_stringIcSt11char_traitsIcESaIcEE5c_strEv
	.def	_ZNKSt7__cxx1112basic_stringIcSt11char_traitsIcESaIcEE5c_strEv;	.scl	2;	.type	32;	.endef
	.seh_proc	_ZNKSt7__cxx1112basic_stringIcSt11char_traitsIcESaIcEE5c_strEv
_ZNKSt7__cxx1112basic_stringIcSt11char_traitsIcESaIcEE5c_strEv:
.LFB9364:
	pushq	%rbp
	.seh_pushreg	%rbp
	movq	%rsp, %rbp
	.seh_setframe	%rbp, 0
	subq	$32, %rsp
	.seh_stackalloc	32
	.seh_endprologue
	movq	%rcx, 16(%rbp)
	movq	16(%rbp), %rax
	movq	%rax, %rcx
	call	_ZNKSt7__cxx1112basic_stringIcSt11char_traitsIcESaIcEE7_M_dataEv
	addq	$32, %rsp
	popq	%rbp
	ret
	.seh_endproc
	.section	.text$_ZZN9__gnu_cxx6__stoaIlicJiEEET0_PFT_PKT1_PPS3_DpT2_EPKcS5_PyS9_EN11_Save_errnoC1Ev,"x"
	.linkonce discard
	.align 2
	.globl	_ZZN9__gnu_cxx6__stoaIlicJiEEET0_PFT_PKT1_PPS3_DpT2_EPKcS5_PyS9_EN11_Save_errnoC1Ev
	.def	_ZZN9__gnu_cxx6__stoaIlicJiEEET0_PFT_PKT1_PPS3_DpT2_EPKcS5_PyS9_EN11_Save_errnoC1Ev;	.scl	2;	.type	32;	.endef
	.seh_proc	_ZZN9__gnu_cxx6__stoaIlicJiEEET0_PFT_PKT1_PPS3_DpT2_EPKcS5_PyS9_EN11_Save_errnoC1Ev
_ZZN9__gnu_cxx6__stoaIlicJiEEET0_PFT_PKT1_PPS3_DpT2_EPKcS5_PyS9_EN11_Save_errnoC1Ev:
.LFB9368:
	pushq	%rbp
	.seh_pushreg	%rbp
	movq	%rsp, %rbp
	.seh_setframe	%rbp, 0
	subq	$32, %rsp
	.seh_stackalloc	32
	.seh_endprologue
	movq	%rcx, 16(%rbp)
	movq	__imp__errno(%rip), %rax
	call	*%rax
	movl	(%rax), %edx
	movq	16(%rbp), %rax
	movl	%edx, (%rax)
	movq	__imp__errno(%rip), %rax
	call	*%rax
	movl	$0, (%rax)
	nop
	addq	$32, %rsp
	popq	%rbp
	ret
	.seh_endproc
	.section	.text$_ZZN9__gnu_cxx6__stoaIlicJiEEET0_PFT_PKT1_PPS3_DpT2_EPKcS5_PyS9_EN11_Save_errnoD1Ev,"x"
	.linkonce discard
	.align 2
	.globl	_ZZN9__gnu_cxx6__stoaIlicJiEEET0_PFT_PKT1_PPS3_DpT2_EPKcS5_PyS9_EN11_Save_errnoD1Ev
	.def	_ZZN9__gnu_cxx6__stoaIlicJiEEET0_PFT_PKT1_PPS3_DpT2_EPKcS5_PyS9_EN11_Save_errnoD1Ev;	.scl	2;	.type	32;	.endef
	.seh_proc	_ZZN9__gnu_cxx6__stoaIlicJiEEET0_PFT_PKT1_PPS3_DpT2_EPKcS5_PyS9_EN11_Save_errnoD1Ev
_ZZN9__gnu_cxx6__stoaIlicJiEEET0_PFT_PKT1_PPS3_DpT2_EPKcS5_PyS9_EN11_Save_errnoD1Ev:
.LFB9371:
	pushq	%rbp
	.seh_pushreg	%rbp
	pushq	%rbx
	.seh_pushreg	%rbx
	subq	$40, %rsp
	.seh_stackalloc	40
	leaq	32(%rsp), %rbp
	.seh_setframe	%rbp, 32
	.seh_endprologue
	movq	%rcx, 32(%rbp)
	movq	__imp__errno(%rip), %rax
	call	*%rax
	movl	(%rax), %eax
	testl	%eax, %eax
	sete	%al
	testb	%al, %al
	je	.L130
	movq	32(%rbp), %rax
	movl	(%rax), %ebx
	movq	__imp__errno(%rip), %rax
	call	*%rax
	movl	%ebx, (%rax)
.L130:
	nop
	addq	$40, %rsp
	popq	%rbx
	popq	%rbp
	ret
	.seh_handler	__gxx_personality_seh0, @unwind, @except
	.seh_handlerdata
.LLSDA9371:
	.byte	0xff
	.byte	0xff
	.byte	0x1
	.uleb128 .LLSDACSE9371-.LLSDACSB9371
.LLSDACSB9371:
.LLSDACSE9371:
	.section	.text$_ZZN9__gnu_cxx6__stoaIlicJiEEET0_PFT_PKT1_PPS3_DpT2_EPKcS5_PyS9_EN11_Save_errnoD1Ev,"x"
	.linkonce discard
	.seh_endproc
	.section	.text$_ZZN9__gnu_cxx6__stoaIlicJiEEET0_PFT_PKT1_PPS3_DpT2_EPKcS5_PyS9_EN10_Range_chk6_S_chkElSt17integral_constantIbLb1EE,"x"
	.linkonce discard
	.globl	_ZZN9__gnu_cxx6__stoaIlicJiEEET0_PFT_PKT1_PPS3_DpT2_EPKcS5_PyS9_EN10_Range_chk6_S_chkElSt17integral_constantIbLb1EE
	.def	_ZZN9__gnu_cxx6__stoaIlicJiEEET0_PFT_PKT1_PPS3_DpT2_EPKcS5_PyS9_EN10_Range_chk6_S_chkElSt17integral_constantIbLb1EE;	.scl	2;	.type	32;	.endef
	.seh_proc	_ZZN9__gnu_cxx6__stoaIlicJiEEET0_PFT_PKT1_PPS3_DpT2_EPKcS5_PyS9_EN10_Range_chk6_S_chkElSt17integral_constantIbLb1EE
_ZZN9__gnu_cxx6__stoaIlicJiEEET0_PFT_PKT1_PPS3_DpT2_EPKcS5_PyS9_EN10_Range_chk6_S_chkElSt17integral_constantIbLb1EE:
.LFB9373:
	pushq	%rbp
	.seh_pushreg	%rbp
	movq	%rsp, %rbp
	.seh_setframe	%rbp, 0
	.seh_endprologue
	movl	%ecx, 16(%rbp)
	movl	$0, %eax
	popq	%rbp
	ret
	.seh_endproc
	.section	.text$_ZN9__gnu_cxx6__stoaIlicJiEEET0_PFT_PKT1_PPS3_DpT2_EPKcS5_PyS9_,"x"
	.linkonce discard
	.globl	_ZN9__gnu_cxx6__stoaIlicJiEEET0_PFT_PKT1_PPS3_DpT2_EPKcS5_PyS9_
	.def	_ZN9__gnu_cxx6__stoaIlicJiEEET0_PFT_PKT1_PPS3_DpT2_EPKcS5_PyS9_;	.scl	2;	.type	32;	.endef
	.seh_proc	_ZN9__gnu_cxx6__stoaIlicJiEEET0_PFT_PKT1_PPS3_DpT2_EPKcS5_PyS9_
_ZN9__gnu_cxx6__stoaIlicJiEEET0_PFT_PKT1_PPS3_DpT2_EPKcS5_PyS9_:
.LFB9365:
	pushq	%rbp
	.seh_pushreg	%rbp
	pushq	%rbx
	.seh_pushreg	%rbx
	subq	$72, %rsp
	.seh_stackalloc	72
	leaq	64(%rsp), %rbp
	.seh_setframe	%rbp, 64
	.seh_endprologue
	movq	%rcx, 32(%rbp)
	movq	%rdx, 40(%rbp)
	movq	%r8, 48(%rbp)
	movq	%r9, 56(%rbp)
	leaq	-28(%rbp), %rax
	movq	%rax, %rcx
.LEHB12:
	call	_ZZN9__gnu_cxx6__stoaIlicJiEEET0_PFT_PKT1_PPS3_DpT2_EPKcS5_PyS9_EN11_Save_errnoC1Ev
.LEHE12:
	movq	32(%rbp), %r9
	movl	64(%rbp), %edx
	leaq	-24(%rbp), %rax
	movq	48(%rbp), %rcx
	movl	%edx, %r8d
	movq	%rax, %rdx
.LEHB13:
	call	*%r9
	movl	%eax, -4(%rbp)
	movq	-24(%rbp), %rax
	cmpq	%rax, 48(%rbp)
	jne	.L134
	movq	40(%rbp), %rax
	movq	%rax, %rcx
	call	_ZSt24__throw_invalid_argumentPKc
.L134:
	movq	__imp__errno(%rip), %rax
	call	*%rax
	movl	(%rax), %eax
	cmpl	$34, %eax
	je	.L135
	movl	-4(%rbp), %eax
	movl	%ebx, %edx
	movl	%eax, %ecx
	call	_ZZN9__gnu_cxx6__stoaIlicJiEEET0_PFT_PKT1_PPS3_DpT2_EPKcS5_PyS9_EN10_Range_chk6_S_chkElSt17integral_constantIbLb1EE
	testb	%al, %al
	je	.L136
.L135:
	movl	$1, %eax
	jmp	.L137
.L136:
	movl	$0, %eax
.L137:
	testb	%al, %al
	je	.L138
	movq	40(%rbp), %rax
	movq	%rax, %rcx
	call	_ZSt20__throw_out_of_rangePKc
.LEHE13:
.L138:
	movl	-4(%rbp), %eax
	movl	%eax, -8(%rbp)
	cmpq	$0, 56(%rbp)
	je	.L139
	movq	-24(%rbp), %rax
	subq	48(%rbp), %rax
	movq	%rax, %rdx
	movq	56(%rbp), %rax
	movq	%rdx, (%rax)
.L139:
	movl	-8(%rbp), %ebx
	leaq	-28(%rbp), %rax
	movq	%rax, %rcx
	call	_ZZN9__gnu_cxx6__stoaIlicJiEEET0_PFT_PKT1_PPS3_DpT2_EPKcS5_PyS9_EN11_Save_errnoD1Ev
	movl	%ebx, %eax
	jmp	.L143
.L142:
	movq	%rax, %rbx
	leaq	-28(%rbp), %rax
	movq	%rax, %rcx
	call	_ZZN9__gnu_cxx6__stoaIlicJiEEET0_PFT_PKT1_PPS3_DpT2_EPKcS5_PyS9_EN11_Save_errnoD1Ev
	movq	%rbx, %rax
	movq	%rax, %rcx
.LEHB14:
	call	_Unwind_Resume
.LEHE14:
.L143:
	addq	$72, %rsp
	popq	%rbx
	popq	%rbp
	ret
	.seh_handler	__gxx_personality_seh0, @unwind, @except
	.seh_handlerdata
.LLSDA9365:
	.byte	0xff
	.byte	0xff
	.byte	0x1
	.uleb128 .LLSDACSE9365-.LLSDACSB9365
.LLSDACSB9365:
	.uleb128 .LEHB12-.LFB9365
	.uleb128 .LEHE12-.LEHB12
	.uleb128 0
	.uleb128 0
	.uleb128 .LEHB13-.LFB9365
	.uleb128 .LEHE13-.LEHB13
	.uleb128 .L142-.LFB9365
	.uleb128 0
	.uleb128 .LEHB14-.LFB9365
	.uleb128 .LEHE14-.LEHB14
	.uleb128 0
	.uleb128 0
.LLSDACSE9365:
	.section	.text$_ZN9__gnu_cxx6__stoaIlicJiEEET0_PFT_PKT1_PPS3_DpT2_EPKcS5_PyS9_,"x"
	.linkonce discard
	.seh_endproc
	.section	.text$_ZZN9__gnu_cxx6__stoaImmcJiEEET0_PFT_PKT1_PPS3_DpT2_EPKcS5_PyS9_EN11_Save_errnoC1Ev,"x"
	.linkonce discard
	.align 2
	.globl	_ZZN9__gnu_cxx6__stoaImmcJiEEET0_PFT_PKT1_PPS3_DpT2_EPKcS5_PyS9_EN11_Save_errnoC1Ev
	.def	_ZZN9__gnu_cxx6__stoaImmcJiEEET0_PFT_PKT1_PPS3_DpT2_EPKcS5_PyS9_EN11_Save_errnoC1Ev;	.scl	2;	.type	32;	.endef
	.seh_proc	_ZZN9__gnu_cxx6__stoaImmcJiEEET0_PFT_PKT1_PPS3_DpT2_EPKcS5_PyS9_EN11_Save_errnoC1Ev
_ZZN9__gnu_cxx6__stoaImmcJiEEET0_PFT_PKT1_PPS3_DpT2_EPKcS5_PyS9_EN11_Save_errnoC1Ev:
.LFB9386:
	pushq	%rbp
	.seh_pushreg	%rbp
	movq	%rsp, %rbp
	.seh_setframe	%rbp, 0
	subq	$32, %rsp
	.seh_stackalloc	32
	.seh_endprologue
	movq	%rcx, 16(%rbp)
	movq	__imp__errno(%rip), %rax
	call	*%rax
	movl	(%rax), %edx
	movq	16(%rbp), %rax
	movl	%edx, (%rax)
	movq	__imp__errno(%rip), %rax
	call	*%rax
	movl	$0, (%rax)
	nop
	addq	$32, %rsp
	popq	%rbp
	ret
	.seh_endproc
	.section	.text$_ZZN9__gnu_cxx6__stoaImmcJiEEET0_PFT_PKT1_PPS3_DpT2_EPKcS5_PyS9_EN11_Save_errnoD1Ev,"x"
	.linkonce discard
	.align 2
	.globl	_ZZN9__gnu_cxx6__stoaImmcJiEEET0_PFT_PKT1_PPS3_DpT2_EPKcS5_PyS9_EN11_Save_errnoD1Ev
	.def	_ZZN9__gnu_cxx6__stoaImmcJiEEET0_PFT_PKT1_PPS3_DpT2_EPKcS5_PyS9_EN11_Save_errnoD1Ev;	.scl	2;	.type	32;	.endef
	.seh_proc	_ZZN9__gnu_cxx6__stoaImmcJiEEET0_PFT_PKT1_PPS3_DpT2_EPKcS5_PyS9_EN11_Save_errnoD1Ev
_ZZN9__gnu_cxx6__stoaImmcJiEEET0_PFT_PKT1_PPS3_DpT2_EPKcS5_PyS9_EN11_Save_errnoD1Ev:
.LFB9389:
	pushq	%rbp
	.seh_pushreg	%rbp
	pushq	%rbx
	.seh_pushreg	%rbx
	subq	$40, %rsp
	.seh_stackalloc	40
	leaq	32(%rsp), %rbp
	.seh_setframe	%rbp, 32
	.seh_endprologue
	movq	%rcx, 32(%rbp)
	movq	__imp__errno(%rip), %rax
	call	*%rax
	movl	(%rax), %eax
	testl	%eax, %eax
	sete	%al
	testb	%al, %al
	je	.L147
	movq	32(%rbp), %rax
	movl	(%rax), %ebx
	movq	__imp__errno(%rip), %rax
	call	*%rax
	movl	%ebx, (%rax)
.L147:
	nop
	addq	$40, %rsp
	popq	%rbx
	popq	%rbp
	ret
	.seh_handler	__gxx_personality_seh0, @unwind, @except
	.seh_handlerdata
.LLSDA9389:
	.byte	0xff
	.byte	0xff
	.byte	0x1
	.uleb128 .LLSDACSE9389-.LLSDACSB9389
.LLSDACSB9389:
.LLSDACSE9389:
	.section	.text$_ZZN9__gnu_cxx6__stoaImmcJiEEET0_PFT_PKT1_PPS3_DpT2_EPKcS5_PyS9_EN11_Save_errnoD1Ev,"x"
	.linkonce discard
	.seh_endproc
	.section	.text$_ZZN9__gnu_cxx6__stoaImmcJiEEET0_PFT_PKT1_PPS3_DpT2_EPKcS5_PyS9_EN10_Range_chk6_S_chkEmSt17integral_constantIbLb0EE,"x"
	.linkonce discard
	.globl	_ZZN9__gnu_cxx6__stoaImmcJiEEET0_PFT_PKT1_PPS3_DpT2_EPKcS5_PyS9_EN10_Range_chk6_S_chkEmSt17integral_constantIbLb0EE
	.def	_ZZN9__gnu_cxx6__stoaImmcJiEEET0_PFT_PKT1_PPS3_DpT2_EPKcS5_PyS9_EN10_Range_chk6_S_chkEmSt17integral_constantIbLb0EE;	.scl	2;	.type	32;	.endef
	.seh_proc	_ZZN9__gnu_cxx6__stoaImmcJiEEET0_PFT_PKT1_PPS3_DpT2_EPKcS5_PyS9_EN10_Range_chk6_S_chkEmSt17integral_constantIbLb0EE
_ZZN9__gnu_cxx6__stoaImmcJiEEET0_PFT_PKT1_PPS3_DpT2_EPKcS5_PyS9_EN10_Range_chk6_S_chkEmSt17integral_constantIbLb0EE:
.LFB9390:
	pushq	%rbp
	.seh_pushreg	%rbp
	movq	%rsp, %rbp
	.seh_setframe	%rbp, 0
	.seh_endprologue
	movl	%ecx, 16(%rbp)
	movl	$0, %eax
	popq	%rbp
	ret
	.seh_endproc
	.section	.text$_ZN9__gnu_cxx6__stoaImmcJiEEET0_PFT_PKT1_PPS3_DpT2_EPKcS5_PyS9_,"x"
	.linkonce discard
	.globl	_ZN9__gnu_cxx6__stoaImmcJiEEET0_PFT_PKT1_PPS3_DpT2_EPKcS5_PyS9_
	.def	_ZN9__gnu_cxx6__stoaImmcJiEEET0_PFT_PKT1_PPS3_DpT2_EPKcS5_PyS9_;	.scl	2;	.type	32;	.endef
	.seh_proc	_ZN9__gnu_cxx6__stoaImmcJiEEET0_PFT_PKT1_PPS3_DpT2_EPKcS5_PyS9_
_ZN9__gnu_cxx6__stoaImmcJiEEET0_PFT_PKT1_PPS3_DpT2_EPKcS5_PyS9_:
.LFB9383:
	pushq	%rbp
	.seh_pushreg	%rbp
	pushq	%rbx
	.seh_pushreg	%rbx
	subq	$72, %rsp
	.seh_stackalloc	72
	leaq	64(%rsp), %rbp
	.seh_setframe	%rbp, 64
	.seh_endprologue
	movq	%rcx, 32(%rbp)
	movq	%rdx, 40(%rbp)
	movq	%r8, 48(%rbp)
	movq	%r9, 56(%rbp)
	leaq	-28(%rbp), %rax
	movq	%rax, %rcx
.LEHB15:
	call	_ZZN9__gnu_cxx6__stoaImmcJiEEET0_PFT_PKT1_PPS3_DpT2_EPKcS5_PyS9_EN11_Save_errnoC1Ev
.LEHE15:
	movq	32(%rbp), %r9
	movl	64(%rbp), %edx
	leaq	-24(%rbp), %rax
	movq	48(%rbp), %rcx
	movl	%edx, %r8d
	movq	%rax, %rdx
.LEHB16:
	call	*%r9
	movl	%eax, -4(%rbp)
	movq	-24(%rbp), %rax
	cmpq	%rax, 48(%rbp)
	jne	.L151
	movq	40(%rbp), %rax
	movq	%rax, %rcx
	call	_ZSt24__throw_invalid_argumentPKc
.L151:
	movq	__imp__errno(%rip), %rax
	call	*%rax
	movl	(%rax), %eax
	cmpl	$34, %eax
	je	.L152
	movl	-4(%rbp), %eax
	movl	%ebx, %edx
	movl	%eax, %ecx
	call	_ZZN9__gnu_cxx6__stoaImmcJiEEET0_PFT_PKT1_PPS3_DpT2_EPKcS5_PyS9_EN10_Range_chk6_S_chkEmSt17integral_constantIbLb0EE
	testb	%al, %al
	je	.L153
.L152:
	movl	$1, %eax
	jmp	.L154
.L153:
	movl	$0, %eax
.L154:
	testb	%al, %al
	je	.L155
	movq	40(%rbp), %rax
	movq	%rax, %rcx
	call	_ZSt20__throw_out_of_rangePKc
.LEHE16:
.L155:
	movl	-4(%rbp), %eax
	movl	%eax, -8(%rbp)
	cmpq	$0, 56(%rbp)
	je	.L156
	movq	-24(%rbp), %rax
	subq	48(%rbp), %rax
	movq	%rax, %rdx
	movq	56(%rbp), %rax
	movq	%rdx, (%rax)
.L156:
	movl	-8(%rbp), %ebx
	leaq	-28(%rbp), %rax
	movq	%rax, %rcx
	call	_ZZN9__gnu_cxx6__stoaImmcJiEEET0_PFT_PKT1_PPS3_DpT2_EPKcS5_PyS9_EN11_Save_errnoD1Ev
	movl	%ebx, %eax
	jmp	.L160
.L159:
	movq	%rax, %rbx
	leaq	-28(%rbp), %rax
	movq	%rax, %rcx
	call	_ZZN9__gnu_cxx6__stoaImmcJiEEET0_PFT_PKT1_PPS3_DpT2_EPKcS5_PyS9_EN11_Save_errnoD1Ev
	movq	%rbx, %rax
	movq	%rax, %rcx
.LEHB17:
	call	_Unwind_Resume
.LEHE17:
.L160:
	addq	$72, %rsp
	popq	%rbx
	popq	%rbp
	ret
	.seh_handler	__gxx_personality_seh0, @unwind, @except
	.seh_handlerdata
.LLSDA9383:
	.byte	0xff
	.byte	0xff
	.byte	0x1
	.uleb128 .LLSDACSE9383-.LLSDACSB9383
.LLSDACSB9383:
	.uleb128 .LEHB15-.LFB9383
	.uleb128 .LEHE15-.LEHB15
	.uleb128 0
	.uleb128 0
	.uleb128 .LEHB16-.LFB9383
	.uleb128 .LEHE16-.LEHB16
	.uleb128 .L159-.LFB9383
	.uleb128 0
	.uleb128 .LEHB17-.LFB9383
	.uleb128 .LEHE17-.LEHB17
	.uleb128 0
	.uleb128 0
.LLSDACSE9383:
	.section	.text$_ZN9__gnu_cxx6__stoaImmcJiEEET0_PFT_PKT1_PPS3_DpT2_EPKcS5_PyS9_,"x"
	.linkonce discard
	.seh_endproc
	.section	.text$_ZNSt7__cxx1112basic_stringIcSt11char_traitsIcESaIcEE12_Alloc_hiderD1Ev,"x"
	.linkonce discard
	.align 2
	.globl	_ZNSt7__cxx1112basic_stringIcSt11char_traitsIcESaIcEE12_Alloc_hiderD1Ev
	.def	_ZNSt7__cxx1112basic_stringIcSt11char_traitsIcESaIcEE12_Alloc_hiderD1Ev;	.scl	2;	.type	32;	.endef
	.seh_proc	_ZNSt7__cxx1112basic_stringIcSt11char_traitsIcESaIcEE12_Alloc_hiderD1Ev
_ZNSt7__cxx1112basic_stringIcSt11char_traitsIcESaIcEE12_Alloc_hiderD1Ev:
.LFB9440:
	pushq	%rbp
	.seh_pushreg	%rbp
	movq	%rsp, %rbp
	.seh_setframe	%rbp, 0
	subq	$48, %rsp
	.seh_stackalloc	48
	.seh_endprologue
	movq	%rcx, 16(%rbp)
	movq	16(%rbp), %rax
	movq	%rax, -8(%rbp)
	movq	-8(%rbp), %rax
	movq	%rax, %rcx
	call	_ZNSt15__new_allocatorIcED2Ev
	nop
	nop
	addq	$48, %rsp
	popq	%rbp
	ret
	.seh_endproc
	.section	.text$_ZNSt7__cxx1112basic_stringIcSt11char_traitsIcESaIcEEC1Ev,"x"
	.linkonce discard
	.align 2
	.globl	_ZNSt7__cxx1112basic_stringIcSt11char_traitsIcESaIcEEC1Ev
	.def	_ZNSt7__cxx1112basic_stringIcSt11char_traitsIcESaIcEEC1Ev;	.scl	2;	.type	32;	.endef
	.seh_proc	_ZNSt7__cxx1112basic_stringIcSt11char_traitsIcESaIcEEC1Ev
_ZNSt7__cxx1112basic_stringIcSt11char_traitsIcESaIcEEC1Ev:
.LFB9442:
	pushq	%rbp
	.seh_pushreg	%rbp
	pushq	%rbx
	.seh_pushreg	%rbx
	subq	$72, %rsp
	.seh_stackalloc	72
	leaq	64(%rsp), %rbp
	.seh_setframe	%rbp, 64
	.seh_endprologue
	movq	%rcx, 32(%rbp)
	movq	32(%rbp), %rbx
	leaq	-17(%rbp), %rax
	movq	%rax, -16(%rbp)
	nop
	nop
	movq	32(%rbp), %rax
	movq	%rax, %rcx
	call	_ZNSt7__cxx1112basic_stringIcSt11char_traitsIcESaIcEE13_M_local_dataEv
	leaq	-17(%rbp), %rdx
	movq	%rdx, %r8
	movq	%rax, %rdx
	movq	%rbx, %rcx
	call	_ZNSt7__cxx1112basic_stringIcSt11char_traitsIcESaIcEE12_Alloc_hiderC1EPcOS3_
	leaq	-17(%rbp), %rax
	movq	%rax, %rcx
	call	_ZNSt15__new_allocatorIcED2Ev
	nop
	movq	32(%rbp), %rax
	movq	%rax, -8(%rbp)
	nop
	movq	32(%rbp), %rax
	movl	$0, %edx
	movq	%rax, %rcx
	call	_ZNSt7__cxx1112basic_stringIcSt11char_traitsIcESaIcEE13_M_set_lengthEy
	nop
	addq	$72, %rsp
	popq	%rbx
	popq	%rbp
	ret
	.seh_handler	__gxx_personality_seh0, @unwind, @except
	.seh_handlerdata
.LLSDA9442:
	.byte	0xff
	.byte	0xff
	.byte	0x1
	.uleb128 .LLSDACSE9442-.LLSDACSB9442
.LLSDACSB9442:
.LLSDACSE9442:
	.section	.text$_ZNSt7__cxx1112basic_stringIcSt11char_traitsIcESaIcEEC1Ev,"x"
	.linkonce discard
	.seh_endproc
	.section	.text$_ZNSt7__cxx1112basic_stringIcSt11char_traitsIcESaIcEED1Ev,"x"
	.linkonce discard
	.align 2
	.globl	_ZNSt7__cxx1112basic_stringIcSt11char_traitsIcESaIcEED1Ev
	.def	_ZNSt7__cxx1112basic_stringIcSt11char_traitsIcESaIcEED1Ev;	.scl	2;	.type	32;	.endef
	.seh_proc	_ZNSt7__cxx1112basic_stringIcSt11char_traitsIcESaIcEED1Ev
_ZNSt7__cxx1112basic_stringIcSt11char_traitsIcESaIcEED1Ev:
.LFB9445:
	pushq	%rbp
	.seh_pushreg	%rbp
	movq	%rsp, %rbp
	.seh_setframe	%rbp, 0
	subq	$32, %rsp
	.seh_stackalloc	32
	.seh_endprologue
	movq	%rcx, 16(%rbp)
	movq	16(%rbp), %rax
	movq	%rax, %rcx
	call	_ZNSt7__cxx1112basic_stringIcSt11char_traitsIcESaIcEE10_M_disposeEv
	movq	16(%rbp), %rax
	movq	%rax, %rcx
	call	_ZNSt7__cxx1112basic_stringIcSt11char_traitsIcESaIcEE12_Alloc_hiderD1Ev
	nop
	addq	$32, %rsp
	popq	%rbp
	ret
	.seh_handler	__gxx_personality_seh0, @unwind, @except
	.seh_handlerdata
.LLSDA9445:
	.byte	0xff
	.byte	0xff
	.byte	0x1
	.uleb128 .LLSDACSE9445-.LLSDACSB9445
.LLSDACSB9445:
.LLSDACSE9445:
	.section	.text$_ZNSt7__cxx1112basic_stringIcSt11char_traitsIcESaIcEED1Ev,"x"
	.linkonce discard
	.seh_endproc
	.section	.text$_ZNSt7__cxx1112basic_stringIcSt11char_traitsIcESaIcEEC1EOS4_,"x"
	.linkonce discard
	.align 2
	.globl	_ZNSt7__cxx1112basic_stringIcSt11char_traitsIcESaIcEEC1EOS4_
	.def	_ZNSt7__cxx1112basic_stringIcSt11char_traitsIcESaIcEEC1EOS4_;	.scl	2;	.type	32;	.endef
	.seh_proc	_ZNSt7__cxx1112basic_stringIcSt11char_traitsIcESaIcEEC1EOS4_
_ZNSt7__cxx1112basic_stringIcSt11char_traitsIcESaIcEEC1EOS4_:
.LFB9453:
	pushq	%rbp
	.seh_pushreg	%rbp
	pushq	%rsi
	.seh_pushreg	%rsi
	pushq	%rbx
	.seh_pushreg	%rbx
	subq	$64, %rsp
	.seh_stackalloc	64
	leaq	64(%rsp), %rbp
	.seh_setframe	%rbp, 64
	.seh_endprologue
	movq	%rcx, 32(%rbp)
	movq	%rdx, 40(%rbp)
	movq	32(%rbp), %rbx
	movq	40(%rbp), %rax
	movq	%rax, %rcx
	call	_ZNSt7__cxx1112basic_stringIcSt11char_traitsIcESaIcEE16_M_get_allocatorEv
	movq	%rax, -8(%rbp)
	movq	-8(%rbp), %rsi
	movq	32(%rbp), %rax
	movq	%rax, %rcx
	call	_ZNSt7__cxx1112basic_stringIcSt11char_traitsIcESaIcEE13_M_local_dataEv
	movq	%rsi, %r8
	movq	%rax, %rdx
	movq	%rbx, %rcx
	call	_ZNSt7__cxx1112basic_stringIcSt11char_traitsIcESaIcEE12_Alloc_hiderC1EPcOS3_
	movq	40(%rbp), %rax
	movq	%rax, %rcx
	call	_ZNKSt7__cxx1112basic_stringIcSt11char_traitsIcESaIcEE11_M_is_localEv
	testb	%al, %al
	je	.L166
	movq	32(%rbp), %rax
	movq	%rax, -16(%rbp)
	nop
	movq	40(%rbp), %rax
	movq	%rax, %rcx
	call	_ZNKSt7__cxx1112basic_stringIcSt11char_traitsIcESaIcEE6lengthEv
	leaq	1(%rax), %rcx
	movq	40(%rbp), %rax
	leaq	16(%rax), %rdx
	movq	32(%rbp), %rax
	addq	$16, %rax
	movq	%rcx, %r8
	movq	%rax, %rcx
	call	_ZNSt11char_traitsIcE4copyEPcPKcy
	jmp	.L167
.L166:
	movq	40(%rbp), %rax
	movq	%rax, %rcx
	call	_ZNKSt7__cxx1112basic_stringIcSt11char_traitsIcESaIcEE7_M_dataEv
	movq	%rax, %rdx
	movq	32(%rbp), %rax
	movq	%rax, %rcx
	call	_ZNSt7__cxx1112basic_stringIcSt11char_traitsIcESaIcEE7_M_dataEPc
	movq	40(%rbp), %rax
	movq	16(%rax), %rdx
	movq	32(%rbp), %rax
	movq	%rax, %rcx
	call	_ZNSt7__cxx1112basic_stringIcSt11char_traitsIcESaIcEE11_M_capacityEy
.L167:
	movq	40(%rbp), %rax
	movq	%rax, %rcx
	call	_ZNKSt7__cxx1112basic_stringIcSt11char_traitsIcESaIcEE6lengthEv
	movq	%rax, %rdx
	movq	32(%rbp), %rax
	movq	%rax, %rcx
	call	_ZNSt7__cxx1112basic_stringIcSt11char_traitsIcESaIcEE9_M_lengthEy
	movq	40(%rbp), %rax
	movq	%rax, -24(%rbp)
	movq	-24(%rbp), %rax
	movq	%rax, %rcx
	call	_ZNSt7__cxx1112basic_stringIcSt11char_traitsIcESaIcEE13_M_local_dataEv
	movq	%rax, %rdx
	nop
	movq	40(%rbp), %rax
	movq	%rax, %rcx
	call	_ZNSt7__cxx1112basic_stringIcSt11char_traitsIcESaIcEE7_M_dataEPc
	movq	40(%rbp), %rax
	movl	$0, %edx
	movq	%rax, %rcx
	call	_ZNSt7__cxx1112basic_stringIcSt11char_traitsIcESaIcEE13_M_set_lengthEy
	nop
	addq	$64, %rsp
	popq	%rbx
	popq	%rsi
	popq	%rbp
	ret
	.seh_handler	__gxx_personality_seh0, @unwind, @except
	.seh_handlerdata
.LLSDA9453:
	.byte	0xff
	.byte	0xff
	.byte	0x1
	.uleb128 .LLSDACSE9453-.LLSDACSB9453
.LLSDACSB9453:
.LLSDACSE9453:
	.section	.text$_ZNSt7__cxx1112basic_stringIcSt11char_traitsIcESaIcEEC1EOS4_,"x"
	.linkonce discard
	.seh_endproc
	.section .rdata,"dr"
	.align 8
.LC32:
	.ascii "00010203040506070809101112131415161718192021222324252627282930313233343536373839404142434445464748495051525354555657585960616263646566676869707172737475767778798081828384858687888990919293949596979899\0"
	.section	.text$_ZNSt8__detail18__to_chars_10_implImEEvPcjT_,"x"
	.linkonce discard
	.globl	_ZNSt8__detail18__to_chars_10_implImEEvPcjT_
	.def	_ZNSt8__detail18__to_chars_10_implImEEvPcjT_;	.scl	2;	.type	32;	.endef
	.seh_proc	_ZNSt8__detail18__to_chars_10_implImEEvPcjT_
_ZNSt8__detail18__to_chars_10_implImEEvPcjT_:
.LFB9458:
	pushq	%rbp
	.seh_pushreg	%rbp
	subq	$256, %rsp
	.seh_stackalloc	256
	leaq	128(%rsp), %rbp
	.seh_setframe	%rbp, 128
	.seh_endprologue
	movq	%rcx, 144(%rbp)
	movl	%edx, 152(%rbp)
	movl	%r8d, 160(%rbp)
	leaq	-96(%rbp), %rax
	leaq	.LC32(%rip), %rdx
	movl	$201, %ecx
	movq	%rcx, %r8
	movq	%rax, %rcx
	call	memcpy
	movl	152(%rbp), %eax
	subl	$1, %eax
	movl	%eax, 124(%rbp)
	jmp	.L170
.L171:
	movl	160(%rbp), %ecx
	movl	%ecx, %eax
	imulq	$1374389535, %rax, %rax
	shrq	$32, %rax
	shrl	$5, %eax
	imull	$100, %eax, %edx
	movl	%ecx, %eax
	subl	%edx, %eax
	addl	%eax, %eax
	movl	%eax, 116(%rbp)
	movl	160(%rbp), %eax
	movl	%eax, %eax
	imulq	$1374389535, %rax, %rax
	shrq	$32, %rax
	shrl	$5, %eax
	movl	%eax, 160(%rbp)
	movl	116(%rbp), %eax
	leal	1(%rax), %ecx
	movl	124(%rbp), %eax
	movq	144(%rbp), %rdx
	addq	%rax, %rdx
	movl	%ecx, %eax
	movzbl	-96(%rbp,%rax), %eax
	movb	%al, (%rdx)
	movl	124(%rbp), %eax
	subl	$1, %eax
	movl	%eax, %edx
	movq	144(%rbp), %rax
	addq	%rax, %rdx
	movl	116(%rbp), %eax
	movzbl	-96(%rbp,%rax), %eax
	movb	%al, (%rdx)
	subl	$2, 124(%rbp)
.L170:
	cmpl	$99, 160(%rbp)
	ja	.L171
	cmpl	$9, 160(%rbp)
	jbe	.L172
	movl	160(%rbp), %eax
	addl	%eax, %eax
	movl	%eax, 120(%rbp)
	movl	120(%rbp), %eax
	leal	1(%rax), %ecx
	movq	144(%rbp), %rax
	leaq	1(%rax), %rdx
	movl	%ecx, %eax
	movzbl	-96(%rbp,%rax), %eax
	movb	%al, (%rdx)
	movl	120(%rbp), %eax
	movzbl	-96(%rbp,%rax), %eax
	movq	144(%rbp), %rdx
	movb	%al, (%rdx)
	jmp	.L174
.L172:
	movl	160(%rbp), %eax
	addl	$48, %eax
	movl	%eax, %edx
	movq	144(%rbp), %rax
	movb	%dl, (%rax)
.L174:
	nop
	addq	$256, %rsp
	popq	%rbp
	ret
	.seh_endproc
	.section	.text$_ZZNSt7__cxx1112basic_stringIcSt11char_traitsIcESaIcEE22__resize_and_overwriteIZNS_9to_stringEmEUlPcyE_EEvyT_EN11_TerminatorD1Ev,"x"
	.linkonce discard
	.align 2
	.globl	_ZZNSt7__cxx1112basic_stringIcSt11char_traitsIcESaIcEE22__resize_and_overwriteIZNS_9to_stringEmEUlPcyE_EEvyT_EN11_TerminatorD1Ev
	.def	_ZZNSt7__cxx1112basic_stringIcSt11char_traitsIcESaIcEE22__resize_and_overwriteIZNS_9to_stringEmEUlPcyE_EEvyT_EN11_TerminatorD1Ev;	.scl	2;	.type	32;	.endef
	.seh_proc	_ZZNSt7__cxx1112basic_stringIcSt11char_traitsIcESaIcEE22__resize_and_overwriteIZNS_9to_stringEmEUlPcyE_EEvyT_EN11_TerminatorD1Ev
_ZZNSt7__cxx1112basic_stringIcSt11char_traitsIcESaIcEE22__resize_and_overwriteIZNS_9to_stringEmEUlPcyE_EEvyT_EN11_TerminatorD1Ev:
.LFB9466:
	pushq	%rbp
	.seh_pushreg	%rbp
	movq	%rsp, %rbp
	.seh_setframe	%rbp, 0
	subq	$32, %rsp
	.seh_stackalloc	32
	.seh_endprologue
	movq	%rcx, 16(%rbp)
	movq	16(%rbp), %rax
	movq	(%rax), %rax
	movq	16(%rbp), %rdx
	movq	8(%rdx), %rdx
	movq	%rax, %rcx
	call	_ZNSt7__cxx1112basic_stringIcSt11char_traitsIcESaIcEE13_M_set_lengthEy
	nop
	addq	$32, %rsp
	popq	%rbp
	ret
	.seh_handler	__gxx_personality_seh0, @unwind, @except
	.seh_handlerdata
.LLSDA9466:
	.byte	0xff
	.byte	0xff
	.byte	0x1
	.uleb128 .LLSDACSE9466-.LLSDACSB9466
.LLSDACSB9466:
.LLSDACSE9466:
	.section	.text$_ZZNSt7__cxx1112basic_stringIcSt11char_traitsIcESaIcEE22__resize_and_overwriteIZNS_9to_stringEmEUlPcyE_EEvyT_EN11_TerminatorD1Ev,"x"
	.linkonce discard
	.seh_endproc
	.section	.text$_ZNSt7__cxx1112basic_stringIcSt11char_traitsIcESaIcEE22__resize_and_overwriteIZNS_9to_stringEmEUlPcyE_EEvyT_,"x"
	.linkonce discard
	.align 2
	.globl	_ZNSt7__cxx1112basic_stringIcSt11char_traitsIcESaIcEE22__resize_and_overwriteIZNS_9to_stringEmEUlPcyE_EEvyT_
	.def	_ZNSt7__cxx1112basic_stringIcSt11char_traitsIcESaIcEE22__resize_and_overwriteIZNS_9to_stringEmEUlPcyE_EEvyT_;	.scl	2;	.type	32;	.endef
	.seh_proc	_ZNSt7__cxx1112basic_stringIcSt11char_traitsIcESaIcEE22__resize_and_overwriteIZNS_9to_stringEmEUlPcyE_EEvyT_
_ZNSt7__cxx1112basic_stringIcSt11char_traitsIcESaIcEE22__resize_and_overwriteIZNS_9to_stringEmEUlPcyE_EEvyT_:
.LFB9463:
	pushq	%rbp
	.seh_pushreg	%rbp
	movq	%rsp, %rbp
	.seh_setframe	%rbp, 0
	subq	$64, %rsp
	.seh_stackalloc	64
	.seh_endprologue
	movq	%rcx, 16(%rbp)
	movq	%rdx, 24(%rbp)
	movl	%r8d, 32(%rbp)
	movq	24(%rbp), %rdx
	movq	16(%rbp), %rax
	movq	%rax, %rcx
	call	_ZNSt7__cxx1112basic_stringIcSt11char_traitsIcESaIcEE7reserveEy
	movq	16(%rbp), %rax
	movq	%rax, %rcx
	call	_ZNKSt7__cxx1112basic_stringIcSt11char_traitsIcESaIcEE7_M_dataEv
	movq	%rax, -8(%rbp)
	movq	$0, -32(%rbp)
	movq	$0, -24(%rbp)
	movq	16(%rbp), %rax
	movq	%rax, -32(%rbp)
	leaq	32(%rbp), %rax
	movq	24(%rbp), %rcx
	movq	-8(%rbp), %rdx
	movq	%rcx, %r8
	movq	%rax, %rcx
	call	_ZZNSt7__cxx119to_stringEmENKUlPcyE_clES0_y
	movq	%rax, -16(%rbp)
	movq	-16(%rbp), %rax
	movq	%rax, -24(%rbp)
	movq	-24(%rbp), %rax
	cmpq	%rax, 24(%rbp)
	leaq	-32(%rbp), %rax
	movq	%rax, %rcx
	call	_ZZNSt7__cxx1112basic_stringIcSt11char_traitsIcESaIcEE22__resize_and_overwriteIZNS_9to_stringEmEUlPcyE_EEvyT_EN11_TerminatorD1Ev
	nop
	addq	$64, %rsp
	popq	%rbp
	ret
	.seh_endproc
	.section	.text$_ZNSt8__detail18__to_chars_10_implIyEEvPcjT_,"x"
	.linkonce discard
	.globl	_ZNSt8__detail18__to_chars_10_implIyEEvPcjT_
	.def	_ZNSt8__detail18__to_chars_10_implIyEEvPcjT_;	.scl	2;	.type	32;	.endef
	.seh_proc	_ZNSt8__detail18__to_chars_10_implIyEEvPcjT_
_ZNSt8__detail18__to_chars_10_implIyEEvPcjT_:
.LFB9467:
	pushq	%rbp
	.seh_pushreg	%rbp
	subq	$272, %rsp
	.seh_stackalloc	272
	leaq	128(%rsp), %rbp
	.seh_setframe	%rbp, 128
	.seh_endprologue
	movq	%rcx, 160(%rbp)
	movl	%edx, 168(%rbp)
	movq	%r8, 176(%rbp)
	leaq	-96(%rbp), %rax
	leaq	.LC32(%rip), %rdx
	movl	$201, %ecx
	movq	%rcx, %r8
	movq	%rax, %rcx
	call	memcpy
	movl	168(%rbp), %eax
	subl	$1, %eax
	movl	%eax, 140(%rbp)
	jmp	.L180
.L181:
	movq	176(%rbp), %rcx
	movq	%rcx, %rax
	shrq	$2, %rax
	movabsq	$2951479051793528259, %rdx
	mulq	%rdx
	movq	%rdx, %rax
	shrq	$2, %rax
	imulq	$100, %rax, %rdx
	movq	%rcx, %rax
	subq	%rdx, %rax
	addq	%rax, %rax
	movq	%rax, 120(%rbp)
	movq	176(%rbp), %rax
	shrq	$2, %rax
	movabsq	$2951479051793528259, %rdx
	mulq	%rdx
	movq	%rdx, %rax
	shrq	$2, %rax
	movq	%rax, 176(%rbp)
	movq	120(%rbp), %rax
	addq	$1, %rax
	movl	140(%rbp), %edx
	movq	160(%rbp), %rcx
	addq	%rcx, %rdx
	movzbl	-96(%rbp,%rax), %eax
	movb	%al, (%rdx)
	movl	140(%rbp), %eax
	subl	$1, %eax
	movl	%eax, %edx
	movq	160(%rbp), %rax
	addq	%rax, %rdx
	leaq	-96(%rbp), %rax
	movq	120(%rbp), %rcx
	addq	%rcx, %rax
	movzbl	(%rax), %eax
	movb	%al, (%rdx)
	subl	$2, 140(%rbp)
.L180:
	cmpq	$99, 176(%rbp)
	ja	.L181
	cmpq	$9, 176(%rbp)
	jbe	.L182
	movq	176(%rbp), %rax
	addq	%rax, %rax
	movq	%rax, 128(%rbp)
	movq	128(%rbp), %rax
	addq	$1, %rax
	movq	160(%rbp), %rdx
	addq	$1, %rdx
	movzbl	-96(%rbp,%rax), %eax
	movb	%al, (%rdx)
	leaq	-96(%rbp), %rax
	movq	128(%rbp), %rdx
	addq	%rdx, %rax
	movzbl	(%rax), %eax
	movq	160(%rbp), %rdx
	movb	%al, (%rdx)
	jmp	.L184
.L182:
	movq	176(%rbp), %rax
	addl	$48, %eax
	movl	%eax, %edx
	movq	160(%rbp), %rax
	movb	%dl, (%rax)
.L184:
	nop
	addq	$272, %rsp
	popq	%rbp
	ret
	.seh_endproc
	.section	.text$_ZZNSt7__cxx1112basic_stringIcSt11char_traitsIcESaIcEE22__resize_and_overwriteIZNS_9to_stringEyEUlPcyE_EEvyT_EN11_TerminatorD1Ev,"x"
	.linkonce discard
	.align 2
	.globl	_ZZNSt7__cxx1112basic_stringIcSt11char_traitsIcESaIcEE22__resize_and_overwriteIZNS_9to_stringEyEUlPcyE_EEvyT_EN11_TerminatorD1Ev
	.def	_ZZNSt7__cxx1112basic_stringIcSt11char_traitsIcESaIcEE22__resize_and_overwriteIZNS_9to_stringEyEUlPcyE_EEvyT_EN11_TerminatorD1Ev;	.scl	2;	.type	32;	.endef
	.seh_proc	_ZZNSt7__cxx1112basic_stringIcSt11char_traitsIcESaIcEE22__resize_and_overwriteIZNS_9to_stringEyEUlPcyE_EEvyT_EN11_TerminatorD1Ev
_ZZNSt7__cxx1112basic_stringIcSt11char_traitsIcESaIcEE22__resize_and_overwriteIZNS_9to_stringEyEUlPcyE_EEvyT_EN11_TerminatorD1Ev:
.LFB9475:
	pushq	%rbp
	.seh_pushreg	%rbp
	movq	%rsp, %rbp
	.seh_setframe	%rbp, 0
	subq	$32, %rsp
	.seh_stackalloc	32
	.seh_endprologue
	movq	%rcx, 16(%rbp)
	movq	16(%rbp), %rax
	movq	(%rax), %rax
	movq	16(%rbp), %rdx
	movq	8(%rdx), %rdx
	movq	%rax, %rcx
	call	_ZNSt7__cxx1112basic_stringIcSt11char_traitsIcESaIcEE13_M_set_lengthEy
	nop
	addq	$32, %rsp
	popq	%rbp
	ret
	.seh_handler	__gxx_personality_seh0, @unwind, @except
	.seh_handlerdata
.LLSDA9475:
	.byte	0xff
	.byte	0xff
	.byte	0x1
	.uleb128 .LLSDACSE9475-.LLSDACSB9475
.LLSDACSB9475:
.LLSDACSE9475:
	.section	.text$_ZZNSt7__cxx1112basic_stringIcSt11char_traitsIcESaIcEE22__resize_and_overwriteIZNS_9to_stringEyEUlPcyE_EEvyT_EN11_TerminatorD1Ev,"x"
	.linkonce discard
	.seh_endproc
	.section	.text$_ZNSt7__cxx1112basic_stringIcSt11char_traitsIcESaIcEE22__resize_and_overwriteIZNS_9to_stringEyEUlPcyE_EEvyT_,"x"
	.linkonce discard
	.align 2
	.globl	_ZNSt7__cxx1112basic_stringIcSt11char_traitsIcESaIcEE22__resize_and_overwriteIZNS_9to_stringEyEUlPcyE_EEvyT_
	.def	_ZNSt7__cxx1112basic_stringIcSt11char_traitsIcESaIcEE22__resize_and_overwriteIZNS_9to_stringEyEUlPcyE_EEvyT_;	.scl	2;	.type	32;	.endef
	.seh_proc	_ZNSt7__cxx1112basic_stringIcSt11char_traitsIcESaIcEE22__resize_and_overwriteIZNS_9to_stringEyEUlPcyE_EEvyT_
_ZNSt7__cxx1112basic_stringIcSt11char_traitsIcESaIcEE22__resize_and_overwriteIZNS_9to_stringEyEUlPcyE_EEvyT_:
.LFB9472:
	pushq	%rbp
	.seh_pushreg	%rbp
	movq	%rsp, %rbp
	.seh_setframe	%rbp, 0
	subq	$64, %rsp
	.seh_stackalloc	64
	.seh_endprologue
	movq	%rcx, 16(%rbp)
	movq	%rdx, 24(%rbp)
	movq	%r8, 32(%rbp)
	movq	24(%rbp), %rdx
	movq	16(%rbp), %rax
	movq	%rax, %rcx
	call	_ZNSt7__cxx1112basic_stringIcSt11char_traitsIcESaIcEE7reserveEy
	movq	16(%rbp), %rax
	movq	%rax, %rcx
	call	_ZNKSt7__cxx1112basic_stringIcSt11char_traitsIcESaIcEE7_M_dataEv
	movq	%rax, -8(%rbp)
	movq	$0, -32(%rbp)
	movq	$0, -24(%rbp)
	movq	16(%rbp), %rax
	movq	%rax, -32(%rbp)
	leaq	32(%rbp), %rax
	movq	24(%rbp), %rcx
	movq	-8(%rbp), %rdx
	movq	%rcx, %r8
	movq	%rax, %rcx
	call	_ZZNSt7__cxx119to_stringEyENKUlPcyE_clES0_y
	movq	%rax, -16(%rbp)
	movq	-16(%rbp), %rax
	movq	%rax, -24(%rbp)
	movq	-24(%rbp), %rax
	cmpq	%rax, 24(%rbp)
	leaq	-32(%rbp), %rax
	movq	%rax, %rcx
	call	_ZZNSt7__cxx1112basic_stringIcSt11char_traitsIcESaIcEE22__resize_and_overwriteIZNS_9to_stringEyEUlPcyE_EEvyT_EN11_TerminatorD1Ev
	nop
	addq	$64, %rsp
	popq	%rbp
	ret
	.seh_endproc
	.section	.text$_ZNKSt6chrono10time_pointINS_3_V212system_clockENS_8durationIxSt5ratioILx1ELx1000000000EEEEE16time_since_epochEv,"x"
	.linkonce discard
	.align 2
	.globl	_ZNKSt6chrono10time_pointINS_3_V212system_clockENS_8durationIxSt5ratioILx1ELx1000000000EEEEE16time_since_epochEv
	.def	_ZNKSt6chrono10time_pointINS_3_V212system_clockENS_8durationIxSt5ratioILx1ELx1000000000EEEEE16time_since_epochEv;	.scl	2;	.type	32;	.endef
	.seh_proc	_ZNKSt6chrono10time_pointINS_3_V212system_clockENS_8durationIxSt5ratioILx1ELx1000000000EEEEE16time_since_epochEv
_ZNKSt6chrono10time_pointINS_3_V212system_clockENS_8durationIxSt5ratioILx1ELx1000000000EEEEE16time_since_epochEv:
.LFB9614:
	pushq	%rbp
	.seh_pushreg	%rbp
	movq	%rsp, %rbp
	.seh_setframe	%rbp, 0
	.seh_endprologue
	movq	%rcx, 16(%rbp)
	movq	16(%rbp), %rax
	movq	(%rax), %rax
	popq	%rbp
	ret
	.seh_endproc
	.section .rdata,"dr"
	.align 8
.LC33:
	.ascii "basic_string: construction from null is not valid\0"
	.section	.text$_ZNSt7__cxx1112basic_stringIcSt11char_traitsIcESaIcEEC1IS3_EEPKcRKS3_,"x"
	.linkonce discard
	.align 2
	.globl	_ZNSt7__cxx1112basic_stringIcSt11char_traitsIcESaIcEEC1IS3_EEPKcRKS3_
	.def	_ZNSt7__cxx1112basic_stringIcSt11char_traitsIcESaIcEEC1IS3_EEPKcRKS3_;	.scl	2;	.type	32;	.endef
	.seh_proc	_ZNSt7__cxx1112basic_stringIcSt11char_traitsIcESaIcEEC1IS3_EEPKcRKS3_
_ZNSt7__cxx1112basic_stringIcSt11char_traitsIcESaIcEEC1IS3_EEPKcRKS3_:
.LFB9660:
	pushq	%rbp
	.seh_pushreg	%rbp
	pushq	%rsi
	.seh_pushreg	%rsi
	pushq	%rbx
	.seh_pushreg	%rbx
	subq	$48, %rsp
	.seh_stackalloc	48
	leaq	48(%rsp), %rbp
	.seh_setframe	%rbp, 48
	.seh_endprologue
	movq	%rcx, 32(%rbp)
	movq	%rdx, 40(%rbp)
	movq	%r8, 48(%rbp)
	movq	32(%rbp), %rbx
	movq	32(%rbp), %rax
	movq	%rax, %rcx
	call	_ZNSt7__cxx1112basic_stringIcSt11char_traitsIcESaIcEE13_M_local_dataEv
	movq	48(%rbp), %rdx
	movq	%rdx, %r8
	movq	%rax, %rdx
	movq	%rbx, %rcx
	call	_ZNSt7__cxx1112basic_stringIcSt11char_traitsIcESaIcEE12_Alloc_hiderC1EPcRKS3_
	cmpq	$0, 40(%rbp)
	jne	.L192
	leaq	.LC33(%rip), %rax
	movq	%rax, %rcx
.LEHB18:
	call	_ZSt19__throw_logic_errorPKc
.L192:
	movq	40(%rbp), %rax
	movq	%rax, %rcx
	call	_ZNSt11char_traitsIcE6lengthEPKc
	movq	40(%rbp), %rdx
	addq	%rdx, %rax
	movq	%rax, -8(%rbp)
	movq	-8(%rbp), %rcx
	movq	40(%rbp), %rdx
	movq	32(%rbp), %rax
	movl	%esi, %r9d
	movq	%rcx, %r8
	movq	%rax, %rcx
	call	_ZNSt7__cxx1112basic_stringIcSt11char_traitsIcESaIcEE12_M_constructIPKcEEvT_S8_St20forward_iterator_tag
.LEHE18:
	jmp	.L195
.L194:
	movq	%rax, %rbx
	movq	32(%rbp), %rax
	movq	%rax, %rcx
	call	_ZNSt7__cxx1112basic_stringIcSt11char_traitsIcESaIcEE12_Alloc_hiderD1Ev
	movq	%rbx, %rax
	movq	%rax, %rcx
.LEHB19:
	call	_Unwind_Resume
	nop
.LEHE19:
.L195:
	addq	$48, %rsp
	popq	%rbx
	popq	%rsi
	popq	%rbp
	ret
	.seh_handler	__gxx_personality_seh0, @unwind, @except
	.seh_handlerdata
.LLSDA9660:
	.byte	0xff
	.byte	0xff
	.byte	0x1
	.uleb128 .LLSDACSE9660-.LLSDACSB9660
.LLSDACSB9660:
	.uleb128 .LEHB18-.LFB9660
	.uleb128 .LEHE18-.LEHB18
	.uleb128 .L194-.LFB9660
	.uleb128 0
	.uleb128 .LEHB19-.LFB9660
	.uleb128 .LEHE19-.LEHB19
	.uleb128 0
	.uleb128 0
.LLSDACSE9660:
	.section	.text$_ZNSt7__cxx1112basic_stringIcSt11char_traitsIcESaIcEEC1IS3_EEPKcRKS3_,"x"
	.linkonce discard
	.seh_endproc
	.section	.text$_ZNSt7__cxx1112basic_stringIcSt11char_traitsIcESaIcEEaSEPKc,"x"
	.linkonce discard
	.align 2
	.globl	_ZNSt7__cxx1112basic_stringIcSt11char_traitsIcESaIcEEaSEPKc
	.def	_ZNSt7__cxx1112basic_stringIcSt11char_traitsIcESaIcEEaSEPKc;	.scl	2;	.type	32;	.endef
	.seh_proc	_ZNSt7__cxx1112basic_stringIcSt11char_traitsIcESaIcEEaSEPKc
_ZNSt7__cxx1112basic_stringIcSt11char_traitsIcESaIcEEaSEPKc:
.LFB9661:
	pushq	%rbp
	.seh_pushreg	%rbp
	movq	%rsp, %rbp
	.seh_setframe	%rbp, 0
	subq	$32, %rsp
	.seh_stackalloc	32
	.seh_endprologue
	movq	%rcx, 16(%rbp)
	movq	%rdx, 24(%rbp)
	movq	24(%rbp), %rdx
	movq	16(%rbp), %rax
	movq	%rax, %rcx
	call	_ZNSt7__cxx1112basic_stringIcSt11char_traitsIcESaIcEE6assignEPKc
	addq	$32, %rsp
	popq	%rbp
	ret
	.seh_endproc
	.section	.text$_ZNSt7__cxx1112basic_stringIcSt11char_traitsIcESaIcEEaSEOS4_,"x"
	.linkonce discard
	.align 2
	.globl	_ZNSt7__cxx1112basic_stringIcSt11char_traitsIcESaIcEEaSEOS4_
	.def	_ZNSt7__cxx1112basic_stringIcSt11char_traitsIcESaIcEEaSEOS4_;	.scl	2;	.type	32;	.endef
	.seh_proc	_ZNSt7__cxx1112basic_stringIcSt11char_traitsIcESaIcEEaSEOS4_
_ZNSt7__cxx1112basic_stringIcSt11char_traitsIcESaIcEEaSEOS4_:
.LFB9662:
	pushq	%rbp
	.seh_pushreg	%rbp
	pushq	%rsi
	.seh_pushreg	%rsi
	pushq	%rbx
	.seh_pushreg	%rbx
	subq	$96, %rsp
	.seh_stackalloc	96
	leaq	96(%rsp), %rbp
	.seh_setframe	%rbp, 96
	.seh_endprologue
	movq	%rcx, 32(%rbp)
	movq	%rdx, 40(%rbp)
	movb	$1, -17(%rbp)
	movq	32(%rbp), %rax
	movq	%rax, %rcx
	call	_ZNKSt7__cxx1112basic_stringIcSt11char_traitsIcESaIcEE11_M_is_localEv
	xorl	$1, %eax
	testb	%al, %al
	je	.L201
	movl	$1, %eax
	testb	%al, %al
.L201:
	movl	$0, %eax
	testb	%al, %al
	je	.L202
	movq	32(%rbp), %rax
	movq	16(%rax), %rdx
	movq	32(%rbp), %rax
	movq	%rax, %rcx
	call	_ZNSt7__cxx1112basic_stringIcSt11char_traitsIcESaIcEE10_M_destroyEy
	movq	32(%rbp), %rax
	movq	%rax, %rcx
	call	_ZNSt7__cxx1112basic_stringIcSt11char_traitsIcESaIcEE13_M_local_dataEv
	movq	%rax, %rdx
	movq	32(%rbp), %rax
	movq	%rax, %rcx
	call	_ZNSt7__cxx1112basic_stringIcSt11char_traitsIcESaIcEE7_M_dataEPc
	movq	32(%rbp), %rax
	movl	$0, %edx
	movq	%rax, %rcx
	call	_ZNSt7__cxx1112basic_stringIcSt11char_traitsIcESaIcEE13_M_set_lengthEy
.L202:
	movq	40(%rbp), %rax
	movq	%rax, %rcx
	call	_ZNSt7__cxx1112basic_stringIcSt11char_traitsIcESaIcEE16_M_get_allocatorEv
	movq	%rax, %rbx
	movq	32(%rbp), %rax
	movq	%rax, %rcx
	call	_ZNSt7__cxx1112basic_stringIcSt11char_traitsIcESaIcEE16_M_get_allocatorEv
	movq	%rbx, -32(%rbp)
	movq	%rax, -40(%rbp)
	movq	-32(%rbp), %rax
	movq	%rax, -48(%rbp)
	nop
	movq	40(%rbp), %rax
	movq	%rax, %rcx
	call	_ZNKSt7__cxx1112basic_stringIcSt11char_traitsIcESaIcEE11_M_is_localEv
	testb	%al, %al
	je	.L204
	movq	40(%rbp), %rax
	movq	%rax, -56(%rbp)
	movq	-56(%rbp), %rax
	cmpq	%rax, 32(%rbp)
	setne	%al
	movzbl	%al, %eax
	testl	%eax, %eax
	setne	%al
	testb	%al, %al
	je	.L206
	movq	40(%rbp), %rax
	movq	%rax, %rcx
	call	_ZNKSt7__cxx1112basic_stringIcSt11char_traitsIcESaIcEE4sizeEv
	testq	%rax, %rax
	setne	%al
	testb	%al, %al
	je	.L207
	movq	40(%rbp), %rax
	movq	%rax, %rcx
	call	_ZNKSt7__cxx1112basic_stringIcSt11char_traitsIcESaIcEE4sizeEv
	movq	%rax, %rsi
	movq	40(%rbp), %rax
	movq	%rax, %rcx
	call	_ZNKSt7__cxx1112basic_stringIcSt11char_traitsIcESaIcEE7_M_dataEv
	movq	%rax, %rbx
	movq	32(%rbp), %rax
	movq	%rax, %rcx
	call	_ZNKSt7__cxx1112basic_stringIcSt11char_traitsIcESaIcEE7_M_dataEv
	movq	%rsi, %r8
	movq	%rbx, %rdx
	movq	%rax, %rcx
	call	_ZNSt7__cxx1112basic_stringIcSt11char_traitsIcESaIcEE7_S_copyEPcPKcy
.L207:
	movq	40(%rbp), %rax
	movq	%rax, %rcx
	call	_ZNKSt7__cxx1112basic_stringIcSt11char_traitsIcESaIcEE4sizeEv
	movq	%rax, %rdx
	movq	32(%rbp), %rax
	movq	%rax, %rcx
	call	_ZNSt7__cxx1112basic_stringIcSt11char_traitsIcESaIcEE13_M_set_lengthEy
	jmp	.L206
.L204:
	movl	$1, %eax
	testb	%al, %al
	je	.L209
	movq	$0, -8(%rbp)
	movq	32(%rbp), %rax
	movq	%rax, %rcx
	call	_ZNKSt7__cxx1112basic_stringIcSt11char_traitsIcESaIcEE11_M_is_localEv
	xorl	$1, %eax
	testb	%al, %al
	je	.L210
	movq	32(%rbp), %rax
	movq	%rax, %rcx
	call	_ZNKSt7__cxx1112basic_stringIcSt11char_traitsIcESaIcEE7_M_dataEv
	movq	%rax, -8(%rbp)
	movq	32(%rbp), %rax
	movq	16(%rax), %rax
	movq	%rax, -16(%rbp)
.L210:
	movq	40(%rbp), %rax
	movq	%rax, %rcx
	call	_ZNKSt7__cxx1112basic_stringIcSt11char_traitsIcESaIcEE7_M_dataEv
	movq	%rax, %rdx
	movq	32(%rbp), %rax
	movq	%rax, %rcx
	call	_ZNSt7__cxx1112basic_stringIcSt11char_traitsIcESaIcEE7_M_dataEPc
	movq	40(%rbp), %rax
	movq	%rax, %rcx
	call	_ZNKSt7__cxx1112basic_stringIcSt11char_traitsIcESaIcEE6lengthEv
	movq	%rax, %rdx
	movq	32(%rbp), %rax
	movq	%rax, %rcx
	call	_ZNSt7__cxx1112basic_stringIcSt11char_traitsIcESaIcEE9_M_lengthEy
	movq	40(%rbp), %rax
	movq	16(%rax), %rdx
	movq	32(%rbp), %rax
	movq	%rax, %rcx
	call	_ZNSt7__cxx1112basic_stringIcSt11char_traitsIcESaIcEE11_M_capacityEy
	cmpq	$0, -8(%rbp)
	je	.L211
	movq	-8(%rbp), %rdx
	movq	40(%rbp), %rax
	movq	%rax, %rcx
	call	_ZNSt7__cxx1112basic_stringIcSt11char_traitsIcESaIcEE7_M_dataEPc
	movq	-16(%rbp), %rdx
	movq	40(%rbp), %rax
	movq	%rax, %rcx
	call	_ZNSt7__cxx1112basic_stringIcSt11char_traitsIcESaIcEE11_M_capacityEy
	jmp	.L206
.L211:
	movq	40(%rbp), %rax
	movq	%rax, -64(%rbp)
	movq	-64(%rbp), %rax
	movq	%rax, %rcx
	call	_ZNSt7__cxx1112basic_stringIcSt11char_traitsIcESaIcEE13_M_local_dataEv
	movq	%rax, %rdx
	nop
	movq	40(%rbp), %rax
	movq	%rax, %rcx
	call	_ZNSt7__cxx1112basic_stringIcSt11char_traitsIcESaIcEE7_M_dataEPc
	jmp	.L206
.L209:
	movq	40(%rbp), %rdx
	movq	32(%rbp), %rax
	movq	%rax, %rcx
	call	_ZNSt7__cxx1112basic_stringIcSt11char_traitsIcESaIcEE9_M_assignERKS4_
.L206:
	movq	40(%rbp), %rax
	movq	%rax, %rcx
	call	_ZNSt7__cxx1112basic_stringIcSt11char_traitsIcESaIcEE5clearEv
	movq	32(%rbp), %rax
	addq	$96, %rsp
	popq	%rbx
	popq	%rsi
	popq	%rbp
	ret
	.seh_handler	__gxx_personality_seh0, @unwind, @except
	.seh_handlerdata
.LLSDA9662:
	.byte	0xff
	.byte	0xff
	.byte	0x1
	.uleb128 .LLSDACSE9662-.LLSDACSB9662
.LLSDACSB9662:
.LLSDACSE9662:
	.section	.text$_ZNSt7__cxx1112basic_stringIcSt11char_traitsIcESaIcEEaSEOS4_,"x"
	.linkonce discard
	.seh_endproc
	.section	.text$_ZStplIcSt11char_traitsIcESaIcEENSt7__cxx1112basic_stringIT_T0_T1_EEOS8_PKS5_,"x"
	.linkonce discard
	.globl	_ZStplIcSt11char_traitsIcESaIcEENSt7__cxx1112basic_stringIT_T0_T1_EEOS8_PKS5_
	.def	_ZStplIcSt11char_traitsIcESaIcEENSt7__cxx1112basic_stringIT_T0_T1_EEOS8_PKS5_;	.scl	2;	.type	32;	.endef
	.seh_proc	_ZStplIcSt11char_traitsIcESaIcEENSt7__cxx1112basic_stringIT_T0_T1_EEOS8_PKS5_
_ZStplIcSt11char_traitsIcESaIcEENSt7__cxx1112basic_stringIT_T0_T1_EEOS8_PKS5_:
.LFB9663:
	pushq	%rbp
	.seh_pushreg	%rbp
	movq	%rsp, %rbp
	.seh_setframe	%rbp, 0
	subq	$48, %rsp
	.seh_stackalloc	48
	.seh_endprologue
	movq	%rcx, 16(%rbp)
	movq	%rdx, 24(%rbp)
	movq	%r8, 32(%rbp)
	movq	32(%rbp), %rdx
	movq	24(%rbp), %rax
	movq	%rax, %rcx
	call	_ZNSt7__cxx1112basic_stringIcSt11char_traitsIcESaIcEE6appendEPKc
	movq	%rax, -8(%rbp)
	movq	-8(%rbp), %rdx
	movq	16(%rbp), %rax
	movq	%rax, %rcx
	call	_ZNSt7__cxx1112basic_stringIcSt11char_traitsIcESaIcEEC1EOS4_
	movq	16(%rbp), %rax
	addq	$48, %rsp
	popq	%rbp
	ret
	.seh_endproc
	.text
	.def	_Z5benchIZ4mainEUliE_EdT_i;	.scl	3;	.type	32;	.endef
	.seh_proc	_Z5benchIZ4mainEUliE_EdT_i
_Z5benchIZ4mainEUliE_EdT_i:
.LFB9668:
	pushq	%rbp
	.seh_pushreg	%rbp
	pushq	%rbx
	.seh_pushreg	%rbx
	subq	$88, %rsp
	.seh_stackalloc	88
	leaq	80(%rsp), %rbp
	.seh_setframe	%rbp, 80
	.seh_endprologue
	movq	%rcx, %rbx
	movq	(%rbx), %rcx
	movq	8(%rbx), %rbx
	movq	%rcx, -48(%rbp)
	movq	%rbx, -40(%rbp)
	movl	%edx, 40(%rbp)
	call	_ZNSt6chrono3_V212system_clock3nowEv
	movq	%rax, -24(%rbp)
	movl	40(%rbp), %edx
	leaq	-48(%rbp), %rax
	movq	%rax, %rcx
	call	_ZZ4mainENKUliE_clEi
	call	_ZNSt6chrono3_V212system_clock3nowEv
	movq	%rax, -32(%rbp)
	leaq	-24(%rbp), %rdx
	leaq	-32(%rbp), %rax
	movq	%rax, %rcx
	call	_ZNSt6chronomiINS_3_V212system_clockENS_8durationIxSt5ratioILx1ELx1000000000EEEES6_EENSt11common_typeIJT0_T1_EE4typeERKNS_10time_pointIT_S8_EERKNSC_ISD_S9_EE
	movq	%rax, -8(%rbp)
	leaq	-8(%rbp), %rdx
	leaq	-16(%rbp), %rax
	movq	%rax, %rcx
	call	_ZNSt6chrono8durationIdSt5ratioILx1ELx1EEEC1IxS1_ILx1ELx1000000000EEvEERKNS0_IT_T0_EE
	leaq	-16(%rbp), %rax
	movq	%rax, %rcx
	call	_ZNKSt6chrono8durationIdSt5ratioILx1ELx1EEE5countEv
	addq	$88, %rsp
	popq	%rbx
	popq	%rbp
	ret
	.seh_endproc
	.def	_Z5benchIZ4mainEUliE0_EdT_i;	.scl	3;	.type	32;	.endef
	.seh_proc	_Z5benchIZ4mainEUliE0_EdT_i
_Z5benchIZ4mainEUliE0_EdT_i:
.LFB9670:
	pushq	%rbp
	.seh_pushreg	%rbp
	pushq	%rbx
	.seh_pushreg	%rbx
	subq	$88, %rsp
	.seh_stackalloc	88
	leaq	80(%rsp), %rbp
	.seh_setframe	%rbp, 80
	.seh_endprologue
	movq	%rcx, %rbx
	movq	(%rbx), %rcx
	movq	8(%rbx), %rbx
	movq	%rcx, -48(%rbp)
	movq	%rbx, -40(%rbp)
	movl	%edx, 40(%rbp)
	call	_ZNSt6chrono3_V212system_clock3nowEv
	movq	%rax, -24(%rbp)
	movl	40(%rbp), %edx
	leaq	-48(%rbp), %rax
	movq	%rax, %rcx
	call	_ZZ4mainENKUliE0_clEi
	call	_ZNSt6chrono3_V212system_clock3nowEv
	movq	%rax, -32(%rbp)
	leaq	-24(%rbp), %rdx
	leaq	-32(%rbp), %rax
	movq	%rax, %rcx
	call	_ZNSt6chronomiINS_3_V212system_clockENS_8durationIxSt5ratioILx1ELx1000000000EEEES6_EENSt11common_typeIJT0_T1_EE4typeERKNS_10time_pointIT_S8_EERKNSC_ISD_S9_EE
	movq	%rax, -8(%rbp)
	leaq	-8(%rbp), %rdx
	leaq	-16(%rbp), %rax
	movq	%rax, %rcx
	call	_ZNSt6chrono8durationIdSt5ratioILx1ELx1EEEC1IxS1_ILx1ELx1000000000EEvEERKNS0_IT_T0_EE
	leaq	-16(%rbp), %rax
	movq	%rax, %rcx
	call	_ZNKSt6chrono8durationIdSt5ratioILx1ELx1EEE5countEv
	addq	$88, %rsp
	popq	%rbx
	popq	%rbp
	ret
	.seh_endproc
	.def	_Z5benchIZ4mainEUliE1_EdT_i;	.scl	3;	.type	32;	.endef
	.seh_proc	_Z5benchIZ4mainEUliE1_EdT_i
_Z5benchIZ4mainEUliE1_EdT_i:
.LFB9672:
	pushq	%rbp
	.seh_pushreg	%rbp
	pushq	%rbx
	.seh_pushreg	%rbx
	subq	$88, %rsp
	.seh_stackalloc	88
	leaq	80(%rsp), %rbp
	.seh_setframe	%rbp, 80
	.seh_endprologue
	movq	%rcx, %rbx
	movq	(%rbx), %rcx
	movq	8(%rbx), %rbx
	movq	%rcx, -48(%rbp)
	movq	%rbx, -40(%rbp)
	movl	%edx, 40(%rbp)
	call	_ZNSt6chrono3_V212system_clock3nowEv
	movq	%rax, -24(%rbp)
	movl	40(%rbp), %edx
	leaq	-48(%rbp), %rax
	movq	%rax, %rcx
	call	_ZZ4mainENKUliE1_clEi
	call	_ZNSt6chrono3_V212system_clock3nowEv
	movq	%rax, -32(%rbp)
	leaq	-24(%rbp), %rdx
	leaq	-32(%rbp), %rax
	movq	%rax, %rcx
	call	_ZNSt6chronomiINS_3_V212system_clockENS_8durationIxSt5ratioILx1ELx1000000000EEEES6_EENSt11common_typeIJT0_T1_EE4typeERKNS_10time_pointIT_S8_EERKNSC_ISD_S9_EE
	movq	%rax, -8(%rbp)
	leaq	-8(%rbp), %rdx
	leaq	-16(%rbp), %rax
	movq	%rax, %rcx
	call	_ZNSt6chrono8durationIdSt5ratioILx1ELx1EEEC1IxS1_ILx1ELx1000000000EEvEERKNS0_IT_T0_EE
	leaq	-16(%rbp), %rax
	movq	%rax, %rcx
	call	_ZNKSt6chrono8durationIdSt5ratioILx1ELx1EEE5countEv
	addq	$88, %rsp
	popq	%rbx
	popq	%rbp
	ret
	.seh_endproc
	.def	_Z5benchIZ4mainEUliE2_EdT_i;	.scl	3;	.type	32;	.endef
	.seh_proc	_Z5benchIZ4mainEUliE2_EdT_i
_Z5benchIZ4mainEUliE2_EdT_i:
.LFB9673:
	pushq	%rbp
	.seh_pushreg	%rbp
	pushq	%rbx
	.seh_pushreg	%rbx
	subq	$88, %rsp
	.seh_stackalloc	88
	leaq	80(%rsp), %rbp
	.seh_setframe	%rbp, 80
	.seh_endprologue
	movq	%rcx, %rbx
	movq	(%rbx), %rcx
	movq	8(%rbx), %rbx
	movq	%rcx, -48(%rbp)
	movq	%rbx, -40(%rbp)
	movl	%edx, 40(%rbp)
	call	_ZNSt6chrono3_V212system_clock3nowEv
	movq	%rax, -24(%rbp)
	movl	40(%rbp), %edx
	leaq	-48(%rbp), %rax
	movq	%rax, %rcx
	call	_ZZ4mainENKUliE2_clEi
	call	_ZNSt6chrono3_V212system_clock3nowEv
	movq	%rax, -32(%rbp)
	leaq	-24(%rbp), %rdx
	leaq	-32(%rbp), %rax
	movq	%rax, %rcx
	call	_ZNSt6chronomiINS_3_V212system_clockENS_8durationIxSt5ratioILx1ELx1000000000EEEES6_EENSt11common_typeIJT0_T1_EE4typeERKNS_10time_pointIT_S8_EERKNSC_ISD_S9_EE
	movq	%rax, -8(%rbp)
	leaq	-8(%rbp), %rdx
	leaq	-16(%rbp), %rax
	movq	%rax, %rcx
	call	_ZNSt6chrono8durationIdSt5ratioILx1ELx1EEEC1IxS1_ILx1ELx1000000000EEvEERKNS0_IT_T0_EE
	leaq	-16(%rbp), %rax
	movq	%rax, %rcx
	call	_ZNKSt6chrono8durationIdSt5ratioILx1ELx1EEE5countEv
	addq	$88, %rsp
	popq	%rbx
	popq	%rbp
	ret
	.seh_endproc
	.section	.text$_ZN9__gnu_cxx11char_traitsIcE2eqERKcS3_,"x"
	.linkonce discard
	.globl	_ZN9__gnu_cxx11char_traitsIcE2eqERKcS3_
	.def	_ZN9__gnu_cxx11char_traitsIcE2eqERKcS3_;	.scl	2;	.type	32;	.endef
	.seh_proc	_ZN9__gnu_cxx11char_traitsIcE2eqERKcS3_
_ZN9__gnu_cxx11char_traitsIcE2eqERKcS3_:
.LFB9674:
	pushq	%rbp
	.seh_pushreg	%rbp
	movq	%rsp, %rbp
	.seh_setframe	%rbp, 0
	.seh_endprologue
	movq	%rcx, 16(%rbp)
	movq	%rdx, 24(%rbp)
	movq	16(%rbp), %rax
	movzbl	(%rax), %edx
	movq	24(%rbp), %rax
	movzbl	(%rax), %eax
	cmpb	%al, %dl
	sete	%al
	popq	%rbp
	ret
	.seh_endproc
	.section	.text$_ZNKSt7__cxx1112basic_stringIcSt11char_traitsIcESaIcEE7_M_dataEv,"x"
	.linkonce discard
	.align 2
	.globl	_ZNKSt7__cxx1112basic_stringIcSt11char_traitsIcESaIcEE7_M_dataEv
	.def	_ZNKSt7__cxx1112basic_stringIcSt11char_traitsIcESaIcEE7_M_dataEv;	.scl	2;	.type	32;	.endef
	.seh_proc	_ZNKSt7__cxx1112basic_stringIcSt11char_traitsIcESaIcEE7_M_dataEv
_ZNKSt7__cxx1112basic_stringIcSt11char_traitsIcESaIcEE7_M_dataEv:
.LFB9677:
	pushq	%rbp
	.seh_pushreg	%rbp
	movq	%rsp, %rbp
	.seh_setframe	%rbp, 0
	.seh_endprologue
	movq	%rcx, 16(%rbp)
	movq	16(%rbp), %rax
	movq	(%rax), %rax
	popq	%rbp
	ret
	.seh_endproc
	.section	.text$_ZNSt7__cxx1112basic_stringIcSt11char_traitsIcESaIcEE13_M_local_dataEv,"x"
	.linkonce discard
	.align 2
	.globl	_ZNSt7__cxx1112basic_stringIcSt11char_traitsIcESaIcEE13_M_local_dataEv
	.def	_ZNSt7__cxx1112basic_stringIcSt11char_traitsIcESaIcEE13_M_local_dataEv;	.scl	2;	.type	32;	.endef
	.seh_proc	_ZNSt7__cxx1112basic_stringIcSt11char_traitsIcESaIcEE13_M_local_dataEv
_ZNSt7__cxx1112basic_stringIcSt11char_traitsIcESaIcEE13_M_local_dataEv:
.LFB9678:
	pushq	%rbp
	.seh_pushreg	%rbp
	movq	%rsp, %rbp
	.seh_setframe	%rbp, 0
	subq	$32, %rsp
	.seh_stackalloc	32
	.seh_endprologue
	movq	%rcx, 16(%rbp)
	movq	16(%rbp), %rax
	addq	$16, %rax
	movq	%rax, %rcx
	call	_ZNSt19__ptr_traits_ptr_toIPccLb0EE10pointer_toERc
	addq	$32, %rsp
	popq	%rbp
	ret
	.seh_endproc
	.section	.text$_ZNSt7__cxx1112basic_stringIcSt11char_traitsIcESaIcEE12_Alloc_hiderC1EPcOS3_,"x"
	.linkonce discard
	.align 2
	.globl	_ZNSt7__cxx1112basic_stringIcSt11char_traitsIcESaIcEE12_Alloc_hiderC1EPcOS3_
	.def	_ZNSt7__cxx1112basic_stringIcSt11char_traitsIcESaIcEE12_Alloc_hiderC1EPcOS3_;	.scl	2;	.type	32;	.endef
	.seh_proc	_ZNSt7__cxx1112basic_stringIcSt11char_traitsIcESaIcEE12_Alloc_hiderC1EPcOS3_
_ZNSt7__cxx1112basic_stringIcSt11char_traitsIcESaIcEE12_Alloc_hiderC1EPcOS3_:
.LFB9681:
	pushq	%rbp
	.seh_pushreg	%rbp
	movq	%rsp, %rbp
	.seh_setframe	%rbp, 0
	subq	$48, %rsp
	.seh_stackalloc	48
	.seh_endprologue
	movq	%rcx, 16(%rbp)
	movq	%rdx, 24(%rbp)
	movq	%r8, 32(%rbp)
	movq	32(%rbp), %rax
	movq	%rax, -40(%rbp)
	movq	-40(%rbp), %rax
	movq	16(%rbp), %rdx
	movq	%rdx, -8(%rbp)
	movq	%rax, -16(%rbp)
	movq	-8(%rbp), %rax
	movq	%rax, -24(%rbp)
	movq	-16(%rbp), %rax
	movq	%rax, -32(%rbp)
	nop
	nop
	movq	16(%rbp), %rax
	movq	24(%rbp), %rdx
	movq	%rdx, (%rax)
	nop
	addq	$48, %rsp
	popq	%rbp
	ret
	.seh_endproc
	.section	.text$_ZNSt7__cxx1112basic_stringIcSt11char_traitsIcESaIcEE13_M_set_lengthEy,"x"
	.linkonce discard
	.align 2
	.globl	_ZNSt7__cxx1112basic_stringIcSt11char_traitsIcESaIcEE13_M_set_lengthEy
	.def	_ZNSt7__cxx1112basic_stringIcSt11char_traitsIcESaIcEE13_M_set_lengthEy;	.scl	2;	.type	32;	.endef
	.seh_proc	_ZNSt7__cxx1112basic_stringIcSt11char_traitsIcESaIcEE13_M_set_lengthEy
_ZNSt7__cxx1112basic_stringIcSt11char_traitsIcESaIcEE13_M_set_lengthEy:
.LFB9683:
	pushq	%rbp
	.seh_pushreg	%rbp
	movq	%rsp, %rbp
	.seh_setframe	%rbp, 0
	subq	$48, %rsp
	.seh_stackalloc	48
	.seh_endprologue
	movq	%rcx, 16(%rbp)
	movq	%rdx, 24(%rbp)
	movq	24(%rbp), %rdx
	movq	16(%rbp), %rax
	movq	%rax, %rcx
	call	_ZNSt7__cxx1112basic_stringIcSt11char_traitsIcESaIcEE9_M_lengthEy
	movb	$0, -1(%rbp)
	movq	16(%rbp), %rax
	movq	%rax, %rcx
	call	_ZNKSt7__cxx1112basic_stringIcSt11char_traitsIcESaIcEE7_M_dataEv
	movq	24(%rbp), %rdx
	leaq	(%rax,%rdx), %rcx
	leaq	-1(%rbp), %rax
	movq	%rax, %rdx
	call	_ZNSt11char_traitsIcE6assignERcRKc
	nop
	addq	$48, %rsp
	popq	%rbp
	ret
	.seh_endproc
	.section	.text$_ZNSt7__cxx1112basic_stringIcSt11char_traitsIcESaIcEE10_M_disposeEv,"x"
	.linkonce discard
	.align 2
	.globl	_ZNSt7__cxx1112basic_stringIcSt11char_traitsIcESaIcEE10_M_disposeEv
	.def	_ZNSt7__cxx1112basic_stringIcSt11char_traitsIcESaIcEE10_M_disposeEv;	.scl	2;	.type	32;	.endef
	.seh_proc	_ZNSt7__cxx1112basic_stringIcSt11char_traitsIcESaIcEE10_M_disposeEv
_ZNSt7__cxx1112basic_stringIcSt11char_traitsIcESaIcEE10_M_disposeEv:
.LFB9684:
	pushq	%rbp
	.seh_pushreg	%rbp
	movq	%rsp, %rbp
	.seh_setframe	%rbp, 0
	subq	$32, %rsp
	.seh_stackalloc	32
	.seh_endprologue
	movq	%rcx, 16(%rbp)
	movq	16(%rbp), %rax
	movq	%rax, %rcx
	call	_ZNKSt7__cxx1112basic_stringIcSt11char_traitsIcESaIcEE11_M_is_localEv
	xorl	$1, %eax
	testb	%al, %al
	je	.L236
	movq	16(%rbp), %rax
	movq	16(%rax), %rdx
	movq	16(%rbp), %rax
	movq	%rax, %rcx
	call	_ZNSt7__cxx1112basic_stringIcSt11char_traitsIcESaIcEE10_M_destroyEy
.L236:
	nop
	addq	$32, %rsp
	popq	%rbp
	ret
	.seh_endproc
	.section	.text$_ZNSt7__cxx1112basic_stringIcSt11char_traitsIcESaIcEE7reserveEy,"x"
	.linkonce discard
	.align 2
	.globl	_ZNSt7__cxx1112basic_stringIcSt11char_traitsIcESaIcEE7reserveEy
	.def	_ZNSt7__cxx1112basic_stringIcSt11char_traitsIcESaIcEE7reserveEy;	.scl	2;	.type	32;	.endef
	.seh_proc	_ZNSt7__cxx1112basic_stringIcSt11char_traitsIcESaIcEE7reserveEy
_ZNSt7__cxx1112basic_stringIcSt11char_traitsIcESaIcEE7reserveEy:
.LFB9685:
	pushq	%rbp
	.seh_pushreg	%rbp
	pushq	%rbx
	.seh_pushreg	%rbx
	subq	$56, %rsp
	.seh_stackalloc	56
	leaq	48(%rsp), %rbp
	.seh_setframe	%rbp, 48
	.seh_endprologue
	movq	%rcx, 32(%rbp)
	movq	%rdx, 40(%rbp)
	movq	32(%rbp), %rax
	movq	%rax, %rcx
	call	_ZNKSt7__cxx1112basic_stringIcSt11char_traitsIcESaIcEE8capacityEv
	movq	%rax, -8(%rbp)
	movq	40(%rbp), %rax
	cmpq	%rax, -8(%rbp)
	jnb	.L240
	movq	-8(%rbp), %rdx
	leaq	40(%rbp), %rax
	movq	32(%rbp), %rcx
	movq	%rdx, %r8
	movq	%rax, %rdx
	call	_ZNSt7__cxx1112basic_stringIcSt11char_traitsIcESaIcEE9_M_createERyy
	movq	%rax, -16(%rbp)
	movq	32(%rbp), %rax
	movq	%rax, %rcx
	call	_ZNKSt7__cxx1112basic_stringIcSt11char_traitsIcESaIcEE6lengthEv
	leaq	1(%rax), %rbx
	movq	32(%rbp), %rax
	movq	%rax, %rcx
	call	_ZNKSt7__cxx1112basic_stringIcSt11char_traitsIcESaIcEE7_M_dataEv
	movq	%rax, %rdx
	movq	-16(%rbp), %rax
	movq	%rbx, %r8
	movq	%rax, %rcx
	call	_ZNSt7__cxx1112basic_stringIcSt11char_traitsIcESaIcEE7_S_copyEPcPKcy
	movq	32(%rbp), %rax
	movq	%rax, %rcx
	call	_ZNSt7__cxx1112basic_stringIcSt11char_traitsIcESaIcEE10_M_disposeEv
	movq	-16(%rbp), %rdx
	movq	32(%rbp), %rax
	movq	%rax, %rcx
	call	_ZNSt7__cxx1112basic_stringIcSt11char_traitsIcESaIcEE7_M_dataEPc
	movq	40(%rbp), %rdx
	movq	32(%rbp), %rax
	movq	%rax, %rcx
	call	_ZNSt7__cxx1112basic_stringIcSt11char_traitsIcESaIcEE11_M_capacityEy
	jmp	.L237
.L240:
	nop
.L237:
	addq	$56, %rsp
	popq	%rbx
	popq	%rbp
	ret
	.seh_endproc
	.section	.text$_ZNSt7__cxx1112basic_stringIcSt11char_traitsIcESaIcEE16_M_get_allocatorEv,"x"
	.linkonce discard
	.align 2
	.globl	_ZNSt7__cxx1112basic_stringIcSt11char_traitsIcESaIcEE16_M_get_allocatorEv
	.def	_ZNSt7__cxx1112basic_stringIcSt11char_traitsIcESaIcEE16_M_get_allocatorEv;	.scl	2;	.type	32;	.endef
	.seh_proc	_ZNSt7__cxx1112basic_stringIcSt11char_traitsIcESaIcEE16_M_get_allocatorEv
_ZNSt7__cxx1112basic_stringIcSt11char_traitsIcESaIcEE16_M_get_allocatorEv:
.LFB9687:
	pushq	%rbp
	.seh_pushreg	%rbp
	movq	%rsp, %rbp
	.seh_setframe	%rbp, 0
	.seh_endprologue
	movq	%rcx, 16(%rbp)
	movq	16(%rbp), %rax
	popq	%rbp
	ret
	.seh_endproc
	.section	.text$_ZNKSt7__cxx1112basic_stringIcSt11char_traitsIcESaIcEE11_M_is_localEv,"x"
	.linkonce discard
	.align 2
	.globl	_ZNKSt7__cxx1112basic_stringIcSt11char_traitsIcESaIcEE11_M_is_localEv
	.def	_ZNKSt7__cxx1112basic_stringIcSt11char_traitsIcESaIcEE11_M_is_localEv;	.scl	2;	.type	32;	.endef
	.seh_proc	_ZNKSt7__cxx1112basic_stringIcSt11char_traitsIcESaIcEE11_M_is_localEv
_ZNKSt7__cxx1112basic_stringIcSt11char_traitsIcESaIcEE11_M_is_localEv:
.LFB9689:
	pushq	%rbp
	.seh_pushreg	%rbp
	pushq	%rbx
	.seh_pushreg	%rbx
	subq	$40, %rsp
	.seh_stackalloc	40
	leaq	32(%rsp), %rbp
	.seh_setframe	%rbp, 32
	.seh_endprologue
	movq	%rcx, 32(%rbp)
	movq	32(%rbp), %rax
	movq	%rax, %rcx
	call	_ZNKSt7__cxx1112basic_stringIcSt11char_traitsIcESaIcEE7_M_dataEv
	movq	%rax, %rbx
	movq	32(%rbp), %rax
	movq	%rax, %rcx
	call	_ZNKSt7__cxx1112basic_stringIcSt11char_traitsIcESaIcEE13_M_local_dataEv
	cmpq	%rax, %rbx
	sete	%al
	testb	%al, %al
	je	.L244
	movq	32(%rbp), %rax
	movq	8(%rax), %rax
	cmpq	$15, %rax
	movl	$1, %eax
	jmp	.L246
.L244:
	movl	$0, %eax
.L246:
	addq	$40, %rsp
	popq	%rbx
	popq	%rbp
	ret
	.seh_endproc
	.section	.text$_ZNKSt7__cxx1112basic_stringIcSt11char_traitsIcESaIcEE6lengthEv,"x"
	.linkonce discard
	.align 2
	.globl	_ZNKSt7__cxx1112basic_stringIcSt11char_traitsIcESaIcEE6lengthEv
	.def	_ZNKSt7__cxx1112basic_stringIcSt11char_traitsIcESaIcEE6lengthEv;	.scl	2;	.type	32;	.endef
	.seh_proc	_ZNKSt7__cxx1112basic_stringIcSt11char_traitsIcESaIcEE6lengthEv
_ZNKSt7__cxx1112basic_stringIcSt11char_traitsIcESaIcEE6lengthEv:
.LFB9690:
	pushq	%rbp
	.seh_pushreg	%rbp
	movq	%rsp, %rbp
	.seh_setframe	%rbp, 0
	subq	$32, %rsp
	.seh_stackalloc	32
	.seh_endprologue
	movq	%rcx, 16(%rbp)
	movq	16(%rbp), %rax
	movq	%rax, %rcx
	call	_ZNKSt7__cxx1112basic_stringIcSt11char_traitsIcESaIcEE4sizeEv
	addq	$32, %rsp
	popq	%rbp
	ret
	.seh_endproc
	.section	.text$_ZNSt7__cxx1112basic_stringIcSt11char_traitsIcESaIcEE7_M_dataEPc,"x"
	.linkonce discard
	.align 2
	.globl	_ZNSt7__cxx1112basic_stringIcSt11char_traitsIcESaIcEE7_M_dataEPc
	.def	_ZNSt7__cxx1112basic_stringIcSt11char_traitsIcESaIcEE7_M_dataEPc;	.scl	2;	.type	32;	.endef
	.seh_proc	_ZNSt7__cxx1112basic_stringIcSt11char_traitsIcESaIcEE7_M_dataEPc
_ZNSt7__cxx1112basic_stringIcSt11char_traitsIcESaIcEE7_M_dataEPc:
.LFB9691:
	pushq	%rbp
	.seh_pushreg	%rbp
	movq	%rsp, %rbp
	.seh_setframe	%rbp, 0
	.seh_endprologue
	movq	%rcx, 16(%rbp)
	movq	%rdx, 24(%rbp)
	movq	16(%rbp), %rax
	movq	24(%rbp), %rdx
	movq	%rdx, (%rax)
	nop
	popq	%rbp
	ret
	.seh_endproc
	.section	.text$_ZNSt7__cxx1112basic_stringIcSt11char_traitsIcESaIcEE11_M_capacityEy,"x"
	.linkonce discard
	.align 2
	.globl	_ZNSt7__cxx1112basic_stringIcSt11char_traitsIcESaIcEE11_M_capacityEy
	.def	_ZNSt7__cxx1112basic_stringIcSt11char_traitsIcESaIcEE11_M_capacityEy;	.scl	2;	.type	32;	.endef
	.seh_proc	_ZNSt7__cxx1112basic_stringIcSt11char_traitsIcESaIcEE11_M_capacityEy
_ZNSt7__cxx1112basic_stringIcSt11char_traitsIcESaIcEE11_M_capacityEy:
.LFB9692:
	pushq	%rbp
	.seh_pushreg	%rbp
	movq	%rsp, %rbp
	.seh_setframe	%rbp, 0
	.seh_endprologue
	movq	%rcx, 16(%rbp)
	movq	%rdx, 24(%rbp)
	movq	16(%rbp), %rax
	movq	24(%rbp), %rdx
	movq	%rdx, 16(%rax)
	nop
	popq	%rbp
	ret
	.seh_endproc
	.section	.text$_ZNSt7__cxx1112basic_stringIcSt11char_traitsIcESaIcEE9_M_lengthEy,"x"
	.linkonce discard
	.align 2
	.globl	_ZNSt7__cxx1112basic_stringIcSt11char_traitsIcESaIcEE9_M_lengthEy
	.def	_ZNSt7__cxx1112basic_stringIcSt11char_traitsIcESaIcEE9_M_lengthEy;	.scl	2;	.type	32;	.endef
	.seh_proc	_ZNSt7__cxx1112basic_stringIcSt11char_traitsIcESaIcEE9_M_lengthEy
_ZNSt7__cxx1112basic_stringIcSt11char_traitsIcESaIcEE9_M_lengthEy:
.LFB9693:
	pushq	%rbp
	.seh_pushreg	%rbp
	movq	%rsp, %rbp
	.seh_setframe	%rbp, 0
	.seh_endprologue
	movq	%rcx, 16(%rbp)
	movq	%rdx, 24(%rbp)
	movq	16(%rbp), %rax
	movq	24(%rbp), %rdx
	movq	%rdx, 8(%rax)
	nop
	popq	%rbp
	ret
	.seh_endproc
	.section	.text$_ZNKSt7__cxx1112basic_stringIcSt11char_traitsIcESaIcEE4sizeEv,"x"
	.linkonce discard
	.align 2
	.globl	_ZNKSt7__cxx1112basic_stringIcSt11char_traitsIcESaIcEE4sizeEv
	.def	_ZNKSt7__cxx1112basic_stringIcSt11char_traitsIcESaIcEE4sizeEv;	.scl	2;	.type	32;	.endef
	.seh_proc	_ZNKSt7__cxx1112basic_stringIcSt11char_traitsIcESaIcEE4sizeEv
_ZNKSt7__cxx1112basic_stringIcSt11char_traitsIcESaIcEE4sizeEv:
.LFB9724:
	pushq	%rbp
	.seh_pushreg	%rbp
	movq	%rsp, %rbp
	.seh_setframe	%rbp, 0
	subq	$48, %rsp
	.seh_stackalloc	48
	.seh_endprologue
	movq	%rcx, 16(%rbp)
	movq	16(%rbp), %rax
	movq	8(%rax), %rax
	movq	%rax, -8(%rbp)
	movq	16(%rbp), %rax
	movq	%rax, %rcx
	call	_ZNKSt7__cxx1112basic_stringIcSt11char_traitsIcESaIcEE8max_sizeEv
	cmpq	-8(%rbp), %rax
	setb	%al
	testb	%al, %al
	movq	-8(%rbp), %rax
	addq	$48, %rsp
	popq	%rbp
	ret
	.seh_endproc
	.section	.text$_ZNSt15__new_allocatorIcED2Ev,"x"
	.linkonce discard
	.align 2
	.globl	_ZNSt15__new_allocatorIcED2Ev
	.def	_ZNSt15__new_allocatorIcED2Ev;	.scl	2;	.type	32;	.endef
	.seh_proc	_ZNSt15__new_allocatorIcED2Ev
_ZNSt15__new_allocatorIcED2Ev:
.LFB9729:
	pushq	%rbp
	.seh_pushreg	%rbp
	movq	%rsp, %rbp
	.seh_setframe	%rbp, 0
	.seh_endprologue
	movq	%rcx, 16(%rbp)
	nop
	popq	%rbp
	ret
	.seh_endproc
	.section	.text$_ZNSt7__cxx1112basic_stringIcSt11char_traitsIcESaIcEE12_Alloc_hiderC1EPcRKS3_,"x"
	.linkonce discard
	.align 2
	.globl	_ZNSt7__cxx1112basic_stringIcSt11char_traitsIcESaIcEE12_Alloc_hiderC1EPcRKS3_
	.def	_ZNSt7__cxx1112basic_stringIcSt11char_traitsIcESaIcEE12_Alloc_hiderC1EPcRKS3_;	.scl	2;	.type	32;	.endef
	.seh_proc	_ZNSt7__cxx1112basic_stringIcSt11char_traitsIcESaIcEE12_Alloc_hiderC1EPcRKS3_
_ZNSt7__cxx1112basic_stringIcSt11char_traitsIcESaIcEE12_Alloc_hiderC1EPcRKS3_:
.LFB9733:
	pushq	%rbp
	.seh_pushreg	%rbp
	movq	%rsp, %rbp
	.seh_setframe	%rbp, 0
	subq	$32, %rsp
	.seh_stackalloc	32
	.seh_endprologue
	movq	%rcx, 16(%rbp)
	movq	%rdx, 24(%rbp)
	movq	%r8, 32(%rbp)
	movq	16(%rbp), %rax
	movq	%rax, -8(%rbp)
	movq	32(%rbp), %rax
	movq	%rax, -16(%rbp)
	movq	-8(%rbp), %rax
	movq	%rax, -24(%rbp)
	movq	-16(%rbp), %rax
	movq	%rax, -32(%rbp)
	nop
	nop
	movq	16(%rbp), %rax
	movq	24(%rbp), %rdx
	movq	%rdx, (%rax)
	nop
	addq	$32, %rsp
	popq	%rbp
	ret
	.seh_endproc
	.section	.text$_ZZNSt7__cxx1112basic_stringIcSt11char_traitsIcESaIcEE12_M_constructIPKcEEvT_S8_St20forward_iterator_tagEN6_GuardC1EPS4_,"x"
	.linkonce discard
	.align 2
	.globl	_ZZNSt7__cxx1112basic_stringIcSt11char_traitsIcESaIcEE12_M_constructIPKcEEvT_S8_St20forward_iterator_tagEN6_GuardC1EPS4_
	.def	_ZZNSt7__cxx1112basic_stringIcSt11char_traitsIcESaIcEE12_M_constructIPKcEEvT_S8_St20forward_iterator_tagEN6_GuardC1EPS4_;	.scl	2;	.type	32;	.endef
	.seh_proc	_ZZNSt7__cxx1112basic_stringIcSt11char_traitsIcESaIcEE12_M_constructIPKcEEvT_S8_St20forward_iterator_tagEN6_GuardC1EPS4_
_ZZNSt7__cxx1112basic_stringIcSt11char_traitsIcESaIcEE12_M_constructIPKcEEvT_S8_St20forward_iterator_tagEN6_GuardC1EPS4_:
.LFB9737:
	pushq	%rbp
	.seh_pushreg	%rbp
	movq	%rsp, %rbp
	.seh_setframe	%rbp, 0
	.seh_endprologue
	movq	%rcx, 16(%rbp)
	movq	%rdx, 24(%rbp)
	movq	16(%rbp), %rax
	movq	24(%rbp), %rdx
	movq	%rdx, (%rax)
	nop
	popq	%rbp
	ret
	.seh_endproc
	.section	.text$_ZZNSt7__cxx1112basic_stringIcSt11char_traitsIcESaIcEE12_M_constructIPKcEEvT_S8_St20forward_iterator_tagEN6_GuardD1Ev,"x"
	.linkonce discard
	.align 2
	.globl	_ZZNSt7__cxx1112basic_stringIcSt11char_traitsIcESaIcEE12_M_constructIPKcEEvT_S8_St20forward_iterator_tagEN6_GuardD1Ev
	.def	_ZZNSt7__cxx1112basic_stringIcSt11char_traitsIcESaIcEE12_M_constructIPKcEEvT_S8_St20forward_iterator_tagEN6_GuardD1Ev;	.scl	2;	.type	32;	.endef
	.seh_proc	_ZZNSt7__cxx1112basic_stringIcSt11char_traitsIcESaIcEE12_M_constructIPKcEEvT_S8_St20forward_iterator_tagEN6_GuardD1Ev
_ZZNSt7__cxx1112basic_stringIcSt11char_traitsIcESaIcEE12_M_constructIPKcEEvT_S8_St20forward_iterator_tagEN6_GuardD1Ev:
.LFB9740:
	pushq	%rbp
	.seh_pushreg	%rbp
	movq	%rsp, %rbp
	.seh_setframe	%rbp, 0
	subq	$32, %rsp
	.seh_stackalloc	32
	.seh_endprologue
	movq	%rcx, 16(%rbp)
	movq	16(%rbp), %rax
	movq	(%rax), %rax
	testq	%rax, %rax
	je	.L260
	movq	16(%rbp), %rax
	movq	(%rax), %rax
	movq	%rax, %rcx
	call	_ZNSt7__cxx1112basic_stringIcSt11char_traitsIcESaIcEE10_M_disposeEv
.L260:
	nop
	addq	$32, %rsp
	popq	%rbp
	ret
	.seh_handler	__gxx_personality_seh0, @unwind, @except
	.seh_handlerdata
.LLSDA9740:
	.byte	0xff
	.byte	0xff
	.byte	0x1
	.uleb128 .LLSDACSE9740-.LLSDACSB9740
.LLSDACSB9740:
.LLSDACSE9740:
	.section	.text$_ZZNSt7__cxx1112basic_stringIcSt11char_traitsIcESaIcEE12_M_constructIPKcEEvT_S8_St20forward_iterator_tagEN6_GuardD1Ev,"x"
	.linkonce discard
	.seh_endproc
	.section	.text$_ZNSt7__cxx1112basic_stringIcSt11char_traitsIcESaIcEE12_M_constructIPKcEEvT_S8_St20forward_iterator_tag,"x"
	.linkonce discard
	.align 2
	.globl	_ZNSt7__cxx1112basic_stringIcSt11char_traitsIcESaIcEE12_M_constructIPKcEEvT_S8_St20forward_iterator_tag
	.def	_ZNSt7__cxx1112basic_stringIcSt11char_traitsIcESaIcEE12_M_constructIPKcEEvT_S8_St20forward_iterator_tag;	.scl	2;	.type	32;	.endef
	.seh_proc	_ZNSt7__cxx1112basic_stringIcSt11char_traitsIcESaIcEE12_M_constructIPKcEEvT_S8_St20forward_iterator_tag
_ZNSt7__cxx1112basic_stringIcSt11char_traitsIcESaIcEE12_M_constructIPKcEEvT_S8_St20forward_iterator_tag:
.LFB9734:
	pushq	%rbp
	.seh_pushreg	%rbp
	movq	%rsp, %rbp
	.seh_setframe	%rbp, 0
	subq	$96, %rsp
	.seh_stackalloc	96
	.seh_endprologue
	movq	%rcx, 16(%rbp)
	movq	%rdx, 24(%rbp)
	movq	%r8, 32(%rbp)
	movq	24(%rbp), %rax
	movq	%rax, -56(%rbp)
	movq	32(%rbp), %rax
	movq	%rax, -8(%rbp)
	nop
	movq	-56(%rbp), %rax
	movq	%rax, -16(%rbp)
	movq	-8(%rbp), %rax
	movq	%rax, -24(%rbp)
	movq	-24(%rbp), %rax
	subq	-16(%rbp), %rax
	nop
	movq	%rax, -40(%rbp)
	movq	-40(%rbp), %rax
	cmpq	$15, %rax
	jbe	.L265
	leaq	-40(%rbp), %rax
	movq	16(%rbp), %rcx
	movl	$0, %r8d
	movq	%rax, %rdx
	call	_ZNSt7__cxx1112basic_stringIcSt11char_traitsIcESaIcEE9_M_createERyy
	movq	%rax, %rdx
	movq	16(%rbp), %rax
	movq	%rax, %rcx
	call	_ZNSt7__cxx1112basic_stringIcSt11char_traitsIcESaIcEE7_M_dataEPc
	movq	-40(%rbp), %rdx
	movq	16(%rbp), %rax
	movq	%rax, %rcx
	call	_ZNSt7__cxx1112basic_stringIcSt11char_traitsIcESaIcEE11_M_capacityEy
	jmp	.L266
.L265:
	movq	16(%rbp), %rax
	movq	%rax, -32(%rbp)
	nop
.L266:
	movq	16(%rbp), %rdx
	leaq	-48(%rbp), %rax
	movq	%rax, %rcx
	call	_ZZNSt7__cxx1112basic_stringIcSt11char_traitsIcESaIcEE12_M_constructIPKcEEvT_S8_St20forward_iterator_tagEN6_GuardC1EPS4_
	movq	16(%rbp), %rax
	movq	%rax, %rcx
	call	_ZNKSt7__cxx1112basic_stringIcSt11char_traitsIcESaIcEE7_M_dataEv
	movq	%rax, %rcx
	movq	32(%rbp), %rdx
	movq	24(%rbp), %rax
	movq	%rdx, %r8
	movq	%rax, %rdx
	call	_ZNSt7__cxx1112basic_stringIcSt11char_traitsIcESaIcEE13_S_copy_charsIPKcEEvPcT_S9_
	movq	$0, -48(%rbp)
	movq	-40(%rbp), %rdx
	movq	16(%rbp), %rax
	movq	%rax, %rcx
	call	_ZNSt7__cxx1112basic_stringIcSt11char_traitsIcESaIcEE13_M_set_lengthEy
	leaq	-48(%rbp), %rax
	movq	%rax, %rcx
	call	_ZZNSt7__cxx1112basic_stringIcSt11char_traitsIcESaIcEE12_M_constructIPKcEEvT_S8_St20forward_iterator_tagEN6_GuardD1Ev
	nop
	addq	$96, %rsp
	popq	%rbp
	ret
	.seh_endproc
	.section	.text$_ZNSt7__cxx1112basic_stringIcSt11char_traitsIcESaIcEE6assignEPKc,"x"
	.linkonce discard
	.align 2
	.globl	_ZNSt7__cxx1112basic_stringIcSt11char_traitsIcESaIcEE6assignEPKc
	.def	_ZNSt7__cxx1112basic_stringIcSt11char_traitsIcESaIcEE6assignEPKc;	.scl	2;	.type	32;	.endef
	.seh_proc	_ZNSt7__cxx1112basic_stringIcSt11char_traitsIcESaIcEE6assignEPKc
_ZNSt7__cxx1112basic_stringIcSt11char_traitsIcESaIcEE6assignEPKc:
.LFB9800:
	pushq	%rbp
	.seh_pushreg	%rbp
	pushq	%rbx
	.seh_pushreg	%rbx
	subq	$56, %rsp
	.seh_stackalloc	56
	leaq	48(%rsp), %rbp
	.seh_setframe	%rbp, 48
	.seh_endprologue
	movq	%rcx, 32(%rbp)
	movq	%rdx, 40(%rbp)
	movq	40(%rbp), %rax
	movq	%rax, %rcx
	call	_ZNSt11char_traitsIcE6lengthEPKc
	movq	%rax, %rbx
	movq	32(%rbp), %rax
	movq	%rax, %rcx
	call	_ZNKSt7__cxx1112basic_stringIcSt11char_traitsIcESaIcEE4sizeEv
	movq	%rax, %rdx
	movq	40(%rbp), %rcx
	movq	32(%rbp), %rax
	movq	%rbx, 32(%rsp)
	movq	%rcx, %r9
	movq	%rdx, %r8
	movl	$0, %edx
	movq	%rax, %rcx
	call	_ZNSt7__cxx1112basic_stringIcSt11char_traitsIcESaIcEE10_M_replaceEyyPKcy
	addq	$56, %rsp
	popq	%rbx
	popq	%rbp
	ret
	.seh_endproc
	.section	.text$_ZNSt7__cxx1112basic_stringIcSt11char_traitsIcESaIcEE10_M_destroyEy,"x"
	.linkonce discard
	.align 2
	.globl	_ZNSt7__cxx1112basic_stringIcSt11char_traitsIcESaIcEE10_M_destroyEy
	.def	_ZNSt7__cxx1112basic_stringIcSt11char_traitsIcESaIcEE10_M_destroyEy;	.scl	2;	.type	32;	.endef
	.seh_proc	_ZNSt7__cxx1112basic_stringIcSt11char_traitsIcESaIcEE10_M_destroyEy
_ZNSt7__cxx1112basic_stringIcSt11char_traitsIcESaIcEE10_M_destroyEy:
.LFB9802:
	pushq	%rbp
	.seh_pushreg	%rbp
	pushq	%rsi
	.seh_pushreg	%rsi
	pushq	%rbx
	.seh_pushreg	%rbx
	subq	$64, %rsp
	.seh_stackalloc	64
	leaq	64(%rsp), %rbp
	.seh_setframe	%rbp, 64
	.seh_endprologue
	movq	%rcx, 32(%rbp)
	movq	%rdx, 40(%rbp)
	movq	40(%rbp), %rax
	leaq	1(%rax), %rsi
	movq	32(%rbp), %rax
	movq	%rax, %rcx
	call	_ZNKSt7__cxx1112basic_stringIcSt11char_traitsIcESaIcEE7_M_dataEv
	movq	%rax, %rbx
	movq	32(%rbp), %rax
	movq	%rax, %rcx
	call	_ZNSt7__cxx1112basic_stringIcSt11char_traitsIcESaIcEE16_M_get_allocatorEv
	movq	%rax, -8(%rbp)
	movq	%rbx, -16(%rbp)
	movq	%rsi, -24(%rbp)
	movq	-24(%rbp), %rcx
	movq	-16(%rbp), %rdx
	movq	-8(%rbp), %rax
	movq	%rcx, %r8
	movq	%rax, %rcx
	call	_ZNSt15__new_allocatorIcE10deallocateEPcy
	nop
	nop
	addq	$64, %rsp
	popq	%rbx
	popq	%rsi
	popq	%rbp
	ret
	.seh_endproc
	.section	.text$_ZNSt7__cxx1112basic_stringIcSt11char_traitsIcESaIcEE7_S_copyEPcPKcy,"x"
	.linkonce discard
	.globl	_ZNSt7__cxx1112basic_stringIcSt11char_traitsIcESaIcEE7_S_copyEPcPKcy
	.def	_ZNSt7__cxx1112basic_stringIcSt11char_traitsIcESaIcEE7_S_copyEPcPKcy;	.scl	2;	.type	32;	.endef
	.seh_proc	_ZNSt7__cxx1112basic_stringIcSt11char_traitsIcESaIcEE7_S_copyEPcPKcy
_ZNSt7__cxx1112basic_stringIcSt11char_traitsIcESaIcEE7_S_copyEPcPKcy:
.LFB9805:
	pushq	%rbp
	.seh_pushreg	%rbp
	movq	%rsp, %rbp
	.seh_setframe	%rbp, 0
	subq	$32, %rsp
	.seh_stackalloc	32
	.seh_endprologue
	movq	%rcx, 16(%rbp)
	movq	%rdx, 24(%rbp)
	movq	%r8, 32(%rbp)
	cmpq	$1, 32(%rbp)
	jne	.L271
	movq	24(%rbp), %rdx
	movq	16(%rbp), %rax
	movq	%rax, %rcx
	call	_ZNSt11char_traitsIcE6assignERcRKc
	jmp	.L273
.L271:
	movq	32(%rbp), %rcx
	movq	24(%rbp), %rdx
	movq	16(%rbp), %rax
	movq	%rcx, %r8
	movq	%rax, %rcx
	call	_ZNSt11char_traitsIcE4copyEPcPKcy
.L273:
	nop
	addq	$32, %rsp
	popq	%rbp
	ret
	.seh_endproc
	.section	.text$_ZNSt7__cxx1112basic_stringIcSt11char_traitsIcESaIcEE9_M_assignERKS4_,"x"
	.linkonce discard
	.align 2
	.globl	_ZNSt7__cxx1112basic_stringIcSt11char_traitsIcESaIcEE9_M_assignERKS4_
	.def	_ZNSt7__cxx1112basic_stringIcSt11char_traitsIcESaIcEE9_M_assignERKS4_;	.scl	2;	.type	32;	.endef
	.seh_proc	_ZNSt7__cxx1112basic_stringIcSt11char_traitsIcESaIcEE9_M_assignERKS4_
_ZNSt7__cxx1112basic_stringIcSt11char_traitsIcESaIcEE9_M_assignERKS4_:
.LFB9806:
	pushq	%rbp
	.seh_pushreg	%rbp
	pushq	%rbx
	.seh_pushreg	%rbx
	subq	$88, %rsp
	.seh_stackalloc	88
	leaq	80(%rsp), %rbp
	.seh_setframe	%rbp, 80
	.seh_endprologue
	movq	%rcx, 32(%rbp)
	movq	%rdx, 40(%rbp)
	movq	40(%rbp), %rax
	movq	%rax, -32(%rbp)
	movq	-32(%rbp), %rax
	cmpq	%rax, 32(%rbp)
	setne	%al
	testb	%al, %al
	je	.L279
	movq	40(%rbp), %rax
	movq	%rax, %rcx
	call	_ZNKSt7__cxx1112basic_stringIcSt11char_traitsIcESaIcEE6lengthEv
	movq	%rax, -8(%rbp)
	movq	32(%rbp), %rax
	movq	%rax, %rcx
	call	_ZNKSt7__cxx1112basic_stringIcSt11char_traitsIcESaIcEE8capacityEv
	movq	%rax, -16(%rbp)
	movq	-8(%rbp), %rax
	cmpq	%rax, -16(%rbp)
	jnb	.L277
	movq	-8(%rbp), %rax
	movq	%rax, -40(%rbp)
	movq	-16(%rbp), %rdx
	leaq	-40(%rbp), %rax
	movq	32(%rbp), %rcx
	movq	%rdx, %r8
	movq	%rax, %rdx
	call	_ZNSt7__cxx1112basic_stringIcSt11char_traitsIcESaIcEE9_M_createERyy
	movq	%rax, -24(%rbp)
	movq	32(%rbp), %rax
	movq	%rax, %rcx
	call	_ZNSt7__cxx1112basic_stringIcSt11char_traitsIcESaIcEE10_M_disposeEv
	movq	-24(%rbp), %rdx
	movq	32(%rbp), %rax
	movq	%rax, %rcx
	call	_ZNSt7__cxx1112basic_stringIcSt11char_traitsIcESaIcEE7_M_dataEPc
	movq	-40(%rbp), %rdx
	movq	32(%rbp), %rax
	movq	%rax, %rcx
	call	_ZNSt7__cxx1112basic_stringIcSt11char_traitsIcESaIcEE11_M_capacityEy
.L277:
	cmpq	$0, -8(%rbp)
	je	.L278
	movq	40(%rbp), %rax
	movq	%rax, %rcx
	call	_ZNKSt7__cxx1112basic_stringIcSt11char_traitsIcESaIcEE7_M_dataEv
	movq	%rax, %rbx
	movq	32(%rbp), %rax
	movq	%rax, %rcx
	call	_ZNKSt7__cxx1112basic_stringIcSt11char_traitsIcESaIcEE7_M_dataEv
	movq	-8(%rbp), %rdx
	movq	%rdx, %r8
	movq	%rbx, %rdx
	movq	%rax, %rcx
	call	_ZNSt7__cxx1112basic_stringIcSt11char_traitsIcESaIcEE7_S_copyEPcPKcy
.L278:
	movq	-8(%rbp), %rdx
	movq	32(%rbp), %rax
	movq	%rax, %rcx
	call	_ZNSt7__cxx1112basic_stringIcSt11char_traitsIcESaIcEE13_M_set_lengthEy
.L279:
	nop
	addq	$88, %rsp
	popq	%rbx
	popq	%rbp
	ret
	.seh_endproc
	.section	.text$_ZNSt7__cxx1112basic_stringIcSt11char_traitsIcESaIcEE5clearEv,"x"
	.linkonce discard
	.align 2
	.globl	_ZNSt7__cxx1112basic_stringIcSt11char_traitsIcESaIcEE5clearEv
	.def	_ZNSt7__cxx1112basic_stringIcSt11char_traitsIcESaIcEE5clearEv;	.scl	2;	.type	32;	.endef
	.seh_proc	_ZNSt7__cxx1112basic_stringIcSt11char_traitsIcESaIcEE5clearEv
_ZNSt7__cxx1112basic_stringIcSt11char_traitsIcESaIcEE5clearEv:
.LFB9807:
	pushq	%rbp
	.seh_pushreg	%rbp
	movq	%rsp, %rbp
	.seh_setframe	%rbp, 0
	subq	$32, %rsp
	.seh_stackalloc	32
	.seh_endprologue
	movq	%rcx, 16(%rbp)
	movq	16(%rbp), %rax
	movl	$0, %edx
	movq	%rax, %rcx
	call	_ZNSt7__cxx1112basic_stringIcSt11char_traitsIcESaIcEE13_M_set_lengthEy
	nop
	addq	$32, %rsp
	popq	%rbp
	ret
	.seh_endproc
	.section .rdata,"dr"
.LC34:
	.ascii "basic_string::append\0"
	.section	.text$_ZNSt7__cxx1112basic_stringIcSt11char_traitsIcESaIcEE6appendEPKc,"x"
	.linkonce discard
	.align 2
	.globl	_ZNSt7__cxx1112basic_stringIcSt11char_traitsIcESaIcEE6appendEPKc
	.def	_ZNSt7__cxx1112basic_stringIcSt11char_traitsIcESaIcEE6appendEPKc;	.scl	2;	.type	32;	.endef
	.seh_proc	_ZNSt7__cxx1112basic_stringIcSt11char_traitsIcESaIcEE6appendEPKc
_ZNSt7__cxx1112basic_stringIcSt11char_traitsIcESaIcEE6appendEPKc:
.LFB9808:
	pushq	%rbp
	.seh_pushreg	%rbp
	movq	%rsp, %rbp
	.seh_setframe	%rbp, 0
	subq	$48, %rsp
	.seh_stackalloc	48
	.seh_endprologue
	movq	%rcx, 16(%rbp)
	movq	%rdx, 24(%rbp)
	movq	24(%rbp), %rax
	movq	%rax, %rcx
	call	_ZNSt11char_traitsIcE6lengthEPKc
	movq	%rax, -8(%rbp)
	leaq	.LC34(%rip), %rcx
	movq	-8(%rbp), %rdx
	movq	16(%rbp), %rax
	movq	%rcx, %r9
	movq	%rdx, %r8
	movl	$0, %edx
	movq	%rax, %rcx
	call	_ZNKSt7__cxx1112basic_stringIcSt11char_traitsIcESaIcEE15_M_check_lengthEyyPKc
	movq	-8(%rbp), %rcx
	movq	24(%rbp), %rdx
	movq	16(%rbp), %rax
	movq	%rcx, %r8
	movq	%rax, %rcx
	call	_ZNSt7__cxx1112basic_stringIcSt11char_traitsIcESaIcEE9_M_appendEPKcy
	addq	$48, %rsp
	popq	%rbp
	ret
	.seh_endproc
	.section	.text$_ZNSt6chronomiINS_3_V212system_clockENS_8durationIxSt5ratioILx1ELx1000000000EEEES6_EENSt11common_typeIJT0_T1_EE4typeERKNS_10time_pointIT_S8_EERKNSC_ISD_S9_EE,"x"
	.linkonce discard
	.globl	_ZNSt6chronomiINS_3_V212system_clockENS_8durationIxSt5ratioILx1ELx1000000000EEEES6_EENSt11common_typeIJT0_T1_EE4typeERKNS_10time_pointIT_S8_EERKNSC_ISD_S9_EE
	.def	_ZNSt6chronomiINS_3_V212system_clockENS_8durationIxSt5ratioILx1ELx1000000000EEEES6_EENSt11common_typeIJT0_T1_EE4typeERKNS_10time_pointIT_S8_EERKNSC_ISD_S9_EE;	.scl	2;	.type	32;	.endef
	.seh_proc	_ZNSt6chronomiINS_3_V212system_clockENS_8durationIxSt5ratioILx1ELx1000000000EEEES6_EENSt11common_typeIJT0_T1_EE4typeERKNS_10time_pointIT_S8_EERKNSC_ISD_S9_EE
_ZNSt6chronomiINS_3_V212system_clockENS_8durationIxSt5ratioILx1ELx1000000000EEEES6_EENSt11common_typeIJT0_T1_EE4typeERKNS_10time_pointIT_S8_EERKNSC_ISD_S9_EE:
.LFB9810:
	pushq	%rbp
	.seh_pushreg	%rbp
	movq	%rsp, %rbp
	.seh_setframe	%rbp, 0
	subq	$48, %rsp
	.seh_stackalloc	48
	.seh_endprologue
	movq	%rcx, 16(%rbp)
	movq	%rdx, 24(%rbp)
	movq	24(%rbp), %rax
	movq	%rax, %rcx
	call	_ZNKSt6chrono10time_pointINS_3_V212system_clockENS_8durationIxSt5ratioILx1ELx1000000000EEEEE16time_since_epochEv
	movq	%rax, -16(%rbp)
	movq	16(%rbp), %rax
	movq	%rax, %rcx
	call	_ZNKSt6chrono10time_pointINS_3_V212system_clockENS_8durationIxSt5ratioILx1ELx1000000000EEEEE16time_since_epochEv
	movq	%rax, -8(%rbp)
	leaq	-16(%rbp), %rdx
	leaq	-8(%rbp), %rax
	movq	%rax, %rcx
	call	_ZNSt6chronomiIxSt5ratioILx1ELx1000000000EExS2_EENSt11common_typeIJNS_8durationIT_T0_EENS4_IT1_T2_EEEE4typeERKS7_RKSA_
	addq	$48, %rsp
	popq	%rbp
	ret
	.seh_endproc
	.section	.text$_ZNSt6chrono8durationIdSt5ratioILx1ELx1EEEC1IxS1_ILx1ELx1000000000EEvEERKNS0_IT_T0_EE,"x"
	.linkonce discard
	.align 2
	.globl	_ZNSt6chrono8durationIdSt5ratioILx1ELx1EEEC1IxS1_ILx1ELx1000000000EEvEERKNS0_IT_T0_EE
	.def	_ZNSt6chrono8durationIdSt5ratioILx1ELx1EEEC1IxS1_ILx1ELx1000000000EEvEERKNS0_IT_T0_EE;	.scl	2;	.type	32;	.endef
	.seh_proc	_ZNSt6chrono8durationIdSt5ratioILx1ELx1EEEC1IxS1_ILx1ELx1000000000EEvEERKNS0_IT_T0_EE
_ZNSt6chrono8durationIdSt5ratioILx1ELx1EEEC1IxS1_ILx1ELx1000000000EEvEERKNS0_IT_T0_EE:
.LFB9813:
	pushq	%rbp
	.seh_pushreg	%rbp
	movq	%rsp, %rbp
	.seh_setframe	%rbp, 0
	subq	$48, %rsp
	.seh_stackalloc	48
	.seh_endprologue
	movq	%rcx, 16(%rbp)
	movq	%rdx, 24(%rbp)
	movq	24(%rbp), %rax
	movq	%rax, %rcx
	call	_ZNSt6chrono13duration_castINS_8durationIdSt5ratioILx1ELx1EEEExS2_ILx1ELx1000000000EEEENSt9enable_ifIXsrNS_13__is_durationIT_EE5valueES8_E4typeERKNS1_IT0_T1_EE
	movq	%rax, %xmm0
	movsd	%xmm0, -8(%rbp)
	leaq	-8(%rbp), %rax
	movq	%rax, %rcx
	call	_ZNKSt6chrono8durationIdSt5ratioILx1ELx1EEE5countEv
	movq	%xmm0, %rax
	movq	16(%rbp), %rdx
	movq	%rax, (%rdx)
	nop
	addq	$48, %rsp
	popq	%rbp
	ret
	.seh_endproc
	.section	.text$_ZNKSt6chrono8durationIdSt5ratioILx1ELx1EEE5countEv,"x"
	.linkonce discard
	.align 2
	.globl	_ZNKSt6chrono8durationIdSt5ratioILx1ELx1EEE5countEv
	.def	_ZNKSt6chrono8durationIdSt5ratioILx1ELx1EEE5countEv;	.scl	2;	.type	32;	.endef
	.seh_proc	_ZNKSt6chrono8durationIdSt5ratioILx1ELx1EEE5countEv
_ZNKSt6chrono8durationIdSt5ratioILx1ELx1EEE5countEv:
.LFB9814:
	pushq	%rbp
	.seh_pushreg	%rbp
	movq	%rsp, %rbp
	.seh_setframe	%rbp, 0
	.seh_endprologue
	movq	%rcx, 16(%rbp)
	movq	16(%rbp), %rax
	movsd	(%rax), %xmm0
	popq	%rbp
	ret
	.seh_endproc
	.section	.text$_ZNSt19__ptr_traits_ptr_toIPccLb0EE10pointer_toERc,"x"
	.linkonce discard
	.globl	_ZNSt19__ptr_traits_ptr_toIPccLb0EE10pointer_toERc
	.def	_ZNSt19__ptr_traits_ptr_toIPccLb0EE10pointer_toERc;	.scl	2;	.type	32;	.endef
	.seh_proc	_ZNSt19__ptr_traits_ptr_toIPccLb0EE10pointer_toERc
_ZNSt19__ptr_traits_ptr_toIPccLb0EE10pointer_toERc:
.LFB9815:
	pushq	%rbp
	.seh_pushreg	%rbp
	movq	%rsp, %rbp
	.seh_setframe	%rbp, 0
	subq	$16, %rsp
	.seh_stackalloc	16
	.seh_endprologue
	movq	%rcx, 16(%rbp)
	movq	16(%rbp), %rax
	movq	%rax, -8(%rbp)
	movq	-8(%rbp), %rax
	movq	%rax, -16(%rbp)
	movq	-16(%rbp), %rax
	nop
	addq	$16, %rsp
	popq	%rbp
	ret
	.seh_endproc
	.section	.text$_ZNKSt7__cxx1112basic_stringIcSt11char_traitsIcESaIcEE8capacityEv,"x"
	.linkonce discard
	.align 2
	.globl	_ZNKSt7__cxx1112basic_stringIcSt11char_traitsIcESaIcEE8capacityEv
	.def	_ZNKSt7__cxx1112basic_stringIcSt11char_traitsIcESaIcEE8capacityEv;	.scl	2;	.type	32;	.endef
	.seh_proc	_ZNKSt7__cxx1112basic_stringIcSt11char_traitsIcESaIcEE8capacityEv
_ZNKSt7__cxx1112basic_stringIcSt11char_traitsIcESaIcEE8capacityEv:
.LFB9819:
	pushq	%rbp
	.seh_pushreg	%rbp
	movq	%rsp, %rbp
	.seh_setframe	%rbp, 0
	subq	$48, %rsp
	.seh_stackalloc	48
	.seh_endprologue
	movq	%rcx, 16(%rbp)
	movq	16(%rbp), %rax
	movq	%rax, %rcx
	call	_ZNKSt7__cxx1112basic_stringIcSt11char_traitsIcESaIcEE11_M_is_localEv
	testb	%al, %al
	je	.L293
	movq	$15, -8(%rbp)
	jmp	.L294
.L293:
	movq	16(%rbp), %rax
	movq	16(%rax), %rax
	movq	%rax, -8(%rbp)
.L294:
	cmpq	$14, -8(%rbp)
	jbe	.L295
	movq	16(%rbp), %rax
	movq	%rax, %rcx
	call	_ZNKSt7__cxx1112basic_stringIcSt11char_traitsIcESaIcEE8max_sizeEv
	cmpq	-8(%rbp), %rax
	jnb	.L296
.L295:
	movl	$1, %eax
	jmp	.L297
.L296:
	movl	$0, %eax
.L297:
	testb	%al, %al
	movq	-8(%rbp), %rax
	addq	$48, %rsp
	popq	%rbp
	ret
	.seh_endproc
	.section .rdata,"dr"
.LC35:
	.ascii "basic_string::_M_create\0"
	.section	.text$_ZNSt7__cxx1112basic_stringIcSt11char_traitsIcESaIcEE9_M_createERyy,"x"
	.linkonce discard
	.align 2
	.globl	_ZNSt7__cxx1112basic_stringIcSt11char_traitsIcESaIcEE9_M_createERyy
	.def	_ZNSt7__cxx1112basic_stringIcSt11char_traitsIcESaIcEE9_M_createERyy;	.scl	2;	.type	32;	.endef
	.seh_proc	_ZNSt7__cxx1112basic_stringIcSt11char_traitsIcESaIcEE9_M_createERyy
_ZNSt7__cxx1112basic_stringIcSt11char_traitsIcESaIcEE9_M_createERyy:
.LFB9820:
	pushq	%rbp
	.seh_pushreg	%rbp
	pushq	%rbx
	.seh_pushreg	%rbx
	subq	$40, %rsp
	.seh_stackalloc	40
	leaq	32(%rsp), %rbp
	.seh_setframe	%rbp, 32
	.seh_endprologue
	movq	%rcx, 32(%rbp)
	movq	%rdx, 40(%rbp)
	movq	%r8, 48(%rbp)
	movq	40(%rbp), %rax
	movq	(%rax), %rbx
	movq	32(%rbp), %rax
	movq	%rax, %rcx
	call	_ZNKSt7__cxx1112basic_stringIcSt11char_traitsIcESaIcEE8max_sizeEv
	cmpq	%rbx, %rax
	setb	%al
	testb	%al, %al
	je	.L301
	leaq	.LC35(%rip), %rax
	movq	%rax, %rcx
	call	_ZSt20__throw_length_errorPKc
.L301:
	movq	40(%rbp), %rax
	movq	(%rax), %rax
	cmpq	%rax, 48(%rbp)
	jnb	.L302
	movq	40(%rbp), %rax
	movq	(%rax), %rdx
	movq	48(%rbp), %rax
	addq	%rax, %rax
	cmpq	%rax, %rdx
	jnb	.L302
	movq	48(%rbp), %rax
	leaq	(%rax,%rax), %rdx
	movq	40(%rbp), %rax
	movq	%rdx, (%rax)
	movq	40(%rbp), %rax
	movq	(%rax), %rbx
	movq	32(%rbp), %rax
	movq	%rax, %rcx
	call	_ZNKSt7__cxx1112basic_stringIcSt11char_traitsIcESaIcEE8max_sizeEv
	cmpq	%rbx, %rax
	setb	%al
	testb	%al, %al
	je	.L302
	movq	32(%rbp), %rax
	movq	%rax, %rcx
	call	_ZNKSt7__cxx1112basic_stringIcSt11char_traitsIcESaIcEE8max_sizeEv
	movq	40(%rbp), %rdx
	movq	%rax, (%rdx)
.L302:
	movq	40(%rbp), %rax
	movq	(%rax), %rax
	leaq	1(%rax), %rbx
	movq	32(%rbp), %rax
	movq	%rax, %rcx
	call	_ZNSt7__cxx1112basic_stringIcSt11char_traitsIcESaIcEE16_M_get_allocatorEv
	movq	%rbx, %rdx
	movq	%rax, %rcx
	call	_ZNSt7__cxx1112basic_stringIcSt11char_traitsIcESaIcEE11_S_allocateERS3_y
	addq	$40, %rsp
	popq	%rbx
	popq	%rbp
	ret
	.seh_endproc
	.section	.text$_ZNKSt7__cxx1112basic_stringIcSt11char_traitsIcESaIcEE13_M_local_dataEv,"x"
	.linkonce discard
	.align 2
	.globl	_ZNKSt7__cxx1112basic_stringIcSt11char_traitsIcESaIcEE13_M_local_dataEv
	.def	_ZNKSt7__cxx1112basic_stringIcSt11char_traitsIcESaIcEE13_M_local_dataEv;	.scl	2;	.type	32;	.endef
	.seh_proc	_ZNKSt7__cxx1112basic_stringIcSt11char_traitsIcESaIcEE13_M_local_dataEv
_ZNKSt7__cxx1112basic_stringIcSt11char_traitsIcESaIcEE13_M_local_dataEv:
.LFB9821:
	pushq	%rbp
	.seh_pushreg	%rbp
	movq	%rsp, %rbp
	.seh_setframe	%rbp, 0
	subq	$32, %rsp
	.seh_stackalloc	32
	.seh_endprologue
	movq	%rcx, 16(%rbp)
	movq	16(%rbp), %rax
	addq	$16, %rax
	movq	%rax, %rcx
	call	_ZNSt19__ptr_traits_ptr_toIPKcS0_Lb0EE10pointer_toERS0_
	addq	$32, %rsp
	popq	%rbp
	ret
	.seh_endproc
	.section	.text$_ZSt3minIyERKT_S2_S2_,"x"
	.linkonce discard
	.globl	_ZSt3minIyERKT_S2_S2_
	.def	_ZSt3minIyERKT_S2_S2_;	.scl	2;	.type	32;	.endef
	.seh_proc	_ZSt3minIyERKT_S2_S2_
_ZSt3minIyERKT_S2_S2_:
.LFB9844:
	pushq	%rbp
	.seh_pushreg	%rbp
	movq	%rsp, %rbp
	.seh_setframe	%rbp, 0
	.seh_endprologue
	movq	%rcx, 16(%rbp)
	movq	%rdx, 24(%rbp)
	movq	24(%rbp), %rax
	movq	(%rax), %rdx
	movq	16(%rbp), %rax
	movq	(%rax), %rax
	cmpq	%rax, %rdx
	jnb	.L307
	movq	24(%rbp), %rax
	jmp	.L308
.L307:
	movq	16(%rbp), %rax
.L308:
	popq	%rbp
	ret
	.seh_endproc
	.section	.text$_ZNKSt7__cxx1112basic_stringIcSt11char_traitsIcESaIcEE8max_sizeEv,"x"
	.linkonce discard
	.align 2
	.globl	_ZNKSt7__cxx1112basic_stringIcSt11char_traitsIcESaIcEE8max_sizeEv
	.def	_ZNKSt7__cxx1112basic_stringIcSt11char_traitsIcESaIcEE8max_sizeEv;	.scl	2;	.type	32;	.endef
	.seh_proc	_ZNKSt7__cxx1112basic_stringIcSt11char_traitsIcESaIcEE8max_sizeEv
_ZNKSt7__cxx1112basic_stringIcSt11char_traitsIcESaIcEE8max_sizeEv:
.LFB9843:
	pushq	%rbp
	.seh_pushreg	%rbp
	movq	%rsp, %rbp
	.seh_setframe	%rbp, 0
	subq	$80, %rsp
	.seh_stackalloc	80
	.seh_endprologue
	movq	%rcx, 16(%rbp)
	movabsq	$9223372036854775807, %rax
	movq	%rax, -32(%rbp)
	movq	16(%rbp), %rax
	movq	%rax, %rcx
	call	_ZNKSt7__cxx1112basic_stringIcSt11char_traitsIcESaIcEE16_M_get_allocatorEv
	movq	%rax, -8(%rbp)
	movq	-8(%rbp), %rax
	movq	%rax, -16(%rbp)
	movq	-16(%rbp), %rax
	movq	%rax, -24(%rbp)
	movabsq	$9223372036854775807, %rax
	nop
	nop
	movq	%rax, -40(%rbp)
	leaq	-40(%rbp), %rdx
	leaq	-32(%rbp), %rax
	movq	%rax, %rcx
	call	_ZSt3minIyERKT_S2_S2_
	movq	(%rax), %rax
	subq	$1, %rax
	addq	$80, %rsp
	popq	%rbp
	ret
	.seh_endproc
	.section	.text$_ZNSt7__cxx1112basic_stringIcSt11char_traitsIcESaIcEE13_S_copy_charsIPKcEEvPcT_S9_,"x"
	.linkonce discard
	.globl	_ZNSt7__cxx1112basic_stringIcSt11char_traitsIcESaIcEE13_S_copy_charsIPKcEEvPcT_S9_
	.def	_ZNSt7__cxx1112basic_stringIcSt11char_traitsIcESaIcEE13_S_copy_charsIPKcEEvPcT_S9_;	.scl	2;	.type	32;	.endef
	.seh_proc	_ZNSt7__cxx1112basic_stringIcSt11char_traitsIcESaIcEE13_S_copy_charsIPKcEEvPcT_S9_
_ZNSt7__cxx1112basic_stringIcSt11char_traitsIcESaIcEE13_S_copy_charsIPKcEEvPcT_S9_:
.LFB9845:
	pushq	%rbp
	.seh_pushreg	%rbp
	movq	%rsp, %rbp
	.seh_setframe	%rbp, 0
	subq	$48, %rsp
	.seh_stackalloc	48
	.seh_endprologue
	movq	%rcx, 16(%rbp)
	movq	%rdx, 24(%rbp)
	movq	%r8, 32(%rbp)
	movq	32(%rbp), %rax
	subq	24(%rbp), %rax
	movq	%rax, %rcx
	movq	24(%rbp), %rax
	movq	%rax, -8(%rbp)
	movq	-8(%rbp), %rdx
	movq	16(%rbp), %rax
	movq	%rcx, %r8
	movq	%rax, %rcx
	call	_ZNSt7__cxx1112basic_stringIcSt11char_traitsIcESaIcEE7_S_copyEPcPKcy
	nop
	addq	$48, %rsp
	popq	%rbp
	ret
	.seh_endproc
	.section .rdata,"dr"
.LC36:
	.ascii "basic_string::_M_replace\0"
	.section	.text$_ZNSt7__cxx1112basic_stringIcSt11char_traitsIcESaIcEE10_M_replaceEyyPKcy,"x"
	.linkonce discard
	.align 2
	.globl	_ZNSt7__cxx1112basic_stringIcSt11char_traitsIcESaIcEE10_M_replaceEyyPKcy
	.def	_ZNSt7__cxx1112basic_stringIcSt11char_traitsIcESaIcEE10_M_replaceEyyPKcy;	.scl	2;	.type	32;	.endef
	.seh_proc	_ZNSt7__cxx1112basic_stringIcSt11char_traitsIcESaIcEE10_M_replaceEyyPKcy
_ZNSt7__cxx1112basic_stringIcSt11char_traitsIcESaIcEE10_M_replaceEyyPKcy:
.LFB9883:
	pushq	%rbp
	.seh_pushreg	%rbp
	movq	%rsp, %rbp
	.seh_setframe	%rbp, 0
	subq	$80, %rsp
	.seh_stackalloc	80
	.seh_endprologue
	movq	%rcx, 16(%rbp)
	movq	%rdx, 24(%rbp)
	movq	%r8, 32(%rbp)
	movq	%r9, 40(%rbp)
	leaq	.LC36(%rip), %r8
	movq	48(%rbp), %rcx
	movq	32(%rbp), %rdx
	movq	16(%rbp), %rax
	movq	%r8, %r9
	movq	%rcx, %r8
	movq	%rax, %rcx
	call	_ZNKSt7__cxx1112basic_stringIcSt11char_traitsIcESaIcEE15_M_check_lengthEyyPKc
	movq	16(%rbp), %rax
	movq	%rax, %rcx
	call	_ZNKSt7__cxx1112basic_stringIcSt11char_traitsIcESaIcEE4sizeEv
	movq	%rax, -8(%rbp)
	movq	-8(%rbp), %rdx
	movq	48(%rbp), %rax
	addq	%rdx, %rax
	subq	32(%rbp), %rax
	movq	%rax, -16(%rbp)
	movq	16(%rbp), %rax
	movq	%rax, %rcx
	call	_ZNKSt7__cxx1112basic_stringIcSt11char_traitsIcESaIcEE8capacityEv
	cmpq	-16(%rbp), %rax
	setnb	%al
	testb	%al, %al
	je	.L317
	movq	16(%rbp), %rax
	movq	%rax, %rcx
	call	_ZNKSt7__cxx1112basic_stringIcSt11char_traitsIcESaIcEE7_M_dataEv
	movq	24(%rbp), %rdx
	addq	%rdx, %rax
	movq	%rax, -24(%rbp)
	movq	-8(%rbp), %rax
	subq	24(%rbp), %rax
	subq	32(%rbp), %rax
	movq	%rax, -32(%rbp)
	movq	40(%rbp), %rdx
	movq	16(%rbp), %rax
	movq	%rax, %rcx
	call	_ZNKSt7__cxx1112basic_stringIcSt11char_traitsIcESaIcEE11_M_disjunctEPKc
	movzbl	%al, %eax
	testl	%eax, %eax
	setne	%al
	testb	%al, %al
	je	.L318
	cmpq	$0, -32(%rbp)
	je	.L319
	movq	32(%rbp), %rax
	cmpq	48(%rbp), %rax
	je	.L319
	movq	-24(%rbp), %rdx
	movq	32(%rbp), %rax
	addq	%rax, %rdx
	movq	-24(%rbp), %rcx
	movq	48(%rbp), %rax
	addq	%rcx, %rax
	movq	-32(%rbp), %rcx
	movq	%rcx, %r8
	movq	%rax, %rcx
	call	_ZNSt7__cxx1112basic_stringIcSt11char_traitsIcESaIcEE7_S_moveEPcPKcy
.L319:
	cmpq	$0, 48(%rbp)
	je	.L320
	movq	48(%rbp), %rcx
	movq	40(%rbp), %rdx
	movq	-24(%rbp), %rax
	movq	%rcx, %r8
	movq	%rax, %rcx
	call	_ZNSt7__cxx1112basic_stringIcSt11char_traitsIcESaIcEE7_S_copyEPcPKcy
	jmp	.L320
.L318:
	movq	40(%rbp), %r9
	movq	32(%rbp), %r8
	movq	-24(%rbp), %rdx
	movq	16(%rbp), %rax
	movq	-32(%rbp), %rcx
	movq	%rcx, 40(%rsp)
	movq	48(%rbp), %rcx
	movq	%rcx, 32(%rsp)
	movq	%rax, %rcx
	call	_ZNSt7__cxx1112basic_stringIcSt11char_traitsIcESaIcEE15_M_replace_coldEPcyPKcyy
	jmp	.L320
.L317:
	movq	40(%rbp), %r9
	movq	32(%rbp), %r8
	movq	24(%rbp), %rdx
	movq	16(%rbp), %rax
	movq	48(%rbp), %rcx
	movq	%rcx, 32(%rsp)
	movq	%rax, %rcx
	call	_ZNSt7__cxx1112basic_stringIcSt11char_traitsIcESaIcEE9_M_mutateEyyPKcy
.L320:
	movq	-16(%rbp), %rdx
	movq	16(%rbp), %rax
	movq	%rax, %rcx
	call	_ZNSt7__cxx1112basic_stringIcSt11char_traitsIcESaIcEE13_M_set_lengthEy
	movq	16(%rbp), %rax
	addq	$80, %rsp
	popq	%rbp
	ret
	.seh_endproc
	.section	.text$_ZNKSt7__cxx1112basic_stringIcSt11char_traitsIcESaIcEE15_M_check_lengthEyyPKc,"x"
	.linkonce discard
	.align 2
	.globl	_ZNKSt7__cxx1112basic_stringIcSt11char_traitsIcESaIcEE15_M_check_lengthEyyPKc
	.def	_ZNKSt7__cxx1112basic_stringIcSt11char_traitsIcESaIcEE15_M_check_lengthEyyPKc;	.scl	2;	.type	32;	.endef
	.seh_proc	_ZNKSt7__cxx1112basic_stringIcSt11char_traitsIcESaIcEE15_M_check_lengthEyyPKc
_ZNKSt7__cxx1112basic_stringIcSt11char_traitsIcESaIcEE15_M_check_lengthEyyPKc:
.LFB9886:
	pushq	%rbp
	.seh_pushreg	%rbp
	pushq	%rbx
	.seh_pushreg	%rbx
	subq	$40, %rsp
	.seh_stackalloc	40
	leaq	32(%rsp), %rbp
	.seh_setframe	%rbp, 32
	.seh_endprologue
	movq	%rcx, 32(%rbp)
	movq	%rdx, 40(%rbp)
	movq	%r8, 48(%rbp)
	movq	%r9, 56(%rbp)
	movq	32(%rbp), %rax
	movq	%rax, %rcx
	call	_ZNKSt7__cxx1112basic_stringIcSt11char_traitsIcESaIcEE8max_sizeEv
	movq	%rax, %rbx
	movq	32(%rbp), %rax
	movq	%rax, %rcx
	call	_ZNKSt7__cxx1112basic_stringIcSt11char_traitsIcESaIcEE4sizeEv
	movq	40(%rbp), %rdx
	subq	%rax, %rdx
	leaq	(%rbx,%rdx), %rax
	cmpq	48(%rbp), %rax
	setb	%al
	testb	%al, %al
	je	.L324
	movq	56(%rbp), %rax
	movq	%rax, %rcx
	call	_ZSt20__throw_length_errorPKc
.L324:
	nop
	addq	$40, %rsp
	popq	%rbx
	popq	%rbp
	ret
	.seh_endproc
	.section	.text$_ZNSt7__cxx1112basic_stringIcSt11char_traitsIcESaIcEE9_M_appendEPKcy,"x"
	.linkonce discard
	.align 2
	.globl	_ZNSt7__cxx1112basic_stringIcSt11char_traitsIcESaIcEE9_M_appendEPKcy
	.def	_ZNSt7__cxx1112basic_stringIcSt11char_traitsIcESaIcEE9_M_appendEPKcy;	.scl	2;	.type	32;	.endef
	.seh_proc	_ZNSt7__cxx1112basic_stringIcSt11char_traitsIcESaIcEE9_M_appendEPKcy
_ZNSt7__cxx1112basic_stringIcSt11char_traitsIcESaIcEE9_M_appendEPKcy:
.LFB9887:
	pushq	%rbp
	.seh_pushreg	%rbp
	pushq	%rbx
	.seh_pushreg	%rbx
	subq	$72, %rsp
	.seh_stackalloc	72
	leaq	64(%rsp), %rbp
	.seh_setframe	%rbp, 64
	.seh_endprologue
	movq	%rcx, 32(%rbp)
	movq	%rdx, 40(%rbp)
	movq	%r8, 48(%rbp)
	movq	32(%rbp), %rax
	movq	%rax, %rcx
	call	_ZNKSt7__cxx1112basic_stringIcSt11char_traitsIcESaIcEE4sizeEv
	movq	48(%rbp), %rdx
	addq	%rdx, %rax
	movq	%rax, -8(%rbp)
	movq	32(%rbp), %rax
	movq	%rax, %rcx
	call	_ZNKSt7__cxx1112basic_stringIcSt11char_traitsIcESaIcEE8capacityEv
	cmpq	-8(%rbp), %rax
	setnb	%al
	testb	%al, %al
	je	.L326
	cmpq	$0, 48(%rbp)
	je	.L327
	movq	32(%rbp), %rax
	movq	%rax, %rcx
	call	_ZNKSt7__cxx1112basic_stringIcSt11char_traitsIcESaIcEE7_M_dataEv
	movq	%rax, %rbx
	movq	32(%rbp), %rax
	movq	%rax, %rcx
	call	_ZNKSt7__cxx1112basic_stringIcSt11char_traitsIcESaIcEE4sizeEv
	addq	%rbx, %rax
	movq	48(%rbp), %rcx
	movq	40(%rbp), %rdx
	movq	%rcx, %r8
	movq	%rax, %rcx
	call	_ZNSt7__cxx1112basic_stringIcSt11char_traitsIcESaIcEE7_S_copyEPcPKcy
	jmp	.L327
.L326:
	movq	32(%rbp), %rax
	movq	%rax, %rcx
	call	_ZNKSt7__cxx1112basic_stringIcSt11char_traitsIcESaIcEE4sizeEv
	movq	%rax, %rdx
	movq	40(%rbp), %r8
	movq	32(%rbp), %rax
	movq	48(%rbp), %rcx
	movq	%rcx, 32(%rsp)
	movq	%r8, %r9
	movl	$0, %r8d
	movq	%rax, %rcx
	call	_ZNSt7__cxx1112basic_stringIcSt11char_traitsIcESaIcEE9_M_mutateEyyPKcy
.L327:
	movq	-8(%rbp), %rdx
	movq	32(%rbp), %rax
	movq	%rax, %rcx
	call	_ZNSt7__cxx1112basic_stringIcSt11char_traitsIcESaIcEE13_M_set_lengthEy
	movq	32(%rbp), %rax
	addq	$72, %rsp
	popq	%rbx
	popq	%rbp
	ret
	.seh_endproc
	.section	.text$_ZNSt6chronomiIxSt5ratioILx1ELx1000000000EExS2_EENSt11common_typeIJNS_8durationIT_T0_EENS4_IT1_T2_EEEE4typeERKS7_RKSA_,"x"
	.linkonce discard
	.globl	_ZNSt6chronomiIxSt5ratioILx1ELx1000000000EExS2_EENSt11common_typeIJNS_8durationIT_T0_EENS4_IT1_T2_EEEE4typeERKS7_RKSA_
	.def	_ZNSt6chronomiIxSt5ratioILx1ELx1000000000EExS2_EENSt11common_typeIJNS_8durationIT_T0_EENS4_IT1_T2_EEEE4typeERKS7_RKSA_;	.scl	2;	.type	32;	.endef
	.seh_proc	_ZNSt6chronomiIxSt5ratioILx1ELx1000000000EExS2_EENSt11common_typeIJNS_8durationIT_T0_EENS4_IT1_T2_EEEE4typeERKS7_RKSA_
_ZNSt6chronomiIxSt5ratioILx1ELx1000000000EExS2_EENSt11common_typeIJNS_8durationIT_T0_EENS4_IT1_T2_EEEE4typeERKS7_RKSA_:
.LFB9889:
	pushq	%rbp
	.seh_pushreg	%rbp
	pushq	%rbx
	.seh_pushreg	%rbx
	subq	$72, %rsp
	.seh_stackalloc	72
	leaq	64(%rsp), %rbp
	.seh_setframe	%rbp, 64
	.seh_endprologue
	movq	%rcx, 32(%rbp)
	movq	%rdx, 40(%rbp)
	movq	32(%rbp), %rax
	movq	(%rax), %rax
	movq	%rax, -16(%rbp)
	leaq	-16(%rbp), %rax
	movq	%rax, %rcx
	call	_ZNKSt6chrono8durationIxSt5ratioILx1ELx1000000000EEE5countEv
	movq	%rax, %rbx
	movq	40(%rbp), %rax
	movq	(%rax), %rax
	movq	%rax, -8(%rbp)
	leaq	-8(%rbp), %rax
	movq	%rax, %rcx
	call	_ZNKSt6chrono8durationIxSt5ratioILx1ELx1000000000EEE5countEv
	subq	%rax, %rbx
	movq	%rbx, %rdx
	movq	%rdx, -24(%rbp)
	leaq	-24(%rbp), %rdx
	leaq	-32(%rbp), %rax
	movq	%rax, %rcx
	call	_ZNSt6chrono8durationIxSt5ratioILx1ELx1000000000EEEC1IxvEERKT_
	movq	-32(%rbp), %rax
	addq	$72, %rsp
	popq	%rbx
	popq	%rbp
	ret
	.seh_endproc
	.section	.text$_ZNSt6chrono13duration_castINS_8durationIdSt5ratioILx1ELx1EEEExS2_ILx1ELx1000000000EEEENSt9enable_ifIXsrNS_13__is_durationIT_EE5valueES8_E4typeERKNS1_IT0_T1_EE,"x"
	.linkonce discard
	.globl	_ZNSt6chrono13duration_castINS_8durationIdSt5ratioILx1ELx1EEEExS2_ILx1ELx1000000000EEEENSt9enable_ifIXsrNS_13__is_durationIT_EE5valueES8_E4typeERKNS1_IT0_T1_EE
	.def	_ZNSt6chrono13duration_castINS_8durationIdSt5ratioILx1ELx1EEEExS2_ILx1ELx1000000000EEEENSt9enable_ifIXsrNS_13__is_durationIT_EE5valueES8_E4typeERKNS1_IT0_T1_EE;	.scl	2;	.type	32;	.endef
	.seh_proc	_ZNSt6chrono13duration_castINS_8durationIdSt5ratioILx1ELx1EEEExS2_ILx1ELx1000000000EEEENSt9enable_ifIXsrNS_13__is_durationIT_EE5valueES8_E4typeERKNS1_IT0_T1_EE
_ZNSt6chrono13duration_castINS_8durationIdSt5ratioILx1ELx1EEEExS2_ILx1ELx1000000000EEEENSt9enable_ifIXsrNS_13__is_durationIT_EE5valueES8_E4typeERKNS1_IT0_T1_EE:
.LFB9890:
	pushq	%rbp
	.seh_pushreg	%rbp
	movq	%rsp, %rbp
	.seh_setframe	%rbp, 0
	subq	$32, %rsp
	.seh_stackalloc	32
	.seh_endprologue
	movq	%rcx, 16(%rbp)
	movq	16(%rbp), %rax
	movq	%rax, %rcx
	call	_ZNSt6chrono20__duration_cast_implINS_8durationIdSt5ratioILx1ELx1EEEES2_ILx1ELx1000000000EEdLb1ELb0EE6__castIxS5_EES4_RKNS1_IT_T0_EE
	addq	$32, %rsp
	popq	%rbp
	ret
	.seh_endproc
	.section	.text$_ZNSt7__cxx1112basic_stringIcSt11char_traitsIcESaIcEE11_S_allocateERS3_y,"x"
	.linkonce discard
	.globl	_ZNSt7__cxx1112basic_stringIcSt11char_traitsIcESaIcEE11_S_allocateERS3_y
	.def	_ZNSt7__cxx1112basic_stringIcSt11char_traitsIcESaIcEE11_S_allocateERS3_y;	.scl	2;	.type	32;	.endef
	.seh_proc	_ZNSt7__cxx1112basic_stringIcSt11char_traitsIcESaIcEE11_S_allocateERS3_y
_ZNSt7__cxx1112basic_stringIcSt11char_traitsIcESaIcEE11_S_allocateERS3_y:
.LFB9895:
	pushq	%rbp
	.seh_pushreg	%rbp
	movq	%rsp, %rbp
	.seh_setframe	%rbp, 0
	subq	$64, %rsp
	.seh_stackalloc	64
	.seh_endprologue
	movq	%rcx, 16(%rbp)
	movq	%rdx, 24(%rbp)
	movq	16(%rbp), %rax
	movq	%rax, -16(%rbp)
	movq	24(%rbp), %rax
	movq	%rax, -24(%rbp)
	movq	-24(%rbp), %rdx
	movq	-16(%rbp), %rax
	movl	$0, %r8d
	movq	%rax, %rcx
	call	_ZNSt15__new_allocatorIcE8allocateEyPKv
	nop
	movq	%rax, -8(%rbp)
	movq	-8(%rbp), %rax
	addq	$64, %rsp
	popq	%rbp
	ret
	.seh_endproc
	.section	.text$_ZNSt19__ptr_traits_ptr_toIPKcS0_Lb0EE10pointer_toERS0_,"x"
	.linkonce discard
	.globl	_ZNSt19__ptr_traits_ptr_toIPKcS0_Lb0EE10pointer_toERS0_
	.def	_ZNSt19__ptr_traits_ptr_toIPKcS0_Lb0EE10pointer_toERS0_;	.scl	2;	.type	32;	.endef
	.seh_proc	_ZNSt19__ptr_traits_ptr_toIPKcS0_Lb0EE10pointer_toERS0_
_ZNSt19__ptr_traits_ptr_toIPKcS0_Lb0EE10pointer_toERS0_:
.LFB9896:
	pushq	%rbp
	.seh_pushreg	%rbp
	movq	%rsp, %rbp
	.seh_setframe	%rbp, 0
	subq	$16, %rsp
	.seh_stackalloc	16
	.seh_endprologue
	movq	%rcx, 16(%rbp)
	movq	16(%rbp), %rax
	movq	%rax, -8(%rbp)
	movq	-8(%rbp), %rax
	movq	%rax, -16(%rbp)
	movq	-16(%rbp), %rax
	nop
	addq	$16, %rsp
	popq	%rbp
	ret
	.seh_endproc
	.section	.text$_ZNKSt7__cxx1112basic_stringIcSt11char_traitsIcESaIcEE16_M_get_allocatorEv,"x"
	.linkonce discard
	.align 2
	.globl	_ZNKSt7__cxx1112basic_stringIcSt11char_traitsIcESaIcEE16_M_get_allocatorEv
	.def	_ZNKSt7__cxx1112basic_stringIcSt11char_traitsIcESaIcEE16_M_get_allocatorEv;	.scl	2;	.type	32;	.endef
	.seh_proc	_ZNKSt7__cxx1112basic_stringIcSt11char_traitsIcESaIcEE16_M_get_allocatorEv
_ZNKSt7__cxx1112basic_stringIcSt11char_traitsIcESaIcEE16_M_get_allocatorEv:
.LFB9910:
	pushq	%rbp
	.seh_pushreg	%rbp
	movq	%rsp, %rbp
	.seh_setframe	%rbp, 0
	.seh_endprologue
	movq	%rcx, 16(%rbp)
	movq	16(%rbp), %rax
	popq	%rbp
	ret
	.seh_endproc
	.section	.text$_ZNKSt7__cxx1112basic_stringIcSt11char_traitsIcESaIcEE11_M_disjunctEPKc,"x"
	.linkonce discard
	.align 2
	.globl	_ZNKSt7__cxx1112basic_stringIcSt11char_traitsIcESaIcEE11_M_disjunctEPKc
	.def	_ZNKSt7__cxx1112basic_stringIcSt11char_traitsIcESaIcEE11_M_disjunctEPKc;	.scl	2;	.type	32;	.endef
	.seh_proc	_ZNKSt7__cxx1112basic_stringIcSt11char_traitsIcESaIcEE11_M_disjunctEPKc
_ZNKSt7__cxx1112basic_stringIcSt11char_traitsIcESaIcEE11_M_disjunctEPKc:
.LFB9950:
	pushq	%rbp
	.seh_pushreg	%rbp
	pushq	%rbx
	.seh_pushreg	%rbx
	subq	$56, %rsp
	.seh_stackalloc	56
	leaq	48(%rsp), %rbp
	.seh_setframe	%rbp, 48
	.seh_endprologue
	movq	%rcx, 32(%rbp)
	movq	%rdx, 40(%rbp)
	movq	32(%rbp), %rax
	movq	%rax, %rcx
	call	_ZNKSt7__cxx1112basic_stringIcSt11char_traitsIcESaIcEE7_M_dataEv
	movq	%rax, %rcx
	movq	40(%rbp), %rdx
	leaq	-2(%rbp), %rax
	movq	%rcx, %r8
	movq	%rax, %rcx
	call	_ZNKSt4lessIPKcEclES1_S1_
	testb	%al, %al
	jne	.L343
	movq	32(%rbp), %rax
	movq	%rax, %rcx
	call	_ZNKSt7__cxx1112basic_stringIcSt11char_traitsIcESaIcEE7_M_dataEv
	movq	%rax, %rbx
	movq	32(%rbp), %rax
	movq	%rax, %rcx
	call	_ZNKSt7__cxx1112basic_stringIcSt11char_traitsIcESaIcEE4sizeEv
	leaq	(%rbx,%rax), %rdx
	movq	40(%rbp), %rcx
	leaq	-1(%rbp), %rax
	movq	%rcx, %r8
	movq	%rax, %rcx
	call	_ZNKSt4lessIPKcEclES1_S1_
	testb	%al, %al
	je	.L344
.L343:
	movl	$1, %eax
	jmp	.L345
.L344:
	movl	$0, %eax
.L345:
	addq	$56, %rsp
	popq	%rbx
	popq	%rbp
	ret
	.seh_endproc
	.section	.text$_ZNSt7__cxx1112basic_stringIcSt11char_traitsIcESaIcEE7_S_moveEPcPKcy,"x"
	.linkonce discard
	.globl	_ZNSt7__cxx1112basic_stringIcSt11char_traitsIcESaIcEE7_S_moveEPcPKcy
	.def	_ZNSt7__cxx1112basic_stringIcSt11char_traitsIcESaIcEE7_S_moveEPcPKcy;	.scl	2;	.type	32;	.endef
	.seh_proc	_ZNSt7__cxx1112basic_stringIcSt11char_traitsIcESaIcEE7_S_moveEPcPKcy
_ZNSt7__cxx1112basic_stringIcSt11char_traitsIcESaIcEE7_S_moveEPcPKcy:
.LFB9951:
	pushq	%rbp
	.seh_pushreg	%rbp
	movq	%rsp, %rbp
	.seh_setframe	%rbp, 0
	subq	$32, %rsp
	.seh_stackalloc	32
	.seh_endprologue
	movq	%rcx, 16(%rbp)
	movq	%rdx, 24(%rbp)
	movq	%r8, 32(%rbp)
	cmpq	$1, 32(%rbp)
	jne	.L348
	movq	24(%rbp), %rdx
	movq	16(%rbp), %rax
	movq	%rax, %rcx
	call	_ZNSt11char_traitsIcE6assignERcRKc
	jmp	.L350
.L348:
	movq	32(%rbp), %rcx
	movq	24(%rbp), %rdx
	movq	16(%rbp), %rax
	movq	%rcx, %r8
	movq	%rax, %rcx
	call	_ZNSt11char_traitsIcE4moveEPcPKcy
.L350:
	nop
	addq	$32, %rsp
	popq	%rbp
	ret
	.seh_endproc
	.section	.text$_ZNSt7__cxx1112basic_stringIcSt11char_traitsIcESaIcEE15_M_replace_coldEPcyPKcyy,"x"
	.linkonce discard
	.align 2
	.globl	_ZNSt7__cxx1112basic_stringIcSt11char_traitsIcESaIcEE15_M_replace_coldEPcyPKcyy
	.def	_ZNSt7__cxx1112basic_stringIcSt11char_traitsIcESaIcEE15_M_replace_coldEPcyPKcyy;	.scl	2;	.type	32;	.endef
	.seh_proc	_ZNSt7__cxx1112basic_stringIcSt11char_traitsIcESaIcEE15_M_replace_coldEPcyPKcyy
_ZNSt7__cxx1112basic_stringIcSt11char_traitsIcESaIcEE15_M_replace_coldEPcyPKcyy:
.LFB9952:
	pushq	%rbp
	.seh_pushreg	%rbp
	movq	%rsp, %rbp
	.seh_setframe	%rbp, 0
	subq	$48, %rsp
	.seh_stackalloc	48
	.seh_endprologue
	movq	%rcx, 16(%rbp)
	movq	%rdx, 24(%rbp)
	movq	%r8, 32(%rbp)
	movq	%r9, 40(%rbp)
	cmpq	$0, 48(%rbp)
	je	.L352
	movq	48(%rbp), %rax
	cmpq	%rax, 32(%rbp)
	jb	.L352
	movq	48(%rbp), %rcx
	movq	40(%rbp), %rdx
	movq	24(%rbp), %rax
	movq	%rcx, %r8
	movq	%rax, %rcx
	call	_ZNSt7__cxx1112basic_stringIcSt11char_traitsIcESaIcEE7_S_moveEPcPKcy
.L352:
	cmpq	$0, 56(%rbp)
	je	.L353
	movq	32(%rbp), %rax
	cmpq	48(%rbp), %rax
	je	.L353
	movq	24(%rbp), %rdx
	movq	32(%rbp), %rax
	addq	%rax, %rdx
	movq	24(%rbp), %rcx
	movq	48(%rbp), %rax
	addq	%rcx, %rax
	movq	56(%rbp), %rcx
	movq	%rcx, %r8
	movq	%rax, %rcx
	call	_ZNSt7__cxx1112basic_stringIcSt11char_traitsIcESaIcEE7_S_moveEPcPKcy
.L353:
	movq	48(%rbp), %rax
	cmpq	%rax, 32(%rbp)
	jnb	.L357
	movq	40(%rbp), %rdx
	movq	48(%rbp), %rax
	addq	%rdx, %rax
	movq	24(%rbp), %rcx
	movq	32(%rbp), %rdx
	addq	%rcx, %rdx
	cmpq	%rax, %rdx
	jb	.L355
	movq	48(%rbp), %rcx
	movq	40(%rbp), %rdx
	movq	24(%rbp), %rax
	movq	%rcx, %r8
	movq	%rax, %rcx
	call	_ZNSt7__cxx1112basic_stringIcSt11char_traitsIcESaIcEE7_S_moveEPcPKcy
	jmp	.L357
.L355:
	movq	24(%rbp), %rdx
	movq	32(%rbp), %rax
	addq	%rdx, %rax
	cmpq	%rax, 40(%rbp)
	jb	.L356
	movq	40(%rbp), %rax
	subq	24(%rbp), %rax
	movq	%rax, %rdx
	movq	48(%rbp), %rax
	subq	32(%rbp), %rax
	addq	%rdx, %rax
	movq	%rax, -16(%rbp)
	movq	24(%rbp), %rdx
	movq	-16(%rbp), %rax
	addq	%rax, %rdx
	movq	48(%rbp), %rcx
	movq	24(%rbp), %rax
	movq	%rcx, %r8
	movq	%rax, %rcx
	call	_ZNSt7__cxx1112basic_stringIcSt11char_traitsIcESaIcEE7_S_copyEPcPKcy
	jmp	.L357
.L356:
	movq	24(%rbp), %rdx
	movq	32(%rbp), %rax
	addq	%rdx, %rax
	subq	40(%rbp), %rax
	movq	%rax, -8(%rbp)
	movq	-8(%rbp), %rcx
	movq	40(%rbp), %rdx
	movq	24(%rbp), %rax
	movq	%rcx, %r8
	movq	%rax, %rcx
	call	_ZNSt7__cxx1112basic_stringIcSt11char_traitsIcESaIcEE7_S_moveEPcPKcy
	movq	48(%rbp), %rax
	subq	-8(%rbp), %rax
	movq	%rax, %rcx
	movq	24(%rbp), %rdx
	movq	48(%rbp), %rax
	addq	%rax, %rdx
	movq	24(%rbp), %r8
	movq	-8(%rbp), %rax
	addq	%r8, %rax
	movq	%rcx, %r8
	movq	%rax, %rcx
	call	_ZNSt7__cxx1112basic_stringIcSt11char_traitsIcESaIcEE7_S_copyEPcPKcy
.L357:
	nop
	addq	$48, %rsp
	popq	%rbp
	ret
	.seh_endproc
	.section	.text$_ZNSt7__cxx1112basic_stringIcSt11char_traitsIcESaIcEE9_M_mutateEyyPKcy,"x"
	.linkonce discard
	.align 2
	.globl	_ZNSt7__cxx1112basic_stringIcSt11char_traitsIcESaIcEE9_M_mutateEyyPKcy
	.def	_ZNSt7__cxx1112basic_stringIcSt11char_traitsIcESaIcEE9_M_mutateEyyPKcy;	.scl	2;	.type	32;	.endef
	.seh_proc	_ZNSt7__cxx1112basic_stringIcSt11char_traitsIcESaIcEE9_M_mutateEyyPKcy
_ZNSt7__cxx1112basic_stringIcSt11char_traitsIcESaIcEE9_M_mutateEyyPKcy:
.LFB9953:
	pushq	%rbp
	.seh_pushreg	%rbp
	movq	%rsp, %rbp
	.seh_setframe	%rbp, 0
	subq	$64, %rsp
	.seh_stackalloc	64
	.seh_endprologue
	movq	%rcx, 16(%rbp)
	movq	%rdx, 24(%rbp)
	movq	%r8, 32(%rbp)
	movq	%r9, 40(%rbp)
	movq	16(%rbp), %rax
	movq	%rax, %rcx
	call	_ZNKSt7__cxx1112basic_stringIcSt11char_traitsIcESaIcEE6lengthEv
	subq	24(%rbp), %rax
	subq	32(%rbp), %rax
	movq	%rax, -8(%rbp)
	movq	16(%rbp), %rax
	movq	%rax, %rcx
	call	_ZNKSt7__cxx1112basic_stringIcSt11char_traitsIcESaIcEE6lengthEv
	movq	48(%rbp), %rdx
	addq	%rdx, %rax
	subq	32(%rbp), %rax
	movq	%rax, -24(%rbp)
	movq	16(%rbp), %rax
	movq	%rax, %rcx
	call	_ZNKSt7__cxx1112basic_stringIcSt11char_traitsIcESaIcEE8capacityEv
	movq	%rax, %rdx
	leaq	-24(%rbp), %rax
	movq	16(%rbp), %rcx
	movq	%rdx, %r8
	movq	%rax, %rdx
	call	_ZNSt7__cxx1112basic_stringIcSt11char_traitsIcESaIcEE9_M_createERyy
	movq	%rax, -16(%rbp)
	cmpq	$0, 24(%rbp)
	je	.L359
	movq	16(%rbp), %rax
	movq	%rax, %rcx
	call	_ZNKSt7__cxx1112basic_stringIcSt11char_traitsIcESaIcEE7_M_dataEv
	movq	%rax, %rdx
	movq	24(%rbp), %rcx
	movq	-16(%rbp), %rax
	movq	%rcx, %r8
	movq	%rax, %rcx
	call	_ZNSt7__cxx1112basic_stringIcSt11char_traitsIcESaIcEE7_S_copyEPcPKcy
.L359:
	cmpq	$0, 40(%rbp)
	je	.L360
	cmpq	$0, 48(%rbp)
	je	.L360
	movq	-16(%rbp), %rdx
	movq	24(%rbp), %rax
	addq	%rdx, %rax
	movq	48(%rbp), %rcx
	movq	40(%rbp), %rdx
	movq	%rcx, %r8
	movq	%rax, %rcx
	call	_ZNSt7__cxx1112basic_stringIcSt11char_traitsIcESaIcEE7_S_copyEPcPKcy
.L360:
	cmpq	$0, -8(%rbp)
	je	.L361
	movq	16(%rbp), %rax
	movq	%rax, %rcx
	call	_ZNKSt7__cxx1112basic_stringIcSt11char_traitsIcESaIcEE7_M_dataEv
	movq	24(%rbp), %rcx
	movq	32(%rbp), %rdx
	addq	%rcx, %rdx
	addq	%rax, %rdx
	movq	24(%rbp), %rcx
	movq	48(%rbp), %rax
	addq	%rax, %rcx
	movq	-16(%rbp), %rax
	addq	%rcx, %rax
	movq	-8(%rbp), %rcx
	movq	%rcx, %r8
	movq	%rax, %rcx
	call	_ZNSt7__cxx1112basic_stringIcSt11char_traitsIcESaIcEE7_S_copyEPcPKcy
.L361:
	movq	16(%rbp), %rax
	movq	%rax, %rcx
	call	_ZNSt7__cxx1112basic_stringIcSt11char_traitsIcESaIcEE10_M_disposeEv
	movq	-16(%rbp), %rdx
	movq	16(%rbp), %rax
	movq	%rax, %rcx
	call	_ZNSt7__cxx1112basic_stringIcSt11char_traitsIcESaIcEE7_M_dataEPc
	movq	-24(%rbp), %rdx
	movq	16(%rbp), %rax
	movq	%rax, %rcx
	call	_ZNSt7__cxx1112basic_stringIcSt11char_traitsIcESaIcEE11_M_capacityEy
	nop
	addq	$64, %rsp
	popq	%rbp
	ret
	.seh_endproc
	.section	.text$_ZNSt15__new_allocatorIcE10deallocateEPcy,"x"
	.linkonce discard
	.align 2
	.globl	_ZNSt15__new_allocatorIcE10deallocateEPcy
	.def	_ZNSt15__new_allocatorIcE10deallocateEPcy;	.scl	2;	.type	32;	.endef
	.seh_proc	_ZNSt15__new_allocatorIcE10deallocateEPcy
_ZNSt15__new_allocatorIcE10deallocateEPcy:
.LFB9954:
	pushq	%rbp
	.seh_pushreg	%rbp
	movq	%rsp, %rbp
	.seh_setframe	%rbp, 0
	subq	$32, %rsp
	.seh_stackalloc	32
	.seh_endprologue
	movq	%rcx, 16(%rbp)
	movq	%rdx, 24(%rbp)
	movq	%r8, 32(%rbp)
	movq	32(%rbp), %rdx
	movq	24(%rbp), %rax
	movq	%rax, %rcx
	call	_ZdlPvy
	nop
	addq	$32, %rsp
	popq	%rbp
	ret
	.seh_endproc
	.section	.text$_ZNSt6chrono20__duration_cast_implINS_8durationIdSt5ratioILx1ELx1EEEES2_ILx1ELx1000000000EEdLb1ELb0EE6__castIxS5_EES4_RKNS1_IT_T0_EE,"x"
	.linkonce discard
	.globl	_ZNSt6chrono20__duration_cast_implINS_8durationIdSt5ratioILx1ELx1EEEES2_ILx1ELx1000000000EEdLb1ELb0EE6__castIxS5_EES4_RKNS1_IT_T0_EE
	.def	_ZNSt6chrono20__duration_cast_implINS_8durationIdSt5ratioILx1ELx1EEEES2_ILx1ELx1000000000EEdLb1ELb0EE6__castIxS5_EES4_RKNS1_IT_T0_EE;	.scl	2;	.type	32;	.endef
	.seh_proc	_ZNSt6chrono20__duration_cast_implINS_8durationIdSt5ratioILx1ELx1EEEES2_ILx1ELx1000000000EEdLb1ELb0EE6__castIxS5_EES4_RKNS1_IT_T0_EE
_ZNSt6chrono20__duration_cast_implINS_8durationIdSt5ratioILx1ELx1EEEES2_ILx1ELx1000000000EEdLb1ELb0EE6__castIxS5_EES4_RKNS1_IT_T0_EE:
.LFB9955:
	pushq	%rbp
	.seh_pushreg	%rbp
	movq	%rsp, %rbp
	.seh_setframe	%rbp, 0
	subq	$48, %rsp
	.seh_stackalloc	48
	.seh_endprologue
	movq	%rcx, 16(%rbp)
	movq	16(%rbp), %rax
	movq	%rax, %rcx
	call	_ZNKSt6chrono8durationIxSt5ratioILx1ELx1000000000EEE5countEv
	pxor	%xmm0, %xmm0
	cvtsi2sdq	%rax, %xmm0
	movsd	.LC37(%rip), %xmm1
	divsd	%xmm1, %xmm0
	movsd	%xmm0, -8(%rbp)
	leaq	-8(%rbp), %rdx
	leaq	-16(%rbp), %rax
	movq	%rax, %rcx
	call	_ZNSt6chrono8durationIdSt5ratioILx1ELx1EEEC1IdvEERKT_
	movsd	-16(%rbp), %xmm0
	movq	%xmm0, %rax
	addq	$48, %rsp
	popq	%rbp
	ret
	.seh_endproc
	.section	.text$_ZNKSt4lessIPKcEclES1_S1_,"x"
	.linkonce discard
	.align 2
	.globl	_ZNKSt4lessIPKcEclES1_S1_
	.def	_ZNKSt4lessIPKcEclES1_S1_;	.scl	2;	.type	32;	.endef
	.seh_proc	_ZNKSt4lessIPKcEclES1_S1_
_ZNKSt4lessIPKcEclES1_S1_:
.LFB9980:
	pushq	%rbp
	.seh_pushreg	%rbp
	movq	%rsp, %rbp
	.seh_setframe	%rbp, 0
	.seh_endprologue
	movq	%rcx, 16(%rbp)
	movq	%rdx, 24(%rbp)
	movq	%r8, 32(%rbp)
	movl	$0, %eax
	testb	%al, %al
	je	.L368
	movq	24(%rbp), %rax
	cmpq	32(%rbp), %rax
	setb	%al
	jmp	.L369
.L368:
	movq	24(%rbp), %rdx
	movq	32(%rbp), %rax
	cmpq	%rax, %rdx
	setb	%al
.L369:
	popq	%rbp
	ret
	.seh_endproc
	.section	.text$_ZNSt6chrono8durationIdSt5ratioILx1ELx1EEEC1IdvEERKT_,"x"
	.linkonce discard
	.align 2
	.globl	_ZNSt6chrono8durationIdSt5ratioILx1ELx1EEEC1IdvEERKT_
	.def	_ZNSt6chrono8durationIdSt5ratioILx1ELx1EEEC1IdvEERKT_;	.scl	2;	.type	32;	.endef
	.seh_proc	_ZNSt6chrono8durationIdSt5ratioILx1ELx1EEEC1IdvEERKT_
_ZNSt6chrono8durationIdSt5ratioILx1ELx1EEEC1IdvEERKT_:
.LFB9983:
	pushq	%rbp
	.seh_pushreg	%rbp
	movq	%rsp, %rbp
	.seh_setframe	%rbp, 0
	.seh_endprologue
	movq	%rcx, 16(%rbp)
	movq	%rdx, 24(%rbp)
	movq	24(%rbp), %rax
	movsd	(%rax), %xmm0
	movq	16(%rbp), %rax
	movsd	%xmm0, (%rax)
	nop
	popq	%rbp
	ret
	.seh_endproc
	.section	.text$_ZNSt15__new_allocatorIcE8allocateEyPKv,"x"
	.linkonce discard
	.align 2
	.globl	_ZNSt15__new_allocatorIcE8allocateEyPKv
	.def	_ZNSt15__new_allocatorIcE8allocateEyPKv;	.scl	2;	.type	32;	.endef
	.seh_proc	_ZNSt15__new_allocatorIcE8allocateEyPKv
_ZNSt15__new_allocatorIcE8allocateEyPKv:
.LFB9984:
	pushq	%rbp
	.seh_pushreg	%rbp
	movq	%rsp, %rbp
	.seh_setframe	%rbp, 0
	subq	$48, %rsp
	.seh_stackalloc	48
	.seh_endprologue
	movq	%rcx, 16(%rbp)
	movq	%rdx, 24(%rbp)
	movq	%r8, 32(%rbp)
	movq	16(%rbp), %rax
	movq	%rax, -8(%rbp)
	movabsq	$9223372036854775807, %rax
	cmpq	24(%rbp), %rax
	setb	%al
	movzbl	%al, %eax
	testl	%eax, %eax
	setne	%al
	testb	%al, %al
	je	.L373
	call	_ZSt17__throw_bad_allocv
.L373:
	movq	24(%rbp), %rax
	movq	%rax, %rcx
	call	_Znwy
	nop
	addq	$48, %rsp
	popq	%rbp
	ret
	.seh_endproc
	.section .rdata,"dr"
	.align 8
.LC24:
	.long	0
	.long	1078984704
	.align 8
.LC28:
	.long	0
	.long	1093567616
	.align 8
.LC37:
	.long	0
	.long	1104006501
	.def	__main;	.scl	2;	.type	32;	.endef
	.def	__gxx_personality_seh0;	.scl	2;	.type	32;	.endef
	.ident	"GCC: (x86_64-posix-seh-rev0, Built by MinGW-Builds project) 15.2.0"
	.def	strlen;	.scl	2;	.type	32;	.endef
	.def	memmove;	.scl	2;	.type	32;	.endef
	.def	memcpy;	.scl	2;	.type	32;	.endef
	.def	_Unwind_Resume;	.scl	2;	.type	32;	.endef
	.def	memcpy;	.scl	2;	.type	32;	.endef
	.def	_ZNSolsEPFRSt8ios_baseS0_E;	.scl	2;	.type	32;	.endef
	.def	_ZStlsIcSt11char_traitsIcEERSt13basic_ostreamIT_T0_ES6_St13_Setprecision;	.scl	2;	.type	32;	.endef
	.def	_ZStlsISt11char_traitsIcEERSt13basic_ostreamIcT_ES5_PKc;	.scl	2;	.type	32;	.endef
	.def	_ZStlsIcSt11char_traitsIcESaIcEERSt13basic_ostreamIT_T0_ES7_RKNSt7__cxx1112basic_stringIS4_S5_T1_EE;	.scl	2;	.type	32;	.endef
	.def	_ZNSolsEd;	.scl	2;	.type	32;	.endef
	.def	_ZSt24__throw_invalid_argumentPKc;	.scl	2;	.type	32;	.endef
	.def	_ZSt20__throw_out_of_rangePKc;	.scl	2;	.type	32;	.endef
	.def	_ZSt19__throw_logic_errorPKc;	.scl	2;	.type	32;	.endef
	.def	_ZNSt6chrono3_V212system_clock3nowEv;	.scl	2;	.type	32;	.endef
	.def	_ZSt20__throw_length_errorPKc;	.scl	2;	.type	32;	.endef
	.def	_ZdlPvy;	.scl	2;	.type	32;	.endef
	.def	_ZSt17__throw_bad_allocv;	.scl	2;	.type	32;	.endef
	.def	_Znwy;	.scl	2;	.type	32;	.endef
	.section	.rdata$.refptr._ZSt4cout, "dr"
	.p2align	3, 0
	.globl	.refptr._ZSt4cout
	.linkonce	discard
.refptr._ZSt4cout:
	.quad	_ZSt4cout
	.section	.rdata$.refptr.strtoul, "dr"
	.p2align	3, 0
	.globl	.refptr.strtoul
	.linkonce	discard
.refptr.strtoul:
	.quad	strtoul
	.section	.rdata$.refptr.strtol, "dr"
	.p2align	3, 0
	.globl	.refptr.strtol
	.linkonce	discard
.refptr.strtol:
	.quad	strtol
