	.file	"bench_hashmix.cpp"
	.text
	.section	.text._ZSt23__is_constant_evaluatedv,"axG",@progbits,_ZSt23__is_constant_evaluatedv,comdat
	.weak	_ZSt23__is_constant_evaluatedv
	.type	_ZSt23__is_constant_evaluatedv, @function
_ZSt23__is_constant_evaluatedv:
.LFB1:
	.cfi_startproc
	endbr64
	pushq	%rbp
	.cfi_def_cfa_offset 16
	.cfi_offset 6, -16
	movq	%rsp, %rbp
	.cfi_def_cfa_register 6
	movl	$0, %eax
	popq	%rbp
	.cfi_def_cfa 7, 8
	ret
	.cfi_endproc
.LFE1:
	.size	_ZSt23__is_constant_evaluatedv, .-_ZSt23__is_constant_evaluatedv
	.section	.text._ZnwmPv,"axG",@progbits,_ZnwmPv,comdat
	.weak	_ZnwmPv
	.type	_ZnwmPv, @function
_ZnwmPv:
.LFB40:
	.cfi_startproc
	endbr64
	pushq	%rbp
	.cfi_def_cfa_offset 16
	.cfi_offset 6, -16
	movq	%rsp, %rbp
	.cfi_def_cfa_register 6
	movq	%rdi, -8(%rbp)
	movq	%rsi, -16(%rbp)
	movq	-16(%rbp), %rax
	popq	%rbp
	.cfi_def_cfa 7, 8
	ret
	.cfi_endproc
.LFE40:
	.size	_ZnwmPv, .-_ZnwmPv
	.section	.text._ZNSt11char_traitsIcE6lengthEPKc,"axG",@progbits,_ZNSt11char_traitsIcE6lengthEPKc,comdat
	.weak	_ZNSt11char_traitsIcE6lengthEPKc
	.type	_ZNSt11char_traitsIcE6lengthEPKc, @function
_ZNSt11char_traitsIcE6lengthEPKc:
.LFB115:
	.cfi_startproc
	endbr64
	pushq	%rbp
	.cfi_def_cfa_offset 16
	.cfi_offset 6, -16
	movq	%rsp, %rbp
	.cfi_def_cfa_register 6
	subq	$16, %rsp
	movq	%rdi, -8(%rbp)
	call	_ZSt23__is_constant_evaluatedv
	testb	%al, %al
	je	.L6
	movq	-8(%rbp), %rax
	movq	%rax, %rdi
	call	_ZN9__gnu_cxx11char_traitsIcE6lengthEPKc
	jmp	.L7
.L6:
	movq	-8(%rbp), %rax
	movq	%rax, %rdi
	call	strlen@PLT
	nop
.L7:
	leave
	.cfi_def_cfa 7, 8
	ret
	.cfi_endproc
.LFE115:
	.size	_ZNSt11char_traitsIcE6lengthEPKc, .-_ZNSt11char_traitsIcE6lengthEPKc
	.section	.rodata
.LC0:
	.string	"stoull"
	.section	.text._ZNSt7__cxx116stoullERKNS_12basic_stringIcSt11char_traitsIcESaIcEEEPmi,"axG",@progbits,_ZNSt7__cxx116stoullERKNS_12basic_stringIcSt11char_traitsIcESaIcEEEPmi,comdat
	.weak	_ZNSt7__cxx116stoullERKNS_12basic_stringIcSt11char_traitsIcESaIcEEEPmi
	.type	_ZNSt7__cxx116stoullERKNS_12basic_stringIcSt11char_traitsIcESaIcEEEPmi, @function
_ZNSt7__cxx116stoullERKNS_12basic_stringIcSt11char_traitsIcESaIcEEEPmi:
.LFB1175:
	.cfi_startproc
	endbr64
	pushq	%rbp
	.cfi_def_cfa_offset 16
	.cfi_offset 6, -16
	movq	%rsp, %rbp
	.cfi_def_cfa_register 6
	subq	$32, %rsp
	movq	%rdi, -8(%rbp)
	movq	%rsi, -16(%rbp)
	movl	%edx, -20(%rbp)
	movq	-8(%rbp), %rax
	movq	%rax, %rdi
	call	_ZNKSt7__cxx1112basic_stringIcSt11char_traitsIcESaIcEE5c_strEv@PLT
	movq	%rax, %rdx
	movl	-20(%rbp), %ecx
	movq	-16(%rbp), %rax
	movl	%ecx, %r8d
	movq	%rax, %rcx
	leaq	.LC0(%rip), %rax
	movq	%rax, %rsi
	movq	__isoc23_strtoull@GOTPCREL(%rip), %rax
	movq	%rax, %rdi
	call	_ZN9__gnu_cxx6__stoaIyycJiEEET0_PFT_PKT1_PPS3_DpT2_EPKcS5_PmS9_
	leave
	.cfi_def_cfa 7, 8
	ret
	.cfi_endproc
.LFE1175:
	.size	_ZNSt7__cxx116stoullERKNS_12basic_stringIcSt11char_traitsIcESaIcEEEPmi, .-_ZNSt7__cxx116stoullERKNS_12basic_stringIcSt11char_traitsIcESaIcEEEPmi
	.section	.text._ZStanSt13_Ios_FmtflagsS_,"axG",@progbits,_ZStanSt13_Ios_FmtflagsS_,comdat
	.weak	_ZStanSt13_Ios_FmtflagsS_
	.type	_ZStanSt13_Ios_FmtflagsS_, @function
_ZStanSt13_Ios_FmtflagsS_:
.LFB1574:
	.cfi_startproc
	endbr64
	pushq	%rbp
	.cfi_def_cfa_offset 16
	.cfi_offset 6, -16
	movq	%rsp, %rbp
	.cfi_def_cfa_register 6
	movl	%edi, -4(%rbp)
	movl	%esi, -8(%rbp)
	movl	-4(%rbp), %eax
	andl	-8(%rbp), %eax
	popq	%rbp
	.cfi_def_cfa 7, 8
	ret
	.cfi_endproc
.LFE1574:
	.size	_ZStanSt13_Ios_FmtflagsS_, .-_ZStanSt13_Ios_FmtflagsS_
	.section	.text._ZStorSt13_Ios_FmtflagsS_,"axG",@progbits,_ZStorSt13_Ios_FmtflagsS_,comdat
	.weak	_ZStorSt13_Ios_FmtflagsS_
	.type	_ZStorSt13_Ios_FmtflagsS_, @function
_ZStorSt13_Ios_FmtflagsS_:
.LFB1575:
	.cfi_startproc
	endbr64
	pushq	%rbp
	.cfi_def_cfa_offset 16
	.cfi_offset 6, -16
	movq	%rsp, %rbp
	.cfi_def_cfa_register 6
	movl	%edi, -4(%rbp)
	movl	%esi, -8(%rbp)
	movl	-4(%rbp), %eax
	orl	-8(%rbp), %eax
	popq	%rbp
	.cfi_def_cfa 7, 8
	ret
	.cfi_endproc
.LFE1575:
	.size	_ZStorSt13_Ios_FmtflagsS_, .-_ZStorSt13_Ios_FmtflagsS_
	.section	.text._ZStcoSt13_Ios_Fmtflags,"axG",@progbits,_ZStcoSt13_Ios_Fmtflags,comdat
	.weak	_ZStcoSt13_Ios_Fmtflags
	.type	_ZStcoSt13_Ios_Fmtflags, @function
_ZStcoSt13_Ios_Fmtflags:
.LFB1577:
	.cfi_startproc
	endbr64
	pushq	%rbp
	.cfi_def_cfa_offset 16
	.cfi_offset 6, -16
	movq	%rsp, %rbp
	.cfi_def_cfa_register 6
	movl	%edi, -4(%rbp)
	movl	-4(%rbp), %eax
	notl	%eax
	popq	%rbp
	.cfi_def_cfa 7, 8
	ret
	.cfi_endproc
.LFE1577:
	.size	_ZStcoSt13_Ios_Fmtflags, .-_ZStcoSt13_Ios_Fmtflags
	.section	.text._ZStoRRSt13_Ios_FmtflagsS_,"axG",@progbits,_ZStoRRSt13_Ios_FmtflagsS_,comdat
	.weak	_ZStoRRSt13_Ios_FmtflagsS_
	.type	_ZStoRRSt13_Ios_FmtflagsS_, @function
_ZStoRRSt13_Ios_FmtflagsS_:
.LFB1578:
	.cfi_startproc
	endbr64
	pushq	%rbp
	.cfi_def_cfa_offset 16
	.cfi_offset 6, -16
	movq	%rsp, %rbp
	.cfi_def_cfa_register 6
	subq	$16, %rsp
	movq	%rdi, -8(%rbp)
	movl	%esi, -12(%rbp)
	movq	-8(%rbp), %rax
	movl	(%rax), %eax
	movl	-12(%rbp), %edx
	movl	%edx, %esi
	movl	%eax, %edi
	call	_ZStorSt13_Ios_FmtflagsS_
	movq	-8(%rbp), %rdx
	movl	%eax, (%rdx)
	movq	-8(%rbp), %rax
	leave
	.cfi_def_cfa 7, 8
	ret
	.cfi_endproc
.LFE1578:
	.size	_ZStoRRSt13_Ios_FmtflagsS_, .-_ZStoRRSt13_Ios_FmtflagsS_
	.section	.text._ZStaNRSt13_Ios_FmtflagsS_,"axG",@progbits,_ZStaNRSt13_Ios_FmtflagsS_,comdat
	.weak	_ZStaNRSt13_Ios_FmtflagsS_
	.type	_ZStaNRSt13_Ios_FmtflagsS_, @function
_ZStaNRSt13_Ios_FmtflagsS_:
.LFB1579:
	.cfi_startproc
	endbr64
	pushq	%rbp
	.cfi_def_cfa_offset 16
	.cfi_offset 6, -16
	movq	%rsp, %rbp
	.cfi_def_cfa_register 6
	subq	$16, %rsp
	movq	%rdi, -8(%rbp)
	movl	%esi, -12(%rbp)
	movq	-8(%rbp), %rax
	movl	(%rax), %eax
	movl	-12(%rbp), %edx
	movl	%edx, %esi
	movl	%eax, %edi
	call	_ZStanSt13_Ios_FmtflagsS_
	movq	-8(%rbp), %rdx
	movl	%eax, (%rdx)
	movq	-8(%rbp), %rax
	leave
	.cfi_def_cfa 7, 8
	ret
	.cfi_endproc
.LFE1579:
	.size	_ZStaNRSt13_Ios_FmtflagsS_, .-_ZStaNRSt13_Ios_FmtflagsS_
	.section	.text._ZNSt8ios_base4setfESt13_Ios_FmtflagsS0_,"axG",@progbits,_ZNSt8ios_base4setfESt13_Ios_FmtflagsS0_,comdat
	.align 2
	.weak	_ZNSt8ios_base4setfESt13_Ios_FmtflagsS0_
	.type	_ZNSt8ios_base4setfESt13_Ios_FmtflagsS0_, @function
_ZNSt8ios_base4setfESt13_Ios_FmtflagsS0_:
.LFB1608:
	.cfi_startproc
	endbr64
	pushq	%rbp
	.cfi_def_cfa_offset 16
	.cfi_offset 6, -16
	movq	%rsp, %rbp
	.cfi_def_cfa_register 6
	subq	$32, %rsp
	movq	%rdi, -24(%rbp)
	movl	%esi, -28(%rbp)
	movl	%edx, -32(%rbp)
	movq	-24(%rbp), %rax
	movl	24(%rax), %eax
	movl	%eax, -4(%rbp)
	movl	-32(%rbp), %eax
	movl	%eax, %edi
	call	_ZStcoSt13_Ios_Fmtflags
	movl	%eax, %edx
	movq	-24(%rbp), %rax
	addq	$24, %rax
	movl	%edx, %esi
	movq	%rax, %rdi
	call	_ZStaNRSt13_Ios_FmtflagsS_
	movl	-32(%rbp), %edx
	movl	-28(%rbp), %eax
	movl	%edx, %esi
	movl	%eax, %edi
	call	_ZStanSt13_Ios_FmtflagsS_
	movl	%eax, %edx
	movq	-24(%rbp), %rax
	addq	$24, %rax
	movl	%edx, %esi
	movq	%rax, %rdi
	call	_ZStoRRSt13_Ios_FmtflagsS_
	movl	-4(%rbp), %eax
	leave
	.cfi_def_cfa 7, 8
	ret
	.cfi_endproc
.LFE1608:
	.size	_ZNSt8ios_base4setfESt13_Ios_FmtflagsS0_, .-_ZNSt8ios_base4setfESt13_Ios_FmtflagsS0_
	.section	.text._ZSt3decRSt8ios_base,"axG",@progbits,_ZSt3decRSt8ios_base,comdat
	.weak	_ZSt3decRSt8ios_base
	.type	_ZSt3decRSt8ios_base, @function
_ZSt3decRSt8ios_base:
.LFB1635:
	.cfi_startproc
	endbr64
	pushq	%rbp
	.cfi_def_cfa_offset 16
	.cfi_offset 6, -16
	movq	%rsp, %rbp
	.cfi_def_cfa_register 6
	subq	$16, %rsp
	movq	%rdi, -8(%rbp)
	movq	-8(%rbp), %rax
	movl	$74, %edx
	movl	$2, %esi
	movq	%rax, %rdi
	call	_ZNSt8ios_base4setfESt13_Ios_FmtflagsS0_
	movq	-8(%rbp), %rax
	leave
	.cfi_def_cfa 7, 8
	ret
	.cfi_endproc
.LFE1635:
	.size	_ZSt3decRSt8ios_base, .-_ZSt3decRSt8ios_base
	.section	.text._ZSt3hexRSt8ios_base,"axG",@progbits,_ZSt3hexRSt8ios_base,comdat
	.weak	_ZSt3hexRSt8ios_base
	.type	_ZSt3hexRSt8ios_base, @function
_ZSt3hexRSt8ios_base:
.LFB1636:
	.cfi_startproc
	endbr64
	pushq	%rbp
	.cfi_def_cfa_offset 16
	.cfi_offset 6, -16
	movq	%rsp, %rbp
	.cfi_def_cfa_register 6
	subq	$16, %rsp
	movq	%rdi, -8(%rbp)
	movq	-8(%rbp), %rax
	movl	$74, %edx
	movl	$8, %esi
	movq	%rax, %rdi
	call	_ZNSt8ios_base4setfESt13_Ios_FmtflagsS0_
	movq	-8(%rbp), %rax
	leave
	.cfi_def_cfa 7, 8
	ret
	.cfi_endproc
.LFE1636:
	.size	_ZSt3hexRSt8ios_base, .-_ZSt3hexRSt8ios_base
	.section	.text._ZSt5fixedRSt8ios_base,"axG",@progbits,_ZSt5fixedRSt8ios_base,comdat
	.weak	_ZSt5fixedRSt8ios_base
	.type	_ZSt5fixedRSt8ios_base, @function
_ZSt5fixedRSt8ios_base:
.LFB1638:
	.cfi_startproc
	endbr64
	pushq	%rbp
	.cfi_def_cfa_offset 16
	.cfi_offset 6, -16
	movq	%rsp, %rbp
	.cfi_def_cfa_register 6
	subq	$16, %rsp
	movq	%rdi, -8(%rbp)
	movq	-8(%rbp), %rax
	movl	$260, %edx
	movl	$4, %esi
	movq	%rax, %rdi
	call	_ZNSt8ios_base4setfESt13_Ios_FmtflagsS0_
	movq	-8(%rbp), %rax
	leave
	.cfi_def_cfa 7, 8
	ret
	.cfi_endproc
.LFE1638:
	.size	_ZSt5fixedRSt8ios_base, .-_ZSt5fixedRSt8ios_base
#APP
	.globl _ZSt21ios_base_library_initv
#NO_APP
	.section	.text._ZNSt6chrono8durationIlSt5ratioILl1ELl1000000000EEEC1IlvEERKT_,"axG",@progbits,_ZNSt6chrono8durationIlSt5ratioILl1ELl1000000000EEEC1IlvEERKT_,comdat
	.align 2
	.weak	_ZNSt6chrono8durationIlSt5ratioILl1ELl1000000000EEEC1IlvEERKT_
	.type	_ZNSt6chrono8durationIlSt5ratioILl1ELl1000000000EEEC1IlvEERKT_, @function
_ZNSt6chrono8durationIlSt5ratioILl1ELl1000000000EEEC1IlvEERKT_:
.LFB2251:
	.cfi_startproc
	endbr64
	pushq	%rbp
	.cfi_def_cfa_offset 16
	.cfi_offset 6, -16
	movq	%rsp, %rbp
	.cfi_def_cfa_register 6
	movq	%rdi, -8(%rbp)
	movq	%rsi, -16(%rbp)
	movq	-16(%rbp), %rax
	movq	(%rax), %rdx
	movq	-8(%rbp), %rax
	movq	%rdx, (%rax)
	nop
	popq	%rbp
	.cfi_def_cfa 7, 8
	ret
	.cfi_endproc
.LFE2251:
	.size	_ZNSt6chrono8durationIlSt5ratioILl1ELl1000000000EEEC1IlvEERKT_, .-_ZNSt6chrono8durationIlSt5ratioILl1ELl1000000000EEEC1IlvEERKT_
	.section	.text._ZNKSt6chrono8durationIlSt5ratioILl1ELl1000000000EEE5countEv,"axG",@progbits,_ZNKSt6chrono8durationIlSt5ratioILl1ELl1000000000EEE5countEv,comdat
	.align 2
	.weak	_ZNKSt6chrono8durationIlSt5ratioILl1ELl1000000000EEE5countEv
	.type	_ZNKSt6chrono8durationIlSt5ratioILl1ELl1000000000EEE5countEv, @function
_ZNKSt6chrono8durationIlSt5ratioILl1ELl1000000000EEE5countEv:
.LFB2253:
	.cfi_startproc
	endbr64
	pushq	%rbp
	.cfi_def_cfa_offset 16
	.cfi_offset 6, -16
	movq	%rsp, %rbp
	.cfi_def_cfa_register 6
	movq	%rdi, -8(%rbp)
	movq	-8(%rbp), %rax
	movq	(%rax), %rax
	popq	%rbp
	.cfi_def_cfa 7, 8
	ret
	.cfi_endproc
.LFE2253:
	.size	_ZNKSt6chrono8durationIlSt5ratioILl1ELl1000000000EEE5countEv, .-_ZNKSt6chrono8durationIlSt5ratioILl1ELl1000000000EEE5countEv
	.section	.text._ZSt12setprecisioni,"axG",@progbits,_ZSt12setprecisioni,comdat
	.weak	_ZSt12setprecisioni
	.type	_ZSt12setprecisioni, @function
_ZSt12setprecisioni:
.LFB2538:
	.cfi_startproc
	endbr64
	pushq	%rbp
	.cfi_def_cfa_offset 16
	.cfi_offset 6, -16
	movq	%rsp, %rbp
	.cfi_def_cfa_register 6
	movl	%edi, -4(%rbp)
	movl	-4(%rbp), %eax
	popq	%rbp
	.cfi_def_cfa 7, 8
	ret
	.cfi_endproc
.LFE2538:
	.size	_ZSt12setprecisioni, .-_ZSt12setprecisioni
	.text
	.type	_ZL15hashmix_classicmmmm, @function
_ZL15hashmix_classicmmmm:
.LFB3009:
	.cfi_startproc
	endbr64
	pushq	%rbp
	.cfi_def_cfa_offset 16
	.cfi_offset 6, -16
	movq	%rsp, %rbp
	.cfi_def_cfa_register 6
	movq	%rdi, -8(%rbp)
	movq	%rsi, -16(%rbp)
	movq	%rdx, -24(%rbp)
	movq	%rcx, -32(%rbp)
	movq	-8(%rbp), %rax
	imulq	-16(%rbp), %rax
	movq	%rax, %rdx
	movq	-24(%rbp), %rax
	addq	%rdx, %rax
	movl	$0, %edx
	divq	-32(%rbp)
	movq	%rdx, %rax
	popq	%rbp
	.cfi_def_cfa 7, 8
	ret
	.cfi_endproc
.LFE3009:
	.size	_ZL15hashmix_classicmmmm, .-_ZL15hashmix_classicmmmm
	.type	_ZL13hashmix_reistllll, @function
_ZL13hashmix_reistllll:
.LFB3010:
	.cfi_startproc
	endbr64
	pushq	%rbp
	.cfi_def_cfa_offset 16
	.cfi_offset 6, -16
	movq	%rsp, %rbp
	.cfi_def_cfa_register 6
	movq	%rdi, -56(%rbp)
	movq	%rsi, -64(%rbp)
	movq	%rdx, -72(%rbp)
	movq	%rcx, -80(%rbp)
	movq	-80(%rbp), %rax
	movq	%rax, -48(%rbp)
	movq	-48(%rbp), %rax
	movq	%rax, %rdx
	shrq	$63, %rdx
	addq	%rdx, %rax
	sarq	%rax
	movq	%rax, -40(%rbp)
	movq	-40(%rbp), %rax
	negq	%rax
	movq	%rax, -32(%rbp)
	movq	-56(%rbp), %rax
	imulq	-64(%rbp), %rax
	movq	%rax, %rdx
	movq	-72(%rbp), %rax
	addq	%rdx, %rax
	movq	%rax, -24(%rbp)
	movq	-24(%rbp), %rax
	cqto
	idivq	-48(%rbp)
	movq	%rdx, -24(%rbp)
	movq	-24(%rbp), %rax
	cmpq	-40(%rbp), %rax
	setg	%al
	movzbl	%al, %eax
	movq	%rax, -16(%rbp)
	movq	-24(%rbp), %rax
	cmpq	-32(%rbp), %rax
	setle	%al
	movzbl	%al, %eax
	movq	%rax, -8(%rbp)
	movq	-16(%rbp), %rax
	imulq	-48(%rbp), %rax
	subq	%rax, -24(%rbp)
	movq	-8(%rbp), %rax
	imulq	-48(%rbp), %rax
	addq	%rax, -24(%rbp)
	movq	-24(%rbp), %rax
	popq	%rbp
	.cfi_def_cfa 7, 8
	ret
	.cfi_endproc
.LFE3010:
	.size	_ZL13hashmix_reistllll, .-_ZL13hashmix_reistllll
	.section	.text._ZNSt12_Vector_baseImSaImEE12_Vector_implD2Ev,"axG",@progbits,_ZNSt12_Vector_baseImSaImEE12_Vector_implD5Ev,comdat
	.align 2
	.weak	_ZNSt12_Vector_baseImSaImEE12_Vector_implD2Ev
	.type	_ZNSt12_Vector_baseImSaImEE12_Vector_implD2Ev, @function
_ZNSt12_Vector_baseImSaImEE12_Vector_implD2Ev:
.LFB3017:
	.cfi_startproc
	endbr64
	pushq	%rbp
	.cfi_def_cfa_offset 16
	.cfi_offset 6, -16
	movq	%rsp, %rbp
	.cfi_def_cfa_register 6
	subq	$32, %rsp
	movq	%rdi, -24(%rbp)
	movq	-24(%rbp), %rax
	movq	%rax, -8(%rbp)
	movq	-8(%rbp), %rax
	movq	%rax, %rdi
	call	_ZNSt15__new_allocatorImED2Ev
	nop
	nop
	leave
	.cfi_def_cfa 7, 8
	ret
	.cfi_endproc
.LFE3017:
	.size	_ZNSt12_Vector_baseImSaImEE12_Vector_implD2Ev, .-_ZNSt12_Vector_baseImSaImEE12_Vector_implD2Ev
	.weak	_ZNSt12_Vector_baseImSaImEE12_Vector_implD1Ev
	.set	_ZNSt12_Vector_baseImSaImEE12_Vector_implD1Ev,_ZNSt12_Vector_baseImSaImEE12_Vector_implD2Ev
	.section	.text._ZNSt12_Vector_baseImSaImEEC2Ev,"axG",@progbits,_ZNSt12_Vector_baseImSaImEEC5Ev,comdat
	.align 2
	.weak	_ZNSt12_Vector_baseImSaImEEC2Ev
	.type	_ZNSt12_Vector_baseImSaImEEC2Ev, @function
_ZNSt12_Vector_baseImSaImEEC2Ev:
.LFB3019:
	.cfi_startproc
	endbr64
	pushq	%rbp
	.cfi_def_cfa_offset 16
	.cfi_offset 6, -16
	movq	%rsp, %rbp
	.cfi_def_cfa_register 6
	subq	$16, %rsp
	movq	%rdi, -8(%rbp)
	movq	-8(%rbp), %rax
	movq	%rax, %rdi
	call	_ZNSt12_Vector_baseImSaImEE12_Vector_implC1Ev
	nop
	leave
	.cfi_def_cfa 7, 8
	ret
	.cfi_endproc
.LFE3019:
	.size	_ZNSt12_Vector_baseImSaImEEC2Ev, .-_ZNSt12_Vector_baseImSaImEEC2Ev
	.weak	_ZNSt12_Vector_baseImSaImEEC1Ev
	.set	_ZNSt12_Vector_baseImSaImEEC1Ev,_ZNSt12_Vector_baseImSaImEEC2Ev
	.section	.text._ZNSt6vectorImSaImEEC2Ev,"axG",@progbits,_ZNSt6vectorImSaImEEC5Ev,comdat
	.align 2
	.weak	_ZNSt6vectorImSaImEEC2Ev
	.type	_ZNSt6vectorImSaImEEC2Ev, @function
_ZNSt6vectorImSaImEEC2Ev:
.LFB3021:
	.cfi_startproc
	endbr64
	pushq	%rbp
	.cfi_def_cfa_offset 16
	.cfi_offset 6, -16
	movq	%rsp, %rbp
	.cfi_def_cfa_register 6
	subq	$16, %rsp
	movq	%rdi, -8(%rbp)
	movq	-8(%rbp), %rax
	movq	%rax, %rdi
	call	_ZNSt12_Vector_baseImSaImEEC2Ev
	nop
	leave
	.cfi_def_cfa 7, 8
	ret
	.cfi_endproc
.LFE3021:
	.size	_ZNSt6vectorImSaImEEC2Ev, .-_ZNSt6vectorImSaImEEC2Ev
	.weak	_ZNSt6vectorImSaImEEC1Ev
	.set	_ZNSt6vectorImSaImEEC1Ev,_ZNSt6vectorImSaImEEC2Ev
	.text
	.align 2
	.type	_ZZ4mainENKUlmE_clEm, @function
_ZZ4mainENKUlmE_clEm:
.LFB3027:
	.cfi_startproc
	pushq	%rbp
	.cfi_def_cfa_offset 16
	.cfi_offset 6, -16
	movq	%rsp, %rbp
	.cfi_def_cfa_register 6
	pushq	%rbx
	subq	$32, %rsp
	.cfi_offset 3, -24
	movq	%rdi, -32(%rbp)
	movq	%rsi, -40(%rbp)
	movq	$0, -16(%rbp)
	jmp	.L41
.L42:
	movq	-32(%rbp), %rax
	movq	24(%rax), %rax
	movq	(%rax), %rcx
	movq	-32(%rbp), %rax
	movq	16(%rax), %rax
	movq	(%rax), %rdx
	movq	-32(%rbp), %rax
	movq	8(%rax), %rax
	movq	(%rax), %rsi
	movq	-32(%rbp), %rax
	movq	(%rax), %rax
	movq	(%rax), %rax
	movq	-32(%rbp), %rdi
	movq	(%rdi), %rbx
	movq	%rax, %rdi
	call	_ZL15hashmix_classicmmmm
	movq	%rax, (%rbx)
	addq	$1, -16(%rbp)
.L41:
	movq	-16(%rbp), %rax
	cmpq	-40(%rbp), %rax
	jb	.L42
	nop
	nop
	movq	-8(%rbp), %rbx
	leave
	.cfi_def_cfa 7, 8
	ret
	.cfi_endproc
.LFE3027:
	.size	_ZZ4mainENKUlmE_clEm, .-_ZZ4mainENKUlmE_clEm
	.align 2
	.type	_ZZ4mainENKUlmE0_clEm, @function
_ZZ4mainENKUlmE0_clEm:
.LFB3028:
	.cfi_startproc
	pushq	%rbp
	.cfi_def_cfa_offset 16
	.cfi_offset 6, -16
	movq	%rsp, %rbp
	.cfi_def_cfa_register 6
	pushq	%rbx
	subq	$32, %rsp
	.cfi_offset 3, -24
	movq	%rdi, -32(%rbp)
	movq	%rsi, -40(%rbp)
	movq	$0, -16(%rbp)
	jmp	.L44
.L45:
	movq	-32(%rbp), %rax
	movq	24(%rax), %rax
	movq	(%rax), %rax
	movq	%rax, %rcx
	movq	-32(%rbp), %rax
	movq	16(%rax), %rax
	movq	(%rax), %rax
	movq	%rax, %rdi
	movq	-32(%rbp), %rax
	movq	8(%rax), %rax
	movq	(%rax), %rax
	movq	%rax, %rsi
	movq	-32(%rbp), %rax
	movq	(%rax), %rax
	movq	(%rax), %rax
	movq	-32(%rbp), %rdx
	movq	(%rdx), %rbx
	movq	%rdi, %rdx
	movq	%rax, %rdi
	call	_ZL13hashmix_reistllll
	movq	%rax, (%rbx)
	addq	$1, -16(%rbp)
.L44:
	movq	-16(%rbp), %rax
	cmpq	-40(%rbp), %rax
	jb	.L45
	nop
	nop
	movq	-8(%rbp), %rbx
	leave
	.cfi_def_cfa 7, 8
	ret
	.cfi_endproc
.LFE3028:
	.size	_ZZ4mainENKUlmE0_clEm, .-_ZZ4mainENKUlmE0_clEm
	.section	.rodata
.LC1:
	.string	"/proc/cpuinfo"
.LC2:
	.string	"model name"
.LC3:
	.string	":"
.LC4:
	.string	"cpu MHz"
.LC5:
	.string	"/proc/meminfo"
.LC6:
	.string	"MemTotal"
.LC7:
	.string	"r"
.LC8:
	.string	"uname -o"
	.align 8
.LC9:
	.string	"========================================\n"
	.align 8
.LC10:
	.string	"Hashmix benchmark (classic % vs REIST reduction)\n"
.LC11:
	.string	"System Information:\n"
.LC12:
	.string	"  Hostname: "
.LC13:
	.string	"\n"
.LC14:
	.string	"  OS: "
.LC15:
	.string	"  CPU Model: "
.LC16:
	.string	"  CPU MHz: "
.LC17:
	.string	"  Memory: "
	.align 8
.LC18:
	.string	"========================================\n\n"
.LC19:
	.string	"Iterations N = "
.LC20:
	.string	"M = "
.LC21:
	.string	""
.LC22:
	.string	"  classic : "
.LC23:
	.string	"  REIST   : "
.LC25:
	.string	"  speedup : "
.LC26:
	.string	"x (classic / REIST)"
.LC27:
	.string	"  sink values: "
.LC28:
	.string	" / "
	.text
	.globl	main
	.type	main, @function
main:
.LFB3012:
	.cfi_startproc
	.cfi_personality 0x9b,DW.ref.__gxx_personality_v0
	.cfi_lsda 0x1b,.LLSDA3012
	endbr64
	pushq	%rbp
	.cfi_def_cfa_offset 16
	.cfi_offset 6, -16
	movq	%rsp, %rbp
	.cfi_def_cfa_register 6
	pushq	%r13
	pushq	%r12
	pushq	%rbx
	subq	$1368, %rsp
	.cfi_offset 13, -24
	.cfi_offset 12, -32
	.cfi_offset 3, -40
	movl	%edi, -1380(%rbp)
	movq	%rsi, -1392(%rbp)
	movq	%fs:40, %rax
	movq	%rax, -40(%rbp)
	xorl	%eax, %eax
	movq	$100000000, -1320(%rbp)
	leaq	-1248(%rbp), %rax
	movq	%rax, %rdi
	call	_ZNSt6vectorImSaImEEC1Ev
	movabsq	$6364136223846793005, %rax
	movq	%rax, -1376(%rbp)
	movabsq	$1442695040888963407, %rax
	movq	%rax, -1368(%rbp)
	cmpl	$1, -1380(%rbp)
	jle	.L47
	leaq	-1216(%rbp), %rax
	movq	%rax, -1280(%rbp)
	nop
	nop
	movq	-1392(%rbp), %rax
	addq	$8, %rax
	movq	(%rax), %rcx
	leaq	-1216(%rbp), %rdx
	leaq	-960(%rbp), %rax
	movq	%rcx, %rsi
	movq	%rax, %rdi
.LEHB0:
	call	_ZNSt7__cxx1112basic_stringIcSt11char_traitsIcESaIcEEC1IS3_EEPKcRKS3_
.LEHE0:
	leaq	-960(%rbp), %rax
	movl	$10, %edx
	movl	$0, %esi
	movq	%rax, %rdi
.LEHB1:
	call	_ZNSt7__cxx116stoullERKNS_12basic_stringIcSt11char_traitsIcESaIcEEEPmi
.LEHE1:
	movq	%rax, -1320(%rbp)
	leaq	-960(%rbp), %rax
	movq	%rax, %rdi
	call	_ZNSt7__cxx1112basic_stringIcSt11char_traitsIcESaIcEED1Ev@PLT
	leaq	-1216(%rbp), %rax
	movq	%rax, %rdi
	call	_ZNSt15__new_allocatorIcED2Ev
	nop
.L47:
	cmpl	$2, -1380(%rbp)
	jle	.L48
	leaq	-1216(%rbp), %rax
	movq	%rax, -1272(%rbp)
	nop
	nop
	movq	-1392(%rbp), %rax
	addq	$16, %rax
	movq	(%rax), %rcx
	leaq	-1216(%rbp), %rdx
	leaq	-960(%rbp), %rax
	movq	%rcx, %rsi
	movq	%rax, %rdi
.LEHB2:
	call	_ZNSt7__cxx1112basic_stringIcSt11char_traitsIcESaIcEEC1IS3_EEPKcRKS3_
.LEHE2:
	leaq	-960(%rbp), %rax
	movl	$10, %edx
	movl	$0, %esi
	movq	%rax, %rdi
.LEHB3:
	call	_ZNSt7__cxx116stoullERKNS_12basic_stringIcSt11char_traitsIcESaIcEEEPmi
.LEHE3:
	movq	%rax, -1368(%rbp)
	leaq	-960(%rbp), %rax
	movq	%rax, %rdi
	call	_ZNSt7__cxx1112basic_stringIcSt11char_traitsIcESaIcEED1Ev@PLT
	leaq	-1216(%rbp), %rax
	movq	%rax, %rdi
	call	_ZNSt15__new_allocatorIcED2Ev
	nop
.L48:
	cmpl	$3, -1380(%rbp)
	jle	.L49
	leaq	-1328(%rbp), %rax
	movq	%rax, -1264(%rbp)
	nop
	nop
	movq	-1392(%rbp), %rax
	addq	$24, %rax
	movq	(%rax), %rcx
	leaq	-1328(%rbp), %rdx
	leaq	-960(%rbp), %rax
	movq	%rcx, %rsi
	movq	%rax, %rdi
.LEHB4:
	call	_ZNSt7__cxx1112basic_stringIcSt11char_traitsIcESaIcEEC1IS3_EEPKcRKS3_
.LEHE4:
	leaq	-960(%rbp), %rax
	movl	$10, %edx
	movl	$0, %esi
	movq	%rax, %rdi
.LEHB5:
	call	_ZNSt7__cxx116stoullERKNS_12basic_stringIcSt11char_traitsIcESaIcEEEPmi
	movq	%rax, -1216(%rbp)
	leaq	-1216(%rbp), %rdx
	leaq	-1248(%rbp), %rax
	movq	%rdx, %rsi
	movq	%rax, %rdi
	call	_ZNSt6vectorImSaImEE9push_backEOm
.LEHE5:
	leaq	-960(%rbp), %rax
	movq	%rax, %rdi
	call	_ZNSt7__cxx1112basic_stringIcSt11char_traitsIcESaIcEED1Ev@PLT
	leaq	-1328(%rbp), %rax
	movq	%rax, %rdi
	call	_ZNSt15__new_allocatorIcED2Ev
	jmp	.L50
.L49:
	movq	$1000003, -960(%rbp)
	movq	$10000019, -952(%rbp)
	movq	$100000007, -944(%rbp)
	movq	$1000000007, -936(%rbp)
	leaq	-960(%rbp), %rax
	movq	%rax, %r12
	movl	$4, %r13d
	movq	%r12, %rcx
	movq	%r13, %rbx
	movq	%r12, %rax
	movq	%r13, %rdx
	leaq	-1248(%rbp), %rax
	movq	%rcx, %rsi
	movq	%rax, %rdi
.LEHB6:
	call	_ZNSt6vectorImSaImEEaSESt16initializer_listImE
.LEHE6:
.L50:
	leaq	-1184(%rbp), %rax
	movq	%rax, %rdi
	call	_ZNSt7__cxx1112basic_stringIcSt11char_traitsIcESaIcEEC1Ev@PLT
	leaq	-1152(%rbp), %rax
	movq	%rax, %rdi
	call	_ZNSt7__cxx1112basic_stringIcSt11char_traitsIcESaIcEEC1Ev@PLT
	leaq	-1120(%rbp), %rax
	movq	%rax, %rdi
	call	_ZNSt7__cxx1112basic_stringIcSt11char_traitsIcESaIcEEC1Ev@PLT
	leaq	-1088(%rbp), %rax
	movq	%rax, %rdi
	call	_ZNSt7__cxx1112basic_stringIcSt11char_traitsIcESaIcEEC1Ev@PLT
	leaq	-1056(%rbp), %rax
	movq	%rax, %rdi
	call	_ZNSt7__cxx1112basic_stringIcSt11char_traitsIcESaIcEEC1Ev@PLT
	leaq	-960(%rbp), %rax
	movl	$8, %edx
	leaq	.LC1(%rip), %rcx
	movq	%rcx, %rsi
	movq	%rax, %rdi
.LEHB7:
	call	_ZNSt14basic_ifstreamIcSt11char_traitsIcEEC1EPKcSt13_Ios_Openmode@PLT
.LEHE7:
	leaq	-1024(%rbp), %rax
	movq	%rax, %rdi
	call	_ZNSt7__cxx1112basic_stringIcSt11char_traitsIcESaIcEEC1Ev@PLT
	jmp	.L53
.L54:
	leaq	-1024(%rbp), %rax
	movl	$0, %edx
	leaq	.LC2(%rip), %rcx
	movq	%rcx, %rsi
	movq	%rax, %rdi
	call	_ZNKSt7__cxx1112basic_stringIcSt11char_traitsIcESaIcEE4findEPKcm@PLT
	cmpq	$-1, %rax
	setne	%al
	testb	%al, %al
	je	.L52
	leaq	-1024(%rbp), %rax
	movl	$0, %edx
	leaq	.LC3(%rip), %rcx
	movq	%rcx, %rsi
	movq	%rax, %rdi
	call	_ZNKSt7__cxx1112basic_stringIcSt11char_traitsIcESaIcEE4findEPKcm@PLT
	leaq	2(%rax), %rdx
	leaq	-992(%rbp), %rax
	leaq	-1024(%rbp), %rsi
	movq	$-1, %rcx
	movq	%rax, %rdi
.LEHB8:
	call	_ZNKSt7__cxx1112basic_stringIcSt11char_traitsIcESaIcEE6substrEmm@PLT
	leaq	-992(%rbp), %rdx
	leaq	-1184(%rbp), %rax
	movq	%rdx, %rsi
	movq	%rax, %rdi
	call	_ZNSt7__cxx1112basic_stringIcSt11char_traitsIcESaIcEEaSEOS4_@PLT
	leaq	-992(%rbp), %rax
	movq	%rax, %rdi
	call	_ZNSt7__cxx1112basic_stringIcSt11char_traitsIcESaIcEED1Ev@PLT
.L52:
	leaq	-1024(%rbp), %rax
	movl	$0, %edx
	leaq	.LC4(%rip), %rcx
	movq	%rcx, %rsi
	movq	%rax, %rdi
	call	_ZNKSt7__cxx1112basic_stringIcSt11char_traitsIcESaIcEE4findEPKcm@PLT
	cmpq	$-1, %rax
	setne	%al
	testb	%al, %al
	je	.L53
	leaq	-1024(%rbp), %rax
	movl	$0, %edx
	leaq	.LC3(%rip), %rcx
	movq	%rcx, %rsi
	movq	%rax, %rdi
	call	_ZNKSt7__cxx1112basic_stringIcSt11char_traitsIcESaIcEE4findEPKcm@PLT
	leaq	2(%rax), %rdx
	leaq	-992(%rbp), %rax
	leaq	-1024(%rbp), %rsi
	movq	$-1, %rcx
	movq	%rax, %rdi
	call	_ZNKSt7__cxx1112basic_stringIcSt11char_traitsIcESaIcEE6substrEmm@PLT
	leaq	-992(%rbp), %rdx
	leaq	-1152(%rbp), %rax
	movq	%rdx, %rsi
	movq	%rax, %rdi
	call	_ZNSt7__cxx1112basic_stringIcSt11char_traitsIcESaIcEEaSEOS4_@PLT
	leaq	-992(%rbp), %rax
	movq	%rax, %rdi
	call	_ZNSt7__cxx1112basic_stringIcSt11char_traitsIcESaIcEED1Ev@PLT
.L53:
	leaq	-1024(%rbp), %rdx
	leaq	-960(%rbp), %rax
	movq	%rdx, %rsi
	movq	%rax, %rdi
	call	_ZSt7getlineIcSt11char_traitsIcESaIcEERSt13basic_istreamIT_T0_ES7_RNSt7__cxx1112basic_stringIS4_S5_T1_EE@PLT
	movq	(%rax), %rdx
	subq	$24, %rdx
	movq	(%rdx), %rdx
	addq	%rdx, %rax
	movq	%rax, %rdi
	call	_ZNKSt9basic_iosIcSt11char_traitsIcEEcvbEv@PLT
.LEHE8:
	testb	%al, %al
	jne	.L54
	leaq	-1024(%rbp), %rax
	movq	%rax, %rdi
	call	_ZNSt7__cxx1112basic_stringIcSt11char_traitsIcESaIcEED1Ev@PLT
	leaq	-960(%rbp), %rax
	movq	%rax, %rdi
	call	_ZNSt14basic_ifstreamIcSt11char_traitsIcEED1Ev@PLT
	leaq	-960(%rbp), %rax
	movl	$8, %edx
	leaq	.LC5(%rip), %rcx
	movq	%rcx, %rsi
	movq	%rax, %rdi
.LEHB9:
	call	_ZNSt14basic_ifstreamIcSt11char_traitsIcEEC1EPKcSt13_Ios_Openmode@PLT
.LEHE9:
	leaq	-1024(%rbp), %rax
	movq	%rax, %rdi
	call	_ZNSt7__cxx1112basic_stringIcSt11char_traitsIcESaIcEEC1Ev@PLT
	leaq	-1024(%rbp), %rdx
	leaq	-960(%rbp), %rax
	movq	%rdx, %rsi
	movq	%rax, %rdi
.LEHB10:
	call	_ZSt7getlineIcSt11char_traitsIcESaIcEERSt13basic_istreamIT_T0_ES7_RNSt7__cxx1112basic_stringIS4_S5_T1_EE@PLT
	movq	(%rax), %rdx
	subq	$24, %rdx
	movq	(%rdx), %rdx
	addq	%rdx, %rax
	movq	%rax, %rdi
	call	_ZNKSt9basic_iosIcSt11char_traitsIcEEcvbEv@PLT
	testb	%al, %al
	je	.L55
	leaq	-1024(%rbp), %rax
	movl	$0, %edx
	leaq	.LC6(%rip), %rcx
	movq	%rcx, %rsi
	movq	%rax, %rdi
	call	_ZNKSt7__cxx1112basic_stringIcSt11char_traitsIcESaIcEE4findEPKcm@PLT
	cmpq	$-1, %rax
	setne	%al
	testb	%al, %al
	je	.L55
	leaq	-1024(%rbp), %rax
	movl	$0, %edx
	leaq	.LC3(%rip), %rcx
	movq	%rcx, %rsi
	movq	%rax, %rdi
	call	_ZNKSt7__cxx1112basic_stringIcSt11char_traitsIcESaIcEE4findEPKcm@PLT
	leaq	2(%rax), %rdx
	leaq	-992(%rbp), %rax
	leaq	-1024(%rbp), %rsi
	movq	$-1, %rcx
	movq	%rax, %rdi
	call	_ZNKSt7__cxx1112basic_stringIcSt11char_traitsIcESaIcEE6substrEmm@PLT
.LEHE10:
	leaq	-992(%rbp), %rdx
	leaq	-1120(%rbp), %rax
	movq	%rdx, %rsi
	movq	%rax, %rdi
	call	_ZNSt7__cxx1112basic_stringIcSt11char_traitsIcESaIcEEaSEOS4_@PLT
	leaq	-992(%rbp), %rax
	movq	%rax, %rdi
	call	_ZNSt7__cxx1112basic_stringIcSt11char_traitsIcESaIcEED1Ev@PLT
.L55:
	leaq	-1024(%rbp), %rax
	movq	%rax, %rdi
	call	_ZNSt7__cxx1112basic_stringIcSt11char_traitsIcESaIcEED1Ev@PLT
	leaq	-960(%rbp), %rax
	movq	%rax, %rdi
	call	_ZNSt14basic_ifstreamIcSt11char_traitsIcEED1Ev@PLT
	leaq	-304(%rbp), %rax
	movl	$256, %esi
	movq	%rax, %rdi
	call	gethostname@PLT
	testl	%eax, %eax
	sete	%al
	testb	%al, %al
	je	.L56
	leaq	-304(%rbp), %rdx
	leaq	-1088(%rbp), %rax
	movq	%rdx, %rsi
	movq	%rax, %rdi
.LEHB11:
	call	_ZNSt7__cxx1112basic_stringIcSt11char_traitsIcESaIcEEaSEPKc@PLT
.L56:
	leaq	.LC7(%rip), %rax
	movq	%rax, %rsi
	leaq	.LC8(%rip), %rax
	movq	%rax, %rdi
	call	popen@PLT
	movq	%rax, -1312(%rbp)
	cmpq	$0, -1312(%rbp)
	je	.L57
	movq	-1312(%rbp), %rdx
	leaq	-432(%rbp), %rax
	movl	$128, %esi
	movq	%rax, %rdi
	call	fgets@PLT
.LEHE11:
	testq	%rax, %rax
	setne	%al
	testb	%al, %al
	je	.L58
	leaq	-1216(%rbp), %rax
	movq	%rax, -1256(%rbp)
	nop
	nop
	leaq	-1216(%rbp), %rdx
	leaq	-432(%rbp), %rcx
	leaq	-960(%rbp), %rax
	movq	%rcx, %rsi
	movq	%rax, %rdi
.LEHB12:
	call	_ZNSt7__cxx1112basic_stringIcSt11char_traitsIcESaIcEEC1IS3_EEPKcRKS3_
.LEHE12:
	leaq	-960(%rbp), %rdx
	leaq	-1056(%rbp), %rax
	movq	%rdx, %rsi
	movq	%rax, %rdi
	call	_ZNSt7__cxx1112basic_stringIcSt11char_traitsIcESaIcEEaSEOS4_@PLT
	leaq	-960(%rbp), %rax
	movq	%rax, %rdi
	call	_ZNSt7__cxx1112basic_stringIcSt11char_traitsIcESaIcEED1Ev@PLT
	leaq	-1216(%rbp), %rax
	movq	%rax, %rdi
	call	_ZNSt15__new_allocatorIcED2Ev
	nop
	leaq	-1056(%rbp), %rax
	movq	%rax, %rdi
	call	_ZNKSt7__cxx1112basic_stringIcSt11char_traitsIcESaIcEE5emptyEv@PLT
	xorl	$1, %eax
	testb	%al, %al
	je	.L59
	leaq	-1056(%rbp), %rax
	movq	%rax, %rdi
	call	_ZNSt7__cxx1112basic_stringIcSt11char_traitsIcESaIcEE4backEv@PLT
	movzbl	(%rax), %eax
	cmpb	$10, %al
	jne	.L59
	movl	$1, %eax
	jmp	.L60
.L59:
	movl	$0, %eax
.L60:
	testb	%al, %al
	je	.L58
	leaq	-1056(%rbp), %rax
	movq	%rax, %rdi
	call	_ZNSt7__cxx1112basic_stringIcSt11char_traitsIcESaIcEE8pop_backEv@PLT
.L58:
	movq	-1312(%rbp), %rax
	movq	%rax, %rdi
.LEHB13:
	call	pclose@PLT
.L57:
	leaq	_ZSt5fixedRSt8ios_base(%rip), %rax
	movq	%rax, %rsi
	leaq	_ZSt4cout(%rip), %rax
	movq	%rax, %rdi
	call	_ZNSolsEPFRSt8ios_baseS0_E@PLT
	movq	%rax, %rbx
	movl	$6, %edi
	call	_ZSt12setprecisioni
	movl	%eax, %esi
	movq	%rbx, %rdi
	call	_ZStlsIcSt11char_traitsIcEERSt13basic_ostreamIT_T0_ES6_St13_Setprecision@PLT
	leaq	.LC9(%rip), %rax
	movq	%rax, %rsi
	leaq	_ZSt4cout(%rip), %rax
	movq	%rax, %rdi
	call	_ZStlsISt11char_traitsIcEERSt13basic_ostreamIcT_ES5_PKc@PLT
	leaq	.LC10(%rip), %rax
	movq	%rax, %rsi
	leaq	_ZSt4cout(%rip), %rax
	movq	%rax, %rdi
	call	_ZStlsISt11char_traitsIcEERSt13basic_ostreamIcT_ES5_PKc@PLT
	leaq	.LC9(%rip), %rax
	movq	%rax, %rsi
	leaq	_ZSt4cout(%rip), %rax
	movq	%rax, %rdi
	call	_ZStlsISt11char_traitsIcEERSt13basic_ostreamIcT_ES5_PKc@PLT
	leaq	.LC11(%rip), %rax
	movq	%rax, %rsi
	leaq	_ZSt4cout(%rip), %rax
	movq	%rax, %rdi
	call	_ZStlsISt11char_traitsIcEERSt13basic_ostreamIcT_ES5_PKc@PLT
	leaq	.LC12(%rip), %rax
	movq	%rax, %rsi
	leaq	_ZSt4cout(%rip), %rax
	movq	%rax, %rdi
	call	_ZStlsISt11char_traitsIcEERSt13basic_ostreamIcT_ES5_PKc@PLT
	movq	%rax, %rdx
	leaq	-1088(%rbp), %rax
	movq	%rax, %rsi
	movq	%rdx, %rdi
	call	_ZStlsIcSt11char_traitsIcESaIcEERSt13basic_ostreamIT_T0_ES7_RKNSt7__cxx1112basic_stringIS4_S5_T1_EE@PLT
	movq	%rax, %rdx
	leaq	.LC13(%rip), %rax
	movq	%rax, %rsi
	movq	%rdx, %rdi
	call	_ZStlsISt11char_traitsIcEERSt13basic_ostreamIcT_ES5_PKc@PLT
	leaq	.LC14(%rip), %rax
	movq	%rax, %rsi
	leaq	_ZSt4cout(%rip), %rax
	movq	%rax, %rdi
	call	_ZStlsISt11char_traitsIcEERSt13basic_ostreamIcT_ES5_PKc@PLT
	movq	%rax, %rdx
	leaq	-1056(%rbp), %rax
	movq	%rax, %rsi
	movq	%rdx, %rdi
	call	_ZStlsIcSt11char_traitsIcESaIcEERSt13basic_ostreamIT_T0_ES7_RKNSt7__cxx1112basic_stringIS4_S5_T1_EE@PLT
	movq	%rax, %rdx
	leaq	.LC13(%rip), %rax
	movq	%rax, %rsi
	movq	%rdx, %rdi
	call	_ZStlsISt11char_traitsIcEERSt13basic_ostreamIcT_ES5_PKc@PLT
	leaq	.LC15(%rip), %rax
	movq	%rax, %rsi
	leaq	_ZSt4cout(%rip), %rax
	movq	%rax, %rdi
	call	_ZStlsISt11char_traitsIcEERSt13basic_ostreamIcT_ES5_PKc@PLT
	movq	%rax, %rdx
	leaq	-1184(%rbp), %rax
	movq	%rax, %rsi
	movq	%rdx, %rdi
	call	_ZStlsIcSt11char_traitsIcESaIcEERSt13basic_ostreamIT_T0_ES7_RKNSt7__cxx1112basic_stringIS4_S5_T1_EE@PLT
	movq	%rax, %rdx
	leaq	.LC13(%rip), %rax
	movq	%rax, %rsi
	movq	%rdx, %rdi
	call	_ZStlsISt11char_traitsIcEERSt13basic_ostreamIcT_ES5_PKc@PLT
	leaq	.LC16(%rip), %rax
	movq	%rax, %rsi
	leaq	_ZSt4cout(%rip), %rax
	movq	%rax, %rdi
	call	_ZStlsISt11char_traitsIcEERSt13basic_ostreamIcT_ES5_PKc@PLT
	movq	%rax, %rdx
	leaq	-1152(%rbp), %rax
	movq	%rax, %rsi
	movq	%rdx, %rdi
	call	_ZStlsIcSt11char_traitsIcESaIcEERSt13basic_ostreamIT_T0_ES7_RKNSt7__cxx1112basic_stringIS4_S5_T1_EE@PLT
	movq	%rax, %rdx
	leaq	.LC13(%rip), %rax
	movq	%rax, %rsi
	movq	%rdx, %rdi
	call	_ZStlsISt11char_traitsIcEERSt13basic_ostreamIcT_ES5_PKc@PLT
	leaq	.LC17(%rip), %rax
	movq	%rax, %rsi
	leaq	_ZSt4cout(%rip), %rax
	movq	%rax, %rdi
	call	_ZStlsISt11char_traitsIcEERSt13basic_ostreamIcT_ES5_PKc@PLT
	movq	%rax, %rdx
	leaq	-1120(%rbp), %rax
	movq	%rax, %rsi
	movq	%rdx, %rdi
	call	_ZStlsIcSt11char_traitsIcESaIcEERSt13basic_ostreamIT_T0_ES7_RKNSt7__cxx1112basic_stringIS4_S5_T1_EE@PLT
	movq	%rax, %rdx
	leaq	.LC13(%rip), %rax
	movq	%rax, %rsi
	movq	%rdx, %rdi
	call	_ZStlsISt11char_traitsIcEERSt13basic_ostreamIcT_ES5_PKc@PLT
	leaq	.LC18(%rip), %rax
	movq	%rax, %rsi
	leaq	_ZSt4cout(%rip), %rax
	movq	%rax, %rdi
	call	_ZStlsISt11char_traitsIcEERSt13basic_ostreamIcT_ES5_PKc@PLT
	leaq	.LC19(%rip), %rax
	movq	%rax, %rsi
	leaq	_ZSt4cout(%rip), %rax
	movq	%rax, %rdi
	call	_ZStlsISt11char_traitsIcEERSt13basic_ostreamIcT_ES5_PKc@PLT
	movq	%rax, %rdx
	movq	-1320(%rbp), %rax
	movq	%rax, %rsi
	movq	%rdx, %rdi
	call	_ZNSolsEm@PLT
	movq	%rax, %rdx
	leaq	.LC13(%rip), %rax
	movq	%rax, %rsi
	movq	%rdx, %rdi
	call	_ZStlsISt11char_traitsIcEERSt13basic_ostreamIcT_ES5_PKc@PLT
	leaq	-1248(%rbp), %rax
	movq	%rax, -1304(%rbp)
	movq	-1304(%rbp), %rax
	movq	%rax, %rdi
	call	_ZNSt6vectorImSaImEE5beginEv
	movq	%rax, -1352(%rbp)
	movq	-1304(%rbp), %rax
	movq	%rax, %rdi
	call	_ZNSt6vectorImSaImEE3endEv
	movq	%rax, -1344(%rbp)
	jmp	.L61
.L64:
	leaq	-1352(%rbp), %rax
	movq	%rax, %rdi
	call	_ZNK9__gnu_cxx17__normal_iteratorIPmSt6vectorImSaImEEEdeEv
	movq	(%rax), %rax
	movq	%rax, -1360(%rbp)
	movabsq	$1311768467294899695, %rax
	movq	%rax, -1336(%rbp)
	movq	%rax, -1328(%rbp)
	leaq	-1336(%rbp), %rax
	movq	%rax, -1216(%rbp)
	leaq	-1376(%rbp), %rax
	movq	%rax, -1208(%rbp)
	leaq	-1368(%rbp), %rax
	movq	%rax, -1200(%rbp)
	leaq	-1360(%rbp), %rax
	movq	%rax, -1192(%rbp)
	movq	-1320(%rbp), %rdx
	leaq	-1216(%rbp), %rax
	movq	%rdx, %rsi
	movq	%rax, %rdi
	call	_Z9time_loopIZ4mainEUlmE_EdOT_m
	movq	%xmm0, %rax
	movq	%rax, -1296(%rbp)
	leaq	-1328(%rbp), %rax
	movq	%rax, -1216(%rbp)
	leaq	-1376(%rbp), %rax
	movq	%rax, -1208(%rbp)
	leaq	-1368(%rbp), %rax
	movq	%rax, -1200(%rbp)
	leaq	-1360(%rbp), %rax
	movq	%rax, -1192(%rbp)
	movq	-1320(%rbp), %rdx
	leaq	-1216(%rbp), %rax
	movq	%rdx, %rsi
	movq	%rax, %rdi
	call	_Z9time_loopIZ4mainEUlmE0_EdOT_m
	movq	%xmm0, %rax
	movq	%rax, -1288(%rbp)
	leaq	.LC20(%rip), %rax
	movq	%rax, %rsi
	leaq	_ZSt4cout(%rip), %rax
	movq	%rax, %rdi
	call	_ZStlsISt11char_traitsIcEERSt13basic_ostreamIcT_ES5_PKc@PLT
	movq	%rax, %rdx
	movq	-1360(%rbp), %rax
	movq	%rax, %rsi
	movq	%rdx, %rdi
	call	_ZNSolsEm@PLT
	movq	%rax, %rdx
	leaq	.LC21(%rip), %rax
	movq	%rax, %rsi
	movq	%rdx, %rdi
	call	_ZStlsISt11char_traitsIcEERSt13basic_ostreamIcT_ES5_PKc@PLT
	leaq	.LC22(%rip), %rax
	movq	%rax, %rsi
	leaq	_ZSt4cout(%rip), %rax
	movq	%rax, %rdi
	call	_ZStlsISt11char_traitsIcEERSt13basic_ostreamIcT_ES5_PKc@PLT
	movq	%rax, %rdx
	movq	-1296(%rbp), %rax
	movq	%rax, %xmm0
	movq	%rdx, %rdi
	call	_ZNSolsEd@PLT
	movq	%rax, %rdx
	leaq	.LC21(%rip), %rax
	movq	%rax, %rsi
	movq	%rdx, %rdi
	call	_ZStlsISt11char_traitsIcEERSt13basic_ostreamIcT_ES5_PKc@PLT
	leaq	.LC23(%rip), %rax
	movq	%rax, %rsi
	leaq	_ZSt4cout(%rip), %rax
	movq	%rax, %rdi
	call	_ZStlsISt11char_traitsIcEERSt13basic_ostreamIcT_ES5_PKc@PLT
	movq	%rax, %rdx
	movq	-1288(%rbp), %rax
	movq	%rax, %xmm0
	movq	%rdx, %rdi
	call	_ZNSolsEd@PLT
	movq	%rax, %rdx
	leaq	.LC21(%rip), %rax
	movq	%rax, %rsi
	movq	%rdx, %rdi
	call	_ZStlsISt11char_traitsIcEERSt13basic_ostreamIcT_ES5_PKc@PLT
	movsd	-1288(%rbp), %xmm0
	pxor	%xmm1, %xmm1
	comisd	%xmm1, %xmm0
	jbe	.L62
	leaq	.LC25(%rip), %rax
	movq	%rax, %rsi
	leaq	_ZSt4cout(%rip), %rax
	movq	%rax, %rdi
	call	_ZStlsISt11char_traitsIcEERSt13basic_ostreamIcT_ES5_PKc@PLT
	movq	%rax, %rdx
	movsd	-1296(%rbp), %xmm0
	divsd	-1288(%rbp), %xmm0
	movq	%xmm0, %rax
	movq	%rax, %xmm0
	movq	%rdx, %rdi
	call	_ZNSolsEd@PLT
	movq	%rax, %rdx
	leaq	.LC26(%rip), %rax
	movq	%rax, %rsi
	movq	%rdx, %rdi
	call	_ZStlsISt11char_traitsIcEERSt13basic_ostreamIcT_ES5_PKc@PLT
.L62:
	leaq	.LC27(%rip), %rax
	movq	%rax, %rsi
	leaq	_ZSt4cout(%rip), %rax
	movq	%rax, %rdi
	call	_ZStlsISt11char_traitsIcEERSt13basic_ostreamIcT_ES5_PKc@PLT
	movq	%rax, %rdx
	leaq	_ZSt3hexRSt8ios_base(%rip), %rax
	movq	%rax, %rsi
	movq	%rdx, %rdi
	call	_ZNSolsEPFRSt8ios_baseS0_E@PLT
	movq	%rax, %rdx
	movq	-1336(%rbp), %rax
	movq	%rax, %rsi
	movq	%rdx, %rdi
	call	_ZNSolsEm@PLT
	movq	%rax, %rdx
	leaq	.LC28(%rip), %rax
	movq	%rax, %rsi
	movq	%rdx, %rdi
	call	_ZStlsISt11char_traitsIcEERSt13basic_ostreamIcT_ES5_PKc@PLT
	movq	%rax, %rdx
	movq	-1328(%rbp), %rax
	movq	%rax, %rsi
	movq	%rdx, %rdi
	call	_ZNSolsEl@PLT
	movq	%rax, %rdx
	leaq	_ZSt3decRSt8ios_base(%rip), %rax
	movq	%rax, %rsi
	movq	%rdx, %rdi
	call	_ZNSolsEPFRSt8ios_baseS0_E@PLT
	movq	%rax, %rdx
	leaq	.LC21(%rip), %rax
	movq	%rax, %rsi
	movq	%rdx, %rdi
	call	_ZStlsISt11char_traitsIcEERSt13basic_ostreamIcT_ES5_PKc@PLT
.LEHE13:
	leaq	-1352(%rbp), %rax
	movq	%rax, %rdi
	call	_ZN9__gnu_cxx17__normal_iteratorIPmSt6vectorImSaImEEEppEv
.L61:
	leaq	-1344(%rbp), %rdx
	leaq	-1352(%rbp), %rax
	movq	%rdx, %rsi
	movq	%rax, %rdi
	call	_ZN9__gnu_cxxneIPmSt6vectorImSaImEEEEbRKNS_17__normal_iteratorIT_T0_EESA_
	testb	%al, %al
	jne	.L64
	movl	$0, %ebx
	leaq	-1056(%rbp), %rax
	movq	%rax, %rdi
	call	_ZNSt7__cxx1112basic_stringIcSt11char_traitsIcESaIcEED1Ev@PLT
	leaq	-1088(%rbp), %rax
	movq	%rax, %rdi
	call	_ZNSt7__cxx1112basic_stringIcSt11char_traitsIcESaIcEED1Ev@PLT
	leaq	-1120(%rbp), %rax
	movq	%rax, %rdi
	call	_ZNSt7__cxx1112basic_stringIcSt11char_traitsIcESaIcEED1Ev@PLT
	leaq	-1152(%rbp), %rax
	movq	%rax, %rdi
	call	_ZNSt7__cxx1112basic_stringIcSt11char_traitsIcESaIcEED1Ev@PLT
	leaq	-1184(%rbp), %rax
	movq	%rax, %rdi
	call	_ZNSt7__cxx1112basic_stringIcSt11char_traitsIcESaIcEED1Ev@PLT
	leaq	-1248(%rbp), %rax
	movq	%rax, %rdi
	call	_ZNSt6vectorImSaImEED1Ev
	movl	%ebx, %eax
	movq	-40(%rbp), %rdx
	subq	%fs:40, %rdx
	je	.L78
	jmp	.L91
.L80:
	endbr64
	movq	%rax, %rbx
	leaq	-960(%rbp), %rax
	movq	%rax, %rdi
	call	_ZNSt7__cxx1112basic_stringIcSt11char_traitsIcESaIcEED1Ev@PLT
	jmp	.L67
.L79:
	endbr64
	movq	%rax, %rbx
.L67:
	leaq	-1216(%rbp), %rax
	movq	%rax, %rdi
	call	_ZNSt15__new_allocatorIcED2Ev
	nop
	jmp	.L68
.L83:
	endbr64
	movq	%rax, %rbx
	leaq	-960(%rbp), %rax
	movq	%rax, %rdi
	call	_ZNSt7__cxx1112basic_stringIcSt11char_traitsIcESaIcEED1Ev@PLT
	jmp	.L70
.L82:
	endbr64
	movq	%rax, %rbx
.L70:
	leaq	-1216(%rbp), %rax
	movq	%rax, %rdi
	call	_ZNSt15__new_allocatorIcED2Ev
	nop
	jmp	.L68
.L85:
	endbr64
	movq	%rax, %rbx
	leaq	-960(%rbp), %rax
	movq	%rax, %rdi
	call	_ZNSt7__cxx1112basic_stringIcSt11char_traitsIcESaIcEED1Ev@PLT
	jmp	.L72
.L84:
	endbr64
	movq	%rax, %rbx
.L72:
	leaq	-1328(%rbp), %rax
	movq	%rax, %rdi
	call	_ZNSt15__new_allocatorIcED2Ev
	nop
	jmp	.L68
.L86:
	endbr64
	movq	%rax, %rbx
	leaq	-1024(%rbp), %rax
	movq	%rax, %rdi
	call	_ZNSt7__cxx1112basic_stringIcSt11char_traitsIcESaIcEED1Ev@PLT
	leaq	-960(%rbp), %rax
	movq	%rax, %rdi
	call	_ZNSt14basic_ifstreamIcSt11char_traitsIcEED1Ev@PLT
	jmp	.L74
.L88:
	endbr64
	movq	%rax, %rbx
	leaq	-1024(%rbp), %rax
	movq	%rax, %rdi
	call	_ZNSt7__cxx1112basic_stringIcSt11char_traitsIcESaIcEED1Ev@PLT
	leaq	-960(%rbp), %rax
	movq	%rax, %rdi
	call	_ZNSt14basic_ifstreamIcSt11char_traitsIcEED1Ev@PLT
	jmp	.L74
.L89:
	endbr64
	movq	%rax, %rbx
	leaq	-1216(%rbp), %rax
	movq	%rax, %rdi
	call	_ZNSt15__new_allocatorIcED2Ev
	nop
	jmp	.L74
.L87:
	endbr64
	movq	%rax, %rbx
.L74:
	leaq	-1056(%rbp), %rax
	movq	%rax, %rdi
	call	_ZNSt7__cxx1112basic_stringIcSt11char_traitsIcESaIcEED1Ev@PLT
	leaq	-1088(%rbp), %rax
	movq	%rax, %rdi
	call	_ZNSt7__cxx1112basic_stringIcSt11char_traitsIcESaIcEED1Ev@PLT
	leaq	-1120(%rbp), %rax
	movq	%rax, %rdi
	call	_ZNSt7__cxx1112basic_stringIcSt11char_traitsIcESaIcEED1Ev@PLT
	leaq	-1152(%rbp), %rax
	movq	%rax, %rdi
	call	_ZNSt7__cxx1112basic_stringIcSt11char_traitsIcESaIcEED1Ev@PLT
	leaq	-1184(%rbp), %rax
	movq	%rax, %rdi
	call	_ZNSt7__cxx1112basic_stringIcSt11char_traitsIcESaIcEED1Ev@PLT
	jmp	.L68
.L81:
	endbr64
	movq	%rax, %rbx
.L68:
	leaq	-1248(%rbp), %rax
	movq	%rax, %rdi
	call	_ZNSt6vectorImSaImEED1Ev
	movq	%rbx, %rax
	movq	-40(%rbp), %rdx
	subq	%fs:40, %rdx
	je	.L77
	call	__stack_chk_fail@PLT
.L77:
	movq	%rax, %rdi
.LEHB14:
	call	_Unwind_Resume@PLT
.LEHE14:
.L91:
	call	__stack_chk_fail@PLT
.L78:
	addq	$1368, %rsp
	popq	%rbx
	popq	%r12
	popq	%r13
	popq	%rbp
	.cfi_def_cfa 7, 8
	ret
	.cfi_endproc
.LFE3012:
	.globl	__gxx_personality_v0
	.section	.gcc_except_table,"a",@progbits
.LLSDA3012:
	.byte	0xff
	.byte	0xff
	.byte	0x1
	.uleb128 .LLSDACSE3012-.LLSDACSB3012
.LLSDACSB3012:
	.uleb128 .LEHB0-.LFB3012
	.uleb128 .LEHE0-.LEHB0
	.uleb128 .L79-.LFB3012
	.uleb128 0
	.uleb128 .LEHB1-.LFB3012
	.uleb128 .LEHE1-.LEHB1
	.uleb128 .L80-.LFB3012
	.uleb128 0
	.uleb128 .LEHB2-.LFB3012
	.uleb128 .LEHE2-.LEHB2
	.uleb128 .L82-.LFB3012
	.uleb128 0
	.uleb128 .LEHB3-.LFB3012
	.uleb128 .LEHE3-.LEHB3
	.uleb128 .L83-.LFB3012
	.uleb128 0
	.uleb128 .LEHB4-.LFB3012
	.uleb128 .LEHE4-.LEHB4
	.uleb128 .L84-.LFB3012
	.uleb128 0
	.uleb128 .LEHB5-.LFB3012
	.uleb128 .LEHE5-.LEHB5
	.uleb128 .L85-.LFB3012
	.uleb128 0
	.uleb128 .LEHB6-.LFB3012
	.uleb128 .LEHE6-.LEHB6
	.uleb128 .L81-.LFB3012
	.uleb128 0
	.uleb128 .LEHB7-.LFB3012
	.uleb128 .LEHE7-.LEHB7
	.uleb128 .L87-.LFB3012
	.uleb128 0
	.uleb128 .LEHB8-.LFB3012
	.uleb128 .LEHE8-.LEHB8
	.uleb128 .L86-.LFB3012
	.uleb128 0
	.uleb128 .LEHB9-.LFB3012
	.uleb128 .LEHE9-.LEHB9
	.uleb128 .L87-.LFB3012
	.uleb128 0
	.uleb128 .LEHB10-.LFB3012
	.uleb128 .LEHE10-.LEHB10
	.uleb128 .L88-.LFB3012
	.uleb128 0
	.uleb128 .LEHB11-.LFB3012
	.uleb128 .LEHE11-.LEHB11
	.uleb128 .L87-.LFB3012
	.uleb128 0
	.uleb128 .LEHB12-.LFB3012
	.uleb128 .LEHE12-.LEHB12
	.uleb128 .L89-.LFB3012
	.uleb128 0
	.uleb128 .LEHB13-.LFB3012
	.uleb128 .LEHE13-.LEHB13
	.uleb128 .L87-.LFB3012
	.uleb128 0
	.uleb128 .LEHB14-.LFB3012
	.uleb128 .LEHE14-.LEHB14
	.uleb128 0
	.uleb128 0
.LLSDACSE3012:
	.text
	.size	main, .-main
	.section	.text._ZN9__gnu_cxx11char_traitsIcE6lengthEPKc,"axG",@progbits,_ZN9__gnu_cxx11char_traitsIcE6lengthEPKc,comdat
	.align 2
	.weak	_ZN9__gnu_cxx11char_traitsIcE6lengthEPKc
	.type	_ZN9__gnu_cxx11char_traitsIcE6lengthEPKc, @function
_ZN9__gnu_cxx11char_traitsIcE6lengthEPKc:
.LFB3029:
	.cfi_startproc
	endbr64
	pushq	%rbp
	.cfi_def_cfa_offset 16
	.cfi_offset 6, -16
	movq	%rsp, %rbp
	.cfi_def_cfa_register 6
	subq	$48, %rsp
	movq	%rdi, -40(%rbp)
	movq	%fs:40, %rax
	movq	%rax, -8(%rbp)
	xorl	%eax, %eax
	movq	$0, -16(%rbp)
	jmp	.L93
.L94:
	addq	$1, -16(%rbp)
.L93:
	movb	$0, -17(%rbp)
	movq	-40(%rbp), %rdx
	movq	-16(%rbp), %rax
	addq	%rax, %rdx
	leaq	-17(%rbp), %rax
	movq	%rax, %rsi
	movq	%rdx, %rdi
	call	_ZN9__gnu_cxx11char_traitsIcE2eqERKcS3_
	xorl	$1, %eax
	testb	%al, %al
	jne	.L94
	movq	-16(%rbp), %rax
	movq	-8(%rbp), %rdx
	subq	%fs:40, %rdx
	je	.L96
	call	__stack_chk_fail@PLT
.L96:
	leave
	.cfi_def_cfa 7, 8
	ret
	.cfi_endproc
.LFE3029:
	.size	_ZN9__gnu_cxx11char_traitsIcE6lengthEPKc, .-_ZN9__gnu_cxx11char_traitsIcE6lengthEPKc
	.section	.text._ZZN9__gnu_cxx6__stoaIyycJiEEET0_PFT_PKT1_PPS3_DpT2_EPKcS5_PmS9_EN11_Save_errnoC2Ev,"axG",@progbits,_ZZN9__gnu_cxx6__stoaIyycJiEEET0_PFT_PKT1_PPS3_DpT2_EPKcS5_PmS9_EN11_Save_errnoC5Ev,comdat
	.align 2
	.weak	_ZZN9__gnu_cxx6__stoaIyycJiEEET0_PFT_PKT1_PPS3_DpT2_EPKcS5_PmS9_EN11_Save_errnoC2Ev
	.type	_ZZN9__gnu_cxx6__stoaIyycJiEEET0_PFT_PKT1_PPS3_DpT2_EPKcS5_PmS9_EN11_Save_errnoC2Ev, @function
_ZZN9__gnu_cxx6__stoaIyycJiEEET0_PFT_PKT1_PPS3_DpT2_EPKcS5_PmS9_EN11_Save_errnoC2Ev:
.LFB3095:
	.cfi_startproc
	endbr64
	pushq	%rbp
	.cfi_def_cfa_offset 16
	.cfi_offset 6, -16
	movq	%rsp, %rbp
	.cfi_def_cfa_register 6
	subq	$16, %rsp
	movq	%rdi, -8(%rbp)
	call	__errno_location@PLT
	movl	(%rax), %edx
	movq	-8(%rbp), %rax
	movl	%edx, (%rax)
	call	__errno_location@PLT
	movl	$0, (%rax)
	nop
	leave
	.cfi_def_cfa 7, 8
	ret
	.cfi_endproc
.LFE3095:
	.size	_ZZN9__gnu_cxx6__stoaIyycJiEEET0_PFT_PKT1_PPS3_DpT2_EPKcS5_PmS9_EN11_Save_errnoC2Ev, .-_ZZN9__gnu_cxx6__stoaIyycJiEEET0_PFT_PKT1_PPS3_DpT2_EPKcS5_PmS9_EN11_Save_errnoC2Ev
	.weak	_ZZN9__gnu_cxx6__stoaIyycJiEEET0_PFT_PKT1_PPS3_DpT2_EPKcS5_PmS9_EN11_Save_errnoC1Ev
	.set	_ZZN9__gnu_cxx6__stoaIyycJiEEET0_PFT_PKT1_PPS3_DpT2_EPKcS5_PmS9_EN11_Save_errnoC1Ev,_ZZN9__gnu_cxx6__stoaIyycJiEEET0_PFT_PKT1_PPS3_DpT2_EPKcS5_PmS9_EN11_Save_errnoC2Ev
	.section	.text._ZZN9__gnu_cxx6__stoaIyycJiEEET0_PFT_PKT1_PPS3_DpT2_EPKcS5_PmS9_EN11_Save_errnoD2Ev,"axG",@progbits,_ZZN9__gnu_cxx6__stoaIyycJiEEET0_PFT_PKT1_PPS3_DpT2_EPKcS5_PmS9_EN11_Save_errnoD5Ev,comdat
	.align 2
	.weak	_ZZN9__gnu_cxx6__stoaIyycJiEEET0_PFT_PKT1_PPS3_DpT2_EPKcS5_PmS9_EN11_Save_errnoD2Ev
	.type	_ZZN9__gnu_cxx6__stoaIyycJiEEET0_PFT_PKT1_PPS3_DpT2_EPKcS5_PmS9_EN11_Save_errnoD2Ev, @function
_ZZN9__gnu_cxx6__stoaIyycJiEEET0_PFT_PKT1_PPS3_DpT2_EPKcS5_PmS9_EN11_Save_errnoD2Ev:
.LFB3098:
	.cfi_startproc
	endbr64
	pushq	%rbp
	.cfi_def_cfa_offset 16
	.cfi_offset 6, -16
	movq	%rsp, %rbp
	.cfi_def_cfa_register 6
	subq	$16, %rsp
	movq	%rdi, -8(%rbp)
	call	__errno_location@PLT
	movl	(%rax), %eax
	testl	%eax, %eax
	jne	.L100
	call	__errno_location@PLT
	movq	-8(%rbp), %rdx
	movl	(%rdx), %edx
	movl	%edx, (%rax)
.L100:
	nop
	leave
	.cfi_def_cfa 7, 8
	ret
	.cfi_endproc
.LFE3098:
	.size	_ZZN9__gnu_cxx6__stoaIyycJiEEET0_PFT_PKT1_PPS3_DpT2_EPKcS5_PmS9_EN11_Save_errnoD2Ev, .-_ZZN9__gnu_cxx6__stoaIyycJiEEET0_PFT_PKT1_PPS3_DpT2_EPKcS5_PmS9_EN11_Save_errnoD2Ev
	.weak	_ZZN9__gnu_cxx6__stoaIyycJiEEET0_PFT_PKT1_PPS3_DpT2_EPKcS5_PmS9_EN11_Save_errnoD1Ev
	.set	_ZZN9__gnu_cxx6__stoaIyycJiEEET0_PFT_PKT1_PPS3_DpT2_EPKcS5_PmS9_EN11_Save_errnoD1Ev,_ZZN9__gnu_cxx6__stoaIyycJiEEET0_PFT_PKT1_PPS3_DpT2_EPKcS5_PmS9_EN11_Save_errnoD2Ev
	.section	.text._ZZN9__gnu_cxx6__stoaIyycJiEEET0_PFT_PKT1_PPS3_DpT2_EPKcS5_PmS9_EN10_Range_chk6_S_chkEySt17integral_constantIbLb0EE,"axG",@progbits,_ZZN9__gnu_cxx6__stoaIyycJiEEET0_PFT_PKT1_PPS3_DpT2_EPKcS5_PmS9_EN10_Range_chk6_S_chkEySt17integral_constantIbLb0EE,comdat
	.weak	_ZZN9__gnu_cxx6__stoaIyycJiEEET0_PFT_PKT1_PPS3_DpT2_EPKcS5_PmS9_EN10_Range_chk6_S_chkEySt17integral_constantIbLb0EE
	.type	_ZZN9__gnu_cxx6__stoaIyycJiEEET0_PFT_PKT1_PPS3_DpT2_EPKcS5_PmS9_EN10_Range_chk6_S_chkEySt17integral_constantIbLb0EE, @function
_ZZN9__gnu_cxx6__stoaIyycJiEEET0_PFT_PKT1_PPS3_DpT2_EPKcS5_PmS9_EN10_Range_chk6_S_chkEySt17integral_constantIbLb0EE:
.LFB3100:
	.cfi_startproc
	endbr64
	pushq	%rbp
	.cfi_def_cfa_offset 16
	.cfi_offset 6, -16
	movq	%rsp, %rbp
	.cfi_def_cfa_register 6
	movq	%rdi, -8(%rbp)
	movl	$0, %eax
	popq	%rbp
	.cfi_def_cfa 7, 8
	ret
	.cfi_endproc
.LFE3100:
	.size	_ZZN9__gnu_cxx6__stoaIyycJiEEET0_PFT_PKT1_PPS3_DpT2_EPKcS5_PmS9_EN10_Range_chk6_S_chkEySt17integral_constantIbLb0EE, .-_ZZN9__gnu_cxx6__stoaIyycJiEEET0_PFT_PKT1_PPS3_DpT2_EPKcS5_PmS9_EN10_Range_chk6_S_chkEySt17integral_constantIbLb0EE
	.section	.text._ZN9__gnu_cxx6__stoaIyycJiEEET0_PFT_PKT1_PPS3_DpT2_EPKcS5_PmS9_,"axG",@progbits,_ZN9__gnu_cxx6__stoaIyycJiEEET0_PFT_PKT1_PPS3_DpT2_EPKcS5_PmS9_,comdat
	.weak	_ZN9__gnu_cxx6__stoaIyycJiEEET0_PFT_PKT1_PPS3_DpT2_EPKcS5_PmS9_
	.type	_ZN9__gnu_cxx6__stoaIyycJiEEET0_PFT_PKT1_PPS3_DpT2_EPKcS5_PmS9_, @function
_ZN9__gnu_cxx6__stoaIyycJiEEET0_PFT_PKT1_PPS3_DpT2_EPKcS5_PmS9_:
.LFB3093:
	.cfi_startproc
	.cfi_personality 0x9b,DW.ref.__gxx_personality_v0
	.cfi_lsda 0x1b,.LLSDA3093
	endbr64
	pushq	%rbp
	.cfi_def_cfa_offset 16
	.cfi_offset 6, -16
	movq	%rsp, %rbp
	.cfi_def_cfa_register 6
	pushq	%rbx
	subq	$104, %rsp
	.cfi_offset 3, -24
	movq	%rdi, -72(%rbp)
	movq	%rsi, -80(%rbp)
	movq	%rdx, -88(%rbp)
	movq	%rcx, -96(%rbp)
	movl	%r8d, -100(%rbp)
	movq	%fs:40, %rax
	movq	%rax, -24(%rbp)
	xorl	%eax, %eax
	leaq	-52(%rbp), %rax
	movq	%rax, %rdi
	call	_ZZN9__gnu_cxx6__stoaIyycJiEEET0_PFT_PKT1_PPS3_DpT2_EPKcS5_PmS9_EN11_Save_errnoC1Ev
	movq	-72(%rbp), %r8
	movl	-100(%rbp), %edx
	leaq	-48(%rbp), %rcx
	movq	-88(%rbp), %rax
	movq	%rcx, %rsi
	movq	%rax, %rdi
.LEHB15:
	call	*%r8
	movq	%rax, -40(%rbp)
	movq	-48(%rbp), %rax
	cmpq	%rax, -88(%rbp)
	jne	.L104
	movq	-24(%rbp), %rax
	subq	%fs:40, %rax
	je	.L105
	call	__stack_chk_fail@PLT
.L105:
	movq	-80(%rbp), %rax
	movq	%rax, %rdi
	call	_ZSt24__throw_invalid_argumentPKc@PLT
.L104:
	call	__errno_location@PLT
	movl	(%rax), %eax
	cmpl	$34, %eax
	je	.L106
	movq	-40(%rbp), %rax
	movq	%rax, %rdi
	call	_ZZN9__gnu_cxx6__stoaIyycJiEEET0_PFT_PKT1_PPS3_DpT2_EPKcS5_PmS9_EN10_Range_chk6_S_chkEySt17integral_constantIbLb0EE
	testb	%al, %al
	je	.L107
.L106:
	movl	$1, %eax
	jmp	.L108
.L107:
	movl	$0, %eax
.L108:
	testb	%al, %al
	je	.L109
	movq	-24(%rbp), %rax
	subq	%fs:40, %rax
	je	.L110
	call	__stack_chk_fail@PLT
.L110:
	movq	-80(%rbp), %rax
	movq	%rax, %rdi
	call	_ZSt20__throw_out_of_rangePKc@PLT
.LEHE15:
.L109:
	movq	-40(%rbp), %rax
	movq	%rax, -32(%rbp)
	cmpq	$0, -96(%rbp)
	je	.L111
	movq	-48(%rbp), %rax
	subq	-88(%rbp), %rax
	movq	%rax, %rdx
	movq	-96(%rbp), %rax
	movq	%rdx, (%rax)
.L111:
	movq	-32(%rbp), %rbx
	leaq	-52(%rbp), %rax
	movq	%rax, %rdi
	call	_ZZN9__gnu_cxx6__stoaIyycJiEEET0_PFT_PKT1_PPS3_DpT2_EPKcS5_PmS9_EN11_Save_errnoD1Ev
	movq	%rbx, %rax
	movq	-24(%rbp), %rdx
	subq	%fs:40, %rdx
	je	.L115
	jmp	.L117
.L116:
	endbr64
	movq	%rax, %rbx
	leaq	-52(%rbp), %rax
	movq	%rax, %rdi
	call	_ZZN9__gnu_cxx6__stoaIyycJiEEET0_PFT_PKT1_PPS3_DpT2_EPKcS5_PmS9_EN11_Save_errnoD1Ev
	movq	%rbx, %rax
	movq	-24(%rbp), %rdx
	subq	%fs:40, %rdx
	je	.L114
	call	__stack_chk_fail@PLT
.L114:
	movq	%rax, %rdi
.LEHB16:
	call	_Unwind_Resume@PLT
.LEHE16:
.L117:
	call	__stack_chk_fail@PLT
.L115:
	movq	-8(%rbp), %rbx
	leave
	.cfi_def_cfa 7, 8
	ret
	.cfi_endproc
.LFE3093:
	.section	.gcc_except_table
.LLSDA3093:
	.byte	0xff
	.byte	0xff
	.byte	0x1
	.uleb128 .LLSDACSE3093-.LLSDACSB3093
.LLSDACSB3093:
	.uleb128 .LEHB15-.LFB3093
	.uleb128 .LEHE15-.LEHB15
	.uleb128 .L116-.LFB3093
	.uleb128 0
	.uleb128 .LEHB16-.LFB3093
	.uleb128 .LEHE16-.LEHB16
	.uleb128 0
	.uleb128 0
.LLSDACSE3093:
	.section	.text._ZN9__gnu_cxx6__stoaIyycJiEEET0_PFT_PKT1_PPS3_DpT2_EPKcS5_PmS9_,"axG",@progbits,_ZN9__gnu_cxx6__stoaIyycJiEEET0_PFT_PKT1_PPS3_DpT2_EPKcS5_PmS9_,comdat
	.size	_ZN9__gnu_cxx6__stoaIyycJiEEET0_PFT_PKT1_PPS3_DpT2_EPKcS5_PmS9_, .-_ZN9__gnu_cxx6__stoaIyycJiEEET0_PFT_PKT1_PPS3_DpT2_EPKcS5_PmS9_
	.section	.text._ZNSt7__cxx1112basic_stringIcSt11char_traitsIcESaIcEE12_Alloc_hiderD2Ev,"axG",@progbits,_ZNSt7__cxx1112basic_stringIcSt11char_traitsIcESaIcEE12_Alloc_hiderD5Ev,comdat
	.align 2
	.weak	_ZNSt7__cxx1112basic_stringIcSt11char_traitsIcESaIcEE12_Alloc_hiderD2Ev
	.type	_ZNSt7__cxx1112basic_stringIcSt11char_traitsIcESaIcEE12_Alloc_hiderD2Ev, @function
_ZNSt7__cxx1112basic_stringIcSt11char_traitsIcESaIcEE12_Alloc_hiderD2Ev:
.LFB3138:
	.cfi_startproc
	endbr64
	pushq	%rbp
	.cfi_def_cfa_offset 16
	.cfi_offset 6, -16
	movq	%rsp, %rbp
	.cfi_def_cfa_register 6
	subq	$32, %rsp
	movq	%rdi, -24(%rbp)
	movq	-24(%rbp), %rax
	movq	%rax, -8(%rbp)
	movq	-8(%rbp), %rax
	movq	%rax, %rdi
	call	_ZNSt15__new_allocatorIcED2Ev
	nop
	nop
	leave
	.cfi_def_cfa 7, 8
	ret
	.cfi_endproc
.LFE3138:
	.size	_ZNSt7__cxx1112basic_stringIcSt11char_traitsIcESaIcEE12_Alloc_hiderD2Ev, .-_ZNSt7__cxx1112basic_stringIcSt11char_traitsIcESaIcEE12_Alloc_hiderD2Ev
	.weak	_ZNSt7__cxx1112basic_stringIcSt11char_traitsIcESaIcEE12_Alloc_hiderD1Ev
	.set	_ZNSt7__cxx1112basic_stringIcSt11char_traitsIcESaIcEE12_Alloc_hiderD1Ev,_ZNSt7__cxx1112basic_stringIcSt11char_traitsIcESaIcEE12_Alloc_hiderD2Ev
	.section	.text._ZNKSt6chrono10time_pointINS_3_V212system_clockENS_8durationIlSt5ratioILl1ELl1000000000EEEEE16time_since_epochEv,"axG",@progbits,_ZNKSt6chrono10time_pointINS_3_V212system_clockENS_8durationIlSt5ratioILl1ELl1000000000EEEEE16time_since_epochEv,comdat
	.align 2
	.weak	_ZNKSt6chrono10time_pointINS_3_V212system_clockENS_8durationIlSt5ratioILl1ELl1000000000EEEEE16time_since_epochEv
	.type	_ZNKSt6chrono10time_pointINS_3_V212system_clockENS_8durationIlSt5ratioILl1ELl1000000000EEEEE16time_since_epochEv, @function
_ZNKSt6chrono10time_pointINS_3_V212system_clockENS_8durationIlSt5ratioILl1ELl1000000000EEEEE16time_since_epochEv:
.LFB3283:
	.cfi_startproc
	endbr64
	pushq	%rbp
	.cfi_def_cfa_offset 16
	.cfi_offset 6, -16
	movq	%rsp, %rbp
	.cfi_def_cfa_register 6
	movq	%rdi, -8(%rbp)
	movq	-8(%rbp), %rax
	movq	(%rax), %rax
	popq	%rbp
	.cfi_def_cfa 7, 8
	ret
	.cfi_endproc
.LFE3283:
	.size	_ZNKSt6chrono10time_pointINS_3_V212system_clockENS_8durationIlSt5ratioILl1ELl1000000000EEEEE16time_since_epochEv, .-_ZNKSt6chrono10time_pointINS_3_V212system_clockENS_8durationIlSt5ratioILl1ELl1000000000EEEEE16time_since_epochEv
	.section	.text._ZNSt12_Vector_baseImSaImEE12_Vector_implC2Ev,"axG",@progbits,_ZNSt12_Vector_baseImSaImEE12_Vector_implC5Ev,comdat
	.align 2
	.weak	_ZNSt12_Vector_baseImSaImEE12_Vector_implC2Ev
	.type	_ZNSt12_Vector_baseImSaImEE12_Vector_implC2Ev, @function
_ZNSt12_Vector_baseImSaImEE12_Vector_implC2Ev:
.LFB3328:
	.cfi_startproc
	endbr64
	pushq	%rbp
	.cfi_def_cfa_offset 16
	.cfi_offset 6, -16
	movq	%rsp, %rbp
	.cfi_def_cfa_register 6
	subq	$32, %rsp
	movq	%rdi, -24(%rbp)
	movq	-24(%rbp), %rax
	movq	%rax, -16(%rbp)
	movq	-16(%rbp), %rax
	movq	%rax, -8(%rbp)
	nop
	nop
	movq	-24(%rbp), %rax
	movq	%rax, %rdi
	call	_ZNSt12_Vector_baseImSaImEE17_Vector_impl_dataC2Ev
	nop
	leave
	.cfi_def_cfa 7, 8
	ret
	.cfi_endproc
.LFE3328:
	.size	_ZNSt12_Vector_baseImSaImEE12_Vector_implC2Ev, .-_ZNSt12_Vector_baseImSaImEE12_Vector_implC2Ev
	.weak	_ZNSt12_Vector_baseImSaImEE12_Vector_implC1Ev
	.set	_ZNSt12_Vector_baseImSaImEE12_Vector_implC1Ev,_ZNSt12_Vector_baseImSaImEE12_Vector_implC2Ev
	.section	.text._ZNSt12_Vector_baseImSaImEED2Ev,"axG",@progbits,_ZNSt12_Vector_baseImSaImEED5Ev,comdat
	.align 2
	.weak	_ZNSt12_Vector_baseImSaImEED2Ev
	.type	_ZNSt12_Vector_baseImSaImEED2Ev, @function
_ZNSt12_Vector_baseImSaImEED2Ev:
.LFB3334:
	.cfi_startproc
	.cfi_personality 0x9b,DW.ref.__gxx_personality_v0
	.cfi_lsda 0x1b,.LLSDA3334
	endbr64
	pushq	%rbp
	.cfi_def_cfa_offset 16
	.cfi_offset 6, -16
	movq	%rsp, %rbp
	.cfi_def_cfa_register 6
	subq	$16, %rsp
	movq	%rdi, -8(%rbp)
	movq	-8(%rbp), %rax
	movq	16(%rax), %rdx
	movq	-8(%rbp), %rax
	movq	(%rax), %rax
	subq	%rax, %rdx
	movq	%rdx, %rax
	sarq	$3, %rax
	movq	%rax, %rdx
	movq	-8(%rbp), %rax
	movq	(%rax), %rcx
	movq	-8(%rbp), %rax
	movq	%rcx, %rsi
	movq	%rax, %rdi
	call	_ZNSt12_Vector_baseImSaImEE13_M_deallocateEPmm
	movq	-8(%rbp), %rax
	movq	%rax, %rdi
	call	_ZNSt12_Vector_baseImSaImEE12_Vector_implD1Ev
	nop
	leave
	.cfi_def_cfa 7, 8
	ret
	.cfi_endproc
.LFE3334:
	.section	.gcc_except_table
.LLSDA3334:
	.byte	0xff
	.byte	0xff
	.byte	0x1
	.uleb128 .LLSDACSE3334-.LLSDACSB3334
.LLSDACSB3334:
.LLSDACSE3334:
	.section	.text._ZNSt12_Vector_baseImSaImEED2Ev,"axG",@progbits,_ZNSt12_Vector_baseImSaImEED5Ev,comdat
	.size	_ZNSt12_Vector_baseImSaImEED2Ev, .-_ZNSt12_Vector_baseImSaImEED2Ev
	.weak	_ZNSt12_Vector_baseImSaImEED1Ev
	.set	_ZNSt12_Vector_baseImSaImEED1Ev,_ZNSt12_Vector_baseImSaImEED2Ev
	.section	.text._ZNSt6vectorImSaImEED2Ev,"axG",@progbits,_ZNSt6vectorImSaImEED5Ev,comdat
	.align 2
	.weak	_ZNSt6vectorImSaImEED2Ev
	.type	_ZNSt6vectorImSaImEED2Ev, @function
_ZNSt6vectorImSaImEED2Ev:
.LFB3337:
	.cfi_startproc
	.cfi_personality 0x9b,DW.ref.__gxx_personality_v0
	.cfi_lsda 0x1b,.LLSDA3337
	endbr64
	pushq	%rbp
	.cfi_def_cfa_offset 16
	.cfi_offset 6, -16
	movq	%rsp, %rbp
	.cfi_def_cfa_register 6
	subq	$48, %rsp
	movq	%rdi, -40(%rbp)
	movq	-40(%rbp), %rax
	movq	%rax, %rdi
	call	_ZNSt12_Vector_baseImSaImEE19_M_get_Tp_allocatorEv
	movq	-40(%rbp), %rdx
	movq	8(%rdx), %rdx
	movq	-40(%rbp), %rcx
	movq	(%rcx), %rcx
	movq	%rcx, -24(%rbp)
	movq	%rdx, -16(%rbp)
	movq	%rax, -8(%rbp)
	movq	-16(%rbp), %rdx
	movq	-24(%rbp), %rax
	movq	%rdx, %rsi
	movq	%rax, %rdi
	call	_ZSt8_DestroyIPmEvT_S1_
	nop
	movq	-40(%rbp), %rax
	movq	%rax, %rdi
	call	_ZNSt12_Vector_baseImSaImEED2Ev
	nop
	leave
	.cfi_def_cfa 7, 8
	ret
	.cfi_endproc
.LFE3337:
	.section	.gcc_except_table
.LLSDA3337:
	.byte	0xff
	.byte	0xff
	.byte	0x1
	.uleb128 .LLSDACSE3337-.LLSDACSB3337
.LLSDACSB3337:
.LLSDACSE3337:
	.section	.text._ZNSt6vectorImSaImEED2Ev,"axG",@progbits,_ZNSt6vectorImSaImEED5Ev,comdat
	.size	_ZNSt6vectorImSaImEED2Ev, .-_ZNSt6vectorImSaImEED2Ev
	.weak	_ZNSt6vectorImSaImEED1Ev
	.set	_ZNSt6vectorImSaImEED1Ev,_ZNSt6vectorImSaImEED2Ev
	.section	.rodata
	.align 8
.LC29:
	.string	"basic_string: construction from null is not valid"
	.section	.text._ZNSt7__cxx1112basic_stringIcSt11char_traitsIcESaIcEEC2IS3_EEPKcRKS3_,"axG",@progbits,_ZNSt7__cxx1112basic_stringIcSt11char_traitsIcESaIcEEC5IS3_EEPKcRKS3_,comdat
	.align 2
	.weak	_ZNSt7__cxx1112basic_stringIcSt11char_traitsIcESaIcEEC2IS3_EEPKcRKS3_
	.type	_ZNSt7__cxx1112basic_stringIcSt11char_traitsIcESaIcEEC2IS3_EEPKcRKS3_, @function
_ZNSt7__cxx1112basic_stringIcSt11char_traitsIcESaIcEEC2IS3_EEPKcRKS3_:
.LFB3340:
	.cfi_startproc
	.cfi_personality 0x9b,DW.ref.__gxx_personality_v0
	.cfi_lsda 0x1b,.LLSDA3340
	endbr64
	pushq	%rbp
	.cfi_def_cfa_offset 16
	.cfi_offset 6, -16
	movq	%rsp, %rbp
	.cfi_def_cfa_register 6
	pushq	%rbx
	subq	$56, %rsp
	.cfi_offset 3, -24
	movq	%rdi, -40(%rbp)
	movq	%rsi, -48(%rbp)
	movq	%rdx, -56(%rbp)
	movq	-40(%rbp), %rbx
	movq	-40(%rbp), %rax
	movq	%rax, %rdi
	call	_ZNSt7__cxx1112basic_stringIcSt11char_traitsIcESaIcEE13_M_local_dataEv@PLT
	movq	%rax, %rcx
	movq	-56(%rbp), %rax
	movq	%rax, %rdx
	movq	%rcx, %rsi
	movq	%rbx, %rdi
	call	_ZNSt7__cxx1112basic_stringIcSt11char_traitsIcESaIcEE12_Alloc_hiderC1EPcRKS3_@PLT
	cmpq	$0, -48(%rbp)
	jne	.L125
	leaq	.LC29(%rip), %rax
	movq	%rax, %rdi
.LEHB17:
	call	_ZSt19__throw_logic_errorPKc@PLT
.L125:
	movq	-48(%rbp), %rax
	movq	%rax, %rdi
	call	_ZNSt11char_traitsIcE6lengthEPKc
	movq	-48(%rbp), %rdx
	addq	%rdx, %rax
	movq	%rax, -24(%rbp)
	movq	-24(%rbp), %rdx
	movq	-48(%rbp), %rcx
	movq	-40(%rbp), %rax
	movq	%rcx, %rsi
	movq	%rax, %rdi
	call	_ZNSt7__cxx1112basic_stringIcSt11char_traitsIcESaIcEE12_M_constructIPKcEEvT_S8_St20forward_iterator_tag
.LEHE17:
	jmp	.L128
.L127:
	endbr64
	movq	%rax, %rbx
	movq	-40(%rbp), %rax
	movq	%rax, %rdi
	call	_ZNSt7__cxx1112basic_stringIcSt11char_traitsIcESaIcEE12_Alloc_hiderD1Ev
	movq	%rbx, %rax
	movq	%rax, %rdi
.LEHB18:
	call	_Unwind_Resume@PLT
.LEHE18:
.L128:
	movq	-8(%rbp), %rbx
	leave
	.cfi_def_cfa 7, 8
	ret
	.cfi_endproc
.LFE3340:
	.section	.gcc_except_table
.LLSDA3340:
	.byte	0xff
	.byte	0xff
	.byte	0x1
	.uleb128 .LLSDACSE3340-.LLSDACSB3340
.LLSDACSB3340:
	.uleb128 .LEHB17-.LFB3340
	.uleb128 .LEHE17-.LEHB17
	.uleb128 .L127-.LFB3340
	.uleb128 0
	.uleb128 .LEHB18-.LFB3340
	.uleb128 .LEHE18-.LEHB18
	.uleb128 0
	.uleb128 0
.LLSDACSE3340:
	.section	.text._ZNSt7__cxx1112basic_stringIcSt11char_traitsIcESaIcEEC2IS3_EEPKcRKS3_,"axG",@progbits,_ZNSt7__cxx1112basic_stringIcSt11char_traitsIcESaIcEEC5IS3_EEPKcRKS3_,comdat
	.size	_ZNSt7__cxx1112basic_stringIcSt11char_traitsIcESaIcEEC2IS3_EEPKcRKS3_, .-_ZNSt7__cxx1112basic_stringIcSt11char_traitsIcESaIcEEC2IS3_EEPKcRKS3_
	.weak	_ZNSt7__cxx1112basic_stringIcSt11char_traitsIcESaIcEEC1IS3_EEPKcRKS3_
	.set	_ZNSt7__cxx1112basic_stringIcSt11char_traitsIcESaIcEEC1IS3_EEPKcRKS3_,_ZNSt7__cxx1112basic_stringIcSt11char_traitsIcESaIcEEC2IS3_EEPKcRKS3_
	.section	.text._ZNSt6vectorImSaImEE9push_backEOm,"axG",@progbits,_ZNSt6vectorImSaImEE9push_backEOm,comdat
	.align 2
	.weak	_ZNSt6vectorImSaImEE9push_backEOm
	.type	_ZNSt6vectorImSaImEE9push_backEOm, @function
_ZNSt6vectorImSaImEE9push_backEOm:
.LFB3342:
	.cfi_startproc
	endbr64
	pushq	%rbp
	.cfi_def_cfa_offset 16
	.cfi_offset 6, -16
	movq	%rsp, %rbp
	.cfi_def_cfa_register 6
	subq	$16, %rsp
	movq	%rdi, -8(%rbp)
	movq	%rsi, -16(%rbp)
	movq	-16(%rbp), %rax
	movq	%rax, %rdi
	call	_ZSt4moveIRmEONSt16remove_referenceIT_E4typeEOS2_
	movq	%rax, %rdx
	movq	-8(%rbp), %rax
	movq	%rdx, %rsi
	movq	%rax, %rdi
	call	_ZNSt6vectorImSaImEE12emplace_backIJmEEERmDpOT_
	nop
	leave
	.cfi_def_cfa 7, 8
	ret
	.cfi_endproc
.LFE3342:
	.size	_ZNSt6vectorImSaImEE9push_backEOm, .-_ZNSt6vectorImSaImEE9push_backEOm
	.section	.text._ZNSt6vectorImSaImEEaSESt16initializer_listImE,"axG",@progbits,_ZNSt6vectorImSaImEEaSESt16initializer_listImE,comdat
	.align 2
	.weak	_ZNSt6vectorImSaImEEaSESt16initializer_listImE
	.type	_ZNSt6vectorImSaImEEaSESt16initializer_listImE, @function
_ZNSt6vectorImSaImEEaSESt16initializer_listImE:
.LFB3343:
	.cfi_startproc
	endbr64
	pushq	%rbp
	.cfi_def_cfa_offset 16
	.cfi_offset 6, -16
	movq	%rsp, %rbp
	.cfi_def_cfa_register 6
	pushq	%rbx
	subq	$56, %rsp
	.cfi_offset 3, -24
	movq	%rdi, -40(%rbp)
	movq	%rdx, %rcx
	movq	%rsi, %rax
	movq	%rdi, %rdx
	movq	%rcx, %rdx
	movq	%rax, -64(%rbp)
	movq	%rdx, -56(%rbp)
	movq	%fs:40, %rax
	movq	%rax, -24(%rbp)
	xorl	%eax, %eax
	leaq	-64(%rbp), %rax
	movq	%rax, %rdi
	call	_ZNKSt16initializer_listImE3endEv
	movq	%rax, %rbx
	leaq	-64(%rbp), %rax
	movq	%rax, %rdi
	call	_ZNKSt16initializer_listImE5beginEv
	movq	%rax, %rcx
	movq	-40(%rbp), %rax
	movq	%rbx, %rdx
	movq	%rcx, %rsi
	movq	%rax, %rdi
	call	_ZNSt6vectorImSaImEE13_M_assign_auxIPKmEEvT_S5_St20forward_iterator_tag
	movq	-40(%rbp), %rax
	movq	-24(%rbp), %rdx
	subq	%fs:40, %rdx
	je	.L132
	call	__stack_chk_fail@PLT
.L132:
	movq	-8(%rbp), %rbx
	leave
	.cfi_def_cfa 7, 8
	ret
	.cfi_endproc
.LFE3343:
	.size	_ZNSt6vectorImSaImEEaSESt16initializer_listImE, .-_ZNSt6vectorImSaImEEaSESt16initializer_listImE
	.section	.text._ZNSt6vectorImSaImEE5beginEv,"axG",@progbits,_ZNSt6vectorImSaImEE5beginEv,comdat
	.align 2
	.weak	_ZNSt6vectorImSaImEE5beginEv
	.type	_ZNSt6vectorImSaImEE5beginEv, @function
_ZNSt6vectorImSaImEE5beginEv:
.LFB3368:
	.cfi_startproc
	endbr64
	pushq	%rbp
	.cfi_def_cfa_offset 16
	.cfi_offset 6, -16
	movq	%rsp, %rbp
	.cfi_def_cfa_register 6
	subq	$32, %rsp
	movq	%rdi, -24(%rbp)
	movq	%fs:40, %rax
	movq	%rax, -8(%rbp)
	xorl	%eax, %eax
	movq	-24(%rbp), %rdx
	leaq	-16(%rbp), %rax
	movq	%rdx, %rsi
	movq	%rax, %rdi
	call	_ZN9__gnu_cxx17__normal_iteratorIPmSt6vectorImSaImEEEC1ERKS1_
	movq	-16(%rbp), %rax
	movq	-8(%rbp), %rdx
	subq	%fs:40, %rdx
	je	.L135
	call	__stack_chk_fail@PLT
.L135:
	leave
	.cfi_def_cfa 7, 8
	ret
	.cfi_endproc
.LFE3368:
	.size	_ZNSt6vectorImSaImEE5beginEv, .-_ZNSt6vectorImSaImEE5beginEv
	.section	.text._ZNSt6vectorImSaImEE3endEv,"axG",@progbits,_ZNSt6vectorImSaImEE3endEv,comdat
	.align 2
	.weak	_ZNSt6vectorImSaImEE3endEv
	.type	_ZNSt6vectorImSaImEE3endEv, @function
_ZNSt6vectorImSaImEE3endEv:
.LFB3369:
	.cfi_startproc
	endbr64
	pushq	%rbp
	.cfi_def_cfa_offset 16
	.cfi_offset 6, -16
	movq	%rsp, %rbp
	.cfi_def_cfa_register 6
	subq	$32, %rsp
	movq	%rdi, -24(%rbp)
	movq	%fs:40, %rax
	movq	%rax, -8(%rbp)
	xorl	%eax, %eax
	movq	-24(%rbp), %rax
	leaq	8(%rax), %rdx
	leaq	-16(%rbp), %rax
	movq	%rdx, %rsi
	movq	%rax, %rdi
	call	_ZN9__gnu_cxx17__normal_iteratorIPmSt6vectorImSaImEEEC1ERKS1_
	movq	-16(%rbp), %rax
	movq	-8(%rbp), %rdx
	subq	%fs:40, %rdx
	je	.L138
	call	__stack_chk_fail@PLT
.L138:
	leave
	.cfi_def_cfa 7, 8
	ret
	.cfi_endproc
.LFE3369:
	.size	_ZNSt6vectorImSaImEE3endEv, .-_ZNSt6vectorImSaImEE3endEv
	.section	.text._ZN9__gnu_cxxneIPmSt6vectorImSaImEEEEbRKNS_17__normal_iteratorIT_T0_EESA_,"axG",@progbits,_ZN9__gnu_cxxneIPmSt6vectorImSaImEEEEbRKNS_17__normal_iteratorIT_T0_EESA_,comdat
	.weak	_ZN9__gnu_cxxneIPmSt6vectorImSaImEEEEbRKNS_17__normal_iteratorIT_T0_EESA_
	.type	_ZN9__gnu_cxxneIPmSt6vectorImSaImEEEEbRKNS_17__normal_iteratorIT_T0_EESA_, @function
_ZN9__gnu_cxxneIPmSt6vectorImSaImEEEEbRKNS_17__normal_iteratorIT_T0_EESA_:
.LFB3370:
	.cfi_startproc
	endbr64
	pushq	%rbp
	.cfi_def_cfa_offset 16
	.cfi_offset 6, -16
	movq	%rsp, %rbp
	.cfi_def_cfa_register 6
	pushq	%rbx
	subq	$24, %rsp
	.cfi_offset 3, -24
	movq	%rdi, -24(%rbp)
	movq	%rsi, -32(%rbp)
	movq	-24(%rbp), %rax
	movq	%rax, %rdi
	call	_ZNK9__gnu_cxx17__normal_iteratorIPmSt6vectorImSaImEEE4baseEv
	movq	(%rax), %rbx
	movq	-32(%rbp), %rax
	movq	%rax, %rdi
	call	_ZNK9__gnu_cxx17__normal_iteratorIPmSt6vectorImSaImEEE4baseEv
	movq	(%rax), %rax
	cmpq	%rax, %rbx
	setne	%al
	movq	-8(%rbp), %rbx
	leave
	.cfi_def_cfa 7, 8
	ret
	.cfi_endproc
.LFE3370:
	.size	_ZN9__gnu_cxxneIPmSt6vectorImSaImEEEEbRKNS_17__normal_iteratorIT_T0_EESA_, .-_ZN9__gnu_cxxneIPmSt6vectorImSaImEEEEbRKNS_17__normal_iteratorIT_T0_EESA_
	.section	.text._ZN9__gnu_cxx17__normal_iteratorIPmSt6vectorImSaImEEEppEv,"axG",@progbits,_ZN9__gnu_cxx17__normal_iteratorIPmSt6vectorImSaImEEEppEv,comdat
	.align 2
	.weak	_ZN9__gnu_cxx17__normal_iteratorIPmSt6vectorImSaImEEEppEv
	.type	_ZN9__gnu_cxx17__normal_iteratorIPmSt6vectorImSaImEEEppEv, @function
_ZN9__gnu_cxx17__normal_iteratorIPmSt6vectorImSaImEEEppEv:
.LFB3371:
	.cfi_startproc
	endbr64
	pushq	%rbp
	.cfi_def_cfa_offset 16
	.cfi_offset 6, -16
	movq	%rsp, %rbp
	.cfi_def_cfa_register 6
	movq	%rdi, -8(%rbp)
	movq	-8(%rbp), %rax
	movq	(%rax), %rax
	leaq	8(%rax), %rdx
	movq	-8(%rbp), %rax
	movq	%rdx, (%rax)
	movq	-8(%rbp), %rax
	popq	%rbp
	.cfi_def_cfa 7, 8
	ret
	.cfi_endproc
.LFE3371:
	.size	_ZN9__gnu_cxx17__normal_iteratorIPmSt6vectorImSaImEEEppEv, .-_ZN9__gnu_cxx17__normal_iteratorIPmSt6vectorImSaImEEEppEv
	.section	.text._ZNK9__gnu_cxx17__normal_iteratorIPmSt6vectorImSaImEEEdeEv,"axG",@progbits,_ZNK9__gnu_cxx17__normal_iteratorIPmSt6vectorImSaImEEEdeEv,comdat
	.align 2
	.weak	_ZNK9__gnu_cxx17__normal_iteratorIPmSt6vectorImSaImEEEdeEv
	.type	_ZNK9__gnu_cxx17__normal_iteratorIPmSt6vectorImSaImEEEdeEv, @function
_ZNK9__gnu_cxx17__normal_iteratorIPmSt6vectorImSaImEEEdeEv:
.LFB3372:
	.cfi_startproc
	endbr64
	pushq	%rbp
	.cfi_def_cfa_offset 16
	.cfi_offset 6, -16
	movq	%rsp, %rbp
	.cfi_def_cfa_register 6
	movq	%rdi, -8(%rbp)
	movq	-8(%rbp), %rax
	movq	(%rax), %rax
	popq	%rbp
	.cfi_def_cfa 7, 8
	ret
	.cfi_endproc
.LFE3372:
	.size	_ZNK9__gnu_cxx17__normal_iteratorIPmSt6vectorImSaImEEEdeEv, .-_ZNK9__gnu_cxx17__normal_iteratorIPmSt6vectorImSaImEEEdeEv
	.section	.text._ZNSt6chronomiINS_3_V212system_clockENS_8durationIlSt5ratioILl1ELl1000000000EEEES6_EENSt11common_typeIJT0_T1_EE4typeERKNS_10time_pointIT_S8_EERKNSC_ISD_S9_EE,"axG",@progbits,_ZNSt6chronomiINS_3_V212system_clockENS_8durationIlSt5ratioILl1ELl1000000000EEEES6_EENSt11common_typeIJT0_T1_EE4typeERKNS_10time_pointIT_S8_EERKNSC_ISD_S9_EE,comdat
	.weak	_ZNSt6chronomiINS_3_V212system_clockENS_8durationIlSt5ratioILl1ELl1000000000EEEES6_EENSt11common_typeIJT0_T1_EE4typeERKNS_10time_pointIT_S8_EERKNSC_ISD_S9_EE
	.type	_ZNSt6chronomiINS_3_V212system_clockENS_8durationIlSt5ratioILl1ELl1000000000EEEES6_EENSt11common_typeIJT0_T1_EE4typeERKNS_10time_pointIT_S8_EERKNSC_ISD_S9_EE, @function
_ZNSt6chronomiINS_3_V212system_clockENS_8durationIlSt5ratioILl1ELl1000000000EEEES6_EENSt11common_typeIJT0_T1_EE4typeERKNS_10time_pointIT_S8_EERKNSC_ISD_S9_EE:
.LFB3375:
	.cfi_startproc
	endbr64
	pushq	%rbp
	.cfi_def_cfa_offset 16
	.cfi_offset 6, -16
	movq	%rsp, %rbp
	.cfi_def_cfa_register 6
	subq	$48, %rsp
	movq	%rdi, -40(%rbp)
	movq	%rsi, -48(%rbp)
	movq	%fs:40, %rax
	movq	%rax, -8(%rbp)
	xorl	%eax, %eax
	movq	-48(%rbp), %rax
	movq	%rax, %rdi
	call	_ZNKSt6chrono10time_pointINS_3_V212system_clockENS_8durationIlSt5ratioILl1ELl1000000000EEEEE16time_since_epochEv
	movq	%rax, -16(%rbp)
	movq	-40(%rbp), %rax
	movq	%rax, %rdi
	call	_ZNKSt6chrono10time_pointINS_3_V212system_clockENS_8durationIlSt5ratioILl1ELl1000000000EEEEE16time_since_epochEv
	movq	%rax, -24(%rbp)
	leaq	-16(%rbp), %rdx
	leaq	-24(%rbp), %rax
	movq	%rdx, %rsi
	movq	%rax, %rdi
	call	_ZNSt6chronomiIlSt5ratioILl1ELl1000000000EElS2_EENSt11common_typeIJNS_8durationIT_T0_EENS4_IT1_T2_EEEE4typeERKS7_RKSA_
	movq	-8(%rbp), %rdx
	subq	%fs:40, %rdx
	je	.L147
	call	__stack_chk_fail@PLT
.L147:
	leave
	.cfi_def_cfa 7, 8
	ret
	.cfi_endproc
.LFE3375:
	.size	_ZNSt6chronomiINS_3_V212system_clockENS_8durationIlSt5ratioILl1ELl1000000000EEEES6_EENSt11common_typeIJT0_T1_EE4typeERKNS_10time_pointIT_S8_EERKNSC_ISD_S9_EE, .-_ZNSt6chronomiINS_3_V212system_clockENS_8durationIlSt5ratioILl1ELl1000000000EEEES6_EENSt11common_typeIJT0_T1_EE4typeERKNS_10time_pointIT_S8_EERKNSC_ISD_S9_EE
	.text
	.type	_Z9time_loopIZ4mainEUlmE_EdOT_m, @function
_Z9time_loopIZ4mainEUlmE_EdOT_m:
.LFB3373:
	.cfi_startproc
	endbr64
	pushq	%rbp
	.cfi_def_cfa_offset 16
	.cfi_offset 6, -16
	movq	%rsp, %rbp
	.cfi_def_cfa_register 6
	subq	$64, %rsp
	movq	%rdi, -56(%rbp)
	movq	%rsi, -64(%rbp)
	movq	%fs:40, %rax
	movq	%rax, -8(%rbp)
	xorl	%eax, %eax
	call	_ZNSt6chrono3_V212system_clock3nowEv@PLT
	movq	%rax, -40(%rbp)
	movq	-64(%rbp), %rdx
	movq	-56(%rbp), %rax
	movq	%rdx, %rsi
	movq	%rax, %rdi
	call	_ZZ4mainENKUlmE_clEm
	call	_ZNSt6chrono3_V212system_clock3nowEv@PLT
	movq	%rax, -32(%rbp)
	leaq	-40(%rbp), %rdx
	leaq	-32(%rbp), %rax
	movq	%rdx, %rsi
	movq	%rax, %rdi
	call	_ZNSt6chronomiINS_3_V212system_clockENS_8durationIlSt5ratioILl1ELl1000000000EEEES6_EENSt11common_typeIJT0_T1_EE4typeERKNS_10time_pointIT_S8_EERKNSC_ISD_S9_EE
	movq	%rax, -16(%rbp)
	leaq	-16(%rbp), %rdx
	leaq	-24(%rbp), %rax
	movq	%rdx, %rsi
	movq	%rax, %rdi
	call	_ZNSt6chrono8durationIdSt5ratioILl1ELl1EEEC1IlS1_ILl1ELl1000000000EEvEERKNS0_IT_T0_EE
	leaq	-24(%rbp), %rax
	movq	%rax, %rdi
	call	_ZNKSt6chrono8durationIdSt5ratioILl1ELl1EEE5countEv
	movq	-8(%rbp), %rax
	subq	%fs:40, %rax
	je	.L150
	call	__stack_chk_fail@PLT
.L150:
	leave
	.cfi_def_cfa 7, 8
	ret
	.cfi_endproc
.LFE3373:
	.size	_Z9time_loopIZ4mainEUlmE_EdOT_m, .-_Z9time_loopIZ4mainEUlmE_EdOT_m
	.type	_Z9time_loopIZ4mainEUlmE0_EdOT_m, @function
_Z9time_loopIZ4mainEUlmE0_EdOT_m:
.LFB3376:
	.cfi_startproc
	endbr64
	pushq	%rbp
	.cfi_def_cfa_offset 16
	.cfi_offset 6, -16
	movq	%rsp, %rbp
	.cfi_def_cfa_register 6
	subq	$64, %rsp
	movq	%rdi, -56(%rbp)
	movq	%rsi, -64(%rbp)
	movq	%fs:40, %rax
	movq	%rax, -8(%rbp)
	xorl	%eax, %eax
	call	_ZNSt6chrono3_V212system_clock3nowEv@PLT
	movq	%rax, -40(%rbp)
	movq	-64(%rbp), %rdx
	movq	-56(%rbp), %rax
	movq	%rdx, %rsi
	movq	%rax, %rdi
	call	_ZZ4mainENKUlmE0_clEm
	call	_ZNSt6chrono3_V212system_clock3nowEv@PLT
	movq	%rax, -32(%rbp)
	leaq	-40(%rbp), %rdx
	leaq	-32(%rbp), %rax
	movq	%rdx, %rsi
	movq	%rax, %rdi
	call	_ZNSt6chronomiINS_3_V212system_clockENS_8durationIlSt5ratioILl1ELl1000000000EEEES6_EENSt11common_typeIJT0_T1_EE4typeERKNS_10time_pointIT_S8_EERKNSC_ISD_S9_EE
	movq	%rax, -16(%rbp)
	leaq	-16(%rbp), %rdx
	leaq	-24(%rbp), %rax
	movq	%rdx, %rsi
	movq	%rax, %rdi
	call	_ZNSt6chrono8durationIdSt5ratioILl1ELl1EEEC1IlS1_ILl1ELl1000000000EEvEERKNS0_IT_T0_EE
	leaq	-24(%rbp), %rax
	movq	%rax, %rdi
	call	_ZNKSt6chrono8durationIdSt5ratioILl1ELl1EEE5countEv
	movq	-8(%rbp), %rax
	subq	%fs:40, %rax
	je	.L153
	call	__stack_chk_fail@PLT
.L153:
	leave
	.cfi_def_cfa 7, 8
	ret
	.cfi_endproc
.LFE3376:
	.size	_Z9time_loopIZ4mainEUlmE0_EdOT_m, .-_Z9time_loopIZ4mainEUlmE0_EdOT_m
	.section	.text._ZN9__gnu_cxx11char_traitsIcE2eqERKcS3_,"axG",@progbits,_ZN9__gnu_cxx11char_traitsIcE2eqERKcS3_,comdat
	.weak	_ZN9__gnu_cxx11char_traitsIcE2eqERKcS3_
	.type	_ZN9__gnu_cxx11char_traitsIcE2eqERKcS3_, @function
_ZN9__gnu_cxx11char_traitsIcE2eqERKcS3_:
.LFB3379:
	.cfi_startproc
	endbr64
	pushq	%rbp
	.cfi_def_cfa_offset 16
	.cfi_offset 6, -16
	movq	%rsp, %rbp
	.cfi_def_cfa_register 6
	movq	%rdi, -8(%rbp)
	movq	%rsi, -16(%rbp)
	movq	-8(%rbp), %rax
	movzbl	(%rax), %edx
	movq	-16(%rbp), %rax
	movzbl	(%rax), %eax
	cmpb	%al, %dl
	sete	%al
	popq	%rbp
	.cfi_def_cfa 7, 8
	ret
	.cfi_endproc
.LFE3379:
	.size	_ZN9__gnu_cxx11char_traitsIcE2eqERKcS3_, .-_ZN9__gnu_cxx11char_traitsIcE2eqERKcS3_
	.section	.text._ZNSt15__new_allocatorIcED2Ev,"axG",@progbits,_ZNSt15__new_allocatorIcED5Ev,comdat
	.align 2
	.weak	_ZNSt15__new_allocatorIcED2Ev
	.type	_ZNSt15__new_allocatorIcED2Ev, @function
_ZNSt15__new_allocatorIcED2Ev:
.LFB3387:
	.cfi_startproc
	endbr64
	pushq	%rbp
	.cfi_def_cfa_offset 16
	.cfi_offset 6, -16
	movq	%rsp, %rbp
	.cfi_def_cfa_register 6
	movq	%rdi, -8(%rbp)
	nop
	popq	%rbp
	.cfi_def_cfa 7, 8
	ret
	.cfi_endproc
.LFE3387:
	.size	_ZNSt15__new_allocatorIcED2Ev, .-_ZNSt15__new_allocatorIcED2Ev
	.weak	_ZNSt15__new_allocatorIcED1Ev
	.set	_ZNSt15__new_allocatorIcED1Ev,_ZNSt15__new_allocatorIcED2Ev
	.section	.text._ZZNSt7__cxx1112basic_stringIcSt11char_traitsIcESaIcEE12_M_constructIPKcEEvT_S8_St20forward_iterator_tagEN6_GuardC2EPS4_,"axG",@progbits,_ZZNSt7__cxx1112basic_stringIcSt11char_traitsIcESaIcEE12_M_constructIPKcEEvT_S8_St20forward_iterator_tagEN6_GuardC5EPS4_,comdat
	.align 2
	.weak	_ZZNSt7__cxx1112basic_stringIcSt11char_traitsIcESaIcEE12_M_constructIPKcEEvT_S8_St20forward_iterator_tagEN6_GuardC2EPS4_
	.type	_ZZNSt7__cxx1112basic_stringIcSt11char_traitsIcESaIcEE12_M_constructIPKcEEvT_S8_St20forward_iterator_tagEN6_GuardC2EPS4_, @function
_ZZNSt7__cxx1112basic_stringIcSt11char_traitsIcESaIcEE12_M_constructIPKcEEvT_S8_St20forward_iterator_tagEN6_GuardC2EPS4_:
.LFB3417:
	.cfi_startproc
	endbr64
	pushq	%rbp
	.cfi_def_cfa_offset 16
	.cfi_offset 6, -16
	movq	%rsp, %rbp
	.cfi_def_cfa_register 6
	movq	%rdi, -8(%rbp)
	movq	%rsi, -16(%rbp)
	movq	-8(%rbp), %rax
	movq	-16(%rbp), %rdx
	movq	%rdx, (%rax)
	nop
	popq	%rbp
	.cfi_def_cfa 7, 8
	ret
	.cfi_endproc
.LFE3417:
	.size	_ZZNSt7__cxx1112basic_stringIcSt11char_traitsIcESaIcEE12_M_constructIPKcEEvT_S8_St20forward_iterator_tagEN6_GuardC2EPS4_, .-_ZZNSt7__cxx1112basic_stringIcSt11char_traitsIcESaIcEE12_M_constructIPKcEEvT_S8_St20forward_iterator_tagEN6_GuardC2EPS4_
	.weak	_ZZNSt7__cxx1112basic_stringIcSt11char_traitsIcESaIcEE12_M_constructIPKcEEvT_S8_St20forward_iterator_tagEN6_GuardC1EPS4_
	.set	_ZZNSt7__cxx1112basic_stringIcSt11char_traitsIcESaIcEE12_M_constructIPKcEEvT_S8_St20forward_iterator_tagEN6_GuardC1EPS4_,_ZZNSt7__cxx1112basic_stringIcSt11char_traitsIcESaIcEE12_M_constructIPKcEEvT_S8_St20forward_iterator_tagEN6_GuardC2EPS4_
	.section	.text._ZZNSt7__cxx1112basic_stringIcSt11char_traitsIcESaIcEE12_M_constructIPKcEEvT_S8_St20forward_iterator_tagEN6_GuardD2Ev,"axG",@progbits,_ZZNSt7__cxx1112basic_stringIcSt11char_traitsIcESaIcEE12_M_constructIPKcEEvT_S8_St20forward_iterator_tagEN6_GuardD5Ev,comdat
	.align 2
	.weak	_ZZNSt7__cxx1112basic_stringIcSt11char_traitsIcESaIcEE12_M_constructIPKcEEvT_S8_St20forward_iterator_tagEN6_GuardD2Ev
	.type	_ZZNSt7__cxx1112basic_stringIcSt11char_traitsIcESaIcEE12_M_constructIPKcEEvT_S8_St20forward_iterator_tagEN6_GuardD2Ev, @function
_ZZNSt7__cxx1112basic_stringIcSt11char_traitsIcESaIcEE12_M_constructIPKcEEvT_S8_St20forward_iterator_tagEN6_GuardD2Ev:
.LFB3420:
	.cfi_startproc
	.cfi_personality 0x9b,DW.ref.__gxx_personality_v0
	.cfi_lsda 0x1b,.LLSDA3420
	endbr64
	pushq	%rbp
	.cfi_def_cfa_offset 16
	.cfi_offset 6, -16
	movq	%rsp, %rbp
	.cfi_def_cfa_register 6
	subq	$16, %rsp
	movq	%rdi, -8(%rbp)
	movq	-8(%rbp), %rax
	movq	(%rax), %rax
	testq	%rax, %rax
	je	.L160
	movq	-8(%rbp), %rax
	movq	(%rax), %rax
	movq	%rax, %rdi
	call	_ZNSt7__cxx1112basic_stringIcSt11char_traitsIcESaIcEE10_M_disposeEv@PLT
.L160:
	nop
	leave
	.cfi_def_cfa 7, 8
	ret
	.cfi_endproc
.LFE3420:
	.section	.gcc_except_table
.LLSDA3420:
	.byte	0xff
	.byte	0xff
	.byte	0x1
	.uleb128 .LLSDACSE3420-.LLSDACSB3420
.LLSDACSB3420:
.LLSDACSE3420:
	.section	.text._ZZNSt7__cxx1112basic_stringIcSt11char_traitsIcESaIcEE12_M_constructIPKcEEvT_S8_St20forward_iterator_tagEN6_GuardD2Ev,"axG",@progbits,_ZZNSt7__cxx1112basic_stringIcSt11char_traitsIcESaIcEE12_M_constructIPKcEEvT_S8_St20forward_iterator_tagEN6_GuardD5Ev,comdat
	.size	_ZZNSt7__cxx1112basic_stringIcSt11char_traitsIcESaIcEE12_M_constructIPKcEEvT_S8_St20forward_iterator_tagEN6_GuardD2Ev, .-_ZZNSt7__cxx1112basic_stringIcSt11char_traitsIcESaIcEE12_M_constructIPKcEEvT_S8_St20forward_iterator_tagEN6_GuardD2Ev
	.weak	_ZZNSt7__cxx1112basic_stringIcSt11char_traitsIcESaIcEE12_M_constructIPKcEEvT_S8_St20forward_iterator_tagEN6_GuardD1Ev
	.set	_ZZNSt7__cxx1112basic_stringIcSt11char_traitsIcESaIcEE12_M_constructIPKcEEvT_S8_St20forward_iterator_tagEN6_GuardD1Ev,_ZZNSt7__cxx1112basic_stringIcSt11char_traitsIcESaIcEE12_M_constructIPKcEEvT_S8_St20forward_iterator_tagEN6_GuardD2Ev
	.section	.text._ZNSt7__cxx1112basic_stringIcSt11char_traitsIcESaIcEE12_M_constructIPKcEEvT_S8_St20forward_iterator_tag,"axG",@progbits,_ZNSt7__cxx1112basic_stringIcSt11char_traitsIcESaIcEE12_M_constructIPKcEEvT_S8_St20forward_iterator_tag,comdat
	.align 2
	.weak	_ZNSt7__cxx1112basic_stringIcSt11char_traitsIcESaIcEE12_M_constructIPKcEEvT_S8_St20forward_iterator_tag
	.type	_ZNSt7__cxx1112basic_stringIcSt11char_traitsIcESaIcEE12_M_constructIPKcEEvT_S8_St20forward_iterator_tag, @function
_ZNSt7__cxx1112basic_stringIcSt11char_traitsIcESaIcEE12_M_constructIPKcEEvT_S8_St20forward_iterator_tag:
.LFB3415:
	.cfi_startproc
	endbr64
	pushq	%rbp
	.cfi_def_cfa_offset 16
	.cfi_offset 6, -16
	movq	%rsp, %rbp
	.cfi_def_cfa_register 6
	subq	$96, %rsp
	movq	%rdi, -72(%rbp)
	movq	%rsi, -80(%rbp)
	movq	%rdx, -88(%rbp)
	movq	%fs:40, %rax
	movq	%rax, -8(%rbp)
	xorl	%eax, %eax
	movq	-80(%rbp), %rax
	movq	%rax, -48(%rbp)
	movq	-88(%rbp), %rax
	movq	%rax, -40(%rbp)
	nop
	movq	-48(%rbp), %rax
	movq	%rax, -32(%rbp)
	movq	-40(%rbp), %rax
	movq	%rax, -24(%rbp)
	movq	-24(%rbp), %rax
	subq	-32(%rbp), %rax
	nop
	movq	%rax, -56(%rbp)
	movq	-56(%rbp), %rax
	cmpq	$15, %rax
	jbe	.L165
	leaq	-56(%rbp), %rcx
	movq	-72(%rbp), %rax
	movl	$0, %edx
	movq	%rcx, %rsi
	movq	%rax, %rdi
	call	_ZNSt7__cxx1112basic_stringIcSt11char_traitsIcESaIcEE9_M_createERmm@PLT
	movq	%rax, %rdx
	movq	-72(%rbp), %rax
	movq	%rdx, %rsi
	movq	%rax, %rdi
	call	_ZNSt7__cxx1112basic_stringIcSt11char_traitsIcESaIcEE7_M_dataEPc@PLT
	movq	-56(%rbp), %rdx
	movq	-72(%rbp), %rax
	movq	%rdx, %rsi
	movq	%rax, %rdi
	call	_ZNSt7__cxx1112basic_stringIcSt11char_traitsIcESaIcEE11_M_capacityEm@PLT
	jmp	.L166
.L165:
	movq	-72(%rbp), %rax
	movq	%rax, -16(%rbp)
	nop
.L166:
	movq	-72(%rbp), %rdx
	leaq	-48(%rbp), %rax
	movq	%rdx, %rsi
	movq	%rax, %rdi
	call	_ZZNSt7__cxx1112basic_stringIcSt11char_traitsIcESaIcEE12_M_constructIPKcEEvT_S8_St20forward_iterator_tagEN6_GuardC1EPS4_
	movq	-72(%rbp), %rax
	movq	%rax, %rdi
	call	_ZNKSt7__cxx1112basic_stringIcSt11char_traitsIcESaIcEE7_M_dataEv@PLT
	movq	%rax, %rcx
	movq	-88(%rbp), %rdx
	movq	-80(%rbp), %rax
	movq	%rax, %rsi
	movq	%rcx, %rdi
	call	_ZNSt7__cxx1112basic_stringIcSt11char_traitsIcESaIcEE13_S_copy_charsEPcPKcS7_@PLT
	movq	$0, -48(%rbp)
	movq	-56(%rbp), %rdx
	movq	-72(%rbp), %rax
	movq	%rdx, %rsi
	movq	%rax, %rdi
	call	_ZNSt7__cxx1112basic_stringIcSt11char_traitsIcESaIcEE13_M_set_lengthEm@PLT
	leaq	-48(%rbp), %rax
	movq	%rax, %rdi
	call	_ZZNSt7__cxx1112basic_stringIcSt11char_traitsIcESaIcEE12_M_constructIPKcEEvT_S8_St20forward_iterator_tagEN6_GuardD1Ev
	movq	-8(%rbp), %rax
	subq	%fs:40, %rax
	je	.L167
	call	__stack_chk_fail@PLT
.L167:
	leave
	.cfi_def_cfa 7, 8
	ret
	.cfi_endproc
.LFE3415:
	.size	_ZNSt7__cxx1112basic_stringIcSt11char_traitsIcESaIcEE12_M_constructIPKcEEvT_S8_St20forward_iterator_tag, .-_ZNSt7__cxx1112basic_stringIcSt11char_traitsIcESaIcEE12_M_constructIPKcEEvT_S8_St20forward_iterator_tag
	.section	.text._ZNSt12_Vector_baseImSaImEE17_Vector_impl_dataC2Ev,"axG",@progbits,_ZNSt12_Vector_baseImSaImEE17_Vector_impl_dataC5Ev,comdat
	.align 2
	.weak	_ZNSt12_Vector_baseImSaImEE17_Vector_impl_dataC2Ev
	.type	_ZNSt12_Vector_baseImSaImEE17_Vector_impl_dataC2Ev, @function
_ZNSt12_Vector_baseImSaImEE17_Vector_impl_dataC2Ev:
.LFB3495:
	.cfi_startproc
	endbr64
	pushq	%rbp
	.cfi_def_cfa_offset 16
	.cfi_offset 6, -16
	movq	%rsp, %rbp
	.cfi_def_cfa_register 6
	movq	%rdi, -8(%rbp)
	movq	-8(%rbp), %rax
	movq	$0, (%rax)
	movq	-8(%rbp), %rax
	movq	$0, 8(%rax)
	movq	-8(%rbp), %rax
	movq	$0, 16(%rax)
	nop
	popq	%rbp
	.cfi_def_cfa 7, 8
	ret
	.cfi_endproc
.LFE3495:
	.size	_ZNSt12_Vector_baseImSaImEE17_Vector_impl_dataC2Ev, .-_ZNSt12_Vector_baseImSaImEE17_Vector_impl_dataC2Ev
	.weak	_ZNSt12_Vector_baseImSaImEE17_Vector_impl_dataC1Ev
	.set	_ZNSt12_Vector_baseImSaImEE17_Vector_impl_dataC1Ev,_ZNSt12_Vector_baseImSaImEE17_Vector_impl_dataC2Ev
	.section	.text._ZNSt15__new_allocatorImED2Ev,"axG",@progbits,_ZNSt15__new_allocatorImED5Ev,comdat
	.align 2
	.weak	_ZNSt15__new_allocatorImED2Ev
	.type	_ZNSt15__new_allocatorImED2Ev, @function
_ZNSt15__new_allocatorImED2Ev:
.LFB3498:
	.cfi_startproc
	endbr64
	pushq	%rbp
	.cfi_def_cfa_offset 16
	.cfi_offset 6, -16
	movq	%rsp, %rbp
	.cfi_def_cfa_register 6
	movq	%rdi, -8(%rbp)
	nop
	popq	%rbp
	.cfi_def_cfa 7, 8
	ret
	.cfi_endproc
.LFE3498:
	.size	_ZNSt15__new_allocatorImED2Ev, .-_ZNSt15__new_allocatorImED2Ev
	.weak	_ZNSt15__new_allocatorImED1Ev
	.set	_ZNSt15__new_allocatorImED1Ev,_ZNSt15__new_allocatorImED2Ev
	.section	.text._ZNSt12_Vector_baseImSaImEE13_M_deallocateEPmm,"axG",@progbits,_ZNSt12_Vector_baseImSaImEE13_M_deallocateEPmm,comdat
	.align 2
	.weak	_ZNSt12_Vector_baseImSaImEE13_M_deallocateEPmm
	.type	_ZNSt12_Vector_baseImSaImEE13_M_deallocateEPmm, @function
_ZNSt12_Vector_baseImSaImEE13_M_deallocateEPmm:
.LFB3500:
	.cfi_startproc
	endbr64
	pushq	%rbp
	.cfi_def_cfa_offset 16
	.cfi_offset 6, -16
	movq	%rsp, %rbp
	.cfi_def_cfa_register 6
	subq	$64, %rsp
	movq	%rdi, -40(%rbp)
	movq	%rsi, -48(%rbp)
	movq	%rdx, -56(%rbp)
	cmpq	$0, -48(%rbp)
	je	.L172
	movq	-40(%rbp), %rax
	movq	%rax, -24(%rbp)
	movq	-48(%rbp), %rax
	movq	%rax, -16(%rbp)
	movq	-56(%rbp), %rax
	movq	%rax, -8(%rbp)
	movq	-8(%rbp), %rdx
	movq	-16(%rbp), %rcx
	movq	-24(%rbp), %rax
	movq	%rcx, %rsi
	movq	%rax, %rdi
	call	_ZNSt15__new_allocatorImE10deallocateEPmm
	nop
.L172:
	nop
	leave
	.cfi_def_cfa 7, 8
	ret
	.cfi_endproc
.LFE3500:
	.size	_ZNSt12_Vector_baseImSaImEE13_M_deallocateEPmm, .-_ZNSt12_Vector_baseImSaImEE13_M_deallocateEPmm
	.section	.text._ZNSt12_Vector_baseImSaImEE19_M_get_Tp_allocatorEv,"axG",@progbits,_ZNSt12_Vector_baseImSaImEE19_M_get_Tp_allocatorEv,comdat
	.align 2
	.weak	_ZNSt12_Vector_baseImSaImEE19_M_get_Tp_allocatorEv
	.type	_ZNSt12_Vector_baseImSaImEE19_M_get_Tp_allocatorEv, @function
_ZNSt12_Vector_baseImSaImEE19_M_get_Tp_allocatorEv:
.LFB3501:
	.cfi_startproc
	endbr64
	pushq	%rbp
	.cfi_def_cfa_offset 16
	.cfi_offset 6, -16
	movq	%rsp, %rbp
	.cfi_def_cfa_register 6
	movq	%rdi, -8(%rbp)
	movq	-8(%rbp), %rax
	popq	%rbp
	.cfi_def_cfa 7, 8
	ret
	.cfi_endproc
.LFE3501:
	.size	_ZNSt12_Vector_baseImSaImEE19_M_get_Tp_allocatorEv, .-_ZNSt12_Vector_baseImSaImEE19_M_get_Tp_allocatorEv
	.section	.text._ZSt4moveIRmEONSt16remove_referenceIT_E4typeEOS2_,"axG",@progbits,_ZSt4moveIRmEONSt16remove_referenceIT_E4typeEOS2_,comdat
	.weak	_ZSt4moveIRmEONSt16remove_referenceIT_E4typeEOS2_
	.type	_ZSt4moveIRmEONSt16remove_referenceIT_E4typeEOS2_, @function
_ZSt4moveIRmEONSt16remove_referenceIT_E4typeEOS2_:
.LFB3503:
	.cfi_startproc
	endbr64
	pushq	%rbp
	.cfi_def_cfa_offset 16
	.cfi_offset 6, -16
	movq	%rsp, %rbp
	.cfi_def_cfa_register 6
	movq	%rdi, -8(%rbp)
	movq	-8(%rbp), %rax
	popq	%rbp
	.cfi_def_cfa 7, 8
	ret
	.cfi_endproc
.LFE3503:
	.size	_ZSt4moveIRmEONSt16remove_referenceIT_E4typeEOS2_, .-_ZSt4moveIRmEONSt16remove_referenceIT_E4typeEOS2_
	.section	.text._ZNSt6vectorImSaImEE12emplace_backIJmEEERmDpOT_,"axG",@progbits,_ZNSt6vectorImSaImEE12emplace_backIJmEEERmDpOT_,comdat
	.align 2
	.weak	_ZNSt6vectorImSaImEE12emplace_backIJmEEERmDpOT_
	.type	_ZNSt6vectorImSaImEE12emplace_backIJmEEERmDpOT_, @function
_ZNSt6vectorImSaImEE12emplace_backIJmEEERmDpOT_:
.LFB3504:
	.cfi_startproc
	endbr64
	pushq	%rbp
	.cfi_def_cfa_offset 16
	.cfi_offset 6, -16
	movq	%rsp, %rbp
	.cfi_def_cfa_register 6
	pushq	%rbx
	subq	$72, %rsp
	.cfi_offset 3, -24
	movq	%rdi, -72(%rbp)
	movq	%rsi, -80(%rbp)
	movq	-72(%rbp), %rax
	movq	8(%rax), %rdx
	movq	-72(%rbp), %rax
	movq	16(%rax), %rax
	cmpq	%rax, %rdx
	je	.L178
	movq	-80(%rbp), %rax
	movq	%rax, %rdi
	call	_ZSt7forwardImEOT_RNSt16remove_referenceIS0_E4typeE
	movq	-72(%rbp), %rdx
	movq	8(%rdx), %rdx
	movq	-72(%rbp), %rcx
	movq	%rcx, -64(%rbp)
	movq	%rdx, -56(%rbp)
	movq	%rax, -48(%rbp)
	movq	-48(%rbp), %rax
	movq	%rax, %rdi
	call	_ZSt7forwardImEOT_RNSt16remove_referenceIS0_E4typeE
	movq	-64(%rbp), %rdx
	movq	%rdx, -40(%rbp)
	movq	-56(%rbp), %rdx
	movq	%rdx, -32(%rbp)
	movq	%rax, -24(%rbp)
	movq	-32(%rbp), %rax
	movq	%rax, %rsi
	movl	$8, %edi
	call	_ZnwmPv
	movq	%rax, %rbx
	movq	-24(%rbp), %rax
	movq	%rax, %rdi
	call	_ZSt7forwardImEOT_RNSt16remove_referenceIS0_E4typeE
	movq	(%rax), %rax
	movq	%rax, (%rbx)
	nop
	nop
	movq	-72(%rbp), %rax
	movq	8(%rax), %rax
	leaq	8(%rax), %rdx
	movq	-72(%rbp), %rax
	movq	%rdx, 8(%rax)
	jmp	.L179
.L178:
	movq	-80(%rbp), %rax
	movq	%rax, %rdi
	call	_ZSt7forwardImEOT_RNSt16remove_referenceIS0_E4typeE
	movq	%rax, %rbx
	movq	-72(%rbp), %rax
	movq	%rax, %rdi
	call	_ZNSt6vectorImSaImEE3endEv
	movq	%rax, %rcx
	movq	-72(%rbp), %rax
	movq	%rbx, %rdx
	movq	%rcx, %rsi
	movq	%rax, %rdi
	call	_ZNSt6vectorImSaImEE17_M_realloc_insertIJmEEEvN9__gnu_cxx17__normal_iteratorIPmS1_EEDpOT_
.L179:
	movq	-72(%rbp), %rax
	movq	%rax, %rdi
	call	_ZNSt6vectorImSaImEE4backEv
	movq	-8(%rbp), %rbx
	leave
	.cfi_def_cfa 7, 8
	ret
	.cfi_endproc
.LFE3504:
	.size	_ZNSt6vectorImSaImEE12emplace_backIJmEEERmDpOT_, .-_ZNSt6vectorImSaImEE12emplace_backIJmEEERmDpOT_
	.section	.text._ZNKSt16initializer_listImE5beginEv,"axG",@progbits,_ZNKSt16initializer_listImE5beginEv,comdat
	.align 2
	.weak	_ZNKSt16initializer_listImE5beginEv
	.type	_ZNKSt16initializer_listImE5beginEv, @function
_ZNKSt16initializer_listImE5beginEv:
.LFB3505:
	.cfi_startproc
	endbr64
	pushq	%rbp
	.cfi_def_cfa_offset 16
	.cfi_offset 6, -16
	movq	%rsp, %rbp
	.cfi_def_cfa_register 6
	movq	%rdi, -8(%rbp)
	movq	-8(%rbp), %rax
	movq	(%rax), %rax
	popq	%rbp
	.cfi_def_cfa 7, 8
	ret
	.cfi_endproc
.LFE3505:
	.size	_ZNKSt16initializer_listImE5beginEv, .-_ZNKSt16initializer_listImE5beginEv
	.section	.text._ZNKSt16initializer_listImE3endEv,"axG",@progbits,_ZNKSt16initializer_listImE3endEv,comdat
	.align 2
	.weak	_ZNKSt16initializer_listImE3endEv
	.type	_ZNKSt16initializer_listImE3endEv, @function
_ZNKSt16initializer_listImE3endEv:
.LFB3506:
	.cfi_startproc
	endbr64
	pushq	%rbp
	.cfi_def_cfa_offset 16
	.cfi_offset 6, -16
	movq	%rsp, %rbp
	.cfi_def_cfa_register 6
	pushq	%rbx
	subq	$24, %rsp
	.cfi_offset 3, -24
	movq	%rdi, -24(%rbp)
	movq	-24(%rbp), %rax
	movq	%rax, %rdi
	call	_ZNKSt16initializer_listImE5beginEv
	movq	%rax, %rbx
	movq	-24(%rbp), %rax
	movq	%rax, %rdi
	call	_ZNKSt16initializer_listImE4sizeEv
	salq	$3, %rax
	addq	%rbx, %rax
	movq	-8(%rbp), %rbx
	leave
	.cfi_def_cfa 7, 8
	ret
	.cfi_endproc
.LFE3506:
	.size	_ZNKSt16initializer_listImE3endEv, .-_ZNKSt16initializer_listImE3endEv
	.section	.text._ZNSt6vectorImSaImEE13_M_assign_auxIPKmEEvT_S5_St20forward_iterator_tag,"axG",@progbits,_ZNSt6vectorImSaImEE13_M_assign_auxIPKmEEvT_S5_St20forward_iterator_tag,comdat
	.align 2
	.weak	_ZNSt6vectorImSaImEE13_M_assign_auxIPKmEEvT_S5_St20forward_iterator_tag
	.type	_ZNSt6vectorImSaImEE13_M_assign_auxIPKmEEvT_S5_St20forward_iterator_tag, @function
_ZNSt6vectorImSaImEE13_M_assign_auxIPKmEEvT_S5_St20forward_iterator_tag:
.LFB3507:
	.cfi_startproc
	endbr64
	pushq	%rbp
	.cfi_def_cfa_offset 16
	.cfi_offset 6, -16
	movq	%rsp, %rbp
	.cfi_def_cfa_register 6
	subq	$144, %rsp
	movq	%rdi, -120(%rbp)
	movq	%rsi, -128(%rbp)
	movq	%rdx, -136(%rbp)
	movq	%fs:40, %rax
	movq	%rax, -8(%rbp)
	xorl	%eax, %eax
	movq	-128(%rbp), %rax
	movq	%rax, -112(%rbp)
	movq	-136(%rbp), %rax
	movq	%rax, -80(%rbp)
	nop
	movq	-112(%rbp), %rax
	movq	%rax, -72(%rbp)
	movq	-80(%rbp), %rax
	movq	%rax, -64(%rbp)
	movq	-64(%rbp), %rax
	subq	-72(%rbp), %rax
	sarq	$3, %rax
	nop
	movq	%rax, -104(%rbp)
	movq	-120(%rbp), %rax
	movq	%rax, %rdi
	call	_ZNKSt6vectorImSaImEE8capacityEv
	cmpq	-104(%rbp), %rax
	setb	%al
	testb	%al, %al
	je	.L189
	movq	-120(%rbp), %rax
	movq	%rax, %rdi
	call	_ZNSt12_Vector_baseImSaImEE19_M_get_Tp_allocatorEv
	movq	%rax, %rdx
	movq	-104(%rbp), %rax
	movq	%rdx, %rsi
	movq	%rax, %rdi
	call	_ZNSt6vectorImSaImEE17_S_check_init_lenEmRKS0_
	movq	-136(%rbp), %rcx
	movq	-128(%rbp), %rdx
	movq	-104(%rbp), %rsi
	movq	-120(%rbp), %rax
	movq	%rax, %rdi
	call	_ZNSt6vectorImSaImEE20_M_allocate_and_copyIPKmEEPmmT_S6_
	movq	%rax, -88(%rbp)
	movq	-120(%rbp), %rax
	movq	%rax, %rdi
	call	_ZNSt12_Vector_baseImSaImEE19_M_get_Tp_allocatorEv
	movq	-120(%rbp), %rdx
	movq	8(%rdx), %rdx
	movq	-120(%rbp), %rcx
	movq	(%rcx), %rcx
	movq	%rcx, -56(%rbp)
	movq	%rdx, -48(%rbp)
	movq	%rax, -40(%rbp)
	movq	-48(%rbp), %rdx
	movq	-56(%rbp), %rax
	movq	%rdx, %rsi
	movq	%rax, %rdi
	call	_ZSt8_DestroyIPmEvT_S1_
	nop
	movq	-120(%rbp), %rax
	movq	-120(%rbp), %rdx
	movq	16(%rdx), %rcx
	movq	-120(%rbp), %rdx
	movq	(%rdx), %rdx
	subq	%rdx, %rcx
	sarq	$3, %rcx
	movq	%rcx, %rdx
	movq	%rdx, %rsi
	movq	-120(%rbp), %rdx
	movq	(%rdx), %rcx
	movq	%rsi, %rdx
	movq	%rcx, %rsi
	movq	%rax, %rdi
	call	_ZNSt12_Vector_baseImSaImEE13_M_deallocateEPmm
	movq	-120(%rbp), %rax
	movq	-88(%rbp), %rdx
	movq	%rdx, (%rax)
	movq	-120(%rbp), %rax
	movq	(%rax), %rax
	movq	-104(%rbp), %rdx
	salq	$3, %rdx
	addq	%rax, %rdx
	movq	-120(%rbp), %rax
	movq	%rdx, 8(%rax)
	movq	-120(%rbp), %rax
	movq	8(%rax), %rdx
	movq	-120(%rbp), %rax
	movq	%rdx, 16(%rax)
	jmp	.L194
.L189:
	movq	-120(%rbp), %rax
	movq	%rax, %rdi
	call	_ZNKSt6vectorImSaImEE4sizeEv
	cmpq	-104(%rbp), %rax
	setnb	%al
	testb	%al, %al
	je	.L191
	movq	-120(%rbp), %rax
	movq	(%rax), %rdx
	movq	-136(%rbp), %rcx
	movq	-128(%rbp), %rax
	movq	%rcx, %rsi
	movq	%rax, %rdi
	call	_ZSt4copyIPKmPmET0_T_S4_S3_
	movq	%rax, %rdx
	movq	-120(%rbp), %rax
	movq	%rdx, %rsi
	movq	%rax, %rdi
	call	_ZNSt6vectorImSaImEE15_M_erase_at_endEPm
	jmp	.L194
.L191:
	movq	-128(%rbp), %rax
	movq	%rax, -112(%rbp)
	movq	-120(%rbp), %rax
	movq	%rax, %rdi
	call	_ZNKSt6vectorImSaImEE4sizeEv
	movq	%rax, -32(%rbp)
	movq	-32(%rbp), %rax
	movq	%rax, -24(%rbp)
	leaq	-112(%rbp), %rax
	movq	%rax, -16(%rbp)
	nop
	movq	-24(%rbp), %rdx
	leaq	-112(%rbp), %rax
	movq	%rdx, %rsi
	movq	%rax, %rdi
	call	_ZSt9__advanceIPKmlEvRT_T0_St26random_access_iterator_tag
	nop
	movq	-120(%rbp), %rax
	movq	(%rax), %rdx
	movq	-112(%rbp), %rcx
	movq	-128(%rbp), %rax
	movq	%rcx, %rsi
	movq	%rax, %rdi
	call	_ZSt4copyIPKmPmET0_T_S4_S3_
	movq	-120(%rbp), %rax
	movq	%rax, %rdi
	call	_ZNKSt6vectorImSaImEE4sizeEv
	movq	-104(%rbp), %rdx
	subq	%rax, %rdx
	movq	%rdx, -96(%rbp)
	movq	-120(%rbp), %rax
	movq	%rax, %rdi
	call	_ZNSt12_Vector_baseImSaImEE19_M_get_Tp_allocatorEv
	movq	%rax, %rcx
	movq	-120(%rbp), %rax
	movq	8(%rax), %rdx
	movq	-112(%rbp), %rax
	movq	-136(%rbp), %rsi
	movq	%rax, %rdi
	call	_ZSt22__uninitialized_copy_aIPKmPmmET0_T_S4_S3_RSaIT1_E
	movq	-120(%rbp), %rdx
	movq	%rax, 8(%rdx)
.L194:
	nop
	movq	-8(%rbp), %rax
	subq	%fs:40, %rax
	je	.L193
	call	__stack_chk_fail@PLT
.L193:
	leave
	.cfi_def_cfa 7, 8
	ret
	.cfi_endproc
.LFE3507:
	.size	_ZNSt6vectorImSaImEE13_M_assign_auxIPKmEEvT_S5_St20forward_iterator_tag, .-_ZNSt6vectorImSaImEE13_M_assign_auxIPKmEEvT_S5_St20forward_iterator_tag
	.section	.text._ZN9__gnu_cxx17__normal_iteratorIPmSt6vectorImSaImEEEC2ERKS1_,"axG",@progbits,_ZN9__gnu_cxx17__normal_iteratorIPmSt6vectorImSaImEEEC5ERKS1_,comdat
	.align 2
	.weak	_ZN9__gnu_cxx17__normal_iteratorIPmSt6vectorImSaImEEEC2ERKS1_
	.type	_ZN9__gnu_cxx17__normal_iteratorIPmSt6vectorImSaImEEEC2ERKS1_, @function
_ZN9__gnu_cxx17__normal_iteratorIPmSt6vectorImSaImEEEC2ERKS1_:
.LFB3546:
	.cfi_startproc
	endbr64
	pushq	%rbp
	.cfi_def_cfa_offset 16
	.cfi_offset 6, -16
	movq	%rsp, %rbp
	.cfi_def_cfa_register 6
	movq	%rdi, -8(%rbp)
	movq	%rsi, -16(%rbp)
	movq	-16(%rbp), %rax
	movq	(%rax), %rdx
	movq	-8(%rbp), %rax
	movq	%rdx, (%rax)
	nop
	popq	%rbp
	.cfi_def_cfa 7, 8
	ret
	.cfi_endproc
.LFE3546:
	.size	_ZN9__gnu_cxx17__normal_iteratorIPmSt6vectorImSaImEEEC2ERKS1_, .-_ZN9__gnu_cxx17__normal_iteratorIPmSt6vectorImSaImEEEC2ERKS1_
	.weak	_ZN9__gnu_cxx17__normal_iteratorIPmSt6vectorImSaImEEEC1ERKS1_
	.set	_ZN9__gnu_cxx17__normal_iteratorIPmSt6vectorImSaImEEEC1ERKS1_,_ZN9__gnu_cxx17__normal_iteratorIPmSt6vectorImSaImEEEC2ERKS1_
	.section	.text._ZNK9__gnu_cxx17__normal_iteratorIPmSt6vectorImSaImEEE4baseEv,"axG",@progbits,_ZNK9__gnu_cxx17__normal_iteratorIPmSt6vectorImSaImEEE4baseEv,comdat
	.align 2
	.weak	_ZNK9__gnu_cxx17__normal_iteratorIPmSt6vectorImSaImEEE4baseEv
	.type	_ZNK9__gnu_cxx17__normal_iteratorIPmSt6vectorImSaImEEE4baseEv, @function
_ZNK9__gnu_cxx17__normal_iteratorIPmSt6vectorImSaImEEE4baseEv:
.LFB3548:
	.cfi_startproc
	endbr64
	pushq	%rbp
	.cfi_def_cfa_offset 16
	.cfi_offset 6, -16
	movq	%rsp, %rbp
	.cfi_def_cfa_register 6
	movq	%rdi, -8(%rbp)
	movq	-8(%rbp), %rax
	popq	%rbp
	.cfi_def_cfa 7, 8
	ret
	.cfi_endproc
.LFE3548:
	.size	_ZNK9__gnu_cxx17__normal_iteratorIPmSt6vectorImSaImEEE4baseEv, .-_ZNK9__gnu_cxx17__normal_iteratorIPmSt6vectorImSaImEEE4baseEv
	.section	.text._ZNSt6chrono8durationIdSt5ratioILl1ELl1EEEC2IlS1_ILl1ELl1000000000EEvEERKNS0_IT_T0_EE,"axG",@progbits,_ZNSt6chrono8durationIdSt5ratioILl1ELl1EEEC5IlS1_ILl1ELl1000000000EEvEERKNS0_IT_T0_EE,comdat
	.align 2
	.weak	_ZNSt6chrono8durationIdSt5ratioILl1ELl1EEEC2IlS1_ILl1ELl1000000000EEvEERKNS0_IT_T0_EE
	.type	_ZNSt6chrono8durationIdSt5ratioILl1ELl1EEEC2IlS1_ILl1ELl1000000000EEvEERKNS0_IT_T0_EE, @function
_ZNSt6chrono8durationIdSt5ratioILl1ELl1EEEC2IlS1_ILl1ELl1000000000EEvEERKNS0_IT_T0_EE:
.LFB3550:
	.cfi_startproc
	endbr64
	pushq	%rbp
	.cfi_def_cfa_offset 16
	.cfi_offset 6, -16
	movq	%rsp, %rbp
	.cfi_def_cfa_register 6
	subq	$32, %rsp
	movq	%rdi, -24(%rbp)
	movq	%rsi, -32(%rbp)
	movq	%fs:40, %rax
	movq	%rax, -8(%rbp)
	xorl	%eax, %eax
	movq	-32(%rbp), %rax
	movq	%rax, %rdi
	call	_ZNSt6chrono13duration_castINS_8durationIdSt5ratioILl1ELl1EEEElS2_ILl1ELl1000000000EEEENSt9enable_ifIXsrNS_13__is_durationIT_EE5valueES8_E4typeERKNS1_IT0_T1_EE
	movsd	%xmm0, -16(%rbp)
	leaq	-16(%rbp), %rax
	movq	%rax, %rdi
	call	_ZNKSt6chrono8durationIdSt5ratioILl1ELl1EEE5countEv
	movq	%xmm0, %rax
	movq	-24(%rbp), %rdx
	movq	%rax, (%rdx)
	nop
	movq	-8(%rbp), %rax
	subq	%fs:40, %rax
	je	.L199
	call	__stack_chk_fail@PLT
.L199:
	leave
	.cfi_def_cfa 7, 8
	ret
	.cfi_endproc
.LFE3550:
	.size	_ZNSt6chrono8durationIdSt5ratioILl1ELl1EEEC2IlS1_ILl1ELl1000000000EEvEERKNS0_IT_T0_EE, .-_ZNSt6chrono8durationIdSt5ratioILl1ELl1EEEC2IlS1_ILl1ELl1000000000EEvEERKNS0_IT_T0_EE
	.weak	_ZNSt6chrono8durationIdSt5ratioILl1ELl1EEEC1IlS1_ILl1ELl1000000000EEvEERKNS0_IT_T0_EE
	.set	_ZNSt6chrono8durationIdSt5ratioILl1ELl1EEEC1IlS1_ILl1ELl1000000000EEvEERKNS0_IT_T0_EE,_ZNSt6chrono8durationIdSt5ratioILl1ELl1EEEC2IlS1_ILl1ELl1000000000EEvEERKNS0_IT_T0_EE
	.section	.text._ZNSt6chronomiIlSt5ratioILl1ELl1000000000EElS2_EENSt11common_typeIJNS_8durationIT_T0_EENS4_IT1_T2_EEEE4typeERKS7_RKSA_,"axG",@progbits,_ZNSt6chronomiIlSt5ratioILl1ELl1000000000EElS2_EENSt11common_typeIJNS_8durationIT_T0_EENS4_IT1_T2_EEEE4typeERKS7_RKSA_,comdat
	.weak	_ZNSt6chronomiIlSt5ratioILl1ELl1000000000EElS2_EENSt11common_typeIJNS_8durationIT_T0_EENS4_IT1_T2_EEEE4typeERKS7_RKSA_
	.type	_ZNSt6chronomiIlSt5ratioILl1ELl1000000000EElS2_EENSt11common_typeIJNS_8durationIT_T0_EENS4_IT1_T2_EEEE4typeERKS7_RKSA_, @function
_ZNSt6chronomiIlSt5ratioILl1ELl1000000000EElS2_EENSt11common_typeIJNS_8durationIT_T0_EENS4_IT1_T2_EEEE4typeERKS7_RKSA_:
.LFB3552:
	.cfi_startproc
	endbr64
	pushq	%rbp
	.cfi_def_cfa_offset 16
	.cfi_offset 6, -16
	movq	%rsp, %rbp
	.cfi_def_cfa_register 6
	pushq	%rbx
	subq	$72, %rsp
	.cfi_offset 3, -24
	movq	%rdi, -72(%rbp)
	movq	%rsi, -80(%rbp)
	movq	%fs:40, %rax
	movq	%rax, -24(%rbp)
	xorl	%eax, %eax
	movq	-72(%rbp), %rax
	movq	(%rax), %rax
	movq	%rax, -56(%rbp)
	leaq	-56(%rbp), %rax
	movq	%rax, %rdi
	call	_ZNKSt6chrono8durationIlSt5ratioILl1ELl1000000000EEE5countEv
	movq	%rax, %rbx
	movq	-80(%rbp), %rax
	movq	(%rax), %rax
	movq	%rax, -48(%rbp)
	leaq	-48(%rbp), %rax
	movq	%rax, %rdi
	call	_ZNKSt6chrono8durationIlSt5ratioILl1ELl1000000000EEE5countEv
	subq	%rax, %rbx
	movq	%rbx, %rdx
	movq	%rdx, -40(%rbp)
	leaq	-40(%rbp), %rdx
	leaq	-32(%rbp), %rax
	movq	%rdx, %rsi
	movq	%rax, %rdi
	call	_ZNSt6chrono8durationIlSt5ratioILl1ELl1000000000EEEC1IlvEERKT_
	movq	-32(%rbp), %rax
	movq	-24(%rbp), %rdx
	subq	%fs:40, %rdx
	je	.L202
	call	__stack_chk_fail@PLT
.L202:
	movq	-8(%rbp), %rbx
	leave
	.cfi_def_cfa 7, 8
	ret
	.cfi_endproc
.LFE3552:
	.size	_ZNSt6chronomiIlSt5ratioILl1ELl1000000000EElS2_EENSt11common_typeIJNS_8durationIT_T0_EENS4_IT1_T2_EEEE4typeERKS7_RKSA_, .-_ZNSt6chronomiIlSt5ratioILl1ELl1000000000EElS2_EENSt11common_typeIJNS_8durationIT_T0_EENS4_IT1_T2_EEEE4typeERKS7_RKSA_
	.section	.text._ZNKSt6chrono8durationIdSt5ratioILl1ELl1EEE5countEv,"axG",@progbits,_ZNKSt6chrono8durationIdSt5ratioILl1ELl1EEE5countEv,comdat
	.align 2
	.weak	_ZNKSt6chrono8durationIdSt5ratioILl1ELl1EEE5countEv
	.type	_ZNKSt6chrono8durationIdSt5ratioILl1ELl1EEE5countEv, @function
_ZNKSt6chrono8durationIdSt5ratioILl1ELl1EEE5countEv:
.LFB3553:
	.cfi_startproc
	endbr64
	pushq	%rbp
	.cfi_def_cfa_offset 16
	.cfi_offset 6, -16
	movq	%rsp, %rbp
	.cfi_def_cfa_register 6
	movq	%rdi, -8(%rbp)
	movq	-8(%rbp), %rax
	movsd	(%rax), %xmm0
	popq	%rbp
	.cfi_def_cfa 7, 8
	ret
	.cfi_endproc
.LFE3553:
	.size	_ZNKSt6chrono8durationIdSt5ratioILl1ELl1EEE5countEv, .-_ZNKSt6chrono8durationIdSt5ratioILl1ELl1EEE5countEv
	.section	.text._ZSt8_DestroyIPmEvT_S1_,"axG",@progbits,_ZSt8_DestroyIPmEvT_S1_,comdat
	.weak	_ZSt8_DestroyIPmEvT_S1_
	.type	_ZSt8_DestroyIPmEvT_S1_, @function
_ZSt8_DestroyIPmEvT_S1_:
.LFB3625:
	.cfi_startproc
	endbr64
	pushq	%rbp
	.cfi_def_cfa_offset 16
	.cfi_offset 6, -16
	movq	%rsp, %rbp
	.cfi_def_cfa_register 6
	subq	$16, %rsp
	movq	%rdi, -8(%rbp)
	movq	%rsi, -16(%rbp)
	movq	-16(%rbp), %rdx
	movq	-8(%rbp), %rax
	movq	%rdx, %rsi
	movq	%rax, %rdi
	call	_ZNSt12_Destroy_auxILb1EE9__destroyIPmEEvT_S3_
	nop
	leave
	.cfi_def_cfa 7, 8
	ret
	.cfi_endproc
.LFE3625:
	.size	_ZSt8_DestroyIPmEvT_S1_, .-_ZSt8_DestroyIPmEvT_S1_
	.section	.text._ZSt7forwardImEOT_RNSt16remove_referenceIS0_E4typeE,"axG",@progbits,_ZSt7forwardImEOT_RNSt16remove_referenceIS0_E4typeE,comdat
	.weak	_ZSt7forwardImEOT_RNSt16remove_referenceIS0_E4typeE
	.type	_ZSt7forwardImEOT_RNSt16remove_referenceIS0_E4typeE, @function
_ZSt7forwardImEOT_RNSt16remove_referenceIS0_E4typeE:
.LFB3626:
	.cfi_startproc
	endbr64
	pushq	%rbp
	.cfi_def_cfa_offset 16
	.cfi_offset 6, -16
	movq	%rsp, %rbp
	.cfi_def_cfa_register 6
	movq	%rdi, -8(%rbp)
	movq	-8(%rbp), %rax
	popq	%rbp
	.cfi_def_cfa 7, 8
	ret
	.cfi_endproc
.LFE3626:
	.size	_ZSt7forwardImEOT_RNSt16remove_referenceIS0_E4typeE, .-_ZSt7forwardImEOT_RNSt16remove_referenceIS0_E4typeE
	.section	.rodata
.LC30:
	.string	"vector::_M_realloc_insert"
	.section	.text._ZNSt6vectorImSaImEE17_M_realloc_insertIJmEEEvN9__gnu_cxx17__normal_iteratorIPmS1_EEDpOT_,"axG",@progbits,_ZNSt6vectorImSaImEE17_M_realloc_insertIJmEEEvN9__gnu_cxx17__normal_iteratorIPmS1_EEDpOT_,comdat
	.align 2
	.weak	_ZNSt6vectorImSaImEE17_M_realloc_insertIJmEEEvN9__gnu_cxx17__normal_iteratorIPmS1_EEDpOT_
	.type	_ZNSt6vectorImSaImEE17_M_realloc_insertIJmEEEvN9__gnu_cxx17__normal_iteratorIPmS1_EEDpOT_, @function
_ZNSt6vectorImSaImEE17_M_realloc_insertIJmEEEvN9__gnu_cxx17__normal_iteratorIPmS1_EEDpOT_:
.LFB3628:
	.cfi_startproc
	endbr64
	pushq	%rbp
	.cfi_def_cfa_offset 16
	.cfi_offset 6, -16
	movq	%rsp, %rbp
	.cfi_def_cfa_register 6
	pushq	%rbx
	subq	$152, %rsp
	.cfi_offset 3, -24
	movq	%rdi, -136(%rbp)
	movq	%rsi, -144(%rbp)
	movq	%rdx, -152(%rbp)
	movq	%fs:40, %rax
	movq	%rax, -24(%rbp)
	xorl	%eax, %eax
	movq	-136(%rbp), %rax
	leaq	.LC30(%rip), %rdx
	movl	$1, %esi
	movq	%rax, %rdi
	call	_ZNKSt6vectorImSaImEE12_M_check_lenEmPKc
	movq	%rax, -120(%rbp)
	movq	-136(%rbp), %rax
	movq	(%rax), %rax
	movq	%rax, -112(%rbp)
	movq	-136(%rbp), %rax
	movq	8(%rax), %rax
	movq	%rax, -104(%rbp)
	movq	-136(%rbp), %rax
	movq	%rax, %rdi
	call	_ZNSt6vectorImSaImEE5beginEv
	movq	%rax, -128(%rbp)
	leaq	-128(%rbp), %rdx
	leaq	-144(%rbp), %rax
	movq	%rdx, %rsi
	movq	%rax, %rdi
	call	_ZN9__gnu_cxxmiIPmSt6vectorImSaImEEEENS_17__normal_iteratorIT_T0_E15difference_typeERKS8_SB_
	movq	%rax, -96(%rbp)
	movq	-136(%rbp), %rax
	movq	-120(%rbp), %rdx
	movq	%rdx, %rsi
	movq	%rax, %rdi
	call	_ZNSt12_Vector_baseImSaImEE11_M_allocateEm
	movq	%rax, -88(%rbp)
	movq	-88(%rbp), %rax
	movq	%rax, -80(%rbp)
	movq	-152(%rbp), %rax
	movq	%rax, %rdi
	call	_ZSt7forwardImEOT_RNSt16remove_referenceIS0_E4typeE
	movq	-96(%rbp), %rdx
	leaq	0(,%rdx,8), %rcx
	movq	-88(%rbp), %rdx
	addq	%rdx, %rcx
	movq	-136(%rbp), %rdx
	movq	%rdx, -72(%rbp)
	movq	%rcx, -64(%rbp)
	movq	%rax, -56(%rbp)
	movq	-56(%rbp), %rax
	movq	%rax, %rdi
	call	_ZSt7forwardImEOT_RNSt16remove_referenceIS0_E4typeE
	movq	-72(%rbp), %rdx
	movq	%rdx, -48(%rbp)
	movq	-64(%rbp), %rdx
	movq	%rdx, -40(%rbp)
	movq	%rax, -32(%rbp)
	movq	-40(%rbp), %rax
	movq	%rax, %rsi
	movl	$8, %edi
	call	_ZnwmPv
	movq	%rax, %rbx
	movq	-32(%rbp), %rax
	movq	%rax, %rdi
	call	_ZSt7forwardImEOT_RNSt16remove_referenceIS0_E4typeE
	movq	(%rax), %rax
	movq	%rax, (%rbx)
	nop
	nop
	movq	$0, -80(%rbp)
	movq	-136(%rbp), %rax
	movq	%rax, %rdi
	call	_ZNSt12_Vector_baseImSaImEE19_M_get_Tp_allocatorEv
	movq	%rax, %rbx
	leaq	-144(%rbp), %rax
	movq	%rax, %rdi
	call	_ZNK9__gnu_cxx17__normal_iteratorIPmSt6vectorImSaImEEE4baseEv
	movq	(%rax), %rsi
	movq	-88(%rbp), %rdx
	movq	-112(%rbp), %rax
	movq	%rbx, %rcx
	movq	%rax, %rdi
	call	_ZNSt6vectorImSaImEE11_S_relocateEPmS2_S2_RS0_
	movq	%rax, -80(%rbp)
	addq	$8, -80(%rbp)
	movq	-136(%rbp), %rax
	movq	%rax, %rdi
	call	_ZNSt12_Vector_baseImSaImEE19_M_get_Tp_allocatorEv
	movq	%rax, %rbx
	leaq	-144(%rbp), %rax
	movq	%rax, %rdi
	call	_ZNK9__gnu_cxx17__normal_iteratorIPmSt6vectorImSaImEEE4baseEv
	movq	(%rax), %rax
	movq	-80(%rbp), %rdx
	movq	-104(%rbp), %rsi
	movq	%rbx, %rcx
	movq	%rax, %rdi
	call	_ZNSt6vectorImSaImEE11_S_relocateEPmS2_S2_RS0_
	movq	%rax, -80(%rbp)
	movq	-136(%rbp), %rax
	movq	-136(%rbp), %rdx
	movq	16(%rdx), %rdx
	subq	-112(%rbp), %rdx
	sarq	$3, %rdx
	movq	-112(%rbp), %rcx
	movq	%rcx, %rsi
	movq	%rax, %rdi
	call	_ZNSt12_Vector_baseImSaImEE13_M_deallocateEPmm
	movq	-136(%rbp), %rax
	movq	-88(%rbp), %rdx
	movq	%rdx, (%rax)
	movq	-136(%rbp), %rax
	movq	-80(%rbp), %rdx
	movq	%rdx, 8(%rax)
	movq	-120(%rbp), %rax
	leaq	0(,%rax,8), %rdx
	movq	-88(%rbp), %rax
	addq	%rax, %rdx
	movq	-136(%rbp), %rax
	movq	%rdx, 16(%rax)
	nop
	movq	-24(%rbp), %rax
	subq	%fs:40, %rax
	je	.L209
	call	__stack_chk_fail@PLT
.L209:
	movq	-8(%rbp), %rbx
	leave
	.cfi_def_cfa 7, 8
	ret
	.cfi_endproc
.LFE3628:
	.size	_ZNSt6vectorImSaImEE17_M_realloc_insertIJmEEEvN9__gnu_cxx17__normal_iteratorIPmS1_EEDpOT_, .-_ZNSt6vectorImSaImEE17_M_realloc_insertIJmEEEvN9__gnu_cxx17__normal_iteratorIPmS1_EEDpOT_
	.section	.text._ZNSt6vectorImSaImEE4backEv,"axG",@progbits,_ZNSt6vectorImSaImEE4backEv,comdat
	.align 2
	.weak	_ZNSt6vectorImSaImEE4backEv
	.type	_ZNSt6vectorImSaImEE4backEv, @function
_ZNSt6vectorImSaImEE4backEv:
.LFB3632:
	.cfi_startproc
	endbr64
	pushq	%rbp
	.cfi_def_cfa_offset 16
	.cfi_offset 6, -16
	movq	%rsp, %rbp
	.cfi_def_cfa_register 6
	subq	$48, %rsp
	movq	%rdi, -40(%rbp)
	movq	%fs:40, %rax
	movq	%rax, -8(%rbp)
	xorl	%eax, %eax
	movq	-40(%rbp), %rax
	movq	%rax, %rdi
	call	_ZNSt6vectorImSaImEE3endEv
	movq	%rax, -24(%rbp)
	leaq	-24(%rbp), %rax
	movl	$1, %esi
	movq	%rax, %rdi
	call	_ZNK9__gnu_cxx17__normal_iteratorIPmSt6vectorImSaImEEEmiEl
	movq	%rax, -16(%rbp)
	leaq	-16(%rbp), %rax
	movq	%rax, %rdi
	call	_ZNK9__gnu_cxx17__normal_iteratorIPmSt6vectorImSaImEEEdeEv
	movq	-8(%rbp), %rdx
	subq	%fs:40, %rdx
	je	.L212
	call	__stack_chk_fail@PLT
.L212:
	leave
	.cfi_def_cfa 7, 8
	ret
	.cfi_endproc
.LFE3632:
	.size	_ZNSt6vectorImSaImEE4backEv, .-_ZNSt6vectorImSaImEE4backEv
	.section	.text._ZNKSt16initializer_listImE4sizeEv,"axG",@progbits,_ZNKSt16initializer_listImE4sizeEv,comdat
	.align 2
	.weak	_ZNKSt16initializer_listImE4sizeEv
	.type	_ZNKSt16initializer_listImE4sizeEv, @function
_ZNKSt16initializer_listImE4sizeEv:
.LFB3633:
	.cfi_startproc
	endbr64
	pushq	%rbp
	.cfi_def_cfa_offset 16
	.cfi_offset 6, -16
	movq	%rsp, %rbp
	.cfi_def_cfa_register 6
	movq	%rdi, -8(%rbp)
	movq	-8(%rbp), %rax
	movq	8(%rax), %rax
	popq	%rbp
	.cfi_def_cfa 7, 8
	ret
	.cfi_endproc
.LFE3633:
	.size	_ZNKSt16initializer_listImE4sizeEv, .-_ZNKSt16initializer_listImE4sizeEv
	.section	.text._ZNKSt6vectorImSaImEE8capacityEv,"axG",@progbits,_ZNKSt6vectorImSaImEE8capacityEv,comdat
	.align 2
	.weak	_ZNKSt6vectorImSaImEE8capacityEv
	.type	_ZNKSt6vectorImSaImEE8capacityEv, @function
_ZNKSt6vectorImSaImEE8capacityEv:
.LFB3636:
	.cfi_startproc
	endbr64
	pushq	%rbp
	.cfi_def_cfa_offset 16
	.cfi_offset 6, -16
	movq	%rsp, %rbp
	.cfi_def_cfa_register 6
	movq	%rdi, -8(%rbp)
	movq	-8(%rbp), %rax
	movq	16(%rax), %rdx
	movq	-8(%rbp), %rax
	movq	(%rax), %rax
	subq	%rax, %rdx
	movq	%rdx, %rax
	sarq	$3, %rax
	popq	%rbp
	.cfi_def_cfa 7, 8
	ret
	.cfi_endproc
.LFE3636:
	.size	_ZNKSt6vectorImSaImEE8capacityEv, .-_ZNKSt6vectorImSaImEE8capacityEv
	.section	.rodata
	.align 8
.LC31:
	.string	"cannot create std::vector larger than max_size()"
	.section	.text._ZNSt6vectorImSaImEE17_S_check_init_lenEmRKS0_,"axG",@progbits,_ZNSt6vectorImSaImEE17_S_check_init_lenEmRKS0_,comdat
	.weak	_ZNSt6vectorImSaImEE17_S_check_init_lenEmRKS0_
	.type	_ZNSt6vectorImSaImEE17_S_check_init_lenEmRKS0_, @function
_ZNSt6vectorImSaImEE17_S_check_init_lenEmRKS0_:
.LFB3637:
	.cfi_startproc
	endbr64
	pushq	%rbp
	.cfi_def_cfa_offset 16
	.cfi_offset 6, -16
	movq	%rsp, %rbp
	.cfi_def_cfa_register 6
	pushq	%rbx
	subq	$72, %rsp
	.cfi_offset 3, -24
	movq	%rdi, -72(%rbp)
	movq	%rsi, -80(%rbp)
	movq	%fs:40, %rax
	movq	%rax, -24(%rbp)
	xorl	%eax, %eax
	movq	-80(%rbp), %rax
	movq	%rax, -48(%rbp)
	leaq	-49(%rbp), %rax
	movq	%rax, -40(%rbp)
	movq	-48(%rbp), %rax
	movq	%rax, -32(%rbp)
	nop
	nop
	leaq	-49(%rbp), %rax
	movq	%rax, %rdi
	call	_ZNSt6vectorImSaImEE11_S_max_sizeERKS0_
	cmpq	-72(%rbp), %rax
	setb	%bl
	leaq	-49(%rbp), %rax
	movq	%rax, %rdi
	call	_ZNSt15__new_allocatorImED2Ev
	nop
	testb	%bl, %bl
	je	.L218
	movq	-24(%rbp), %rax
	subq	%fs:40, %rax
	je	.L219
	call	__stack_chk_fail@PLT
.L219:
	leaq	.LC31(%rip), %rax
	movq	%rax, %rdi
	call	_ZSt20__throw_length_errorPKc@PLT
.L218:
	movq	-72(%rbp), %rax
	movq	-24(%rbp), %rdx
	subq	%fs:40, %rdx
	je	.L221
	call	__stack_chk_fail@PLT
.L221:
	movq	-8(%rbp), %rbx
	leave
	.cfi_def_cfa 7, 8
	ret
	.cfi_endproc
.LFE3637:
	.size	_ZNSt6vectorImSaImEE17_S_check_init_lenEmRKS0_, .-_ZNSt6vectorImSaImEE17_S_check_init_lenEmRKS0_
	.section	.text._ZNSt6vectorImSaImEE20_M_allocate_and_copyIPKmEEPmmT_S6_,"axG",@progbits,_ZNSt6vectorImSaImEE20_M_allocate_and_copyIPKmEEPmmT_S6_,comdat
	.align 2
	.weak	_ZNSt6vectorImSaImEE20_M_allocate_and_copyIPKmEEPmmT_S6_
	.type	_ZNSt6vectorImSaImEE20_M_allocate_and_copyIPKmEEPmmT_S6_, @function
_ZNSt6vectorImSaImEE20_M_allocate_and_copyIPKmEEPmmT_S6_:
.LFB3638:
	.cfi_startproc
	.cfi_personality 0x9b,DW.ref.__gxx_personality_v0
	.cfi_lsda 0x1b,.LLSDA3638
	endbr64
	pushq	%rbp
	.cfi_def_cfa_offset 16
	.cfi_offset 6, -16
	movq	%rsp, %rbp
	.cfi_def_cfa_register 6
	pushq	%rbx
	subq	$56, %rsp
	.cfi_offset 3, -24
	movq	%rdi, -40(%rbp)
	movq	%rsi, -48(%rbp)
	movq	%rdx, -56(%rbp)
	movq	%rcx, -64(%rbp)
	movq	-40(%rbp), %rax
	movq	-48(%rbp), %rdx
	movq	%rdx, %rsi
	movq	%rax, %rdi
.LEHB19:
	call	_ZNSt12_Vector_baseImSaImEE11_M_allocateEm
.LEHE19:
	movq	%rax, -24(%rbp)
	movq	-40(%rbp), %rax
	movq	%rax, %rdi
	call	_ZNSt12_Vector_baseImSaImEE19_M_get_Tp_allocatorEv
	movq	%rax, %rcx
	movq	-24(%rbp), %rdx
	movq	-64(%rbp), %rsi
	movq	-56(%rbp), %rax
	movq	%rax, %rdi
.LEHB20:
	call	_ZSt22__uninitialized_copy_aIPKmPmmET0_T_S4_S3_RSaIT1_E
.LEHE20:
	movq	-24(%rbp), %rax
	jmp	.L228
.L226:
	endbr64
	movq	%rax, %rdi
	call	__cxa_begin_catch@PLT
	movq	-40(%rbp), %rax
	movq	-48(%rbp), %rdx
	movq	-24(%rbp), %rcx
	movq	%rcx, %rsi
	movq	%rax, %rdi
	call	_ZNSt12_Vector_baseImSaImEE13_M_deallocateEPmm
.LEHB21:
	call	__cxa_rethrow@PLT
.LEHE21:
.L227:
	endbr64
	movq	%rax, %rbx
	call	__cxa_end_catch@PLT
	movq	%rbx, %rax
	movq	%rax, %rdi
.LEHB22:
	call	_Unwind_Resume@PLT
.LEHE22:
.L228:
	movq	-8(%rbp), %rbx
	leave
	.cfi_def_cfa 7, 8
	ret
	.cfi_endproc
.LFE3638:
	.section	.gcc_except_table
	.align 4
.LLSDA3638:
	.byte	0xff
	.byte	0x9b
	.uleb128 .LLSDATT3638-.LLSDATTD3638
.LLSDATTD3638:
	.byte	0x1
	.uleb128 .LLSDACSE3638-.LLSDACSB3638
.LLSDACSB3638:
	.uleb128 .LEHB19-.LFB3638
	.uleb128 .LEHE19-.LEHB19
	.uleb128 0
	.uleb128 0
	.uleb128 .LEHB20-.LFB3638
	.uleb128 .LEHE20-.LEHB20
	.uleb128 .L226-.LFB3638
	.uleb128 0x1
	.uleb128 .LEHB21-.LFB3638
	.uleb128 .LEHE21-.LEHB21
	.uleb128 .L227-.LFB3638
	.uleb128 0
	.uleb128 .LEHB22-.LFB3638
	.uleb128 .LEHE22-.LEHB22
	.uleb128 0
	.uleb128 0
.LLSDACSE3638:
	.byte	0x1
	.byte	0
	.align 4
	.long	0

.LLSDATT3638:
	.section	.text._ZNSt6vectorImSaImEE20_M_allocate_and_copyIPKmEEPmmT_S6_,"axG",@progbits,_ZNSt6vectorImSaImEE20_M_allocate_and_copyIPKmEEPmmT_S6_,comdat
	.size	_ZNSt6vectorImSaImEE20_M_allocate_and_copyIPKmEEPmmT_S6_, .-_ZNSt6vectorImSaImEE20_M_allocate_and_copyIPKmEEPmmT_S6_
	.section	.text._ZNKSt6vectorImSaImEE4sizeEv,"axG",@progbits,_ZNKSt6vectorImSaImEE4sizeEv,comdat
	.align 2
	.weak	_ZNKSt6vectorImSaImEE4sizeEv
	.type	_ZNKSt6vectorImSaImEE4sizeEv, @function
_ZNKSt6vectorImSaImEE4sizeEv:
.LFB3639:
	.cfi_startproc
	endbr64
	pushq	%rbp
	.cfi_def_cfa_offset 16
	.cfi_offset 6, -16
	movq	%rsp, %rbp
	.cfi_def_cfa_register 6
	movq	%rdi, -8(%rbp)
	movq	-8(%rbp), %rax
	movq	8(%rax), %rdx
	movq	-8(%rbp), %rax
	movq	(%rax), %rax
	subq	%rax, %rdx
	movq	%rdx, %rax
	sarq	$3, %rax
	popq	%rbp
	.cfi_def_cfa 7, 8
	ret
	.cfi_endproc
.LFE3639:
	.size	_ZNKSt6vectorImSaImEE4sizeEv, .-_ZNKSt6vectorImSaImEE4sizeEv
	.section	.text._ZNSt6vectorImSaImEE15_M_erase_at_endEPm,"axG",@progbits,_ZNSt6vectorImSaImEE15_M_erase_at_endEPm,comdat
	.align 2
	.weak	_ZNSt6vectorImSaImEE15_M_erase_at_endEPm
	.type	_ZNSt6vectorImSaImEE15_M_erase_at_endEPm, @function
_ZNSt6vectorImSaImEE15_M_erase_at_endEPm:
.LFB3640:
	.cfi_startproc
	endbr64
	pushq	%rbp
	.cfi_def_cfa_offset 16
	.cfi_offset 6, -16
	movq	%rsp, %rbp
	.cfi_def_cfa_register 6
	subq	$48, %rsp
	movq	%rdi, -40(%rbp)
	movq	%rsi, -48(%rbp)
	movq	-40(%rbp), %rax
	movq	8(%rax), %rax
	subq	-48(%rbp), %rax
	sarq	$3, %rax
	movq	%rax, -32(%rbp)
	cmpq	$0, -32(%rbp)
	je	.L233
	movq	-40(%rbp), %rax
	movq	%rax, %rdi
	call	_ZNSt12_Vector_baseImSaImEE19_M_get_Tp_allocatorEv
	movq	-40(%rbp), %rdx
	movq	8(%rdx), %rdx
	movq	-48(%rbp), %rcx
	movq	%rcx, -24(%rbp)
	movq	%rdx, -16(%rbp)
	movq	%rax, -8(%rbp)
	movq	-16(%rbp), %rdx
	movq	-24(%rbp), %rax
	movq	%rdx, %rsi
	movq	%rax, %rdi
	call	_ZSt8_DestroyIPmEvT_S1_
	nop
	movq	-40(%rbp), %rax
	movq	-48(%rbp), %rdx
	movq	%rdx, 8(%rax)
.L233:
	nop
	leave
	.cfi_def_cfa 7, 8
	ret
	.cfi_endproc
.LFE3640:
	.size	_ZNSt6vectorImSaImEE15_M_erase_at_endEPm, .-_ZNSt6vectorImSaImEE15_M_erase_at_endEPm
	.section	.text._ZSt4copyIPKmPmET0_T_S4_S3_,"axG",@progbits,_ZSt4copyIPKmPmET0_T_S4_S3_,comdat
	.weak	_ZSt4copyIPKmPmET0_T_S4_S3_
	.type	_ZSt4copyIPKmPmET0_T_S4_S3_, @function
_ZSt4copyIPKmPmET0_T_S4_S3_:
.LFB3641:
	.cfi_startproc
	endbr64
	pushq	%rbp
	.cfi_def_cfa_offset 16
	.cfi_offset 6, -16
	movq	%rsp, %rbp
	.cfi_def_cfa_register 6
	pushq	%rbx
	subq	$40, %rsp
	.cfi_offset 3, -24
	movq	%rdi, -24(%rbp)
	movq	%rsi, -32(%rbp)
	movq	%rdx, -40(%rbp)
	movq	-32(%rbp), %rax
	movq	%rax, %rdi
	call	_ZSt12__miter_baseIPKmET_S2_
	movq	%rax, %rbx
	movq	-24(%rbp), %rax
	movq	%rax, %rdi
	call	_ZSt12__miter_baseIPKmET_S2_
	movq	%rax, %rcx
	movq	-40(%rbp), %rax
	movq	%rax, %rdx
	movq	%rbx, %rsi
	movq	%rcx, %rdi
	call	_ZSt13__copy_move_aILb0EPKmPmET1_T0_S4_S3_
	movq	-8(%rbp), %rbx
	leave
	.cfi_def_cfa 7, 8
	ret
	.cfi_endproc
.LFE3641:
	.size	_ZSt4copyIPKmPmET0_T_S4_S3_, .-_ZSt4copyIPKmPmET0_T_S4_S3_
	.section	.text._ZSt22__uninitialized_copy_aIPKmPmmET0_T_S4_S3_RSaIT1_E,"axG",@progbits,_ZSt22__uninitialized_copy_aIPKmPmmET0_T_S4_S3_RSaIT1_E,comdat
	.weak	_ZSt22__uninitialized_copy_aIPKmPmmET0_T_S4_S3_RSaIT1_E
	.type	_ZSt22__uninitialized_copy_aIPKmPmmET0_T_S4_S3_RSaIT1_E, @function
_ZSt22__uninitialized_copy_aIPKmPmmET0_T_S4_S3_RSaIT1_E:
.LFB3643:
	.cfi_startproc
	endbr64
	pushq	%rbp
	.cfi_def_cfa_offset 16
	.cfi_offset 6, -16
	movq	%rsp, %rbp
	.cfi_def_cfa_register 6
	subq	$32, %rsp
	movq	%rdi, -8(%rbp)
	movq	%rsi, -16(%rbp)
	movq	%rdx, -24(%rbp)
	movq	%rcx, -32(%rbp)
	movq	-24(%rbp), %rdx
	movq	-16(%rbp), %rcx
	movq	-8(%rbp), %rax
	movq	%rcx, %rsi
	movq	%rax, %rdi
	call	_ZSt18uninitialized_copyIPKmPmET0_T_S4_S3_
	leave
	.cfi_def_cfa 7, 8
	ret
	.cfi_endproc
.LFE3643:
	.size	_ZSt22__uninitialized_copy_aIPKmPmmET0_T_S4_S3_RSaIT1_E, .-_ZSt22__uninitialized_copy_aIPKmPmmET0_T_S4_S3_RSaIT1_E
	.section	.text._ZNSt6chrono13duration_castINS_8durationIdSt5ratioILl1ELl1EEEElS2_ILl1ELl1000000000EEEENSt9enable_ifIXsrNS_13__is_durationIT_EE5valueES8_E4typeERKNS1_IT0_T1_EE,"axG",@progbits,_ZNSt6chrono13duration_castINS_8durationIdSt5ratioILl1ELl1EEEElS2_ILl1ELl1000000000EEEENSt9enable_ifIXsrNS_13__is_durationIT_EE5valueES8_E4typeERKNS1_IT0_T1_EE,comdat
	.weak	_ZNSt6chrono13duration_castINS_8durationIdSt5ratioILl1ELl1EEEElS2_ILl1ELl1000000000EEEENSt9enable_ifIXsrNS_13__is_durationIT_EE5valueES8_E4typeERKNS1_IT0_T1_EE
	.type	_ZNSt6chrono13duration_castINS_8durationIdSt5ratioILl1ELl1EEEElS2_ILl1ELl1000000000EEEENSt9enable_ifIXsrNS_13__is_durationIT_EE5valueES8_E4typeERKNS1_IT0_T1_EE, @function
_ZNSt6chrono13duration_castINS_8durationIdSt5ratioILl1ELl1EEEElS2_ILl1ELl1000000000EEEENSt9enable_ifIXsrNS_13__is_durationIT_EE5valueES8_E4typeERKNS1_IT0_T1_EE:
.LFB3656:
	.cfi_startproc
	endbr64
	pushq	%rbp
	.cfi_def_cfa_offset 16
	.cfi_offset 6, -16
	movq	%rsp, %rbp
	.cfi_def_cfa_register 6
	subq	$16, %rsp
	movq	%rdi, -8(%rbp)
	movq	-8(%rbp), %rax
	movq	%rax, %rdi
	call	_ZNSt6chrono20__duration_cast_implINS_8durationIdSt5ratioILl1ELl1EEEES2_ILl1ELl1000000000EEdLb1ELb0EE6__castIlS5_EES4_RKNS1_IT_T0_EE
	leave
	.cfi_def_cfa 7, 8
	ret
	.cfi_endproc
.LFE3656:
	.size	_ZNSt6chrono13duration_castINS_8durationIdSt5ratioILl1ELl1EEEElS2_ILl1ELl1000000000EEEENSt9enable_ifIXsrNS_13__is_durationIT_EE5valueES8_E4typeERKNS1_IT0_T1_EE, .-_ZNSt6chrono13duration_castINS_8durationIdSt5ratioILl1ELl1EEEElS2_ILl1ELl1000000000EEEENSt9enable_ifIXsrNS_13__is_durationIT_EE5valueES8_E4typeERKNS1_IT0_T1_EE
	.section	.text._ZNSt15__new_allocatorImE10deallocateEPmm,"axG",@progbits,_ZNSt15__new_allocatorImE10deallocateEPmm,comdat
	.align 2
	.weak	_ZNSt15__new_allocatorImE10deallocateEPmm
	.type	_ZNSt15__new_allocatorImE10deallocateEPmm, @function
_ZNSt15__new_allocatorImE10deallocateEPmm:
.LFB3708:
	.cfi_startproc
	endbr64
	pushq	%rbp
	.cfi_def_cfa_offset 16
	.cfi_offset 6, -16
	movq	%rsp, %rbp
	.cfi_def_cfa_register 6
	subq	$32, %rsp
	movq	%rdi, -8(%rbp)
	movq	%rsi, -16(%rbp)
	movq	%rdx, -24(%rbp)
	movq	-24(%rbp), %rax
	leaq	0(,%rax,8), %rdx
	movq	-16(%rbp), %rax
	movq	%rdx, %rsi
	movq	%rax, %rdi
	call	_ZdlPvm@PLT
	leave
	.cfi_def_cfa 7, 8
	ret
	.cfi_endproc
.LFE3708:
	.size	_ZNSt15__new_allocatorImE10deallocateEPmm, .-_ZNSt15__new_allocatorImE10deallocateEPmm
	.section	.text._ZNSt12_Destroy_auxILb1EE9__destroyIPmEEvT_S3_,"axG",@progbits,_ZNSt12_Destroy_auxILb1EE9__destroyIPmEEvT_S3_,comdat
	.weak	_ZNSt12_Destroy_auxILb1EE9__destroyIPmEEvT_S3_
	.type	_ZNSt12_Destroy_auxILb1EE9__destroyIPmEEvT_S3_, @function
_ZNSt12_Destroy_auxILb1EE9__destroyIPmEEvT_S3_:
.LFB3709:
	.cfi_startproc
	endbr64
	pushq	%rbp
	.cfi_def_cfa_offset 16
	.cfi_offset 6, -16
	movq	%rsp, %rbp
	.cfi_def_cfa_register 6
	movq	%rdi, -8(%rbp)
	movq	%rsi, -16(%rbp)
	nop
	popq	%rbp
	.cfi_def_cfa 7, 8
	ret
	.cfi_endproc
.LFE3709:
	.size	_ZNSt12_Destroy_auxILb1EE9__destroyIPmEEvT_S3_, .-_ZNSt12_Destroy_auxILb1EE9__destroyIPmEEvT_S3_
	.section	.text._ZNKSt6vectorImSaImEE12_M_check_lenEmPKc,"axG",@progbits,_ZNKSt6vectorImSaImEE12_M_check_lenEmPKc,comdat
	.align 2
	.weak	_ZNKSt6vectorImSaImEE12_M_check_lenEmPKc
	.type	_ZNKSt6vectorImSaImEE12_M_check_lenEmPKc, @function
_ZNKSt6vectorImSaImEE12_M_check_lenEmPKc:
.LFB3711:
	.cfi_startproc
	endbr64
	pushq	%rbp
	.cfi_def_cfa_offset 16
	.cfi_offset 6, -16
	movq	%rsp, %rbp
	.cfi_def_cfa_register 6
	pushq	%rbx
	subq	$72, %rsp
	.cfi_offset 3, -24
	movq	%rdi, -56(%rbp)
	movq	%rsi, -64(%rbp)
	movq	%rdx, -72(%rbp)
	movq	%fs:40, %rax
	movq	%rax, -24(%rbp)
	xorl	%eax, %eax
	movq	-56(%rbp), %rax
	movq	%rax, %rdi
	call	_ZNKSt6vectorImSaImEE8max_sizeEv
	movq	%rax, %rbx
	movq	-56(%rbp), %rax
	movq	%rax, %rdi
	call	_ZNKSt6vectorImSaImEE4sizeEv
	subq	%rax, %rbx
	movq	%rbx, %rdx
	movq	-64(%rbp), %rax
	cmpq	%rax, %rdx
	setb	%al
	testb	%al, %al
	je	.L244
	movq	-24(%rbp), %rax
	subq	%fs:40, %rax
	je	.L245
	call	__stack_chk_fail@PLT
.L245:
	movq	-72(%rbp), %rax
	movq	%rax, %rdi
	call	_ZSt20__throw_length_errorPKc@PLT
.L244:
	movq	-56(%rbp), %rax
	movq	%rax, %rdi
	call	_ZNKSt6vectorImSaImEE4sizeEv
	movq	%rax, %rbx
	movq	-56(%rbp), %rax
	movq	%rax, %rdi
	call	_ZNKSt6vectorImSaImEE4sizeEv
	movq	%rax, -40(%rbp)
	leaq	-64(%rbp), %rdx
	leaq	-40(%rbp), %rax
	movq	%rdx, %rsi
	movq	%rax, %rdi
	call	_ZSt3maxImERKT_S2_S2_
	movq	(%rax), %rax
	addq	%rbx, %rax
	movq	%rax, -32(%rbp)
	movq	-56(%rbp), %rax
	movq	%rax, %rdi
	call	_ZNKSt6vectorImSaImEE4sizeEv
	cmpq	%rax, -32(%rbp)
	jb	.L246
	movq	-56(%rbp), %rax
	movq	%rax, %rdi
	call	_ZNKSt6vectorImSaImEE8max_sizeEv
	cmpq	-32(%rbp), %rax
	jnb	.L247
.L246:
	movq	-56(%rbp), %rax
	movq	%rax, %rdi
	call	_ZNKSt6vectorImSaImEE8max_sizeEv
	jmp	.L248
.L247:
	movq	-32(%rbp), %rax
.L248:
	movq	-24(%rbp), %rdx
	subq	%fs:40, %rdx
	je	.L250
	call	__stack_chk_fail@PLT
.L250:
	movq	-8(%rbp), %rbx
	leave
	.cfi_def_cfa 7, 8
	ret
	.cfi_endproc
.LFE3711:
	.size	_ZNKSt6vectorImSaImEE12_M_check_lenEmPKc, .-_ZNKSt6vectorImSaImEE12_M_check_lenEmPKc
	.section	.text._ZN9__gnu_cxxmiIPmSt6vectorImSaImEEEENS_17__normal_iteratorIT_T0_E15difference_typeERKS8_SB_,"axG",@progbits,_ZN9__gnu_cxxmiIPmSt6vectorImSaImEEEENS_17__normal_iteratorIT_T0_E15difference_typeERKS8_SB_,comdat
	.weak	_ZN9__gnu_cxxmiIPmSt6vectorImSaImEEEENS_17__normal_iteratorIT_T0_E15difference_typeERKS8_SB_
	.type	_ZN9__gnu_cxxmiIPmSt6vectorImSaImEEEENS_17__normal_iteratorIT_T0_E15difference_typeERKS8_SB_, @function
_ZN9__gnu_cxxmiIPmSt6vectorImSaImEEEENS_17__normal_iteratorIT_T0_E15difference_typeERKS8_SB_:
.LFB3712:
	.cfi_startproc
	endbr64
	pushq	%rbp
	.cfi_def_cfa_offset 16
	.cfi_offset 6, -16
	movq	%rsp, %rbp
	.cfi_def_cfa_register 6
	pushq	%rbx
	subq	$24, %rsp
	.cfi_offset 3, -24
	movq	%rdi, -24(%rbp)
	movq	%rsi, -32(%rbp)
	movq	-24(%rbp), %rax
	movq	%rax, %rdi
	call	_ZNK9__gnu_cxx17__normal_iteratorIPmSt6vectorImSaImEEE4baseEv
	movq	(%rax), %rbx
	movq	-32(%rbp), %rax
	movq	%rax, %rdi
	call	_ZNK9__gnu_cxx17__normal_iteratorIPmSt6vectorImSaImEEE4baseEv
	movq	(%rax), %rax
	movq	%rbx, %rdx
	subq	%rax, %rdx
	movq	%rdx, %rax
	sarq	$3, %rax
	movq	-8(%rbp), %rbx
	leave
	.cfi_def_cfa 7, 8
	ret
	.cfi_endproc
.LFE3712:
	.size	_ZN9__gnu_cxxmiIPmSt6vectorImSaImEEEENS_17__normal_iteratorIT_T0_E15difference_typeERKS8_SB_, .-_ZN9__gnu_cxxmiIPmSt6vectorImSaImEEEENS_17__normal_iteratorIT_T0_E15difference_typeERKS8_SB_
	.section	.text._ZNSt12_Vector_baseImSaImEE11_M_allocateEm,"axG",@progbits,_ZNSt12_Vector_baseImSaImEE11_M_allocateEm,comdat
	.align 2
	.weak	_ZNSt12_Vector_baseImSaImEE11_M_allocateEm
	.type	_ZNSt12_Vector_baseImSaImEE11_M_allocateEm, @function
_ZNSt12_Vector_baseImSaImEE11_M_allocateEm:
.LFB3713:
	.cfi_startproc
	endbr64
	pushq	%rbp
	.cfi_def_cfa_offset 16
	.cfi_offset 6, -16
	movq	%rsp, %rbp
	.cfi_def_cfa_register 6
	subq	$32, %rsp
	movq	%rdi, -24(%rbp)
	movq	%rsi, -32(%rbp)
	cmpq	$0, -32(%rbp)
	je	.L254
	movq	-24(%rbp), %rax
	movq	%rax, -16(%rbp)
	movq	-32(%rbp), %rax
	movq	%rax, -8(%rbp)
	movq	-8(%rbp), %rcx
	movq	-16(%rbp), %rax
	movl	$0, %edx
	movq	%rcx, %rsi
	movq	%rax, %rdi
	call	_ZNSt15__new_allocatorImE8allocateEmPKv
	nop
	jmp	.L256
.L254:
	movl	$0, %eax
.L256:
	leave
	.cfi_def_cfa 7, 8
	ret
	.cfi_endproc
.LFE3713:
	.size	_ZNSt12_Vector_baseImSaImEE11_M_allocateEm, .-_ZNSt12_Vector_baseImSaImEE11_M_allocateEm
	.section	.text._ZNSt6vectorImSaImEE11_S_relocateEPmS2_S2_RS0_,"axG",@progbits,_ZNSt6vectorImSaImEE11_S_relocateEPmS2_S2_RS0_,comdat
	.weak	_ZNSt6vectorImSaImEE11_S_relocateEPmS2_S2_RS0_
	.type	_ZNSt6vectorImSaImEE11_S_relocateEPmS2_S2_RS0_, @function
_ZNSt6vectorImSaImEE11_S_relocateEPmS2_S2_RS0_:
.LFB3714:
	.cfi_startproc
	endbr64
	pushq	%rbp
	.cfi_def_cfa_offset 16
	.cfi_offset 6, -16
	movq	%rsp, %rbp
	.cfi_def_cfa_register 6
	subq	$32, %rsp
	movq	%rdi, -8(%rbp)
	movq	%rsi, -16(%rbp)
	movq	%rdx, -24(%rbp)
	movq	%rcx, -32(%rbp)
	movq	-32(%rbp), %rcx
	movq	-24(%rbp), %rdx
	movq	-16(%rbp), %rsi
	movq	-8(%rbp), %rax
	movq	%rax, %rdi
	call	_ZSt12__relocate_aIPmS0_SaImEET0_T_S3_S2_RT1_
	leave
	.cfi_def_cfa 7, 8
	ret
	.cfi_endproc
.LFE3714:
	.size	_ZNSt6vectorImSaImEE11_S_relocateEPmS2_S2_RS0_, .-_ZNSt6vectorImSaImEE11_S_relocateEPmS2_S2_RS0_
	.section	.text._ZNK9__gnu_cxx17__normal_iteratorIPmSt6vectorImSaImEEEmiEl,"axG",@progbits,_ZNK9__gnu_cxx17__normal_iteratorIPmSt6vectorImSaImEEEmiEl,comdat
	.align 2
	.weak	_ZNK9__gnu_cxx17__normal_iteratorIPmSt6vectorImSaImEEEmiEl
	.type	_ZNK9__gnu_cxx17__normal_iteratorIPmSt6vectorImSaImEEEmiEl, @function
_ZNK9__gnu_cxx17__normal_iteratorIPmSt6vectorImSaImEEEmiEl:
.LFB3716:
	.cfi_startproc
	endbr64
	pushq	%rbp
	.cfi_def_cfa_offset 16
	.cfi_offset 6, -16
	movq	%rsp, %rbp
	.cfi_def_cfa_register 6
	subq	$48, %rsp
	movq	%rdi, -40(%rbp)
	movq	%rsi, -48(%rbp)
	movq	%fs:40, %rax
	movq	%rax, -8(%rbp)
	xorl	%eax, %eax
	movq	-40(%rbp), %rax
	movq	(%rax), %rax
	movq	-48(%rbp), %rdx
	salq	$3, %rdx
	negq	%rdx
	addq	%rdx, %rax
	movq	%rax, -24(%rbp)
	leaq	-24(%rbp), %rdx
	leaq	-16(%rbp), %rax
	movq	%rdx, %rsi
	movq	%rax, %rdi
	call	_ZN9__gnu_cxx17__normal_iteratorIPmSt6vectorImSaImEEEC1ERKS1_
	movq	-16(%rbp), %rax
	movq	-8(%rbp), %rdx
	subq	%fs:40, %rdx
	je	.L262
	call	__stack_chk_fail@PLT
.L262:
	leave
	.cfi_def_cfa 7, 8
	ret
	.cfi_endproc
.LFE3716:
	.size	_ZNK9__gnu_cxx17__normal_iteratorIPmSt6vectorImSaImEEEmiEl, .-_ZNK9__gnu_cxx17__normal_iteratorIPmSt6vectorImSaImEEEmiEl
	.section	.text._ZNSt6vectorImSaImEE11_S_max_sizeERKS0_,"axG",@progbits,_ZNSt6vectorImSaImEE11_S_max_sizeERKS0_,comdat
	.weak	_ZNSt6vectorImSaImEE11_S_max_sizeERKS0_
	.type	_ZNSt6vectorImSaImEE11_S_max_sizeERKS0_, @function
_ZNSt6vectorImSaImEE11_S_max_sizeERKS0_:
.LFB3717:
	.cfi_startproc
	endbr64
	pushq	%rbp
	.cfi_def_cfa_offset 16
	.cfi_offset 6, -16
	movq	%rsp, %rbp
	.cfi_def_cfa_register 6
	subq	$64, %rsp
	movq	%rdi, -56(%rbp)
	movq	%fs:40, %rax
	movq	%rax, -8(%rbp)
	xorl	%eax, %eax
	movabsq	$1152921504606846975, %rax
	movq	%rax, -48(%rbp)
	movq	-56(%rbp), %rax
	movq	%rax, -32(%rbp)
	movq	-32(%rbp), %rax
	movq	%rax, -24(%rbp)
	movq	-24(%rbp), %rax
	movq	%rax, -16(%rbp)
	movabsq	$1152921504606846975, %rax
	nop
	nop
	movq	%rax, -40(%rbp)
	leaq	-40(%rbp), %rdx
	leaq	-48(%rbp), %rax
	movq	%rdx, %rsi
	movq	%rax, %rdi
	call	_ZSt3minImERKT_S2_S2_
	movq	(%rax), %rax
	movq	-8(%rbp), %rdx
	subq	%fs:40, %rdx
	je	.L268
	call	__stack_chk_fail@PLT
.L268:
	leave
	.cfi_def_cfa 7, 8
	ret
	.cfi_endproc
.LFE3717:
	.size	_ZNSt6vectorImSaImEE11_S_max_sizeERKS0_, .-_ZNSt6vectorImSaImEE11_S_max_sizeERKS0_
	.section	.text._ZSt12__miter_baseIPKmET_S2_,"axG",@progbits,_ZSt12__miter_baseIPKmET_S2_,comdat
	.weak	_ZSt12__miter_baseIPKmET_S2_
	.type	_ZSt12__miter_baseIPKmET_S2_, @function
_ZSt12__miter_baseIPKmET_S2_:
.LFB3721:
	.cfi_startproc
	endbr64
	pushq	%rbp
	.cfi_def_cfa_offset 16
	.cfi_offset 6, -16
	movq	%rsp, %rbp
	.cfi_def_cfa_register 6
	movq	%rdi, -8(%rbp)
	movq	-8(%rbp), %rax
	popq	%rbp
	.cfi_def_cfa 7, 8
	ret
	.cfi_endproc
.LFE3721:
	.size	_ZSt12__miter_baseIPKmET_S2_, .-_ZSt12__miter_baseIPKmET_S2_
	.section	.text._ZSt13__copy_move_aILb0EPKmPmET1_T0_S4_S3_,"axG",@progbits,_ZSt13__copy_move_aILb0EPKmPmET1_T0_S4_S3_,comdat
	.weak	_ZSt13__copy_move_aILb0EPKmPmET1_T0_S4_S3_
	.type	_ZSt13__copy_move_aILb0EPKmPmET1_T0_S4_S3_, @function
_ZSt13__copy_move_aILb0EPKmPmET1_T0_S4_S3_:
.LFB3722:
	.cfi_startproc
	endbr64
	pushq	%rbp
	.cfi_def_cfa_offset 16
	.cfi_offset 6, -16
	movq	%rsp, %rbp
	.cfi_def_cfa_register 6
	pushq	%r12
	pushq	%rbx
	subq	$32, %rsp
	.cfi_offset 12, -24
	.cfi_offset 3, -32
	movq	%rdi, -24(%rbp)
	movq	%rsi, -32(%rbp)
	movq	%rdx, -40(%rbp)
	movq	-40(%rbp), %rax
	movq	%rax, %rdi
	call	_ZSt12__niter_baseIPmET_S1_
	movq	%rax, %r12
	movq	-32(%rbp), %rax
	movq	%rax, %rdi
	call	_ZSt12__niter_baseIPKmET_S2_
	movq	%rax, %rbx
	movq	-24(%rbp), %rax
	movq	%rax, %rdi
	call	_ZSt12__niter_baseIPKmET_S2_
	movq	%r12, %rdx
	movq	%rbx, %rsi
	movq	%rax, %rdi
	call	_ZSt14__copy_move_a1ILb0EPKmPmET1_T0_S4_S3_
	movq	%rax, %rdx
	leaq	-40(%rbp), %rax
	movq	%rdx, %rsi
	movq	%rax, %rdi
	call	_ZSt12__niter_wrapIPmET_RKS1_S1_
	addq	$32, %rsp
	popq	%rbx
	popq	%r12
	popq	%rbp
	.cfi_def_cfa 7, 8
	ret
	.cfi_endproc
.LFE3722:
	.size	_ZSt13__copy_move_aILb0EPKmPmET1_T0_S4_S3_, .-_ZSt13__copy_move_aILb0EPKmPmET1_T0_S4_S3_
	.section	.text._ZSt9__advanceIPKmlEvRT_T0_St26random_access_iterator_tag,"axG",@progbits,_ZSt9__advanceIPKmlEvRT_T0_St26random_access_iterator_tag,comdat
	.weak	_ZSt9__advanceIPKmlEvRT_T0_St26random_access_iterator_tag
	.type	_ZSt9__advanceIPKmlEvRT_T0_St26random_access_iterator_tag, @function
_ZSt9__advanceIPKmlEvRT_T0_St26random_access_iterator_tag:
.LFB3724:
	.cfi_startproc
	endbr64
	pushq	%rbp
	.cfi_def_cfa_offset 16
	.cfi_offset 6, -16
	movq	%rsp, %rbp
	.cfi_def_cfa_register 6
	movq	%rdi, -8(%rbp)
	movq	%rsi, -16(%rbp)
	movq	-8(%rbp), %rax
	movq	(%rax), %rax
	movq	-16(%rbp), %rdx
	salq	$3, %rdx
	addq	%rax, %rdx
	movq	-8(%rbp), %rax
	movq	%rdx, (%rax)
	nop
	popq	%rbp
	.cfi_def_cfa 7, 8
	ret
	.cfi_endproc
.LFE3724:
	.size	_ZSt9__advanceIPKmlEvRT_T0_St26random_access_iterator_tag, .-_ZSt9__advanceIPKmlEvRT_T0_St26random_access_iterator_tag
	.section	.text._ZSt18uninitialized_copyIPKmPmET0_T_S4_S3_,"axG",@progbits,_ZSt18uninitialized_copyIPKmPmET0_T_S4_S3_,comdat
	.weak	_ZSt18uninitialized_copyIPKmPmET0_T_S4_S3_
	.type	_ZSt18uninitialized_copyIPKmPmET0_T_S4_S3_, @function
_ZSt18uninitialized_copyIPKmPmET0_T_S4_S3_:
.LFB3725:
	.cfi_startproc
	endbr64
	pushq	%rbp
	.cfi_def_cfa_offset 16
	.cfi_offset 6, -16
	movq	%rsp, %rbp
	.cfi_def_cfa_register 6
	subq	$48, %rsp
	movq	%rdi, -24(%rbp)
	movq	%rsi, -32(%rbp)
	movq	%rdx, -40(%rbp)
	movb	$1, -2(%rbp)
	movb	$1, -1(%rbp)
	movq	-40(%rbp), %rdx
	movq	-32(%rbp), %rcx
	movq	-24(%rbp), %rax
	movq	%rcx, %rsi
	movq	%rax, %rdi
	call	_ZNSt20__uninitialized_copyILb1EE13__uninit_copyIPKmPmEET0_T_S6_S5_
	leave
	.cfi_def_cfa 7, 8
	ret
	.cfi_endproc
.LFE3725:
	.size	_ZSt18uninitialized_copyIPKmPmET0_T_S4_S3_, .-_ZSt18uninitialized_copyIPKmPmET0_T_S4_S3_
	.section	.text._ZNSt6chrono20__duration_cast_implINS_8durationIdSt5ratioILl1ELl1EEEES2_ILl1ELl1000000000EEdLb1ELb0EE6__castIlS5_EES4_RKNS1_IT_T0_EE,"axG",@progbits,_ZNSt6chrono20__duration_cast_implINS_8durationIdSt5ratioILl1ELl1EEEES2_ILl1ELl1000000000EEdLb1ELb0EE6__castIlS5_EES4_RKNS1_IT_T0_EE,comdat
	.weak	_ZNSt6chrono20__duration_cast_implINS_8durationIdSt5ratioILl1ELl1EEEES2_ILl1ELl1000000000EEdLb1ELb0EE6__castIlS5_EES4_RKNS1_IT_T0_EE
	.type	_ZNSt6chrono20__duration_cast_implINS_8durationIdSt5ratioILl1ELl1EEEES2_ILl1ELl1000000000EEdLb1ELb0EE6__castIlS5_EES4_RKNS1_IT_T0_EE, @function
_ZNSt6chrono20__duration_cast_implINS_8durationIdSt5ratioILl1ELl1EEEES2_ILl1ELl1000000000EEdLb1ELb0EE6__castIlS5_EES4_RKNS1_IT_T0_EE:
.LFB3729:
	.cfi_startproc
	endbr64
	pushq	%rbp
	.cfi_def_cfa_offset 16
	.cfi_offset 6, -16
	movq	%rsp, %rbp
	.cfi_def_cfa_register 6
	subq	$48, %rsp
	movq	%rdi, -40(%rbp)
	movq	%fs:40, %rax
	movq	%rax, -8(%rbp)
	xorl	%eax, %eax
	movq	-40(%rbp), %rax
	movq	%rax, %rdi
	call	_ZNKSt6chrono8durationIlSt5ratioILl1ELl1000000000EEE5countEv
	pxor	%xmm0, %xmm0
	cvtsi2sdq	%rax, %xmm0
	movsd	.LC32(%rip), %xmm1
	divsd	%xmm1, %xmm0
	movsd	%xmm0, -24(%rbp)
	leaq	-24(%rbp), %rdx
	leaq	-16(%rbp), %rax
	movq	%rdx, %rsi
	movq	%rax, %rdi
	call	_ZNSt6chrono8durationIdSt5ratioILl1ELl1EEEC1IdvEERKT_
	movsd	-16(%rbp), %xmm0
	movq	-8(%rbp), %rax
	subq	%fs:40, %rax
	je	.L278
	call	__stack_chk_fail@PLT
.L278:
	leave
	.cfi_def_cfa 7, 8
	ret
	.cfi_endproc
.LFE3729:
	.size	_ZNSt6chrono20__duration_cast_implINS_8durationIdSt5ratioILl1ELl1EEEES2_ILl1ELl1000000000EEdLb1ELb0EE6__castIlS5_EES4_RKNS1_IT_T0_EE, .-_ZNSt6chrono20__duration_cast_implINS_8durationIdSt5ratioILl1ELl1EEEES2_ILl1ELl1000000000EEdLb1ELb0EE6__castIlS5_EES4_RKNS1_IT_T0_EE
	.section	.text._ZNKSt6vectorImSaImEE8max_sizeEv,"axG",@progbits,_ZNKSt6vectorImSaImEE8max_sizeEv,comdat
	.align 2
	.weak	_ZNKSt6vectorImSaImEE8max_sizeEv
	.type	_ZNKSt6vectorImSaImEE8max_sizeEv, @function
_ZNKSt6vectorImSaImEE8max_sizeEv:
.LFB3749:
	.cfi_startproc
	endbr64
	pushq	%rbp
	.cfi_def_cfa_offset 16
	.cfi_offset 6, -16
	movq	%rsp, %rbp
	.cfi_def_cfa_register 6
	subq	$16, %rsp
	movq	%rdi, -8(%rbp)
	movq	-8(%rbp), %rax
	movq	%rax, %rdi
	call	_ZNKSt12_Vector_baseImSaImEE19_M_get_Tp_allocatorEv
	movq	%rax, %rdi
	call	_ZNSt6vectorImSaImEE11_S_max_sizeERKS0_
	leave
	.cfi_def_cfa 7, 8
	ret
	.cfi_endproc
.LFE3749:
	.size	_ZNKSt6vectorImSaImEE8max_sizeEv, .-_ZNKSt6vectorImSaImEE8max_sizeEv
	.section	.text._ZSt3maxImERKT_S2_S2_,"axG",@progbits,_ZSt3maxImERKT_S2_S2_,comdat
	.weak	_ZSt3maxImERKT_S2_S2_
	.type	_ZSt3maxImERKT_S2_S2_, @function
_ZSt3maxImERKT_S2_S2_:
.LFB3750:
	.cfi_startproc
	endbr64
	pushq	%rbp
	.cfi_def_cfa_offset 16
	.cfi_offset 6, -16
	movq	%rsp, %rbp
	.cfi_def_cfa_register 6
	movq	%rdi, -8(%rbp)
	movq	%rsi, -16(%rbp)
	movq	-8(%rbp), %rax
	movq	(%rax), %rdx
	movq	-16(%rbp), %rax
	movq	(%rax), %rax
	cmpq	%rax, %rdx
	jnb	.L282
	movq	-16(%rbp), %rax
	jmp	.L283
.L282:
	movq	-8(%rbp), %rax
.L283:
	popq	%rbp
	.cfi_def_cfa 7, 8
	ret
	.cfi_endproc
.LFE3750:
	.size	_ZSt3maxImERKT_S2_S2_, .-_ZSt3maxImERKT_S2_S2_
	.section	.text._ZSt12__relocate_aIPmS0_SaImEET0_T_S3_S2_RT1_,"axG",@progbits,_ZSt12__relocate_aIPmS0_SaImEET0_T_S3_S2_RT1_,comdat
	.weak	_ZSt12__relocate_aIPmS0_SaImEET0_T_S3_S2_RT1_
	.type	_ZSt12__relocate_aIPmS0_SaImEET0_T_S3_S2_RT1_, @function
_ZSt12__relocate_aIPmS0_SaImEET0_T_S3_S2_RT1_:
.LFB3752:
	.cfi_startproc
	endbr64
	pushq	%rbp
	.cfi_def_cfa_offset 16
	.cfi_offset 6, -16
	movq	%rsp, %rbp
	.cfi_def_cfa_register 6
	pushq	%r12
	pushq	%rbx
	subq	$32, %rsp
	.cfi_offset 12, -24
	.cfi_offset 3, -32
	movq	%rdi, -24(%rbp)
	movq	%rsi, -32(%rbp)
	movq	%rdx, -40(%rbp)
	movq	%rcx, -48(%rbp)
	movq	-40(%rbp), %rax
	movq	%rax, %rdi
	call	_ZSt12__niter_baseIPmET_S1_
	movq	%rax, %r12
	movq	-32(%rbp), %rax
	movq	%rax, %rdi
	call	_ZSt12__niter_baseIPmET_S1_
	movq	%rax, %rbx
	movq	-24(%rbp), %rax
	movq	%rax, %rdi
	call	_ZSt12__niter_baseIPmET_S1_
	movq	%rax, %rdi
	movq	-48(%rbp), %rax
	movq	%rax, %rcx
	movq	%r12, %rdx
	movq	%rbx, %rsi
	call	_ZSt14__relocate_a_1ImmENSt9enable_ifIXsrSt24__is_bitwise_relocatableIT_vE5valueEPS2_E4typeES4_S4_S4_RSaIT0_E
	addq	$32, %rsp
	popq	%rbx
	popq	%r12
	popq	%rbp
	.cfi_def_cfa 7, 8
	ret
	.cfi_endproc
.LFE3752:
	.size	_ZSt12__relocate_aIPmS0_SaImEET0_T_S3_S2_RT1_, .-_ZSt12__relocate_aIPmS0_SaImEET0_T_S3_S2_RT1_
	.section	.text._ZSt3minImERKT_S2_S2_,"axG",@progbits,_ZSt3minImERKT_S2_S2_,comdat
	.weak	_ZSt3minImERKT_S2_S2_
	.type	_ZSt3minImERKT_S2_S2_, @function
_ZSt3minImERKT_S2_S2_:
.LFB3755:
	.cfi_startproc
	endbr64
	pushq	%rbp
	.cfi_def_cfa_offset 16
	.cfi_offset 6, -16
	movq	%rsp, %rbp
	.cfi_def_cfa_register 6
	movq	%rdi, -8(%rbp)
	movq	%rsi, -16(%rbp)
	movq	-16(%rbp), %rax
	movq	(%rax), %rdx
	movq	-8(%rbp), %rax
	movq	(%rax), %rax
	cmpq	%rax, %rdx
	jnb	.L287
	movq	-16(%rbp), %rax
	jmp	.L288
.L287:
	movq	-8(%rbp), %rax
.L288:
	popq	%rbp
	.cfi_def_cfa 7, 8
	ret
	.cfi_endproc
.LFE3755:
	.size	_ZSt3minImERKT_S2_S2_, .-_ZSt3minImERKT_S2_S2_
	.section	.text._ZSt12__niter_baseIPKmET_S2_,"axG",@progbits,_ZSt12__niter_baseIPKmET_S2_,comdat
	.weak	_ZSt12__niter_baseIPKmET_S2_
	.type	_ZSt12__niter_baseIPKmET_S2_, @function
_ZSt12__niter_baseIPKmET_S2_:
.LFB3759:
	.cfi_startproc
	endbr64
	pushq	%rbp
	.cfi_def_cfa_offset 16
	.cfi_offset 6, -16
	movq	%rsp, %rbp
	.cfi_def_cfa_register 6
	movq	%rdi, -8(%rbp)
	movq	-8(%rbp), %rax
	popq	%rbp
	.cfi_def_cfa 7, 8
	ret
	.cfi_endproc
.LFE3759:
	.size	_ZSt12__niter_baseIPKmET_S2_, .-_ZSt12__niter_baseIPKmET_S2_
	.section	.text._ZSt12__niter_baseIPmET_S1_,"axG",@progbits,_ZSt12__niter_baseIPmET_S1_,comdat
	.weak	_ZSt12__niter_baseIPmET_S1_
	.type	_ZSt12__niter_baseIPmET_S1_, @function
_ZSt12__niter_baseIPmET_S1_:
.LFB3760:
	.cfi_startproc
	endbr64
	pushq	%rbp
	.cfi_def_cfa_offset 16
	.cfi_offset 6, -16
	movq	%rsp, %rbp
	.cfi_def_cfa_register 6
	movq	%rdi, -8(%rbp)
	movq	-8(%rbp), %rax
	popq	%rbp
	.cfi_def_cfa 7, 8
	ret
	.cfi_endproc
.LFE3760:
	.size	_ZSt12__niter_baseIPmET_S1_, .-_ZSt12__niter_baseIPmET_S1_
	.section	.text._ZSt14__copy_move_a1ILb0EPKmPmET1_T0_S4_S3_,"axG",@progbits,_ZSt14__copy_move_a1ILb0EPKmPmET1_T0_S4_S3_,comdat
	.weak	_ZSt14__copy_move_a1ILb0EPKmPmET1_T0_S4_S3_
	.type	_ZSt14__copy_move_a1ILb0EPKmPmET1_T0_S4_S3_, @function
_ZSt14__copy_move_a1ILb0EPKmPmET1_T0_S4_S3_:
.LFB3761:
	.cfi_startproc
	endbr64
	pushq	%rbp
	.cfi_def_cfa_offset 16
	.cfi_offset 6, -16
	movq	%rsp, %rbp
	.cfi_def_cfa_register 6
	subq	$32, %rsp
	movq	%rdi, -8(%rbp)
	movq	%rsi, -16(%rbp)
	movq	%rdx, -24(%rbp)
	movq	-24(%rbp), %rdx
	movq	-16(%rbp), %rcx
	movq	-8(%rbp), %rax
	movq	%rcx, %rsi
	movq	%rax, %rdi
	call	_ZSt14__copy_move_a2ILb0EPKmPmET1_T0_S4_S3_
	leave
	.cfi_def_cfa 7, 8
	ret
	.cfi_endproc
.LFE3761:
	.size	_ZSt14__copy_move_a1ILb0EPKmPmET1_T0_S4_S3_, .-_ZSt14__copy_move_a1ILb0EPKmPmET1_T0_S4_S3_
	.section	.text._ZSt12__niter_wrapIPmET_RKS1_S1_,"axG",@progbits,_ZSt12__niter_wrapIPmET_RKS1_S1_,comdat
	.weak	_ZSt12__niter_wrapIPmET_RKS1_S1_
	.type	_ZSt12__niter_wrapIPmET_RKS1_S1_, @function
_ZSt12__niter_wrapIPmET_RKS1_S1_:
.LFB3762:
	.cfi_startproc
	endbr64
	pushq	%rbp
	.cfi_def_cfa_offset 16
	.cfi_offset 6, -16
	movq	%rsp, %rbp
	.cfi_def_cfa_register 6
	movq	%rdi, -8(%rbp)
	movq	%rsi, -16(%rbp)
	movq	-16(%rbp), %rax
	popq	%rbp
	.cfi_def_cfa 7, 8
	ret
	.cfi_endproc
.LFE3762:
	.size	_ZSt12__niter_wrapIPmET_RKS1_S1_, .-_ZSt12__niter_wrapIPmET_RKS1_S1_
	.section	.text._ZNSt20__uninitialized_copyILb1EE13__uninit_copyIPKmPmEET0_T_S6_S5_,"axG",@progbits,_ZNSt20__uninitialized_copyILb1EE13__uninit_copyIPKmPmEET0_T_S6_S5_,comdat
	.weak	_ZNSt20__uninitialized_copyILb1EE13__uninit_copyIPKmPmEET0_T_S6_S5_
	.type	_ZNSt20__uninitialized_copyILb1EE13__uninit_copyIPKmPmEET0_T_S6_S5_, @function
_ZNSt20__uninitialized_copyILb1EE13__uninit_copyIPKmPmEET0_T_S6_S5_:
.LFB3763:
	.cfi_startproc
	endbr64
	pushq	%rbp
	.cfi_def_cfa_offset 16
	.cfi_offset 6, -16
	movq	%rsp, %rbp
	.cfi_def_cfa_register 6
	subq	$32, %rsp
	movq	%rdi, -8(%rbp)
	movq	%rsi, -16(%rbp)
	movq	%rdx, -24(%rbp)
	movq	-24(%rbp), %rdx
	movq	-16(%rbp), %rcx
	movq	-8(%rbp), %rax
	movq	%rcx, %rsi
	movq	%rax, %rdi
	call	_ZSt4copyIPKmPmET0_T_S4_S3_
	leave
	.cfi_def_cfa 7, 8
	ret
	.cfi_endproc
.LFE3763:
	.size	_ZNSt20__uninitialized_copyILb1EE13__uninit_copyIPKmPmEET0_T_S6_S5_, .-_ZNSt20__uninitialized_copyILb1EE13__uninit_copyIPKmPmEET0_T_S6_S5_
	.section	.text._ZNSt6chrono8durationIdSt5ratioILl1ELl1EEEC2IdvEERKT_,"axG",@progbits,_ZNSt6chrono8durationIdSt5ratioILl1ELl1EEEC5IdvEERKT_,comdat
	.align 2
	.weak	_ZNSt6chrono8durationIdSt5ratioILl1ELl1EEEC2IdvEERKT_
	.type	_ZNSt6chrono8durationIdSt5ratioILl1ELl1EEEC2IdvEERKT_, @function
_ZNSt6chrono8durationIdSt5ratioILl1ELl1EEEC2IdvEERKT_:
.LFB3766:
	.cfi_startproc
	endbr64
	pushq	%rbp
	.cfi_def_cfa_offset 16
	.cfi_offset 6, -16
	movq	%rsp, %rbp
	.cfi_def_cfa_register 6
	movq	%rdi, -8(%rbp)
	movq	%rsi, -16(%rbp)
	movq	-16(%rbp), %rax
	movsd	(%rax), %xmm0
	movq	-8(%rbp), %rax
	movsd	%xmm0, (%rax)
	nop
	popq	%rbp
	.cfi_def_cfa 7, 8
	ret
	.cfi_endproc
.LFE3766:
	.size	_ZNSt6chrono8durationIdSt5ratioILl1ELl1EEEC2IdvEERKT_, .-_ZNSt6chrono8durationIdSt5ratioILl1ELl1EEEC2IdvEERKT_
	.weak	_ZNSt6chrono8durationIdSt5ratioILl1ELl1EEEC1IdvEERKT_
	.set	_ZNSt6chrono8durationIdSt5ratioILl1ELl1EEEC1IdvEERKT_,_ZNSt6chrono8durationIdSt5ratioILl1ELl1EEEC2IdvEERKT_
	.section	.text._ZNKSt12_Vector_baseImSaImEE19_M_get_Tp_allocatorEv,"axG",@progbits,_ZNKSt12_Vector_baseImSaImEE19_M_get_Tp_allocatorEv,comdat
	.align 2
	.weak	_ZNKSt12_Vector_baseImSaImEE19_M_get_Tp_allocatorEv
	.type	_ZNKSt12_Vector_baseImSaImEE19_M_get_Tp_allocatorEv, @function
_ZNKSt12_Vector_baseImSaImEE19_M_get_Tp_allocatorEv:
.LFB3776:
	.cfi_startproc
	endbr64
	pushq	%rbp
	.cfi_def_cfa_offset 16
	.cfi_offset 6, -16
	movq	%rsp, %rbp
	.cfi_def_cfa_register 6
	movq	%rdi, -8(%rbp)
	movq	-8(%rbp), %rax
	popq	%rbp
	.cfi_def_cfa 7, 8
	ret
	.cfi_endproc
.LFE3776:
	.size	_ZNKSt12_Vector_baseImSaImEE19_M_get_Tp_allocatorEv, .-_ZNKSt12_Vector_baseImSaImEE19_M_get_Tp_allocatorEv
	.section	.text._ZNSt15__new_allocatorImE8allocateEmPKv,"axG",@progbits,_ZNSt15__new_allocatorImE8allocateEmPKv,comdat
	.align 2
	.weak	_ZNSt15__new_allocatorImE8allocateEmPKv
	.type	_ZNSt15__new_allocatorImE8allocateEmPKv, @function
_ZNSt15__new_allocatorImE8allocateEmPKv:
.LFB3777:
	.cfi_startproc
	endbr64
	pushq	%rbp
	.cfi_def_cfa_offset 16
	.cfi_offset 6, -16
	movq	%rsp, %rbp
	.cfi_def_cfa_register 6
	subq	$48, %rsp
	movq	%rdi, -24(%rbp)
	movq	%rsi, -32(%rbp)
	movq	%rdx, -40(%rbp)
	movq	-24(%rbp), %rax
	movq	%rax, -8(%rbp)
	movabsq	$1152921504606846975, %rax
	cmpq	-32(%rbp), %rax
	setb	%al
	movzbl	%al, %eax
	testq	%rax, %rax
	setne	%al
	testb	%al, %al
	je	.L304
	movabsq	$2305843009213693951, %rax
	cmpq	-32(%rbp), %rax
	jnb	.L305
	call	_ZSt28__throw_bad_array_new_lengthv@PLT
.L305:
	call	_ZSt17__throw_bad_allocv@PLT
.L304:
	movq	-32(%rbp), %rax
	salq	$3, %rax
	movq	%rax, %rdi
	call	_Znwm@PLT
	nop
	leave
	.cfi_def_cfa 7, 8
	ret
	.cfi_endproc
.LFE3777:
	.size	_ZNSt15__new_allocatorImE8allocateEmPKv, .-_ZNSt15__new_allocatorImE8allocateEmPKv
	.section	.text._ZSt14__relocate_a_1ImmENSt9enable_ifIXsrSt24__is_bitwise_relocatableIT_vE5valueEPS2_E4typeES4_S4_S4_RSaIT0_E,"axG",@progbits,_ZSt14__relocate_a_1ImmENSt9enable_ifIXsrSt24__is_bitwise_relocatableIT_vE5valueEPS2_E4typeES4_S4_S4_RSaIT0_E,comdat
	.weak	_ZSt14__relocate_a_1ImmENSt9enable_ifIXsrSt24__is_bitwise_relocatableIT_vE5valueEPS2_E4typeES4_S4_S4_RSaIT0_E
	.type	_ZSt14__relocate_a_1ImmENSt9enable_ifIXsrSt24__is_bitwise_relocatableIT_vE5valueEPS2_E4typeES4_S4_S4_RSaIT0_E, @function
_ZSt14__relocate_a_1ImmENSt9enable_ifIXsrSt24__is_bitwise_relocatableIT_vE5valueEPS2_E4typeES4_S4_S4_RSaIT0_E:
.LFB3778:
	.cfi_startproc
	endbr64
	pushq	%rbp
	.cfi_def_cfa_offset 16
	.cfi_offset 6, -16
	movq	%rsp, %rbp
	.cfi_def_cfa_register 6
	subq	$48, %rsp
	movq	%rdi, -24(%rbp)
	movq	%rsi, -32(%rbp)
	movq	%rdx, -40(%rbp)
	movq	%rcx, -48(%rbp)
	movq	-32(%rbp), %rax
	subq	-24(%rbp), %rax
	sarq	$3, %rax
	movq	%rax, -8(%rbp)
	cmpq	$0, -8(%rbp)
	jle	.L308
	movq	-8(%rbp), %rax
	leaq	0(,%rax,8), %rdx
	movq	-24(%rbp), %rcx
	movq	-40(%rbp), %rax
	movq	%rcx, %rsi
	movq	%rax, %rdi
	call	memmove@PLT
.L308:
	movq	-8(%rbp), %rax
	leaq	0(,%rax,8), %rdx
	movq	-40(%rbp), %rax
	addq	%rdx, %rax
	leave
	.cfi_def_cfa 7, 8
	ret
	.cfi_endproc
.LFE3778:
	.size	_ZSt14__relocate_a_1ImmENSt9enable_ifIXsrSt24__is_bitwise_relocatableIT_vE5valueEPS2_E4typeES4_S4_S4_RSaIT0_E, .-_ZSt14__relocate_a_1ImmENSt9enable_ifIXsrSt24__is_bitwise_relocatableIT_vE5valueEPS2_E4typeES4_S4_S4_RSaIT0_E
	.section	.text._ZSt14__copy_move_a2ILb0EPKmPmET1_T0_S4_S3_,"axG",@progbits,_ZSt14__copy_move_a2ILb0EPKmPmET1_T0_S4_S3_,comdat
	.weak	_ZSt14__copy_move_a2ILb0EPKmPmET1_T0_S4_S3_
	.type	_ZSt14__copy_move_a2ILb0EPKmPmET1_T0_S4_S3_, @function
_ZSt14__copy_move_a2ILb0EPKmPmET1_T0_S4_S3_:
.LFB3780:
	.cfi_startproc
	endbr64
	pushq	%rbp
	.cfi_def_cfa_offset 16
	.cfi_offset 6, -16
	movq	%rsp, %rbp
	.cfi_def_cfa_register 6
	subq	$32, %rsp
	movq	%rdi, -8(%rbp)
	movq	%rsi, -16(%rbp)
	movq	%rdx, -24(%rbp)
	movq	-24(%rbp), %rdx
	movq	-16(%rbp), %rcx
	movq	-8(%rbp), %rax
	movq	%rcx, %rsi
	movq	%rax, %rdi
	call	_ZNSt11__copy_moveILb0ELb1ESt26random_access_iterator_tagE8__copy_mIKmmEEPT0_PT_S7_S5_
	leave
	.cfi_def_cfa 7, 8
	ret
	.cfi_endproc
.LFE3780:
	.size	_ZSt14__copy_move_a2ILb0EPKmPmET1_T0_S4_S3_, .-_ZSt14__copy_move_a2ILb0EPKmPmET1_T0_S4_S3_
	.section	.text._ZNSt11__copy_moveILb0ELb1ESt26random_access_iterator_tagE8__copy_mIKmmEEPT0_PT_S7_S5_,"axG",@progbits,_ZNSt11__copy_moveILb0ELb1ESt26random_access_iterator_tagE8__copy_mIKmmEEPT0_PT_S7_S5_,comdat
	.weak	_ZNSt11__copy_moveILb0ELb1ESt26random_access_iterator_tagE8__copy_mIKmmEEPT0_PT_S7_S5_
	.type	_ZNSt11__copy_moveILb0ELb1ESt26random_access_iterator_tagE8__copy_mIKmmEEPT0_PT_S7_S5_, @function
_ZNSt11__copy_moveILb0ELb1ESt26random_access_iterator_tagE8__copy_mIKmmEEPT0_PT_S7_S5_:
.LFB3788:
	.cfi_startproc
	endbr64
	pushq	%rbp
	.cfi_def_cfa_offset 16
	.cfi_offset 6, -16
	movq	%rsp, %rbp
	.cfi_def_cfa_register 6
	subq	$48, %rsp
	movq	%rdi, -24(%rbp)
	movq	%rsi, -32(%rbp)
	movq	%rdx, -40(%rbp)
	movq	-32(%rbp), %rax
	subq	-24(%rbp), %rax
	sarq	$3, %rax
	movq	%rax, -8(%rbp)
	cmpq	$1, -8(%rbp)
	setg	%al
	movzbl	%al, %eax
	testq	%rax, %rax
	je	.L313
	movq	-8(%rbp), %rax
	leaq	0(,%rax,8), %rdx
	movq	-24(%rbp), %rcx
	movq	-40(%rbp), %rax
	movq	%rcx, %rsi
	movq	%rax, %rdi
	call	memmove@PLT
	jmp	.L314
.L313:
	cmpq	$1, -8(%rbp)
	jne	.L314
	movq	-24(%rbp), %rdx
	movq	-40(%rbp), %rax
	movq	%rdx, %rsi
	movq	%rax, %rdi
	call	_ZNSt11__copy_moveILb0ELb0ESt26random_access_iterator_tagE12__assign_oneImKmEEvPT_PT0_
.L314:
	movq	-8(%rbp), %rax
	leaq	0(,%rax,8), %rdx
	movq	-40(%rbp), %rax
	addq	%rdx, %rax
	leave
	.cfi_def_cfa 7, 8
	ret
	.cfi_endproc
.LFE3788:
	.size	_ZNSt11__copy_moveILb0ELb1ESt26random_access_iterator_tagE8__copy_mIKmmEEPT0_PT_S7_S5_, .-_ZNSt11__copy_moveILb0ELb1ESt26random_access_iterator_tagE8__copy_mIKmmEEPT0_PT_S7_S5_
	.section	.text._ZNSt11__copy_moveILb0ELb0ESt26random_access_iterator_tagE12__assign_oneImKmEEvPT_PT0_,"axG",@progbits,_ZNSt11__copy_moveILb0ELb0ESt26random_access_iterator_tagE12__assign_oneImKmEEvPT_PT0_,comdat
	.weak	_ZNSt11__copy_moveILb0ELb0ESt26random_access_iterator_tagE12__assign_oneImKmEEvPT_PT0_
	.type	_ZNSt11__copy_moveILb0ELb0ESt26random_access_iterator_tagE12__assign_oneImKmEEvPT_PT0_, @function
_ZNSt11__copy_moveILb0ELb0ESt26random_access_iterator_tagE12__assign_oneImKmEEvPT_PT0_:
.LFB3789:
	.cfi_startproc
	endbr64
	pushq	%rbp
	.cfi_def_cfa_offset 16
	.cfi_offset 6, -16
	movq	%rsp, %rbp
	.cfi_def_cfa_register 6
	movq	%rdi, -8(%rbp)
	movq	%rsi, -16(%rbp)
	movq	-16(%rbp), %rax
	movq	(%rax), %rdx
	movq	-8(%rbp), %rax
	movq	%rdx, (%rax)
	nop
	popq	%rbp
	.cfi_def_cfa 7, 8
	ret
	.cfi_endproc
.LFE3789:
	.size	_ZNSt11__copy_moveILb0ELb0ESt26random_access_iterator_tagE12__assign_oneImKmEEvPT_PT0_, .-_ZNSt11__copy_moveILb0ELb0ESt26random_access_iterator_tagE12__assign_oneImKmEEvPT_PT0_
	.section	.rodata
	.type	_ZNSt8__detail30__integer_to_chars_is_unsignedIjEE, @object
	.size	_ZNSt8__detail30__integer_to_chars_is_unsignedIjEE, 1
_ZNSt8__detail30__integer_to_chars_is_unsignedIjEE:
	.byte	1
	.type	_ZNSt8__detail30__integer_to_chars_is_unsignedImEE, @object
	.size	_ZNSt8__detail30__integer_to_chars_is_unsignedImEE, 1
_ZNSt8__detail30__integer_to_chars_is_unsignedImEE:
	.byte	1
	.type	_ZNSt8__detail30__integer_to_chars_is_unsignedIyEE, @object
	.size	_ZNSt8__detail30__integer_to_chars_is_unsignedIyEE, 1
_ZNSt8__detail30__integer_to_chars_is_unsignedIyEE:
	.byte	1
	.type	_ZSt12__is_ratio_vISt5ratioILl1ELl1000000000EEE, @object
	.size	_ZSt12__is_ratio_vISt5ratioILl1ELl1000000000EEE, 1
_ZSt12__is_ratio_vISt5ratioILl1ELl1000000000EEE:
	.byte	1
	.type	_ZSt12__is_ratio_vISt5ratioILl1ELl1EEE, @object
	.size	_ZSt12__is_ratio_vISt5ratioILl1ELl1EEE, 1
_ZSt12__is_ratio_vISt5ratioILl1ELl1EEE:
	.byte	1
	.type	_ZSt12__is_ratio_vISt5ratioILl1000000000ELl1EEE, @object
	.size	_ZSt12__is_ratio_vISt5ratioILl1000000000ELl1EEE, 1
_ZSt12__is_ratio_vISt5ratioILl1000000000ELl1EEE:
	.byte	1
	.align 8
.LC32:
	.long	0
	.long	1104006501
	.hidden	DW.ref.__gxx_personality_v0
	.weak	DW.ref.__gxx_personality_v0
	.section	.data.rel.local.DW.ref.__gxx_personality_v0,"awG",@progbits,DW.ref.__gxx_personality_v0,comdat
	.align 8
	.type	DW.ref.__gxx_personality_v0, @object
	.size	DW.ref.__gxx_personality_v0, 8
DW.ref.__gxx_personality_v0:
	.quad	__gxx_personality_v0
	.ident	"GCC: (Ubuntu 13.3.0-6ubuntu2~24.04) 13.3.0"
	.section	.note.GNU-stack,"",@progbits
	.section	.note.gnu.property,"a"
	.align 8
	.long	1f - 0f
	.long	4f - 1f
	.long	5
0:
	.string	"GNU"
1:
	.align 8
	.long	0xc0000002
	.long	3f - 2f
2:
	.long	0x3
3:
	.align 8
4:
