	.file	"bench_chacha_stream.cpp"
	.text
	.section	.text._ZSt23__is_constant_evaluatedv,"axG",@progbits,_ZSt23__is_constant_evaluatedv,comdat
	.weak	_ZSt23__is_constant_evaluatedv
	.type	_ZSt23__is_constant_evaluatedv, @function
_ZSt23__is_constant_evaluatedv:
.LFB1:
	.cfi_startproc
	endbr64
	pushq	%rbp
	.cfi_def_cfa_offset 16
	.cfi_offset 6, -16
	movq	%rsp, %rbp
	.cfi_def_cfa_register 6
	movl	$0, %eax
	popq	%rbp
	.cfi_def_cfa 7, 8
	ret
	.cfi_endproc
.LFE1:
	.size	_ZSt23__is_constant_evaluatedv, .-_ZSt23__is_constant_evaluatedv
	.section	.text._ZnwmPv,"axG",@progbits,_ZnwmPv,comdat
	.weak	_ZnwmPv
	.type	_ZnwmPv, @function
_ZnwmPv:
.LFB40:
	.cfi_startproc
	endbr64
	pushq	%rbp
	.cfi_def_cfa_offset 16
	.cfi_offset 6, -16
	movq	%rsp, %rbp
	.cfi_def_cfa_register 6
	movq	%rdi, -8(%rbp)
	movq	%rsi, -16(%rbp)
	movq	-16(%rbp), %rax
	popq	%rbp
	.cfi_def_cfa 7, 8
	ret
	.cfi_endproc
.LFE40:
	.size	_ZnwmPv, .-_ZnwmPv
	.section	.text._ZNSt11char_traitsIcE6lengthEPKc,"axG",@progbits,_ZNSt11char_traitsIcE6lengthEPKc,comdat
	.weak	_ZNSt11char_traitsIcE6lengthEPKc
	.type	_ZNSt11char_traitsIcE6lengthEPKc, @function
_ZNSt11char_traitsIcE6lengthEPKc:
.LFB115:
	.cfi_startproc
	endbr64
	pushq	%rbp
	.cfi_def_cfa_offset 16
	.cfi_offset 6, -16
	movq	%rsp, %rbp
	.cfi_def_cfa_register 6
	subq	$16, %rsp
	movq	%rdi, -8(%rbp)
	call	_ZSt23__is_constant_evaluatedv
	testb	%al, %al
	je	.L6
	movq	-8(%rbp), %rax
	movq	%rax, %rdi
	call	_ZN9__gnu_cxx11char_traitsIcE6lengthEPKc
	jmp	.L7
.L6:
	movq	-8(%rbp), %rax
	movq	%rax, %rdi
	call	strlen@PLT
	nop
.L7:
	leave
	.cfi_def_cfa 7, 8
	ret
	.cfi_endproc
.LFE115:
	.size	_ZNSt11char_traitsIcE6lengthEPKc, .-_ZNSt11char_traitsIcE6lengthEPKc
	.section	.text._ZSt17__size_to_integerm,"axG",@progbits,_ZSt17__size_to_integerm,comdat
	.weak	_ZSt17__size_to_integerm
	.type	_ZSt17__size_to_integerm, @function
_ZSt17__size_to_integerm:
.LFB658:
	.cfi_startproc
	endbr64
	pushq	%rbp
	.cfi_def_cfa_offset 16
	.cfi_offset 6, -16
	movq	%rsp, %rbp
	.cfi_def_cfa_register 6
	movq	%rdi, -8(%rbp)
	movq	-8(%rbp), %rax
	popq	%rbp
	.cfi_def_cfa 7, 8
	ret
	.cfi_endproc
.LFE658:
	.size	_ZSt17__size_to_integerm, .-_ZSt17__size_to_integerm
	.section	.rodata
.LC0:
	.string	"stoul"
	.section	.text._ZNSt7__cxx115stoulERKNS_12basic_stringIcSt11char_traitsIcESaIcEEEPmi,"axG",@progbits,_ZNSt7__cxx115stoulERKNS_12basic_stringIcSt11char_traitsIcESaIcEEEPmi,comdat
	.weak	_ZNSt7__cxx115stoulERKNS_12basic_stringIcSt11char_traitsIcESaIcEEEPmi
	.type	_ZNSt7__cxx115stoulERKNS_12basic_stringIcSt11char_traitsIcESaIcEEEPmi, @function
_ZNSt7__cxx115stoulERKNS_12basic_stringIcSt11char_traitsIcESaIcEEEPmi:
.LFB1173:
	.cfi_startproc
	endbr64
	pushq	%rbp
	.cfi_def_cfa_offset 16
	.cfi_offset 6, -16
	movq	%rsp, %rbp
	.cfi_def_cfa_register 6
	subq	$32, %rsp
	movq	%rdi, -8(%rbp)
	movq	%rsi, -16(%rbp)
	movl	%edx, -20(%rbp)
	movq	-8(%rbp), %rax
	movq	%rax, %rdi
	call	_ZNKSt7__cxx1112basic_stringIcSt11char_traitsIcESaIcEE5c_strEv@PLT
	movq	%rax, %rdx
	movl	-20(%rbp), %ecx
	movq	-16(%rbp), %rax
	movl	%ecx, %r8d
	movq	%rax, %rcx
	leaq	.LC0(%rip), %rax
	movq	%rax, %rsi
	movq	__isoc23_strtoul@GOTPCREL(%rip), %rax
	movq	%rax, %rdi
	call	_ZN9__gnu_cxx6__stoaImmcJiEEET0_PFT_PKT1_PPS3_DpT2_EPKcS5_PmS9_
	leave
	.cfi_def_cfa 7, 8
	ret
	.cfi_endproc
.LFE1173:
	.size	_ZNSt7__cxx115stoulERKNS_12basic_stringIcSt11char_traitsIcESaIcEEEPmi, .-_ZNSt7__cxx115stoulERKNS_12basic_stringIcSt11char_traitsIcESaIcEEEPmi
	.section	.rodata
.LC1:
	.string	"stoull"
	.section	.text._ZNSt7__cxx116stoullERKNS_12basic_stringIcSt11char_traitsIcESaIcEEEPmi,"axG",@progbits,_ZNSt7__cxx116stoullERKNS_12basic_stringIcSt11char_traitsIcESaIcEEEPmi,comdat
	.weak	_ZNSt7__cxx116stoullERKNS_12basic_stringIcSt11char_traitsIcESaIcEEEPmi
	.type	_ZNSt7__cxx116stoullERKNS_12basic_stringIcSt11char_traitsIcESaIcEEEPmi, @function
_ZNSt7__cxx116stoullERKNS_12basic_stringIcSt11char_traitsIcESaIcEEEPmi:
.LFB1175:
	.cfi_startproc
	endbr64
	pushq	%rbp
	.cfi_def_cfa_offset 16
	.cfi_offset 6, -16
	movq	%rsp, %rbp
	.cfi_def_cfa_register 6
	subq	$32, %rsp
	movq	%rdi, -8(%rbp)
	movq	%rsi, -16(%rbp)
	movl	%edx, -20(%rbp)
	movq	-8(%rbp), %rax
	movq	%rax, %rdi
	call	_ZNKSt7__cxx1112basic_stringIcSt11char_traitsIcESaIcEE5c_strEv@PLT
	movq	%rax, %rdx
	movl	-20(%rbp), %ecx
	movq	-16(%rbp), %rax
	movl	%ecx, %r8d
	movq	%rax, %rcx
	leaq	.LC1(%rip), %rax
	movq	%rax, %rsi
	movq	__isoc23_strtoull@GOTPCREL(%rip), %rax
	movq	%rax, %rdi
	call	_ZN9__gnu_cxx6__stoaIyycJiEEET0_PFT_PKT1_PPS3_DpT2_EPKcS5_PmS9_
	leave
	.cfi_def_cfa 7, 8
	ret
	.cfi_endproc
.LFE1175:
	.size	_ZNSt7__cxx116stoullERKNS_12basic_stringIcSt11char_traitsIcESaIcEEEPmi, .-_ZNSt7__cxx116stoullERKNS_12basic_stringIcSt11char_traitsIcESaIcEEEPmi
	.section	.text._ZStanSt13_Ios_FmtflagsS_,"axG",@progbits,_ZStanSt13_Ios_FmtflagsS_,comdat
	.weak	_ZStanSt13_Ios_FmtflagsS_
	.type	_ZStanSt13_Ios_FmtflagsS_, @function
_ZStanSt13_Ios_FmtflagsS_:
.LFB1574:
	.cfi_startproc
	endbr64
	pushq	%rbp
	.cfi_def_cfa_offset 16
	.cfi_offset 6, -16
	movq	%rsp, %rbp
	.cfi_def_cfa_register 6
	movl	%edi, -4(%rbp)
	movl	%esi, -8(%rbp)
	movl	-4(%rbp), %eax
	andl	-8(%rbp), %eax
	popq	%rbp
	.cfi_def_cfa 7, 8
	ret
	.cfi_endproc
.LFE1574:
	.size	_ZStanSt13_Ios_FmtflagsS_, .-_ZStanSt13_Ios_FmtflagsS_
	.section	.text._ZStorSt13_Ios_FmtflagsS_,"axG",@progbits,_ZStorSt13_Ios_FmtflagsS_,comdat
	.weak	_ZStorSt13_Ios_FmtflagsS_
	.type	_ZStorSt13_Ios_FmtflagsS_, @function
_ZStorSt13_Ios_FmtflagsS_:
.LFB1575:
	.cfi_startproc
	endbr64
	pushq	%rbp
	.cfi_def_cfa_offset 16
	.cfi_offset 6, -16
	movq	%rsp, %rbp
	.cfi_def_cfa_register 6
	movl	%edi, -4(%rbp)
	movl	%esi, -8(%rbp)
	movl	-4(%rbp), %eax
	orl	-8(%rbp), %eax
	popq	%rbp
	.cfi_def_cfa 7, 8
	ret
	.cfi_endproc
.LFE1575:
	.size	_ZStorSt13_Ios_FmtflagsS_, .-_ZStorSt13_Ios_FmtflagsS_
	.section	.text._ZStcoSt13_Ios_Fmtflags,"axG",@progbits,_ZStcoSt13_Ios_Fmtflags,comdat
	.weak	_ZStcoSt13_Ios_Fmtflags
	.type	_ZStcoSt13_Ios_Fmtflags, @function
_ZStcoSt13_Ios_Fmtflags:
.LFB1577:
	.cfi_startproc
	endbr64
	pushq	%rbp
	.cfi_def_cfa_offset 16
	.cfi_offset 6, -16
	movq	%rsp, %rbp
	.cfi_def_cfa_register 6
	movl	%edi, -4(%rbp)
	movl	-4(%rbp), %eax
	notl	%eax
	popq	%rbp
	.cfi_def_cfa 7, 8
	ret
	.cfi_endproc
.LFE1577:
	.size	_ZStcoSt13_Ios_Fmtflags, .-_ZStcoSt13_Ios_Fmtflags
	.section	.text._ZStoRRSt13_Ios_FmtflagsS_,"axG",@progbits,_ZStoRRSt13_Ios_FmtflagsS_,comdat
	.weak	_ZStoRRSt13_Ios_FmtflagsS_
	.type	_ZStoRRSt13_Ios_FmtflagsS_, @function
_ZStoRRSt13_Ios_FmtflagsS_:
.LFB1578:
	.cfi_startproc
	endbr64
	pushq	%rbp
	.cfi_def_cfa_offset 16
	.cfi_offset 6, -16
	movq	%rsp, %rbp
	.cfi_def_cfa_register 6
	subq	$16, %rsp
	movq	%rdi, -8(%rbp)
	movl	%esi, -12(%rbp)
	movq	-8(%rbp), %rax
	movl	(%rax), %eax
	movl	-12(%rbp), %edx
	movl	%edx, %esi
	movl	%eax, %edi
	call	_ZStorSt13_Ios_FmtflagsS_
	movq	-8(%rbp), %rdx
	movl	%eax, (%rdx)
	movq	-8(%rbp), %rax
	leave
	.cfi_def_cfa 7, 8
	ret
	.cfi_endproc
.LFE1578:
	.size	_ZStoRRSt13_Ios_FmtflagsS_, .-_ZStoRRSt13_Ios_FmtflagsS_
	.section	.text._ZStaNRSt13_Ios_FmtflagsS_,"axG",@progbits,_ZStaNRSt13_Ios_FmtflagsS_,comdat
	.weak	_ZStaNRSt13_Ios_FmtflagsS_
	.type	_ZStaNRSt13_Ios_FmtflagsS_, @function
_ZStaNRSt13_Ios_FmtflagsS_:
.LFB1579:
	.cfi_startproc
	endbr64
	pushq	%rbp
	.cfi_def_cfa_offset 16
	.cfi_offset 6, -16
	movq	%rsp, %rbp
	.cfi_def_cfa_register 6
	subq	$16, %rsp
	movq	%rdi, -8(%rbp)
	movl	%esi, -12(%rbp)
	movq	-8(%rbp), %rax
	movl	(%rax), %eax
	movl	-12(%rbp), %edx
	movl	%edx, %esi
	movl	%eax, %edi
	call	_ZStanSt13_Ios_FmtflagsS_
	movq	-8(%rbp), %rdx
	movl	%eax, (%rdx)
	movq	-8(%rbp), %rax
	leave
	.cfi_def_cfa 7, 8
	ret
	.cfi_endproc
.LFE1579:
	.size	_ZStaNRSt13_Ios_FmtflagsS_, .-_ZStaNRSt13_Ios_FmtflagsS_
	.section	.text._ZNSt8ios_base4setfESt13_Ios_FmtflagsS0_,"axG",@progbits,_ZNSt8ios_base4setfESt13_Ios_FmtflagsS0_,comdat
	.align 2
	.weak	_ZNSt8ios_base4setfESt13_Ios_FmtflagsS0_
	.type	_ZNSt8ios_base4setfESt13_Ios_FmtflagsS0_, @function
_ZNSt8ios_base4setfESt13_Ios_FmtflagsS0_:
.LFB1608:
	.cfi_startproc
	endbr64
	pushq	%rbp
	.cfi_def_cfa_offset 16
	.cfi_offset 6, -16
	movq	%rsp, %rbp
	.cfi_def_cfa_register 6
	subq	$32, %rsp
	movq	%rdi, -24(%rbp)
	movl	%esi, -28(%rbp)
	movl	%edx, -32(%rbp)
	movq	-24(%rbp), %rax
	movl	24(%rax), %eax
	movl	%eax, -4(%rbp)
	movl	-32(%rbp), %eax
	movl	%eax, %edi
	call	_ZStcoSt13_Ios_Fmtflags
	movl	%eax, %edx
	movq	-24(%rbp), %rax
	addq	$24, %rax
	movl	%edx, %esi
	movq	%rax, %rdi
	call	_ZStaNRSt13_Ios_FmtflagsS_
	movl	-32(%rbp), %edx
	movl	-28(%rbp), %eax
	movl	%edx, %esi
	movl	%eax, %edi
	call	_ZStanSt13_Ios_FmtflagsS_
	movl	%eax, %edx
	movq	-24(%rbp), %rax
	addq	$24, %rax
	movl	%edx, %esi
	movq	%rax, %rdi
	call	_ZStoRRSt13_Ios_FmtflagsS_
	movl	-4(%rbp), %eax
	leave
	.cfi_def_cfa 7, 8
	ret
	.cfi_endproc
.LFE1608:
	.size	_ZNSt8ios_base4setfESt13_Ios_FmtflagsS0_, .-_ZNSt8ios_base4setfESt13_Ios_FmtflagsS0_
	.section	.text._ZSt3decRSt8ios_base,"axG",@progbits,_ZSt3decRSt8ios_base,comdat
	.weak	_ZSt3decRSt8ios_base
	.type	_ZSt3decRSt8ios_base, @function
_ZSt3decRSt8ios_base:
.LFB1635:
	.cfi_startproc
	endbr64
	pushq	%rbp
	.cfi_def_cfa_offset 16
	.cfi_offset 6, -16
	movq	%rsp, %rbp
	.cfi_def_cfa_register 6
	subq	$16, %rsp
	movq	%rdi, -8(%rbp)
	movq	-8(%rbp), %rax
	movl	$74, %edx
	movl	$2, %esi
	movq	%rax, %rdi
	call	_ZNSt8ios_base4setfESt13_Ios_FmtflagsS0_
	movq	-8(%rbp), %rax
	leave
	.cfi_def_cfa 7, 8
	ret
	.cfi_endproc
.LFE1635:
	.size	_ZSt3decRSt8ios_base, .-_ZSt3decRSt8ios_base
	.section	.text._ZSt3hexRSt8ios_base,"axG",@progbits,_ZSt3hexRSt8ios_base,comdat
	.weak	_ZSt3hexRSt8ios_base
	.type	_ZSt3hexRSt8ios_base, @function
_ZSt3hexRSt8ios_base:
.LFB1636:
	.cfi_startproc
	endbr64
	pushq	%rbp
	.cfi_def_cfa_offset 16
	.cfi_offset 6, -16
	movq	%rsp, %rbp
	.cfi_def_cfa_register 6
	subq	$16, %rsp
	movq	%rdi, -8(%rbp)
	movq	-8(%rbp), %rax
	movl	$74, %edx
	movl	$8, %esi
	movq	%rax, %rdi
	call	_ZNSt8ios_base4setfESt13_Ios_FmtflagsS0_
	movq	-8(%rbp), %rax
	leave
	.cfi_def_cfa 7, 8
	ret
	.cfi_endproc
.LFE1636:
	.size	_ZSt3hexRSt8ios_base, .-_ZSt3hexRSt8ios_base
	.section	.text._ZSt5fixedRSt8ios_base,"axG",@progbits,_ZSt5fixedRSt8ios_base,comdat
	.weak	_ZSt5fixedRSt8ios_base
	.type	_ZSt5fixedRSt8ios_base, @function
_ZSt5fixedRSt8ios_base:
.LFB1638:
	.cfi_startproc
	endbr64
	pushq	%rbp
	.cfi_def_cfa_offset 16
	.cfi_offset 6, -16
	movq	%rsp, %rbp
	.cfi_def_cfa_register 6
	subq	$16, %rsp
	movq	%rdi, -8(%rbp)
	movq	-8(%rbp), %rax
	movl	$260, %edx
	movl	$4, %esi
	movq	%rax, %rdi
	call	_ZNSt8ios_base4setfESt13_Ios_FmtflagsS0_
	movq	-8(%rbp), %rax
	leave
	.cfi_def_cfa 7, 8
	ret
	.cfi_endproc
.LFE1638:
	.size	_ZSt5fixedRSt8ios_base, .-_ZSt5fixedRSt8ios_base
#APP
	.globl _ZSt21ios_base_library_initv
#NO_APP
	.section	.text._ZNSt6chrono8durationIlSt5ratioILl1ELl1000000000EEEC1IlvEERKT_,"axG",@progbits,_ZNSt6chrono8durationIlSt5ratioILl1ELl1000000000EEEC1IlvEERKT_,comdat
	.align 2
	.weak	_ZNSt6chrono8durationIlSt5ratioILl1ELl1000000000EEEC1IlvEERKT_
	.type	_ZNSt6chrono8durationIlSt5ratioILl1ELl1000000000EEEC1IlvEERKT_, @function
_ZNSt6chrono8durationIlSt5ratioILl1ELl1000000000EEEC1IlvEERKT_:
.LFB2251:
	.cfi_startproc
	endbr64
	pushq	%rbp
	.cfi_def_cfa_offset 16
	.cfi_offset 6, -16
	movq	%rsp, %rbp
	.cfi_def_cfa_register 6
	movq	%rdi, -8(%rbp)
	movq	%rsi, -16(%rbp)
	movq	-16(%rbp), %rax
	movq	(%rax), %rdx
	movq	-8(%rbp), %rax
	movq	%rdx, (%rax)
	nop
	popq	%rbp
	.cfi_def_cfa 7, 8
	ret
	.cfi_endproc
.LFE2251:
	.size	_ZNSt6chrono8durationIlSt5ratioILl1ELl1000000000EEEC1IlvEERKT_, .-_ZNSt6chrono8durationIlSt5ratioILl1ELl1000000000EEEC1IlvEERKT_
	.section	.text._ZNKSt6chrono8durationIlSt5ratioILl1ELl1000000000EEE5countEv,"axG",@progbits,_ZNKSt6chrono8durationIlSt5ratioILl1ELl1000000000EEE5countEv,comdat
	.align 2
	.weak	_ZNKSt6chrono8durationIlSt5ratioILl1ELl1000000000EEE5countEv
	.type	_ZNKSt6chrono8durationIlSt5ratioILl1ELl1000000000EEE5countEv, @function
_ZNKSt6chrono8durationIlSt5ratioILl1ELl1000000000EEE5countEv:
.LFB2253:
	.cfi_startproc
	endbr64
	pushq	%rbp
	.cfi_def_cfa_offset 16
	.cfi_offset 6, -16
	movq	%rsp, %rbp
	.cfi_def_cfa_register 6
	movq	%rdi, -8(%rbp)
	movq	-8(%rbp), %rax
	movq	(%rax), %rax
	popq	%rbp
	.cfi_def_cfa 7, 8
	ret
	.cfi_endproc
.LFE2253:
	.size	_ZNKSt6chrono8durationIlSt5ratioILl1ELl1000000000EEE5countEv, .-_ZNKSt6chrono8durationIlSt5ratioILl1ELl1000000000EEE5countEv
	.section	.text._ZSt12setprecisioni,"axG",@progbits,_ZSt12setprecisioni,comdat
	.weak	_ZSt12setprecisioni
	.type	_ZSt12setprecisioni, @function
_ZSt12setprecisioni:
.LFB2901:
	.cfi_startproc
	endbr64
	pushq	%rbp
	.cfi_def_cfa_offset 16
	.cfi_offset 6, -16
	movq	%rsp, %rbp
	.cfi_def_cfa_register 6
	movl	%edi, -4(%rbp)
	movl	-4(%rbp), %eax
	popq	%rbp
	.cfi_def_cfa 7, 8
	ret
	.cfi_endproc
.LFE2901:
	.size	_ZSt12setprecisioni, .-_ZSt12setprecisioni
	.section	.text._Z7std_addjj,"axG",@progbits,_Z7std_addjj,comdat
	.weak	_Z7std_addjj
	.type	_Z7std_addjj, @function
_Z7std_addjj:
.LFB3009:
	.cfi_startproc
	endbr64
	pushq	%rbp
	.cfi_def_cfa_offset 16
	.cfi_offset 6, -16
	movq	%rsp, %rbp
	.cfi_def_cfa_register 6
	movl	%edi, -4(%rbp)
	movl	%esi, -8(%rbp)
	movl	-4(%rbp), %edx
	movl	-8(%rbp), %eax
	addl	%edx, %eax
	popq	%rbp
	.cfi_def_cfa 7, 8
	ret
	.cfi_endproc
.LFE3009:
	.size	_Z7std_addjj, .-_Z7std_addjj
	.section	.text._Z11reist_add32jj,"axG",@progbits,_Z11reist_add32jj,comdat
	.weak	_Z11reist_add32jj
	.type	_Z11reist_add32jj, @function
_Z11reist_add32jj:
.LFB3010:
	.cfi_startproc
	endbr64
	pushq	%rbp
	.cfi_def_cfa_offset 16
	.cfi_offset 6, -16
	movq	%rsp, %rbp
	.cfi_def_cfa_register 6
	movl	%edi, -4(%rbp)
	movl	%esi, -8(%rbp)
	movl	-4(%rbp), %edx
	movl	-8(%rbp), %eax
	addl	%edx, %eax
	popq	%rbp
	.cfi_def_cfa 7, 8
	ret
	.cfi_endproc
.LFE3010:
	.size	_Z11reist_add32jj, .-_Z11reist_add32jj
	.section	.text._Z13chacha_qr_stdPj,"axG",@progbits,_Z13chacha_qr_stdPj,comdat
	.weak	_Z13chacha_qr_stdPj
	.type	_Z13chacha_qr_stdPj, @function
_Z13chacha_qr_stdPj:
.LFB3011:
	.cfi_startproc
	endbr64
	pushq	%rbp
	.cfi_def_cfa_offset 16
	.cfi_offset 6, -16
	movq	%rsp, %rbp
	.cfi_def_cfa_register 6
	movq	%rdi, -8(%rbp)
	movq	-8(%rbp), %rax
	movl	(%rax), %edx
	movq	-8(%rbp), %rax
	addq	$16, %rax
	movl	(%rax), %eax
	addl	%eax, %edx
	movq	-8(%rbp), %rax
	movl	%edx, (%rax)
	movq	-8(%rbp), %rax
	addq	$48, %rax
	movl	(%rax), %ecx
	movq	-8(%rbp), %rax
	movl	(%rax), %edx
	movq	-8(%rbp), %rax
	addq	$48, %rax
	xorl	%ecx, %edx
	movl	%edx, (%rax)
	movq	-8(%rbp), %rax
	addq	$48, %rax
	movl	(%rax), %edx
	movq	-8(%rbp), %rax
	addq	$48, %rax
	roll	$16, %edx
	movl	%edx, (%rax)
	movq	-8(%rbp), %rax
	addq	$32, %rax
	movl	(%rax), %ecx
	movq	-8(%rbp), %rax
	addq	$48, %rax
	movl	(%rax), %edx
	movq	-8(%rbp), %rax
	addq	$32, %rax
	addl	%ecx, %edx
	movl	%edx, (%rax)
	movq	-8(%rbp), %rax
	addq	$16, %rax
	movl	(%rax), %ecx
	movq	-8(%rbp), %rax
	addq	$32, %rax
	movl	(%rax), %edx
	movq	-8(%rbp), %rax
	addq	$16, %rax
	xorl	%ecx, %edx
	movl	%edx, (%rax)
	movq	-8(%rbp), %rax
	addq	$16, %rax
	movl	(%rax), %edx
	movq	-8(%rbp), %rax
	addq	$16, %rax
	roll	$12, %edx
	movl	%edx, (%rax)
	movq	-8(%rbp), %rax
	movl	(%rax), %edx
	movq	-8(%rbp), %rax
	addq	$16, %rax
	movl	(%rax), %eax
	addl	%eax, %edx
	movq	-8(%rbp), %rax
	movl	%edx, (%rax)
	movq	-8(%rbp), %rax
	addq	$48, %rax
	movl	(%rax), %ecx
	movq	-8(%rbp), %rax
	movl	(%rax), %edx
	movq	-8(%rbp), %rax
	addq	$48, %rax
	xorl	%ecx, %edx
	movl	%edx, (%rax)
	movq	-8(%rbp), %rax
	addq	$48, %rax
	movl	(%rax), %edx
	movq	-8(%rbp), %rax
	addq	$48, %rax
	roll	$8, %edx
	movl	%edx, (%rax)
	movq	-8(%rbp), %rax
	addq	$32, %rax
	movl	(%rax), %ecx
	movq	-8(%rbp), %rax
	addq	$48, %rax
	movl	(%rax), %edx
	movq	-8(%rbp), %rax
	addq	$32, %rax
	addl	%ecx, %edx
	movl	%edx, (%rax)
	movq	-8(%rbp), %rax
	addq	$16, %rax
	movl	(%rax), %ecx
	movq	-8(%rbp), %rax
	addq	$32, %rax
	movl	(%rax), %edx
	movq	-8(%rbp), %rax
	addq	$16, %rax
	xorl	%ecx, %edx
	movl	%edx, (%rax)
	movq	-8(%rbp), %rax
	addq	$16, %rax
	movl	(%rax), %edx
	movq	-8(%rbp), %rax
	addq	$16, %rax
	roll	$7, %edx
	movl	%edx, (%rax)
	nop
	popq	%rbp
	.cfi_def_cfa 7, 8
	ret
	.cfi_endproc
.LFE3011:
	.size	_Z13chacha_qr_stdPj, .-_Z13chacha_qr_stdPj
	.section	.text._Z15chacha_qr_reistPj,"axG",@progbits,_Z15chacha_qr_reistPj,comdat
	.weak	_Z15chacha_qr_reistPj
	.type	_Z15chacha_qr_reistPj, @function
_Z15chacha_qr_reistPj:
.LFB3012:
	.cfi_startproc
	endbr64
	pushq	%rbp
	.cfi_def_cfa_offset 16
	.cfi_offset 6, -16
	movq	%rsp, %rbp
	.cfi_def_cfa_register 6
	pushq	%rbx
	subq	$24, %rsp
	.cfi_offset 3, -24
	movq	%rdi, -24(%rbp)
	movq	-24(%rbp), %rax
	addq	$16, %rax
	movl	(%rax), %edx
	movq	-24(%rbp), %rax
	movl	(%rax), %eax
	movl	%edx, %esi
	movl	%eax, %edi
	call	_Z11reist_add32jj
	movq	-24(%rbp), %rdx
	movl	%eax, (%rdx)
	movq	-24(%rbp), %rax
	addq	$48, %rax
	movl	(%rax), %ecx
	movq	-24(%rbp), %rax
	movl	(%rax), %edx
	movq	-24(%rbp), %rax
	addq	$48, %rax
	xorl	%ecx, %edx
	movl	%edx, (%rax)
	movq	-24(%rbp), %rax
	addq	$48, %rax
	movl	(%rax), %edx
	movq	-24(%rbp), %rax
	addq	$48, %rax
	roll	$16, %edx
	movl	%edx, (%rax)
	movq	-24(%rbp), %rax
	addq	$48, %rax
	movl	(%rax), %edx
	movq	-24(%rbp), %rax
	addq	$32, %rax
	movl	(%rax), %eax
	movq	-24(%rbp), %rcx
	leaq	32(%rcx), %rbx
	movl	%edx, %esi
	movl	%eax, %edi
	call	_Z11reist_add32jj
	movl	%eax, (%rbx)
	movq	-24(%rbp), %rax
	addq	$16, %rax
	movl	(%rax), %ecx
	movq	-24(%rbp), %rax
	addq	$32, %rax
	movl	(%rax), %edx
	movq	-24(%rbp), %rax
	addq	$16, %rax
	xorl	%ecx, %edx
	movl	%edx, (%rax)
	movq	-24(%rbp), %rax
	addq	$16, %rax
	movl	(%rax), %edx
	movq	-24(%rbp), %rax
	addq	$16, %rax
	roll	$12, %edx
	movl	%edx, (%rax)
	movq	-24(%rbp), %rax
	addq	$16, %rax
	movl	(%rax), %edx
	movq	-24(%rbp), %rax
	movl	(%rax), %eax
	movl	%edx, %esi
	movl	%eax, %edi
	call	_Z11reist_add32jj
	movq	-24(%rbp), %rdx
	movl	%eax, (%rdx)
	movq	-24(%rbp), %rax
	addq	$48, %rax
	movl	(%rax), %ecx
	movq	-24(%rbp), %rax
	movl	(%rax), %edx
	movq	-24(%rbp), %rax
	addq	$48, %rax
	xorl	%ecx, %edx
	movl	%edx, (%rax)
	movq	-24(%rbp), %rax
	addq	$48, %rax
	movl	(%rax), %edx
	movq	-24(%rbp), %rax
	addq	$48, %rax
	roll	$8, %edx
	movl	%edx, (%rax)
	movq	-24(%rbp), %rax
	addq	$48, %rax
	movl	(%rax), %edx
	movq	-24(%rbp), %rax
	addq	$32, %rax
	movl	(%rax), %eax
	movq	-24(%rbp), %rcx
	leaq	32(%rcx), %rbx
	movl	%edx, %esi
	movl	%eax, %edi
	call	_Z11reist_add32jj
	movl	%eax, (%rbx)
	movq	-24(%rbp), %rax
	addq	$16, %rax
	movl	(%rax), %ecx
	movq	-24(%rbp), %rax
	addq	$32, %rax
	movl	(%rax), %edx
	movq	-24(%rbp), %rax
	addq	$16, %rax
	xorl	%ecx, %edx
	movl	%edx, (%rax)
	movq	-24(%rbp), %rax
	addq	$16, %rax
	movl	(%rax), %edx
	movq	-24(%rbp), %rax
	addq	$16, %rax
	roll	$7, %edx
	movl	%edx, (%rax)
	nop
	movq	-8(%rbp), %rbx
	leave
	.cfi_def_cfa 7, 8
	ret
	.cfi_endproc
.LFE3012:
	.size	_Z15chacha_qr_reistPj, .-_Z15chacha_qr_reistPj
	.text
	.globl	_Z16chacha_block_stdPjPKj
	.type	_Z16chacha_block_stdPjPKj, @function
_Z16chacha_block_stdPjPKj:
.LFB3013:
	.cfi_startproc
	endbr64
	pushq	%rbp
	.cfi_def_cfa_offset 16
	.cfi_offset 6, -16
	movq	%rsp, %rbp
	.cfi_def_cfa_register 6
	subq	$112, %rsp
	movq	%rdi, -104(%rbp)
	movq	%rsi, -112(%rbp)
	movq	%fs:40, %rax
	movq	%rax, -8(%rbp)
	xorl	%eax, %eax
	movq	-112(%rbp), %rcx
	leaq	-80(%rbp), %rax
	movl	$64, %edx
	movq	%rcx, %rsi
	movq	%rax, %rdi
	call	memcpy@PLT
	movl	$0, -88(%rbp)
	jmp	.L44
.L45:
	leaq	-80(%rbp), %rax
	movq	%rax, %rdi
	call	_Z13chacha_qr_stdPj
	leaq	-80(%rbp), %rax
	movq	%rax, %rdi
	call	_Z13chacha_qr_stdPj
	addl	$1, -88(%rbp)
.L44:
	cmpl	$9, -88(%rbp)
	jle	.L45
	movl	$0, -84(%rbp)
	jmp	.L46
.L47:
	movl	-84(%rbp), %eax
	cltq
	movl	-80(%rbp,%rax,4), %ecx
	movl	-84(%rbp), %eax
	cltq
	leaq	0(,%rax,4), %rdx
	movq	-112(%rbp), %rax
	addq	%rdx, %rax
	movl	(%rax), %edx
	movl	-84(%rbp), %eax
	cltq
	leaq	0(,%rax,4), %rsi
	movq	-104(%rbp), %rax
	addq	%rsi, %rax
	addl	%ecx, %edx
	movl	%edx, (%rax)
	addl	$1, -84(%rbp)
.L46:
	cmpl	$15, -84(%rbp)
	jle	.L47
	nop
	movq	-8(%rbp), %rax
	subq	%fs:40, %rax
	je	.L48
	call	__stack_chk_fail@PLT
.L48:
	leave
	.cfi_def_cfa 7, 8
	ret
	.cfi_endproc
.LFE3013:
	.size	_Z16chacha_block_stdPjPKj, .-_Z16chacha_block_stdPjPKj
	.globl	_Z18chacha_block_reistPjPKj
	.type	_Z18chacha_block_reistPjPKj, @function
_Z18chacha_block_reistPjPKj:
.LFB3014:
	.cfi_startproc
	endbr64
	pushq	%rbp
	.cfi_def_cfa_offset 16
	.cfi_offset 6, -16
	movq	%rsp, %rbp
	.cfi_def_cfa_register 6
	pushq	%rbx
	subq	$120, %rsp
	.cfi_offset 3, -24
	movq	%rdi, -120(%rbp)
	movq	%rsi, -128(%rbp)
	movq	%fs:40, %rax
	movq	%rax, -24(%rbp)
	xorl	%eax, %eax
	movq	-128(%rbp), %rcx
	leaq	-96(%rbp), %rax
	movl	$64, %edx
	movq	%rcx, %rsi
	movq	%rax, %rdi
	call	memcpy@PLT
	movl	$0, -104(%rbp)
	jmp	.L50
.L51:
	leaq	-96(%rbp), %rax
	movq	%rax, %rdi
	call	_Z15chacha_qr_reistPj
	leaq	-96(%rbp), %rax
	movq	%rax, %rdi
	call	_Z15chacha_qr_reistPj
	addl	$1, -104(%rbp)
.L50:
	cmpl	$9, -104(%rbp)
	jle	.L51
	movl	$0, -100(%rbp)
	jmp	.L52
.L53:
	movl	-100(%rbp), %eax
	cltq
	leaq	0(,%rax,4), %rdx
	movq	-128(%rbp), %rax
	addq	%rdx, %rax
	movl	(%rax), %edx
	movl	-100(%rbp), %eax
	cltq
	movl	-96(%rbp,%rax,4), %eax
	movl	-100(%rbp), %ecx
	movslq	%ecx, %rcx
	leaq	0(,%rcx,4), %rsi
	movq	-120(%rbp), %rcx
	leaq	(%rsi,%rcx), %rbx
	movl	%edx, %esi
	movl	%eax, %edi
	call	_Z7std_addjj
	movl	%eax, (%rbx)
	addl	$1, -100(%rbp)
.L52:
	cmpl	$15, -100(%rbp)
	jle	.L53
	nop
	movq	-24(%rbp), %rax
	subq	%fs:40, %rax
	je	.L54
	call	__stack_chk_fail@PLT
.L54:
	movq	-8(%rbp), %rbx
	leave
	.cfi_def_cfa 7, 8
	ret
	.cfi_endproc
.LFE3014:
	.size	_Z18chacha_block_reistPjPKj, .-_Z18chacha_block_reistPjPKj
	.align 2
	.type	_ZZ4mainENKUlmE_clEm, @function
_ZZ4mainENKUlmE_clEm:
.LFB3021:
	.cfi_startproc
	pushq	%rbp
	.cfi_def_cfa_offset 16
	.cfi_offset 6, -16
	movq	%rsp, %rbp
	.cfi_def_cfa_register 6
	subq	$32, %rsp
	movq	%rdi, -24(%rbp)
	movq	%rsi, -32(%rbp)
	movq	$0, -8(%rbp)
	jmp	.L56
.L59:
	movq	-24(%rbp), %rax
	movq	8(%rax), %rdx
	movq	-24(%rbp), %rax
	movq	(%rax), %rax
	movq	%rdx, %rsi
	movq	%rax, %rdi
	call	_Z16chacha_block_stdPjPKj
	movl	$0, -12(%rbp)
	jmp	.L57
.L58:
	movq	-24(%rbp), %rax
	movq	16(%rax), %rax
	movl	-12(%rbp), %edx
	movslq	%edx, %rdx
	movq	%rdx, %rsi
	movq	%rax, %rdi
	call	_ZNSt6vectorIjSaIjEEixEm
	movl	(%rax), %esi
	movq	-24(%rbp), %rdx
	movq	(%rdx), %rdx
	movl	-12(%rbp), %ecx
	movslq	%ecx, %rcx
	movl	(%rdx,%rcx,4), %edx
	xorl	%esi, %edx
	movl	%edx, (%rax)
	addl	$1, -12(%rbp)
.L57:
	cmpl	$15, -12(%rbp)
	jle	.L58
	addq	$1, -8(%rbp)
.L56:
	movq	-8(%rbp), %rax
	cmpq	-32(%rbp), %rax
	jb	.L59
	nop
	nop
	leave
	.cfi_def_cfa 7, 8
	ret
	.cfi_endproc
.LFE3021:
	.size	_ZZ4mainENKUlmE_clEm, .-_ZZ4mainENKUlmE_clEm
	.align 2
	.type	_ZZ4mainENKUlmE0_clEm, @function
_ZZ4mainENKUlmE0_clEm:
.LFB3022:
	.cfi_startproc
	pushq	%rbp
	.cfi_def_cfa_offset 16
	.cfi_offset 6, -16
	movq	%rsp, %rbp
	.cfi_def_cfa_register 6
	subq	$32, %rsp
	movq	%rdi, -24(%rbp)
	movq	%rsi, -32(%rbp)
	movq	$0, -8(%rbp)
	jmp	.L61
.L64:
	movq	-24(%rbp), %rax
	movq	8(%rax), %rdx
	movq	-24(%rbp), %rax
	movq	(%rax), %rax
	movq	%rdx, %rsi
	movq	%rax, %rdi
	call	_Z18chacha_block_reistPjPKj
	movl	$0, -12(%rbp)
	jmp	.L62
.L63:
	movq	-24(%rbp), %rax
	movq	16(%rax), %rax
	movl	-12(%rbp), %edx
	movslq	%edx, %rdx
	movq	%rdx, %rsi
	movq	%rax, %rdi
	call	_ZNSt6vectorIjSaIjEEixEm
	movl	(%rax), %esi
	movq	-24(%rbp), %rdx
	movq	(%rdx), %rdx
	movl	-12(%rbp), %ecx
	movslq	%ecx, %rcx
	movl	(%rdx,%rcx,4), %edx
	xorl	%esi, %edx
	movl	%edx, (%rax)
	addl	$1, -12(%rbp)
.L62:
	cmpl	$15, -12(%rbp)
	jle	.L63
	addq	$1, -8(%rbp)
.L61:
	movq	-8(%rbp), %rax
	cmpq	-32(%rbp), %rax
	jb	.L64
	nop
	nop
	leave
	.cfi_def_cfa 7, 8
	ret
	.cfi_endproc
.LFE3022:
	.size	_ZZ4mainENKUlmE0_clEm, .-_ZZ4mainENKUlmE0_clEm
	.section	.rodata
.LC2:
	.string	"/proc/cpuinfo"
.LC3:
	.string	"model name"
.LC4:
	.string	":"
.LC5:
	.string	"cpu MHz"
.LC6:
	.string	"/proc/meminfo"
.LC7:
	.string	"MemTotal"
.LC8:
	.string	"r"
.LC9:
	.string	"uname -o"
	.align 8
.LC10:
	.string	"========================================\n"
.LC11:
	.string	"ChaCha20 Stream Benchmark\n"
.LC12:
	.string	"System Information:\n"
.LC13:
	.string	"  Hostname: "
.LC14:
	.string	"\n"
.LC15:
	.string	"  OS: "
.LC16:
	.string	"  CPU Model: "
.LC17:
	.string	"  CPU MHz: "
.LC18:
	.string	"  Memory: "
	.align 8
.LC19:
	.string	"========================================\n\n"
	.align 8
.LC21:
	.string	"ChaCha20-like keystream benchmark ("
.LC23:
	.string	" MB total)\n\n"
.LC24:
	.string	"Classic : "
.LC25:
	.string	" s ("
.LC27:
	.string	" MB/s)\n"
.LC28:
	.string	"REIST   : "
	.align 8
.LC30:
	.string	"Speed ratio (classic / REIST): "
.LC31:
	.string	"x\n"
.LC32:
	.string	"\nSink XOR: "
.LC33:
	.string	" "
	.text
	.globl	main
	.type	main, @function
main:
.LFB3016:
	.cfi_startproc
	.cfi_personality 0x9b,DW.ref.__gxx_personality_v0
	.cfi_lsda 0x1b,.LLSDA3016
	endbr64
	pushq	%rbp
	.cfi_def_cfa_offset 16
	.cfi_offset 6, -16
	movq	%rsp, %rbp
	.cfi_def_cfa_register 6
	pushq	%rbx
	subq	$1368, %rsp
	.cfi_offset 3, -24
	movl	%edi, -1364(%rbp)
	movq	%rsi, -1376(%rbp)
	movq	%fs:40, %rax
	movq	%rax, -24(%rbp)
	xorl	%eax, %eax
	movq	$1000000, -1336(%rbp)
	movl	$-889275714, -1348(%rbp)
	cmpl	$1, -1364(%rbp)
	jle	.L66
	leaq	-1232(%rbp), %rax
	movq	%rax, -1296(%rbp)
	nop
	nop
	movq	-1376(%rbp), %rax
	addq	$8, %rax
	movq	(%rax), %rcx
	leaq	-1232(%rbp), %rdx
	leaq	-944(%rbp), %rax
	movq	%rcx, %rsi
	movq	%rax, %rdi
.LEHB0:
	call	_ZNSt7__cxx1112basic_stringIcSt11char_traitsIcESaIcEEC1IS3_EEPKcRKS3_
.LEHE0:
	leaq	-944(%rbp), %rax
	movl	$10, %edx
	movl	$0, %esi
	movq	%rax, %rdi
.LEHB1:
	call	_ZNSt7__cxx116stoullERKNS_12basic_stringIcSt11char_traitsIcESaIcEEEPmi
.LEHE1:
	movq	%rax, -1336(%rbp)
	leaq	-944(%rbp), %rax
	movq	%rax, %rdi
	call	_ZNSt7__cxx1112basic_stringIcSt11char_traitsIcESaIcEED1Ev@PLT
	leaq	-1232(%rbp), %rax
	movq	%rax, %rdi
	call	_ZNSt15__new_allocatorIcED2Ev
	nop
.L66:
	cmpl	$2, -1364(%rbp)
	jle	.L67
	leaq	-1232(%rbp), %rax
	movq	%rax, -1288(%rbp)
	nop
	nop
	movq	-1376(%rbp), %rax
	addq	$16, %rax
	movq	(%rax), %rcx
	leaq	-1232(%rbp), %rdx
	leaq	-944(%rbp), %rax
	movq	%rcx, %rsi
	movq	%rax, %rdi
.LEHB2:
	call	_ZNSt7__cxx1112basic_stringIcSt11char_traitsIcESaIcEEC1IS3_EEPKcRKS3_
.LEHE2:
	leaq	-944(%rbp), %rax
	movl	$10, %edx
	movl	$0, %esi
	movq	%rax, %rdi
.LEHB3:
	call	_ZNSt7__cxx115stoulERKNS_12basic_stringIcSt11char_traitsIcESaIcEEEPmi
.LEHE3:
	movl	%eax, -1348(%rbp)
	leaq	-944(%rbp), %rax
	movq	%rax, %rdi
	call	_ZNSt7__cxx1112basic_stringIcSt11char_traitsIcESaIcEED1Ev@PLT
	leaq	-1232(%rbp), %rax
	movq	%rax, %rdi
	call	_ZNSt15__new_allocatorIcED2Ev
	nop
.L67:
	leaq	-1200(%rbp), %rax
	movq	%rax, %rdi
	call	_ZNSt7__cxx1112basic_stringIcSt11char_traitsIcESaIcEEC1Ev@PLT
	leaq	-1168(%rbp), %rax
	movq	%rax, %rdi
	call	_ZNSt7__cxx1112basic_stringIcSt11char_traitsIcESaIcEEC1Ev@PLT
	leaq	-1136(%rbp), %rax
	movq	%rax, %rdi
	call	_ZNSt7__cxx1112basic_stringIcSt11char_traitsIcESaIcEEC1Ev@PLT
	leaq	-1104(%rbp), %rax
	movq	%rax, %rdi
	call	_ZNSt7__cxx1112basic_stringIcSt11char_traitsIcESaIcEEC1Ev@PLT
	leaq	-1072(%rbp), %rax
	movq	%rax, %rdi
	call	_ZNSt7__cxx1112basic_stringIcSt11char_traitsIcESaIcEEC1Ev@PLT
	leaq	-944(%rbp), %rax
	movl	$8, %edx
	leaq	.LC2(%rip), %rcx
	movq	%rcx, %rsi
	movq	%rax, %rdi
.LEHB4:
	call	_ZNSt14basic_ifstreamIcSt11char_traitsIcEEC1EPKcSt13_Ios_Openmode@PLT
.LEHE4:
	leaq	-1040(%rbp), %rax
	movq	%rax, %rdi
	call	_ZNSt7__cxx1112basic_stringIcSt11char_traitsIcESaIcEEC1Ev@PLT
	jmp	.L70
.L71:
	leaq	-1040(%rbp), %rax
	movl	$0, %edx
	leaq	.LC3(%rip), %rcx
	movq	%rcx, %rsi
	movq	%rax, %rdi
	call	_ZNKSt7__cxx1112basic_stringIcSt11char_traitsIcESaIcEE4findEPKcm@PLT
	cmpq	$-1, %rax
	setne	%al
	testb	%al, %al
	je	.L69
	leaq	-1040(%rbp), %rax
	movl	$0, %edx
	leaq	.LC4(%rip), %rcx
	movq	%rcx, %rsi
	movq	%rax, %rdi
	call	_ZNKSt7__cxx1112basic_stringIcSt11char_traitsIcESaIcEE4findEPKcm@PLT
	leaq	2(%rax), %rdx
	leaq	-1008(%rbp), %rax
	leaq	-1040(%rbp), %rsi
	movq	$-1, %rcx
	movq	%rax, %rdi
.LEHB5:
	call	_ZNKSt7__cxx1112basic_stringIcSt11char_traitsIcESaIcEE6substrEmm@PLT
	leaq	-1008(%rbp), %rdx
	leaq	-1200(%rbp), %rax
	movq	%rdx, %rsi
	movq	%rax, %rdi
	call	_ZNSt7__cxx1112basic_stringIcSt11char_traitsIcESaIcEEaSEOS4_@PLT
	leaq	-1008(%rbp), %rax
	movq	%rax, %rdi
	call	_ZNSt7__cxx1112basic_stringIcSt11char_traitsIcESaIcEED1Ev@PLT
.L69:
	leaq	-1040(%rbp), %rax
	movl	$0, %edx
	leaq	.LC5(%rip), %rcx
	movq	%rcx, %rsi
	movq	%rax, %rdi
	call	_ZNKSt7__cxx1112basic_stringIcSt11char_traitsIcESaIcEE4findEPKcm@PLT
	cmpq	$-1, %rax
	setne	%al
	testb	%al, %al
	je	.L70
	leaq	-1040(%rbp), %rax
	movl	$0, %edx
	leaq	.LC4(%rip), %rcx
	movq	%rcx, %rsi
	movq	%rax, %rdi
	call	_ZNKSt7__cxx1112basic_stringIcSt11char_traitsIcESaIcEE4findEPKcm@PLT
	leaq	2(%rax), %rdx
	leaq	-1008(%rbp), %rax
	leaq	-1040(%rbp), %rsi
	movq	$-1, %rcx
	movq	%rax, %rdi
	call	_ZNKSt7__cxx1112basic_stringIcSt11char_traitsIcESaIcEE6substrEmm@PLT
	leaq	-1008(%rbp), %rdx
	leaq	-1168(%rbp), %rax
	movq	%rdx, %rsi
	movq	%rax, %rdi
	call	_ZNSt7__cxx1112basic_stringIcSt11char_traitsIcESaIcEEaSEOS4_@PLT
	leaq	-1008(%rbp), %rax
	movq	%rax, %rdi
	call	_ZNSt7__cxx1112basic_stringIcSt11char_traitsIcESaIcEED1Ev@PLT
.L70:
	leaq	-1040(%rbp), %rdx
	leaq	-944(%rbp), %rax
	movq	%rdx, %rsi
	movq	%rax, %rdi
	call	_ZSt7getlineIcSt11char_traitsIcESaIcEERSt13basic_istreamIT_T0_ES7_RNSt7__cxx1112basic_stringIS4_S5_T1_EE@PLT
	movq	(%rax), %rdx
	subq	$24, %rdx
	movq	(%rdx), %rdx
	addq	%rdx, %rax
	movq	%rax, %rdi
	call	_ZNKSt9basic_iosIcSt11char_traitsIcEEcvbEv@PLT
.LEHE5:
	testb	%al, %al
	jne	.L71
	leaq	-1040(%rbp), %rax
	movq	%rax, %rdi
	call	_ZNSt7__cxx1112basic_stringIcSt11char_traitsIcESaIcEED1Ev@PLT
	leaq	-944(%rbp), %rax
	movq	%rax, %rdi
	call	_ZNSt14basic_ifstreamIcSt11char_traitsIcEED1Ev@PLT
	leaq	-944(%rbp), %rax
	movl	$8, %edx
	leaq	.LC6(%rip), %rcx
	movq	%rcx, %rsi
	movq	%rax, %rdi
.LEHB6:
	call	_ZNSt14basic_ifstreamIcSt11char_traitsIcEEC1EPKcSt13_Ios_Openmode@PLT
.LEHE6:
	leaq	-1040(%rbp), %rax
	movq	%rax, %rdi
	call	_ZNSt7__cxx1112basic_stringIcSt11char_traitsIcESaIcEEC1Ev@PLT
	leaq	-1040(%rbp), %rdx
	leaq	-944(%rbp), %rax
	movq	%rdx, %rsi
	movq	%rax, %rdi
.LEHB7:
	call	_ZSt7getlineIcSt11char_traitsIcESaIcEERSt13basic_istreamIT_T0_ES7_RNSt7__cxx1112basic_stringIS4_S5_T1_EE@PLT
	movq	(%rax), %rdx
	subq	$24, %rdx
	movq	(%rdx), %rdx
	addq	%rdx, %rax
	movq	%rax, %rdi
	call	_ZNKSt9basic_iosIcSt11char_traitsIcEEcvbEv@PLT
	testb	%al, %al
	je	.L72
	leaq	-1040(%rbp), %rax
	movl	$0, %edx
	leaq	.LC7(%rip), %rcx
	movq	%rcx, %rsi
	movq	%rax, %rdi
	call	_ZNKSt7__cxx1112basic_stringIcSt11char_traitsIcESaIcEE4findEPKcm@PLT
	cmpq	$-1, %rax
	setne	%al
	testb	%al, %al
	je	.L72
	leaq	-1040(%rbp), %rax
	movl	$0, %edx
	leaq	.LC4(%rip), %rcx
	movq	%rcx, %rsi
	movq	%rax, %rdi
	call	_ZNKSt7__cxx1112basic_stringIcSt11char_traitsIcESaIcEE4findEPKcm@PLT
	leaq	2(%rax), %rdx
	leaq	-1008(%rbp), %rax
	leaq	-1040(%rbp), %rsi
	movq	$-1, %rcx
	movq	%rax, %rdi
	call	_ZNKSt7__cxx1112basic_stringIcSt11char_traitsIcESaIcEE6substrEmm@PLT
.LEHE7:
	leaq	-1008(%rbp), %rdx
	leaq	-1136(%rbp), %rax
	movq	%rdx, %rsi
	movq	%rax, %rdi
	call	_ZNSt7__cxx1112basic_stringIcSt11char_traitsIcESaIcEEaSEOS4_@PLT
	leaq	-1008(%rbp), %rax
	movq	%rax, %rdi
	call	_ZNSt7__cxx1112basic_stringIcSt11char_traitsIcESaIcEED1Ev@PLT
.L72:
	leaq	-1040(%rbp), %rax
	movq	%rax, %rdi
	call	_ZNSt7__cxx1112basic_stringIcSt11char_traitsIcESaIcEED1Ev@PLT
	leaq	-944(%rbp), %rax
	movq	%rax, %rdi
	call	_ZNSt14basic_ifstreamIcSt11char_traitsIcEED1Ev@PLT
	leaq	-288(%rbp), %rax
	movl	$256, %esi
	movq	%rax, %rdi
	call	gethostname@PLT
	testl	%eax, %eax
	sete	%al
	testb	%al, %al
	je	.L73
	leaq	-288(%rbp), %rdx
	leaq	-1104(%rbp), %rax
	movq	%rdx, %rsi
	movq	%rax, %rdi
.LEHB8:
	call	_ZNSt7__cxx1112basic_stringIcSt11char_traitsIcESaIcEEaSEPKc@PLT
.L73:
	leaq	.LC8(%rip), %rax
	movq	%rax, %rsi
	leaq	.LC9(%rip), %rax
	movq	%rax, %rdi
	call	popen@PLT
	movq	%rax, -1328(%rbp)
	cmpq	$0, -1328(%rbp)
	je	.L74
	movq	-1328(%rbp), %rdx
	leaq	-416(%rbp), %rax
	movl	$128, %esi
	movq	%rax, %rdi
	call	fgets@PLT
.LEHE8:
	testq	%rax, %rax
	setne	%al
	testb	%al, %al
	je	.L75
	leaq	-1232(%rbp), %rax
	movq	%rax, -1280(%rbp)
	nop
	nop
	leaq	-1232(%rbp), %rdx
	leaq	-416(%rbp), %rcx
	leaq	-944(%rbp), %rax
	movq	%rcx, %rsi
	movq	%rax, %rdi
.LEHB9:
	call	_ZNSt7__cxx1112basic_stringIcSt11char_traitsIcESaIcEEC1IS3_EEPKcRKS3_
.LEHE9:
	leaq	-944(%rbp), %rdx
	leaq	-1072(%rbp), %rax
	movq	%rdx, %rsi
	movq	%rax, %rdi
	call	_ZNSt7__cxx1112basic_stringIcSt11char_traitsIcESaIcEEaSEOS4_@PLT
	leaq	-944(%rbp), %rax
	movq	%rax, %rdi
	call	_ZNSt7__cxx1112basic_stringIcSt11char_traitsIcESaIcEED1Ev@PLT
	leaq	-1232(%rbp), %rax
	movq	%rax, %rdi
	call	_ZNSt15__new_allocatorIcED2Ev
	nop
	leaq	-1072(%rbp), %rax
	movq	%rax, %rdi
	call	_ZNKSt7__cxx1112basic_stringIcSt11char_traitsIcESaIcEE5emptyEv@PLT
	xorl	$1, %eax
	testb	%al, %al
	je	.L76
	leaq	-1072(%rbp), %rax
	movq	%rax, %rdi
	call	_ZNSt7__cxx1112basic_stringIcSt11char_traitsIcESaIcEE4backEv@PLT
	movzbl	(%rax), %eax
	cmpb	$10, %al
	jne	.L76
	movl	$1, %eax
	jmp	.L77
.L76:
	movl	$0, %eax
.L77:
	testb	%al, %al
	je	.L75
	leaq	-1072(%rbp), %rax
	movq	%rax, %rdi
	call	_ZNSt7__cxx1112basic_stringIcSt11char_traitsIcESaIcEE8pop_backEv@PLT
.L75:
	movq	-1328(%rbp), %rax
	movq	%rax, %rdi
.LEHB10:
	call	pclose@PLT
.LEHE10:
.L74:
	movl	$0, -1344(%rbp)
	jmp	.L78
.L79:
	movl	-1344(%rbp), %eax
	imull	-1348(%rbp), %eax
	movl	%eax, %edx
	movl	-1344(%rbp), %eax
	cltq
	movl	%edx, -1008(%rbp,%rax,4)
	addl	$1, -1344(%rbp)
.L78:
	cmpl	$15, -1344(%rbp)
	jle	.L79
	leaq	-1232(%rbp), %rax
	movq	%rax, -1272(%rbp)
	nop
	nop
	leaq	-1232(%rbp), %rdx
	leaq	-1264(%rbp), %rax
	movl	$16, %esi
	movq	%rax, %rdi
.LEHB11:
	call	_ZNSt6vectorIjSaIjEEC1EmRKS0_
.LEHE11:
	leaq	-1232(%rbp), %rax
	movq	%rax, %rdi
	call	_ZNSt15__new_allocatorIjED2Ev
	nop
	leaq	_ZSt5fixedRSt8ios_base(%rip), %rax
	movq	%rax, %rsi
	leaq	_ZSt4cout(%rip), %rax
	movq	%rax, %rdi
.LEHB12:
	call	_ZNSolsEPFRSt8ios_baseS0_E@PLT
	movq	%rax, %rbx
	movl	$6, %edi
	call	_ZSt12setprecisioni
	movl	%eax, %esi
	movq	%rbx, %rdi
	call	_ZStlsIcSt11char_traitsIcEERSt13basic_ostreamIT_T0_ES6_St13_Setprecision@PLT
	leaq	.LC10(%rip), %rax
	movq	%rax, %rsi
	leaq	_ZSt4cout(%rip), %rax
	movq	%rax, %rdi
	call	_ZStlsISt11char_traitsIcEERSt13basic_ostreamIcT_ES5_PKc@PLT
	leaq	.LC11(%rip), %rax
	movq	%rax, %rsi
	leaq	_ZSt4cout(%rip), %rax
	movq	%rax, %rdi
	call	_ZStlsISt11char_traitsIcEERSt13basic_ostreamIcT_ES5_PKc@PLT
	leaq	.LC10(%rip), %rax
	movq	%rax, %rsi
	leaq	_ZSt4cout(%rip), %rax
	movq	%rax, %rdi
	call	_ZStlsISt11char_traitsIcEERSt13basic_ostreamIcT_ES5_PKc@PLT
	leaq	.LC12(%rip), %rax
	movq	%rax, %rsi
	leaq	_ZSt4cout(%rip), %rax
	movq	%rax, %rdi
	call	_ZStlsISt11char_traitsIcEERSt13basic_ostreamIcT_ES5_PKc@PLT
	leaq	.LC13(%rip), %rax
	movq	%rax, %rsi
	leaq	_ZSt4cout(%rip), %rax
	movq	%rax, %rdi
	call	_ZStlsISt11char_traitsIcEERSt13basic_ostreamIcT_ES5_PKc@PLT
	movq	%rax, %rdx
	leaq	-1104(%rbp), %rax
	movq	%rax, %rsi
	movq	%rdx, %rdi
	call	_ZStlsIcSt11char_traitsIcESaIcEERSt13basic_ostreamIT_T0_ES7_RKNSt7__cxx1112basic_stringIS4_S5_T1_EE@PLT
	movq	%rax, %rdx
	leaq	.LC14(%rip), %rax
	movq	%rax, %rsi
	movq	%rdx, %rdi
	call	_ZStlsISt11char_traitsIcEERSt13basic_ostreamIcT_ES5_PKc@PLT
	leaq	.LC15(%rip), %rax
	movq	%rax, %rsi
	leaq	_ZSt4cout(%rip), %rax
	movq	%rax, %rdi
	call	_ZStlsISt11char_traitsIcEERSt13basic_ostreamIcT_ES5_PKc@PLT
	movq	%rax, %rdx
	leaq	-1072(%rbp), %rax
	movq	%rax, %rsi
	movq	%rdx, %rdi
	call	_ZStlsIcSt11char_traitsIcESaIcEERSt13basic_ostreamIT_T0_ES7_RKNSt7__cxx1112basic_stringIS4_S5_T1_EE@PLT
	movq	%rax, %rdx
	leaq	.LC14(%rip), %rax
	movq	%rax, %rsi
	movq	%rdx, %rdi
	call	_ZStlsISt11char_traitsIcEERSt13basic_ostreamIcT_ES5_PKc@PLT
	leaq	.LC16(%rip), %rax
	movq	%rax, %rsi
	leaq	_ZSt4cout(%rip), %rax
	movq	%rax, %rdi
	call	_ZStlsISt11char_traitsIcEERSt13basic_ostreamIcT_ES5_PKc@PLT
	movq	%rax, %rdx
	leaq	-1200(%rbp), %rax
	movq	%rax, %rsi
	movq	%rdx, %rdi
	call	_ZStlsIcSt11char_traitsIcESaIcEERSt13basic_ostreamIT_T0_ES7_RKNSt7__cxx1112basic_stringIS4_S5_T1_EE@PLT
	movq	%rax, %rdx
	leaq	.LC14(%rip), %rax
	movq	%rax, %rsi
	movq	%rdx, %rdi
	call	_ZStlsISt11char_traitsIcEERSt13basic_ostreamIcT_ES5_PKc@PLT
	leaq	.LC17(%rip), %rax
	movq	%rax, %rsi
	leaq	_ZSt4cout(%rip), %rax
	movq	%rax, %rdi
	call	_ZStlsISt11char_traitsIcEERSt13basic_ostreamIcT_ES5_PKc@PLT
	movq	%rax, %rdx
	leaq	-1168(%rbp), %rax
	movq	%rax, %rsi
	movq	%rdx, %rdi
	call	_ZStlsIcSt11char_traitsIcESaIcEERSt13basic_ostreamIT_T0_ES7_RKNSt7__cxx1112basic_stringIS4_S5_T1_EE@PLT
	movq	%rax, %rdx
	leaq	.LC14(%rip), %rax
	movq	%rax, %rsi
	movq	%rdx, %rdi
	call	_ZStlsISt11char_traitsIcEERSt13basic_ostreamIcT_ES5_PKc@PLT
	leaq	.LC18(%rip), %rax
	movq	%rax, %rsi
	leaq	_ZSt4cout(%rip), %rax
	movq	%rax, %rdi
	call	_ZStlsISt11char_traitsIcEERSt13basic_ostreamIcT_ES5_PKc@PLT
	movq	%rax, %rdx
	leaq	-1136(%rbp), %rax
	movq	%rax, %rsi
	movq	%rdx, %rdi
	call	_ZStlsIcSt11char_traitsIcESaIcEERSt13basic_ostreamIT_T0_ES7_RKNSt7__cxx1112basic_stringIS4_S5_T1_EE@PLT
	movq	%rax, %rdx
	leaq	.LC14(%rip), %rax
	movq	%rax, %rsi
	movq	%rdx, %rdi
	call	_ZStlsISt11char_traitsIcEERSt13basic_ostreamIcT_ES5_PKc@PLT
	leaq	.LC19(%rip), %rax
	movq	%rax, %rsi
	leaq	_ZSt4cout(%rip), %rax
	movq	%rax, %rdi
	call	_ZStlsISt11char_traitsIcEERSt13basic_ostreamIcT_ES5_PKc@PLT
	leaq	-944(%rbp), %rax
	movq	%rax, -1232(%rbp)
	leaq	-1008(%rbp), %rax
	movq	%rax, -1224(%rbp)
	leaq	-1264(%rbp), %rax
	movq	%rax, -1216(%rbp)
	movq	-1336(%rbp), %rdx
	leaq	-1232(%rbp), %rax
	movq	%rdx, %rsi
	movq	%rax, %rdi
	call	_Z11time_streamIZ4mainEUlmE_EdOT_m
	movq	%xmm0, %rax
	movq	%rax, -1320(%rbp)
	leaq	-944(%rbp), %rax
	movq	%rax, -1232(%rbp)
	leaq	-1008(%rbp), %rax
	movq	%rax, -1224(%rbp)
	leaq	-1264(%rbp), %rax
	movq	%rax, -1216(%rbp)
	movq	-1336(%rbp), %rdx
	leaq	-1232(%rbp), %rax
	movq	%rdx, %rsi
	movq	%rax, %rdi
	call	_Z11time_streamIZ4mainEUlmE0_EdOT_m
	movq	%xmm0, %rax
	movq	%rax, -1312(%rbp)
	movq	-1336(%rbp), %rax
	testq	%rax, %rax
	js	.L80
	pxor	%xmm0, %xmm0
	cvtsi2sdq	%rax, %xmm0
	jmp	.L81
.L80:
	movq	%rax, %rdx
	shrq	%rdx
	andl	$1, %eax
	orq	%rax, %rdx
	pxor	%xmm0, %xmm0
	cvtsi2sdq	%rdx, %xmm0
	addsd	%xmm0, %xmm0
.L81:
	movsd	.LC20(%rip), %xmm1
	mulsd	%xmm1, %xmm0
	movsd	%xmm0, -1304(%rbp)
	leaq	.LC21(%rip), %rax
	movq	%rax, %rsi
	leaq	_ZSt4cout(%rip), %rax
	movq	%rax, %rdi
	call	_ZStlsISt11char_traitsIcEERSt13basic_ostreamIcT_ES5_PKc@PLT
	movq	%rax, %rdx
	movsd	-1304(%rbp), %xmm0
	movsd	.LC22(%rip), %xmm1
	divsd	%xmm1, %xmm0
	movq	%xmm0, %rax
	movq	%rax, %xmm0
	movq	%rdx, %rdi
	call	_ZNSolsEd@PLT
	movq	%rax, %rdx
	leaq	.LC23(%rip), %rax
	movq	%rax, %rsi
	movq	%rdx, %rdi
	call	_ZStlsISt11char_traitsIcEERSt13basic_ostreamIcT_ES5_PKc@PLT
	leaq	.LC24(%rip), %rax
	movq	%rax, %rsi
	leaq	_ZSt4cout(%rip), %rax
	movq	%rax, %rdi
	call	_ZStlsISt11char_traitsIcEERSt13basic_ostreamIcT_ES5_PKc@PLT
	movq	%rax, %rdx
	movq	-1320(%rbp), %rax
	movq	%rax, %xmm0
	movq	%rdx, %rdi
	call	_ZNSolsEd@PLT
	movq	%rax, %rdx
	leaq	.LC25(%rip), %rax
	movq	%rax, %rsi
	movq	%rdx, %rdi
	call	_ZStlsISt11char_traitsIcEERSt13basic_ostreamIcT_ES5_PKc@PLT
	movq	%rax, %rdx
	movsd	-1304(%rbp), %xmm0
	divsd	-1320(%rbp), %xmm0
	movsd	.LC26(%rip), %xmm1
	divsd	%xmm1, %xmm0
	movq	%xmm0, %rax
	movq	%rax, %xmm0
	movq	%rdx, %rdi
	call	_ZNSolsEd@PLT
	movq	%rax, %rdx
	leaq	.LC27(%rip), %rax
	movq	%rax, %rsi
	movq	%rdx, %rdi
	call	_ZStlsISt11char_traitsIcEERSt13basic_ostreamIcT_ES5_PKc@PLT
	leaq	.LC28(%rip), %rax
	movq	%rax, %rsi
	leaq	_ZSt4cout(%rip), %rax
	movq	%rax, %rdi
	call	_ZStlsISt11char_traitsIcEERSt13basic_ostreamIcT_ES5_PKc@PLT
	movq	%rax, %rdx
	movq	-1312(%rbp), %rax
	movq	%rax, %xmm0
	movq	%rdx, %rdi
	call	_ZNSolsEd@PLT
	movq	%rax, %rdx
	leaq	.LC25(%rip), %rax
	movq	%rax, %rsi
	movq	%rdx, %rdi
	call	_ZStlsISt11char_traitsIcEERSt13basic_ostreamIcT_ES5_PKc@PLT
	movq	%rax, %rdx
	movsd	-1304(%rbp), %xmm0
	divsd	-1312(%rbp), %xmm0
	movsd	.LC26(%rip), %xmm1
	divsd	%xmm1, %xmm0
	movq	%xmm0, %rax
	movq	%rax, %xmm0
	movq	%rdx, %rdi
	call	_ZNSolsEd@PLT
	movq	%rax, %rdx
	leaq	.LC27(%rip), %rax
	movq	%rax, %rsi
	movq	%rdx, %rdi
	call	_ZStlsISt11char_traitsIcEERSt13basic_ostreamIcT_ES5_PKc@PLT
	movsd	-1312(%rbp), %xmm0
	pxor	%xmm1, %xmm1
	comisd	%xmm1, %xmm0
	jbe	.L82
	leaq	.LC30(%rip), %rax
	movq	%rax, %rsi
	leaq	_ZSt4cout(%rip), %rax
	movq	%rax, %rdi
	call	_ZStlsISt11char_traitsIcEERSt13basic_ostreamIcT_ES5_PKc@PLT
	movq	%rax, %rdx
	movsd	-1320(%rbp), %xmm0
	divsd	-1312(%rbp), %xmm0
	movq	%xmm0, %rax
	movq	%rax, %xmm0
	movq	%rdx, %rdi
	call	_ZNSolsEd@PLT
	movq	%rax, %rdx
	leaq	.LC31(%rip), %rax
	movq	%rax, %rsi
	movq	%rdx, %rdi
	call	_ZStlsISt11char_traitsIcEERSt13basic_ostreamIcT_ES5_PKc@PLT
.L82:
	leaq	.LC32(%rip), %rax
	movq	%rax, %rsi
	leaq	_ZSt4cout(%rip), %rax
	movq	%rax, %rdi
	call	_ZStlsISt11char_traitsIcEERSt13basic_ostreamIcT_ES5_PKc@PLT
	movl	$0, -1340(%rbp)
	jmp	.L84
.L85:
	leaq	_ZSt3hexRSt8ios_base(%rip), %rax
	movq	%rax, %rsi
	leaq	_ZSt4cout(%rip), %rax
	movq	%rax, %rdi
	call	_ZNSolsEPFRSt8ios_baseS0_E@PLT
	movq	%rax, %rbx
	movl	-1340(%rbp), %eax
	movslq	%eax, %rdx
	leaq	-1264(%rbp), %rax
	movq	%rdx, %rsi
	movq	%rax, %rdi
	call	_ZNSt6vectorIjSaIjEEixEm
	movl	(%rax), %eax
	movl	%eax, %esi
	movq	%rbx, %rdi
	call	_ZNSolsEj@PLT
	movq	%rax, %rdx
	leaq	.LC33(%rip), %rax
	movq	%rax, %rsi
	movq	%rdx, %rdi
	call	_ZStlsISt11char_traitsIcEERSt13basic_ostreamIcT_ES5_PKc@PLT
	addl	$1, -1340(%rbp)
.L84:
	cmpl	$15, -1340(%rbp)
	jle	.L85
	leaq	_ZSt3decRSt8ios_base(%rip), %rax
	movq	%rax, %rsi
	leaq	_ZSt4cout(%rip), %rax
	movq	%rax, %rdi
	call	_ZNSolsEPFRSt8ios_baseS0_E@PLT
	movq	%rax, %rdx
	leaq	.LC14(%rip), %rax
	movq	%rax, %rsi
	movq	%rdx, %rdi
	call	_ZStlsISt11char_traitsIcEERSt13basic_ostreamIcT_ES5_PKc@PLT
.LEHE12:
	movl	$0, %ebx
	leaq	-1264(%rbp), %rax
	movq	%rax, %rdi
	call	_ZNSt6vectorIjSaIjEED1Ev
	leaq	-1072(%rbp), %rax
	movq	%rax, %rdi
	call	_ZNSt7__cxx1112basic_stringIcSt11char_traitsIcESaIcEED1Ev@PLT
	leaq	-1104(%rbp), %rax
	movq	%rax, %rdi
	call	_ZNSt7__cxx1112basic_stringIcSt11char_traitsIcESaIcEED1Ev@PLT
	leaq	-1136(%rbp), %rax
	movq	%rax, %rdi
	call	_ZNSt7__cxx1112basic_stringIcSt11char_traitsIcESaIcEED1Ev@PLT
	leaq	-1168(%rbp), %rax
	movq	%rax, %rdi
	call	_ZNSt7__cxx1112basic_stringIcSt11char_traitsIcESaIcEED1Ev@PLT
	leaq	-1200(%rbp), %rax
	movq	%rax, %rdi
	call	_ZNSt7__cxx1112basic_stringIcSt11char_traitsIcESaIcEED1Ev@PLT
	movl	%ebx, %eax
	movq	-24(%rbp), %rdx
	subq	%fs:40, %rdx
	je	.L100
	jmp	.L112
.L102:
	endbr64
	movq	%rax, %rbx
	leaq	-944(%rbp), %rax
	movq	%rax, %rdi
	call	_ZNSt7__cxx1112basic_stringIcSt11char_traitsIcESaIcEED1Ev@PLT
	jmp	.L88
.L101:
	endbr64
	movq	%rax, %rbx
.L88:
	leaq	-1232(%rbp), %rax
	movq	%rax, %rdi
	call	_ZNSt15__new_allocatorIcED2Ev
	nop
	movq	%rbx, %rax
	movq	-24(%rbp), %rdx
	subq	%fs:40, %rdx
	je	.L89
	call	__stack_chk_fail@PLT
.L89:
	movq	%rax, %rdi
.LEHB13:
	call	_Unwind_Resume@PLT
.L104:
	endbr64
	movq	%rax, %rbx
	leaq	-944(%rbp), %rax
	movq	%rax, %rdi
	call	_ZNSt7__cxx1112basic_stringIcSt11char_traitsIcESaIcEED1Ev@PLT
	jmp	.L91
.L103:
	endbr64
	movq	%rax, %rbx
.L91:
	leaq	-1232(%rbp), %rax
	movq	%rax, %rdi
	call	_ZNSt15__new_allocatorIcED2Ev
	nop
	movq	%rbx, %rax
	movq	-24(%rbp), %rdx
	subq	%fs:40, %rdx
	je	.L92
	call	__stack_chk_fail@PLT
.L92:
	movq	%rax, %rdi
	call	_Unwind_Resume@PLT
.L105:
	endbr64
	movq	%rax, %rbx
	leaq	-1040(%rbp), %rax
	movq	%rax, %rdi
	call	_ZNSt7__cxx1112basic_stringIcSt11char_traitsIcESaIcEED1Ev@PLT
	leaq	-944(%rbp), %rax
	movq	%rax, %rdi
	call	_ZNSt14basic_ifstreamIcSt11char_traitsIcEED1Ev@PLT
	jmp	.L94
.L107:
	endbr64
	movq	%rax, %rbx
	leaq	-1040(%rbp), %rax
	movq	%rax, %rdi
	call	_ZNSt7__cxx1112basic_stringIcSt11char_traitsIcESaIcEED1Ev@PLT
	leaq	-944(%rbp), %rax
	movq	%rax, %rdi
	call	_ZNSt14basic_ifstreamIcSt11char_traitsIcEED1Ev@PLT
	jmp	.L94
.L108:
	endbr64
	movq	%rax, %rbx
	leaq	-1232(%rbp), %rax
	movq	%rax, %rdi
	call	_ZNSt15__new_allocatorIcED2Ev
	nop
	jmp	.L94
.L109:
	endbr64
	movq	%rax, %rbx
	leaq	-1232(%rbp), %rax
	movq	%rax, %rdi
	call	_ZNSt15__new_allocatorIjED2Ev
	nop
	jmp	.L94
.L110:
	endbr64
	movq	%rax, %rbx
	leaq	-1264(%rbp), %rax
	movq	%rax, %rdi
	call	_ZNSt6vectorIjSaIjEED1Ev
	jmp	.L94
.L106:
	endbr64
	movq	%rax, %rbx
.L94:
	leaq	-1072(%rbp), %rax
	movq	%rax, %rdi
	call	_ZNSt7__cxx1112basic_stringIcSt11char_traitsIcESaIcEED1Ev@PLT
	leaq	-1104(%rbp), %rax
	movq	%rax, %rdi
	call	_ZNSt7__cxx1112basic_stringIcSt11char_traitsIcESaIcEED1Ev@PLT
	leaq	-1136(%rbp), %rax
	movq	%rax, %rdi
	call	_ZNSt7__cxx1112basic_stringIcSt11char_traitsIcESaIcEED1Ev@PLT
	leaq	-1168(%rbp), %rax
	movq	%rax, %rdi
	call	_ZNSt7__cxx1112basic_stringIcSt11char_traitsIcESaIcEED1Ev@PLT
	leaq	-1200(%rbp), %rax
	movq	%rax, %rdi
	call	_ZNSt7__cxx1112basic_stringIcSt11char_traitsIcESaIcEED1Ev@PLT
	movq	%rbx, %rax
	movq	-24(%rbp), %rdx
	subq	%fs:40, %rdx
	je	.L99
	call	__stack_chk_fail@PLT
.L99:
	movq	%rax, %rdi
	call	_Unwind_Resume@PLT
.LEHE13:
.L112:
	call	__stack_chk_fail@PLT
.L100:
	movq	-8(%rbp), %rbx
	leave
	.cfi_def_cfa 7, 8
	ret
	.cfi_endproc
.LFE3016:
	.globl	__gxx_personality_v0
	.section	.gcc_except_table,"a",@progbits
.LLSDA3016:
	.byte	0xff
	.byte	0xff
	.byte	0x1
	.uleb128 .LLSDACSE3016-.LLSDACSB3016
.LLSDACSB3016:
	.uleb128 .LEHB0-.LFB3016
	.uleb128 .LEHE0-.LEHB0
	.uleb128 .L101-.LFB3016
	.uleb128 0
	.uleb128 .LEHB1-.LFB3016
	.uleb128 .LEHE1-.LEHB1
	.uleb128 .L102-.LFB3016
	.uleb128 0
	.uleb128 .LEHB2-.LFB3016
	.uleb128 .LEHE2-.LEHB2
	.uleb128 .L103-.LFB3016
	.uleb128 0
	.uleb128 .LEHB3-.LFB3016
	.uleb128 .LEHE3-.LEHB3
	.uleb128 .L104-.LFB3016
	.uleb128 0
	.uleb128 .LEHB4-.LFB3016
	.uleb128 .LEHE4-.LEHB4
	.uleb128 .L106-.LFB3016
	.uleb128 0
	.uleb128 .LEHB5-.LFB3016
	.uleb128 .LEHE5-.LEHB5
	.uleb128 .L105-.LFB3016
	.uleb128 0
	.uleb128 .LEHB6-.LFB3016
	.uleb128 .LEHE6-.LEHB6
	.uleb128 .L106-.LFB3016
	.uleb128 0
	.uleb128 .LEHB7-.LFB3016
	.uleb128 .LEHE7-.LEHB7
	.uleb128 .L107-.LFB3016
	.uleb128 0
	.uleb128 .LEHB8-.LFB3016
	.uleb128 .LEHE8-.LEHB8
	.uleb128 .L106-.LFB3016
	.uleb128 0
	.uleb128 .LEHB9-.LFB3016
	.uleb128 .LEHE9-.LEHB9
	.uleb128 .L108-.LFB3016
	.uleb128 0
	.uleb128 .LEHB10-.LFB3016
	.uleb128 .LEHE10-.LEHB10
	.uleb128 .L106-.LFB3016
	.uleb128 0
	.uleb128 .LEHB11-.LFB3016
	.uleb128 .LEHE11-.LEHB11
	.uleb128 .L109-.LFB3016
	.uleb128 0
	.uleb128 .LEHB12-.LFB3016
	.uleb128 .LEHE12-.LEHB12
	.uleb128 .L110-.LFB3016
	.uleb128 0
	.uleb128 .LEHB13-.LFB3016
	.uleb128 .LEHE13-.LEHB13
	.uleb128 0
	.uleb128 0
.LLSDACSE3016:
	.text
	.size	main, .-main
	.section	.text._ZN9__gnu_cxx11char_traitsIcE6lengthEPKc,"axG",@progbits,_ZN9__gnu_cxx11char_traitsIcE6lengthEPKc,comdat
	.align 2
	.weak	_ZN9__gnu_cxx11char_traitsIcE6lengthEPKc
	.type	_ZN9__gnu_cxx11char_traitsIcE6lengthEPKc, @function
_ZN9__gnu_cxx11char_traitsIcE6lengthEPKc:
.LFB3023:
	.cfi_startproc
	endbr64
	pushq	%rbp
	.cfi_def_cfa_offset 16
	.cfi_offset 6, -16
	movq	%rsp, %rbp
	.cfi_def_cfa_register 6
	subq	$48, %rsp
	movq	%rdi, -40(%rbp)
	movq	%fs:40, %rax
	movq	%rax, -8(%rbp)
	xorl	%eax, %eax
	movq	$0, -16(%rbp)
	jmp	.L114
.L115:
	addq	$1, -16(%rbp)
.L114:
	movb	$0, -17(%rbp)
	movq	-40(%rbp), %rdx
	movq	-16(%rbp), %rax
	addq	%rax, %rdx
	leaq	-17(%rbp), %rax
	movq	%rax, %rsi
	movq	%rdx, %rdi
	call	_ZN9__gnu_cxx11char_traitsIcE2eqERKcS3_
	xorl	$1, %eax
	testb	%al, %al
	jne	.L115
	movq	-16(%rbp), %rax
	movq	-8(%rbp), %rdx
	subq	%fs:40, %rdx
	je	.L117
	call	__stack_chk_fail@PLT
.L117:
	leave
	.cfi_def_cfa 7, 8
	ret
	.cfi_endproc
.LFE3023:
	.size	_ZN9__gnu_cxx11char_traitsIcE6lengthEPKc, .-_ZN9__gnu_cxx11char_traitsIcE6lengthEPKc
	.section	.text._ZZN9__gnu_cxx6__stoaImmcJiEEET0_PFT_PKT1_PPS3_DpT2_EPKcS5_PmS9_EN11_Save_errnoC2Ev,"axG",@progbits,_ZZN9__gnu_cxx6__stoaImmcJiEEET0_PFT_PKT1_PPS3_DpT2_EPKcS5_PmS9_EN11_Save_errnoC5Ev,comdat
	.align 2
	.weak	_ZZN9__gnu_cxx6__stoaImmcJiEEET0_PFT_PKT1_PPS3_DpT2_EPKcS5_PmS9_EN11_Save_errnoC2Ev
	.type	_ZZN9__gnu_cxx6__stoaImmcJiEEET0_PFT_PKT1_PPS3_DpT2_EPKcS5_PmS9_EN11_Save_errnoC2Ev, @function
_ZZN9__gnu_cxx6__stoaImmcJiEEET0_PFT_PKT1_PPS3_DpT2_EPKcS5_PmS9_EN11_Save_errnoC2Ev:
.LFB3071:
	.cfi_startproc
	endbr64
	pushq	%rbp
	.cfi_def_cfa_offset 16
	.cfi_offset 6, -16
	movq	%rsp, %rbp
	.cfi_def_cfa_register 6
	subq	$16, %rsp
	movq	%rdi, -8(%rbp)
	call	__errno_location@PLT
	movl	(%rax), %edx
	movq	-8(%rbp), %rax
	movl	%edx, (%rax)
	call	__errno_location@PLT
	movl	$0, (%rax)
	nop
	leave
	.cfi_def_cfa 7, 8
	ret
	.cfi_endproc
.LFE3071:
	.size	_ZZN9__gnu_cxx6__stoaImmcJiEEET0_PFT_PKT1_PPS3_DpT2_EPKcS5_PmS9_EN11_Save_errnoC2Ev, .-_ZZN9__gnu_cxx6__stoaImmcJiEEET0_PFT_PKT1_PPS3_DpT2_EPKcS5_PmS9_EN11_Save_errnoC2Ev
	.weak	_ZZN9__gnu_cxx6__stoaImmcJiEEET0_PFT_PKT1_PPS3_DpT2_EPKcS5_PmS9_EN11_Save_errnoC1Ev
	.set	_ZZN9__gnu_cxx6__stoaImmcJiEEET0_PFT_PKT1_PPS3_DpT2_EPKcS5_PmS9_EN11_Save_errnoC1Ev,_ZZN9__gnu_cxx6__stoaImmcJiEEET0_PFT_PKT1_PPS3_DpT2_EPKcS5_PmS9_EN11_Save_errnoC2Ev
	.section	.text._ZZN9__gnu_cxx6__stoaImmcJiEEET0_PFT_PKT1_PPS3_DpT2_EPKcS5_PmS9_EN11_Save_errnoD2Ev,"axG",@progbits,_ZZN9__gnu_cxx6__stoaImmcJiEEET0_PFT_PKT1_PPS3_DpT2_EPKcS5_PmS9_EN11_Save_errnoD5Ev,comdat
	.align 2
	.weak	_ZZN9__gnu_cxx6__stoaImmcJiEEET0_PFT_PKT1_PPS3_DpT2_EPKcS5_PmS9_EN11_Save_errnoD2Ev
	.type	_ZZN9__gnu_cxx6__stoaImmcJiEEET0_PFT_PKT1_PPS3_DpT2_EPKcS5_PmS9_EN11_Save_errnoD2Ev, @function
_ZZN9__gnu_cxx6__stoaImmcJiEEET0_PFT_PKT1_PPS3_DpT2_EPKcS5_PmS9_EN11_Save_errnoD2Ev:
.LFB3074:
	.cfi_startproc
	endbr64
	pushq	%rbp
	.cfi_def_cfa_offset 16
	.cfi_offset 6, -16
	movq	%rsp, %rbp
	.cfi_def_cfa_register 6
	subq	$16, %rsp
	movq	%rdi, -8(%rbp)
	call	__errno_location@PLT
	movl	(%rax), %eax
	testl	%eax, %eax
	jne	.L121
	call	__errno_location@PLT
	movq	-8(%rbp), %rdx
	movl	(%rdx), %edx
	movl	%edx, (%rax)
.L121:
	nop
	leave
	.cfi_def_cfa 7, 8
	ret
	.cfi_endproc
.LFE3074:
	.size	_ZZN9__gnu_cxx6__stoaImmcJiEEET0_PFT_PKT1_PPS3_DpT2_EPKcS5_PmS9_EN11_Save_errnoD2Ev, .-_ZZN9__gnu_cxx6__stoaImmcJiEEET0_PFT_PKT1_PPS3_DpT2_EPKcS5_PmS9_EN11_Save_errnoD2Ev
	.weak	_ZZN9__gnu_cxx6__stoaImmcJiEEET0_PFT_PKT1_PPS3_DpT2_EPKcS5_PmS9_EN11_Save_errnoD1Ev
	.set	_ZZN9__gnu_cxx6__stoaImmcJiEEET0_PFT_PKT1_PPS3_DpT2_EPKcS5_PmS9_EN11_Save_errnoD1Ev,_ZZN9__gnu_cxx6__stoaImmcJiEEET0_PFT_PKT1_PPS3_DpT2_EPKcS5_PmS9_EN11_Save_errnoD2Ev
	.section	.text._ZZN9__gnu_cxx6__stoaImmcJiEEET0_PFT_PKT1_PPS3_DpT2_EPKcS5_PmS9_EN10_Range_chk6_S_chkEmSt17integral_constantIbLb0EE,"axG",@progbits,_ZZN9__gnu_cxx6__stoaImmcJiEEET0_PFT_PKT1_PPS3_DpT2_EPKcS5_PmS9_EN10_Range_chk6_S_chkEmSt17integral_constantIbLb0EE,comdat
	.weak	_ZZN9__gnu_cxx6__stoaImmcJiEEET0_PFT_PKT1_PPS3_DpT2_EPKcS5_PmS9_EN10_Range_chk6_S_chkEmSt17integral_constantIbLb0EE
	.type	_ZZN9__gnu_cxx6__stoaImmcJiEEET0_PFT_PKT1_PPS3_DpT2_EPKcS5_PmS9_EN10_Range_chk6_S_chkEmSt17integral_constantIbLb0EE, @function
_ZZN9__gnu_cxx6__stoaImmcJiEEET0_PFT_PKT1_PPS3_DpT2_EPKcS5_PmS9_EN10_Range_chk6_S_chkEmSt17integral_constantIbLb0EE:
.LFB3076:
	.cfi_startproc
	endbr64
	pushq	%rbp
	.cfi_def_cfa_offset 16
	.cfi_offset 6, -16
	movq	%rsp, %rbp
	.cfi_def_cfa_register 6
	movq	%rdi, -8(%rbp)
	movl	$0, %eax
	popq	%rbp
	.cfi_def_cfa 7, 8
	ret
	.cfi_endproc
.LFE3076:
	.size	_ZZN9__gnu_cxx6__stoaImmcJiEEET0_PFT_PKT1_PPS3_DpT2_EPKcS5_PmS9_EN10_Range_chk6_S_chkEmSt17integral_constantIbLb0EE, .-_ZZN9__gnu_cxx6__stoaImmcJiEEET0_PFT_PKT1_PPS3_DpT2_EPKcS5_PmS9_EN10_Range_chk6_S_chkEmSt17integral_constantIbLb0EE
	.section	.text._ZN9__gnu_cxx6__stoaImmcJiEEET0_PFT_PKT1_PPS3_DpT2_EPKcS5_PmS9_,"axG",@progbits,_ZN9__gnu_cxx6__stoaImmcJiEEET0_PFT_PKT1_PPS3_DpT2_EPKcS5_PmS9_,comdat
	.weak	_ZN9__gnu_cxx6__stoaImmcJiEEET0_PFT_PKT1_PPS3_DpT2_EPKcS5_PmS9_
	.type	_ZN9__gnu_cxx6__stoaImmcJiEEET0_PFT_PKT1_PPS3_DpT2_EPKcS5_PmS9_, @function
_ZN9__gnu_cxx6__stoaImmcJiEEET0_PFT_PKT1_PPS3_DpT2_EPKcS5_PmS9_:
.LFB3069:
	.cfi_startproc
	.cfi_personality 0x9b,DW.ref.__gxx_personality_v0
	.cfi_lsda 0x1b,.LLSDA3069
	endbr64
	pushq	%rbp
	.cfi_def_cfa_offset 16
	.cfi_offset 6, -16
	movq	%rsp, %rbp
	.cfi_def_cfa_register 6
	pushq	%rbx
	subq	$104, %rsp
	.cfi_offset 3, -24
	movq	%rdi, -72(%rbp)
	movq	%rsi, -80(%rbp)
	movq	%rdx, -88(%rbp)
	movq	%rcx, -96(%rbp)
	movl	%r8d, -100(%rbp)
	movq	%fs:40, %rax
	movq	%rax, -24(%rbp)
	xorl	%eax, %eax
	leaq	-52(%rbp), %rax
	movq	%rax, %rdi
	call	_ZZN9__gnu_cxx6__stoaImmcJiEEET0_PFT_PKT1_PPS3_DpT2_EPKcS5_PmS9_EN11_Save_errnoC1Ev
	movq	-72(%rbp), %r8
	movl	-100(%rbp), %edx
	leaq	-48(%rbp), %rcx
	movq	-88(%rbp), %rax
	movq	%rcx, %rsi
	movq	%rax, %rdi
.LEHB14:
	call	*%r8
	movq	%rax, -40(%rbp)
	movq	-48(%rbp), %rax
	cmpq	%rax, -88(%rbp)
	jne	.L125
	movq	-24(%rbp), %rax
	subq	%fs:40, %rax
	je	.L126
	call	__stack_chk_fail@PLT
.L126:
	movq	-80(%rbp), %rax
	movq	%rax, %rdi
	call	_ZSt24__throw_invalid_argumentPKc@PLT
.L125:
	call	__errno_location@PLT
	movl	(%rax), %eax
	cmpl	$34, %eax
	je	.L127
	movq	-40(%rbp), %rax
	movq	%rax, %rdi
	call	_ZZN9__gnu_cxx6__stoaImmcJiEEET0_PFT_PKT1_PPS3_DpT2_EPKcS5_PmS9_EN10_Range_chk6_S_chkEmSt17integral_constantIbLb0EE
	testb	%al, %al
	je	.L128
.L127:
	movl	$1, %eax
	jmp	.L129
.L128:
	movl	$0, %eax
.L129:
	testb	%al, %al
	je	.L130
	movq	-24(%rbp), %rax
	subq	%fs:40, %rax
	je	.L131
	call	__stack_chk_fail@PLT
.L131:
	movq	-80(%rbp), %rax
	movq	%rax, %rdi
	call	_ZSt20__throw_out_of_rangePKc@PLT
.LEHE14:
.L130:
	movq	-40(%rbp), %rax
	movq	%rax, -32(%rbp)
	cmpq	$0, -96(%rbp)
	je	.L132
	movq	-48(%rbp), %rax
	subq	-88(%rbp), %rax
	movq	%rax, %rdx
	movq	-96(%rbp), %rax
	movq	%rdx, (%rax)
.L132:
	movq	-32(%rbp), %rbx
	leaq	-52(%rbp), %rax
	movq	%rax, %rdi
	call	_ZZN9__gnu_cxx6__stoaImmcJiEEET0_PFT_PKT1_PPS3_DpT2_EPKcS5_PmS9_EN11_Save_errnoD1Ev
	movq	%rbx, %rax
	movq	-24(%rbp), %rdx
	subq	%fs:40, %rdx
	je	.L136
	jmp	.L138
.L137:
	endbr64
	movq	%rax, %rbx
	leaq	-52(%rbp), %rax
	movq	%rax, %rdi
	call	_ZZN9__gnu_cxx6__stoaImmcJiEEET0_PFT_PKT1_PPS3_DpT2_EPKcS5_PmS9_EN11_Save_errnoD1Ev
	movq	%rbx, %rax
	movq	-24(%rbp), %rdx
	subq	%fs:40, %rdx
	je	.L135
	call	__stack_chk_fail@PLT
.L135:
	movq	%rax, %rdi
.LEHB15:
	call	_Unwind_Resume@PLT
.LEHE15:
.L138:
	call	__stack_chk_fail@PLT
.L136:
	movq	-8(%rbp), %rbx
	leave
	.cfi_def_cfa 7, 8
	ret
	.cfi_endproc
.LFE3069:
	.section	.gcc_except_table
.LLSDA3069:
	.byte	0xff
	.byte	0xff
	.byte	0x1
	.uleb128 .LLSDACSE3069-.LLSDACSB3069
.LLSDACSB3069:
	.uleb128 .LEHB14-.LFB3069
	.uleb128 .LEHE14-.LEHB14
	.uleb128 .L137-.LFB3069
	.uleb128 0
	.uleb128 .LEHB15-.LFB3069
	.uleb128 .LEHE15-.LEHB15
	.uleb128 0
	.uleb128 0
.LLSDACSE3069:
	.section	.text._ZN9__gnu_cxx6__stoaImmcJiEEET0_PFT_PKT1_PPS3_DpT2_EPKcS5_PmS9_,"axG",@progbits,_ZN9__gnu_cxx6__stoaImmcJiEEET0_PFT_PKT1_PPS3_DpT2_EPKcS5_PmS9_,comdat
	.size	_ZN9__gnu_cxx6__stoaImmcJiEEET0_PFT_PKT1_PPS3_DpT2_EPKcS5_PmS9_, .-_ZN9__gnu_cxx6__stoaImmcJiEEET0_PFT_PKT1_PPS3_DpT2_EPKcS5_PmS9_
	.section	.text._ZZN9__gnu_cxx6__stoaIyycJiEEET0_PFT_PKT1_PPS3_DpT2_EPKcS5_PmS9_EN11_Save_errnoC2Ev,"axG",@progbits,_ZZN9__gnu_cxx6__stoaIyycJiEEET0_PFT_PKT1_PPS3_DpT2_EPKcS5_PmS9_EN11_Save_errnoC5Ev,comdat
	.align 2
	.weak	_ZZN9__gnu_cxx6__stoaIyycJiEEET0_PFT_PKT1_PPS3_DpT2_EPKcS5_PmS9_EN11_Save_errnoC2Ev
	.type	_ZZN9__gnu_cxx6__stoaIyycJiEEET0_PFT_PKT1_PPS3_DpT2_EPKcS5_PmS9_EN11_Save_errnoC2Ev, @function
_ZZN9__gnu_cxx6__stoaIyycJiEEET0_PFT_PKT1_PPS3_DpT2_EPKcS5_PmS9_EN11_Save_errnoC2Ev:
.LFB3089:
	.cfi_startproc
	endbr64
	pushq	%rbp
	.cfi_def_cfa_offset 16
	.cfi_offset 6, -16
	movq	%rsp, %rbp
	.cfi_def_cfa_register 6
	subq	$16, %rsp
	movq	%rdi, -8(%rbp)
	call	__errno_location@PLT
	movl	(%rax), %edx
	movq	-8(%rbp), %rax
	movl	%edx, (%rax)
	call	__errno_location@PLT
	movl	$0, (%rax)
	nop
	leave
	.cfi_def_cfa 7, 8
	ret
	.cfi_endproc
.LFE3089:
	.size	_ZZN9__gnu_cxx6__stoaIyycJiEEET0_PFT_PKT1_PPS3_DpT2_EPKcS5_PmS9_EN11_Save_errnoC2Ev, .-_ZZN9__gnu_cxx6__stoaIyycJiEEET0_PFT_PKT1_PPS3_DpT2_EPKcS5_PmS9_EN11_Save_errnoC2Ev
	.weak	_ZZN9__gnu_cxx6__stoaIyycJiEEET0_PFT_PKT1_PPS3_DpT2_EPKcS5_PmS9_EN11_Save_errnoC1Ev
	.set	_ZZN9__gnu_cxx6__stoaIyycJiEEET0_PFT_PKT1_PPS3_DpT2_EPKcS5_PmS9_EN11_Save_errnoC1Ev,_ZZN9__gnu_cxx6__stoaIyycJiEEET0_PFT_PKT1_PPS3_DpT2_EPKcS5_PmS9_EN11_Save_errnoC2Ev
	.section	.text._ZZN9__gnu_cxx6__stoaIyycJiEEET0_PFT_PKT1_PPS3_DpT2_EPKcS5_PmS9_EN11_Save_errnoD2Ev,"axG",@progbits,_ZZN9__gnu_cxx6__stoaIyycJiEEET0_PFT_PKT1_PPS3_DpT2_EPKcS5_PmS9_EN11_Save_errnoD5Ev,comdat
	.align 2
	.weak	_ZZN9__gnu_cxx6__stoaIyycJiEEET0_PFT_PKT1_PPS3_DpT2_EPKcS5_PmS9_EN11_Save_errnoD2Ev
	.type	_ZZN9__gnu_cxx6__stoaIyycJiEEET0_PFT_PKT1_PPS3_DpT2_EPKcS5_PmS9_EN11_Save_errnoD2Ev, @function
_ZZN9__gnu_cxx6__stoaIyycJiEEET0_PFT_PKT1_PPS3_DpT2_EPKcS5_PmS9_EN11_Save_errnoD2Ev:
.LFB3092:
	.cfi_startproc
	endbr64
	pushq	%rbp
	.cfi_def_cfa_offset 16
	.cfi_offset 6, -16
	movq	%rsp, %rbp
	.cfi_def_cfa_register 6
	subq	$16, %rsp
	movq	%rdi, -8(%rbp)
	call	__errno_location@PLT
	movl	(%rax), %eax
	testl	%eax, %eax
	jne	.L142
	call	__errno_location@PLT
	movq	-8(%rbp), %rdx
	movl	(%rdx), %edx
	movl	%edx, (%rax)
.L142:
	nop
	leave
	.cfi_def_cfa 7, 8
	ret
	.cfi_endproc
.LFE3092:
	.size	_ZZN9__gnu_cxx6__stoaIyycJiEEET0_PFT_PKT1_PPS3_DpT2_EPKcS5_PmS9_EN11_Save_errnoD2Ev, .-_ZZN9__gnu_cxx6__stoaIyycJiEEET0_PFT_PKT1_PPS3_DpT2_EPKcS5_PmS9_EN11_Save_errnoD2Ev
	.weak	_ZZN9__gnu_cxx6__stoaIyycJiEEET0_PFT_PKT1_PPS3_DpT2_EPKcS5_PmS9_EN11_Save_errnoD1Ev
	.set	_ZZN9__gnu_cxx6__stoaIyycJiEEET0_PFT_PKT1_PPS3_DpT2_EPKcS5_PmS9_EN11_Save_errnoD1Ev,_ZZN9__gnu_cxx6__stoaIyycJiEEET0_PFT_PKT1_PPS3_DpT2_EPKcS5_PmS9_EN11_Save_errnoD2Ev
	.section	.text._ZZN9__gnu_cxx6__stoaIyycJiEEET0_PFT_PKT1_PPS3_DpT2_EPKcS5_PmS9_EN10_Range_chk6_S_chkEySt17integral_constantIbLb0EE,"axG",@progbits,_ZZN9__gnu_cxx6__stoaIyycJiEEET0_PFT_PKT1_PPS3_DpT2_EPKcS5_PmS9_EN10_Range_chk6_S_chkEySt17integral_constantIbLb0EE,comdat
	.weak	_ZZN9__gnu_cxx6__stoaIyycJiEEET0_PFT_PKT1_PPS3_DpT2_EPKcS5_PmS9_EN10_Range_chk6_S_chkEySt17integral_constantIbLb0EE
	.type	_ZZN9__gnu_cxx6__stoaIyycJiEEET0_PFT_PKT1_PPS3_DpT2_EPKcS5_PmS9_EN10_Range_chk6_S_chkEySt17integral_constantIbLb0EE, @function
_ZZN9__gnu_cxx6__stoaIyycJiEEET0_PFT_PKT1_PPS3_DpT2_EPKcS5_PmS9_EN10_Range_chk6_S_chkEySt17integral_constantIbLb0EE:
.LFB3094:
	.cfi_startproc
	endbr64
	pushq	%rbp
	.cfi_def_cfa_offset 16
	.cfi_offset 6, -16
	movq	%rsp, %rbp
	.cfi_def_cfa_register 6
	movq	%rdi, -8(%rbp)
	movl	$0, %eax
	popq	%rbp
	.cfi_def_cfa 7, 8
	ret
	.cfi_endproc
.LFE3094:
	.size	_ZZN9__gnu_cxx6__stoaIyycJiEEET0_PFT_PKT1_PPS3_DpT2_EPKcS5_PmS9_EN10_Range_chk6_S_chkEySt17integral_constantIbLb0EE, .-_ZZN9__gnu_cxx6__stoaIyycJiEEET0_PFT_PKT1_PPS3_DpT2_EPKcS5_PmS9_EN10_Range_chk6_S_chkEySt17integral_constantIbLb0EE
	.section	.text._ZN9__gnu_cxx6__stoaIyycJiEEET0_PFT_PKT1_PPS3_DpT2_EPKcS5_PmS9_,"axG",@progbits,_ZN9__gnu_cxx6__stoaIyycJiEEET0_PFT_PKT1_PPS3_DpT2_EPKcS5_PmS9_,comdat
	.weak	_ZN9__gnu_cxx6__stoaIyycJiEEET0_PFT_PKT1_PPS3_DpT2_EPKcS5_PmS9_
	.type	_ZN9__gnu_cxx6__stoaIyycJiEEET0_PFT_PKT1_PPS3_DpT2_EPKcS5_PmS9_, @function
_ZN9__gnu_cxx6__stoaIyycJiEEET0_PFT_PKT1_PPS3_DpT2_EPKcS5_PmS9_:
.LFB3087:
	.cfi_startproc
	.cfi_personality 0x9b,DW.ref.__gxx_personality_v0
	.cfi_lsda 0x1b,.LLSDA3087
	endbr64
	pushq	%rbp
	.cfi_def_cfa_offset 16
	.cfi_offset 6, -16
	movq	%rsp, %rbp
	.cfi_def_cfa_register 6
	pushq	%rbx
	subq	$104, %rsp
	.cfi_offset 3, -24
	movq	%rdi, -72(%rbp)
	movq	%rsi, -80(%rbp)
	movq	%rdx, -88(%rbp)
	movq	%rcx, -96(%rbp)
	movl	%r8d, -100(%rbp)
	movq	%fs:40, %rax
	movq	%rax, -24(%rbp)
	xorl	%eax, %eax
	leaq	-52(%rbp), %rax
	movq	%rax, %rdi
	call	_ZZN9__gnu_cxx6__stoaIyycJiEEET0_PFT_PKT1_PPS3_DpT2_EPKcS5_PmS9_EN11_Save_errnoC1Ev
	movq	-72(%rbp), %r8
	movl	-100(%rbp), %edx
	leaq	-48(%rbp), %rcx
	movq	-88(%rbp), %rax
	movq	%rcx, %rsi
	movq	%rax, %rdi
.LEHB16:
	call	*%r8
	movq	%rax, -40(%rbp)
	movq	-48(%rbp), %rax
	cmpq	%rax, -88(%rbp)
	jne	.L146
	movq	-24(%rbp), %rax
	subq	%fs:40, %rax
	je	.L147
	call	__stack_chk_fail@PLT
.L147:
	movq	-80(%rbp), %rax
	movq	%rax, %rdi
	call	_ZSt24__throw_invalid_argumentPKc@PLT
.L146:
	call	__errno_location@PLT
	movl	(%rax), %eax
	cmpl	$34, %eax
	je	.L148
	movq	-40(%rbp), %rax
	movq	%rax, %rdi
	call	_ZZN9__gnu_cxx6__stoaIyycJiEEET0_PFT_PKT1_PPS3_DpT2_EPKcS5_PmS9_EN10_Range_chk6_S_chkEySt17integral_constantIbLb0EE
	testb	%al, %al
	je	.L149
.L148:
	movl	$1, %eax
	jmp	.L150
.L149:
	movl	$0, %eax
.L150:
	testb	%al, %al
	je	.L151
	movq	-24(%rbp), %rax
	subq	%fs:40, %rax
	je	.L152
	call	__stack_chk_fail@PLT
.L152:
	movq	-80(%rbp), %rax
	movq	%rax, %rdi
	call	_ZSt20__throw_out_of_rangePKc@PLT
.LEHE16:
.L151:
	movq	-40(%rbp), %rax
	movq	%rax, -32(%rbp)
	cmpq	$0, -96(%rbp)
	je	.L153
	movq	-48(%rbp), %rax
	subq	-88(%rbp), %rax
	movq	%rax, %rdx
	movq	-96(%rbp), %rax
	movq	%rdx, (%rax)
.L153:
	movq	-32(%rbp), %rbx
	leaq	-52(%rbp), %rax
	movq	%rax, %rdi
	call	_ZZN9__gnu_cxx6__stoaIyycJiEEET0_PFT_PKT1_PPS3_DpT2_EPKcS5_PmS9_EN11_Save_errnoD1Ev
	movq	%rbx, %rax
	movq	-24(%rbp), %rdx
	subq	%fs:40, %rdx
	je	.L157
	jmp	.L159
.L158:
	endbr64
	movq	%rax, %rbx
	leaq	-52(%rbp), %rax
	movq	%rax, %rdi
	call	_ZZN9__gnu_cxx6__stoaIyycJiEEET0_PFT_PKT1_PPS3_DpT2_EPKcS5_PmS9_EN11_Save_errnoD1Ev
	movq	%rbx, %rax
	movq	-24(%rbp), %rdx
	subq	%fs:40, %rdx
	je	.L156
	call	__stack_chk_fail@PLT
.L156:
	movq	%rax, %rdi
.LEHB17:
	call	_Unwind_Resume@PLT
.LEHE17:
.L159:
	call	__stack_chk_fail@PLT
.L157:
	movq	-8(%rbp), %rbx
	leave
	.cfi_def_cfa 7, 8
	ret
	.cfi_endproc
.LFE3087:
	.section	.gcc_except_table
.LLSDA3087:
	.byte	0xff
	.byte	0xff
	.byte	0x1
	.uleb128 .LLSDACSE3087-.LLSDACSB3087
.LLSDACSB3087:
	.uleb128 .LEHB16-.LFB3087
	.uleb128 .LEHE16-.LEHB16
	.uleb128 .L158-.LFB3087
	.uleb128 0
	.uleb128 .LEHB17-.LFB3087
	.uleb128 .LEHE17-.LEHB17
	.uleb128 0
	.uleb128 0
.LLSDACSE3087:
	.section	.text._ZN9__gnu_cxx6__stoaIyycJiEEET0_PFT_PKT1_PPS3_DpT2_EPKcS5_PmS9_,"axG",@progbits,_ZN9__gnu_cxx6__stoaIyycJiEEET0_PFT_PKT1_PPS3_DpT2_EPKcS5_PmS9_,comdat
	.size	_ZN9__gnu_cxx6__stoaIyycJiEEET0_PFT_PKT1_PPS3_DpT2_EPKcS5_PmS9_, .-_ZN9__gnu_cxx6__stoaIyycJiEEET0_PFT_PKT1_PPS3_DpT2_EPKcS5_PmS9_
	.section	.text._ZNSt7__cxx1112basic_stringIcSt11char_traitsIcESaIcEE12_Alloc_hiderD2Ev,"axG",@progbits,_ZNSt7__cxx1112basic_stringIcSt11char_traitsIcESaIcEE12_Alloc_hiderD5Ev,comdat
	.align 2
	.weak	_ZNSt7__cxx1112basic_stringIcSt11char_traitsIcESaIcEE12_Alloc_hiderD2Ev
	.type	_ZNSt7__cxx1112basic_stringIcSt11char_traitsIcESaIcEE12_Alloc_hiderD2Ev, @function
_ZNSt7__cxx1112basic_stringIcSt11char_traitsIcESaIcEE12_Alloc_hiderD2Ev:
.LFB3132:
	.cfi_startproc
	endbr64
	pushq	%rbp
	.cfi_def_cfa_offset 16
	.cfi_offset 6, -16
	movq	%rsp, %rbp
	.cfi_def_cfa_register 6
	subq	$32, %rsp
	movq	%rdi, -24(%rbp)
	movq	-24(%rbp), %rax
	movq	%rax, -8(%rbp)
	movq	-8(%rbp), %rax
	movq	%rax, %rdi
	call	_ZNSt15__new_allocatorIcED2Ev
	nop
	nop
	leave
	.cfi_def_cfa 7, 8
	ret
	.cfi_endproc
.LFE3132:
	.size	_ZNSt7__cxx1112basic_stringIcSt11char_traitsIcESaIcEE12_Alloc_hiderD2Ev, .-_ZNSt7__cxx1112basic_stringIcSt11char_traitsIcESaIcEE12_Alloc_hiderD2Ev
	.weak	_ZNSt7__cxx1112basic_stringIcSt11char_traitsIcESaIcEE12_Alloc_hiderD1Ev
	.set	_ZNSt7__cxx1112basic_stringIcSt11char_traitsIcESaIcEE12_Alloc_hiderD1Ev,_ZNSt7__cxx1112basic_stringIcSt11char_traitsIcESaIcEE12_Alloc_hiderD2Ev
	.section	.text._ZNKSt6chrono10time_pointINS_3_V212system_clockENS_8durationIlSt5ratioILl1ELl1000000000EEEEE16time_since_epochEv,"axG",@progbits,_ZNKSt6chrono10time_pointINS_3_V212system_clockENS_8durationIlSt5ratioILl1ELl1000000000EEEEE16time_since_epochEv,comdat
	.align 2
	.weak	_ZNKSt6chrono10time_pointINS_3_V212system_clockENS_8durationIlSt5ratioILl1ELl1000000000EEEEE16time_since_epochEv
	.type	_ZNKSt6chrono10time_pointINS_3_V212system_clockENS_8durationIlSt5ratioILl1ELl1000000000EEEEE16time_since_epochEv, @function
_ZNKSt6chrono10time_pointINS_3_V212system_clockENS_8durationIlSt5ratioILl1ELl1000000000EEEEE16time_since_epochEv:
.LFB3277:
	.cfi_startproc
	endbr64
	pushq	%rbp
	.cfi_def_cfa_offset 16
	.cfi_offset 6, -16
	movq	%rsp, %rbp
	.cfi_def_cfa_register 6
	movq	%rdi, -8(%rbp)
	movq	-8(%rbp), %rax
	movq	(%rax), %rax
	popq	%rbp
	.cfi_def_cfa 7, 8
	ret
	.cfi_endproc
.LFE3277:
	.size	_ZNKSt6chrono10time_pointINS_3_V212system_clockENS_8durationIlSt5ratioILl1ELl1000000000EEEEE16time_since_epochEv, .-_ZNKSt6chrono10time_pointINS_3_V212system_clockENS_8durationIlSt5ratioILl1ELl1000000000EEEEE16time_since_epochEv
	.section	.rodata
	.align 8
.LC34:
	.string	"basic_string: construction from null is not valid"
	.section	.text._ZNSt7__cxx1112basic_stringIcSt11char_traitsIcESaIcEEC2IS3_EEPKcRKS3_,"axG",@progbits,_ZNSt7__cxx1112basic_stringIcSt11char_traitsIcESaIcEEC5IS3_EEPKcRKS3_,comdat
	.align 2
	.weak	_ZNSt7__cxx1112basic_stringIcSt11char_traitsIcESaIcEEC2IS3_EEPKcRKS3_
	.type	_ZNSt7__cxx1112basic_stringIcSt11char_traitsIcESaIcEEC2IS3_EEPKcRKS3_, @function
_ZNSt7__cxx1112basic_stringIcSt11char_traitsIcESaIcEEC2IS3_EEPKcRKS3_:
.LFB3322:
	.cfi_startproc
	.cfi_personality 0x9b,DW.ref.__gxx_personality_v0
	.cfi_lsda 0x1b,.LLSDA3322
	endbr64
	pushq	%rbp
	.cfi_def_cfa_offset 16
	.cfi_offset 6, -16
	movq	%rsp, %rbp
	.cfi_def_cfa_register 6
	pushq	%rbx
	subq	$56, %rsp
	.cfi_offset 3, -24
	movq	%rdi, -40(%rbp)
	movq	%rsi, -48(%rbp)
	movq	%rdx, -56(%rbp)
	movq	-40(%rbp), %rbx
	movq	-40(%rbp), %rax
	movq	%rax, %rdi
	call	_ZNSt7__cxx1112basic_stringIcSt11char_traitsIcESaIcEE13_M_local_dataEv@PLT
	movq	%rax, %rcx
	movq	-56(%rbp), %rax
	movq	%rax, %rdx
	movq	%rcx, %rsi
	movq	%rbx, %rdi
	call	_ZNSt7__cxx1112basic_stringIcSt11char_traitsIcESaIcEE12_Alloc_hiderC1EPcRKS3_@PLT
	cmpq	$0, -48(%rbp)
	jne	.L164
	leaq	.LC34(%rip), %rax
	movq	%rax, %rdi
.LEHB18:
	call	_ZSt19__throw_logic_errorPKc@PLT
.L164:
	movq	-48(%rbp), %rax
	movq	%rax, %rdi
	call	_ZNSt11char_traitsIcE6lengthEPKc
	movq	-48(%rbp), %rdx
	addq	%rdx, %rax
	movq	%rax, -24(%rbp)
	movq	-24(%rbp), %rdx
	movq	-48(%rbp), %rcx
	movq	-40(%rbp), %rax
	movq	%rcx, %rsi
	movq	%rax, %rdi
	call	_ZNSt7__cxx1112basic_stringIcSt11char_traitsIcESaIcEE12_M_constructIPKcEEvT_S8_St20forward_iterator_tag
.LEHE18:
	jmp	.L167
.L166:
	endbr64
	movq	%rax, %rbx
	movq	-40(%rbp), %rax
	movq	%rax, %rdi
	call	_ZNSt7__cxx1112basic_stringIcSt11char_traitsIcESaIcEE12_Alloc_hiderD1Ev
	movq	%rbx, %rax
	movq	%rax, %rdi
.LEHB19:
	call	_Unwind_Resume@PLT
.LEHE19:
.L167:
	movq	-8(%rbp), %rbx
	leave
	.cfi_def_cfa 7, 8
	ret
	.cfi_endproc
.LFE3322:
	.section	.gcc_except_table
.LLSDA3322:
	.byte	0xff
	.byte	0xff
	.byte	0x1
	.uleb128 .LLSDACSE3322-.LLSDACSB3322
.LLSDACSB3322:
	.uleb128 .LEHB18-.LFB3322
	.uleb128 .LEHE18-.LEHB18
	.uleb128 .L166-.LFB3322
	.uleb128 0
	.uleb128 .LEHB19-.LFB3322
	.uleb128 .LEHE19-.LEHB19
	.uleb128 0
	.uleb128 0
.LLSDACSE3322:
	.section	.text._ZNSt7__cxx1112basic_stringIcSt11char_traitsIcESaIcEEC2IS3_EEPKcRKS3_,"axG",@progbits,_ZNSt7__cxx1112basic_stringIcSt11char_traitsIcESaIcEEC5IS3_EEPKcRKS3_,comdat
	.size	_ZNSt7__cxx1112basic_stringIcSt11char_traitsIcESaIcEEC2IS3_EEPKcRKS3_, .-_ZNSt7__cxx1112basic_stringIcSt11char_traitsIcESaIcEEC2IS3_EEPKcRKS3_
	.weak	_ZNSt7__cxx1112basic_stringIcSt11char_traitsIcESaIcEEC1IS3_EEPKcRKS3_
	.set	_ZNSt7__cxx1112basic_stringIcSt11char_traitsIcESaIcEEC1IS3_EEPKcRKS3_,_ZNSt7__cxx1112basic_stringIcSt11char_traitsIcESaIcEEC2IS3_EEPKcRKS3_
	.section	.text._ZNSt6vectorIjSaIjEEC2EmRKS0_,"axG",@progbits,_ZNSt6vectorIjSaIjEEC5EmRKS0_,comdat
	.align 2
	.weak	_ZNSt6vectorIjSaIjEEC2EmRKS0_
	.type	_ZNSt6vectorIjSaIjEEC2EmRKS0_, @function
_ZNSt6vectorIjSaIjEEC2EmRKS0_:
.LFB3350:
	.cfi_startproc
	.cfi_personality 0x9b,DW.ref.__gxx_personality_v0
	.cfi_lsda 0x1b,.LLSDA3350
	endbr64
	pushq	%rbp
	.cfi_def_cfa_offset 16
	.cfi_offset 6, -16
	movq	%rsp, %rbp
	.cfi_def_cfa_register 6
	pushq	%rbx
	subq	$40, %rsp
	.cfi_offset 3, -24
	movq	%rdi, -24(%rbp)
	movq	%rsi, -32(%rbp)
	movq	%rdx, -40(%rbp)
	movq	-24(%rbp), %rbx
	movq	-40(%rbp), %rdx
	movq	-32(%rbp), %rax
	movq	%rdx, %rsi
	movq	%rax, %rdi
.LEHB20:
	call	_ZNSt6vectorIjSaIjEE17_S_check_init_lenEmRKS0_
	movq	%rax, %rcx
	movq	-40(%rbp), %rax
	movq	%rax, %rdx
	movq	%rcx, %rsi
	movq	%rbx, %rdi
	call	_ZNSt12_Vector_baseIjSaIjEEC2EmRKS0_
.LEHE20:
	movq	-32(%rbp), %rdx
	movq	-24(%rbp), %rax
	movq	%rdx, %rsi
	movq	%rax, %rdi
.LEHB21:
	call	_ZNSt6vectorIjSaIjEE21_M_default_initializeEm
.LEHE21:
	jmp	.L171
.L170:
	endbr64
	movq	%rax, %rbx
	movq	-24(%rbp), %rax
	movq	%rax, %rdi
	call	_ZNSt12_Vector_baseIjSaIjEED2Ev
	movq	%rbx, %rax
	movq	%rax, %rdi
.LEHB22:
	call	_Unwind_Resume@PLT
.LEHE22:
.L171:
	movq	-8(%rbp), %rbx
	leave
	.cfi_def_cfa 7, 8
	ret
	.cfi_endproc
.LFE3350:
	.section	.gcc_except_table
.LLSDA3350:
	.byte	0xff
	.byte	0xff
	.byte	0x1
	.uleb128 .LLSDACSE3350-.LLSDACSB3350
.LLSDACSB3350:
	.uleb128 .LEHB20-.LFB3350
	.uleb128 .LEHE20-.LEHB20
	.uleb128 0
	.uleb128 0
	.uleb128 .LEHB21-.LFB3350
	.uleb128 .LEHE21-.LEHB21
	.uleb128 .L170-.LFB3350
	.uleb128 0
	.uleb128 .LEHB22-.LFB3350
	.uleb128 .LEHE22-.LEHB22
	.uleb128 0
	.uleb128 0
.LLSDACSE3350:
	.section	.text._ZNSt6vectorIjSaIjEEC2EmRKS0_,"axG",@progbits,_ZNSt6vectorIjSaIjEEC5EmRKS0_,comdat
	.size	_ZNSt6vectorIjSaIjEEC2EmRKS0_, .-_ZNSt6vectorIjSaIjEEC2EmRKS0_
	.weak	_ZNSt6vectorIjSaIjEEC1EmRKS0_
	.set	_ZNSt6vectorIjSaIjEEC1EmRKS0_,_ZNSt6vectorIjSaIjEEC2EmRKS0_
	.section	.text._ZNSt6vectorIjSaIjEED2Ev,"axG",@progbits,_ZNSt6vectorIjSaIjEED5Ev,comdat
	.align 2
	.weak	_ZNSt6vectorIjSaIjEED2Ev
	.type	_ZNSt6vectorIjSaIjEED2Ev, @function
_ZNSt6vectorIjSaIjEED2Ev:
.LFB3353:
	.cfi_startproc
	.cfi_personality 0x9b,DW.ref.__gxx_personality_v0
	.cfi_lsda 0x1b,.LLSDA3353
	endbr64
	pushq	%rbp
	.cfi_def_cfa_offset 16
	.cfi_offset 6, -16
	movq	%rsp, %rbp
	.cfi_def_cfa_register 6
	subq	$48, %rsp
	movq	%rdi, -40(%rbp)
	movq	-40(%rbp), %rax
	movq	%rax, %rdi
	call	_ZNSt12_Vector_baseIjSaIjEE19_M_get_Tp_allocatorEv
	movq	-40(%rbp), %rdx
	movq	8(%rdx), %rdx
	movq	-40(%rbp), %rcx
	movq	(%rcx), %rcx
	movq	%rcx, -24(%rbp)
	movq	%rdx, -16(%rbp)
	movq	%rax, -8(%rbp)
	movq	-16(%rbp), %rdx
	movq	-24(%rbp), %rax
	movq	%rdx, %rsi
	movq	%rax, %rdi
	call	_ZSt8_DestroyIPjEvT_S1_
	nop
	movq	-40(%rbp), %rax
	movq	%rax, %rdi
	call	_ZNSt12_Vector_baseIjSaIjEED2Ev
	nop
	leave
	.cfi_def_cfa 7, 8
	ret
	.cfi_endproc
.LFE3353:
	.section	.gcc_except_table
.LLSDA3353:
	.byte	0xff
	.byte	0xff
	.byte	0x1
	.uleb128 .LLSDACSE3353-.LLSDACSB3353
.LLSDACSB3353:
.LLSDACSE3353:
	.section	.text._ZNSt6vectorIjSaIjEED2Ev,"axG",@progbits,_ZNSt6vectorIjSaIjEED5Ev,comdat
	.size	_ZNSt6vectorIjSaIjEED2Ev, .-_ZNSt6vectorIjSaIjEED2Ev
	.weak	_ZNSt6vectorIjSaIjEED1Ev
	.set	_ZNSt6vectorIjSaIjEED1Ev,_ZNSt6vectorIjSaIjEED2Ev
	.section	.text._ZNSt6vectorIjSaIjEEixEm,"axG",@progbits,_ZNSt6vectorIjSaIjEEixEm,comdat
	.align 2
	.weak	_ZNSt6vectorIjSaIjEEixEm
	.type	_ZNSt6vectorIjSaIjEEixEm, @function
_ZNSt6vectorIjSaIjEEixEm:
.LFB3359:
	.cfi_startproc
	endbr64
	pushq	%rbp
	.cfi_def_cfa_offset 16
	.cfi_offset 6, -16
	movq	%rsp, %rbp
	.cfi_def_cfa_register 6
	movq	%rdi, -8(%rbp)
	movq	%rsi, -16(%rbp)
	movq	-8(%rbp), %rax
	movq	(%rax), %rax
	movq	-16(%rbp), %rdx
	salq	$2, %rdx
	addq	%rdx, %rax
	popq	%rbp
	.cfi_def_cfa 7, 8
	ret
	.cfi_endproc
.LFE3359:
	.size	_ZNSt6vectorIjSaIjEEixEm, .-_ZNSt6vectorIjSaIjEEixEm
	.section	.text._ZNSt6chronomiINS_3_V212system_clockENS_8durationIlSt5ratioILl1ELl1000000000EEEES6_EENSt11common_typeIJT0_T1_EE4typeERKNS_10time_pointIT_S8_EERKNSC_ISD_S9_EE,"axG",@progbits,_ZNSt6chronomiINS_3_V212system_clockENS_8durationIlSt5ratioILl1ELl1000000000EEEES6_EENSt11common_typeIJT0_T1_EE4typeERKNS_10time_pointIT_S8_EERKNSC_ISD_S9_EE,comdat
	.weak	_ZNSt6chronomiINS_3_V212system_clockENS_8durationIlSt5ratioILl1ELl1000000000EEEES6_EENSt11common_typeIJT0_T1_EE4typeERKNS_10time_pointIT_S8_EERKNSC_ISD_S9_EE
	.type	_ZNSt6chronomiINS_3_V212system_clockENS_8durationIlSt5ratioILl1ELl1000000000EEEES6_EENSt11common_typeIJT0_T1_EE4typeERKNS_10time_pointIT_S8_EERKNSC_ISD_S9_EE, @function
_ZNSt6chronomiINS_3_V212system_clockENS_8durationIlSt5ratioILl1ELl1000000000EEEES6_EENSt11common_typeIJT0_T1_EE4typeERKNS_10time_pointIT_S8_EERKNSC_ISD_S9_EE:
.LFB3362:
	.cfi_startproc
	endbr64
	pushq	%rbp
	.cfi_def_cfa_offset 16
	.cfi_offset 6, -16
	movq	%rsp, %rbp
	.cfi_def_cfa_register 6
	subq	$48, %rsp
	movq	%rdi, -40(%rbp)
	movq	%rsi, -48(%rbp)
	movq	%fs:40, %rax
	movq	%rax, -8(%rbp)
	xorl	%eax, %eax
	movq	-48(%rbp), %rax
	movq	%rax, %rdi
	call	_ZNKSt6chrono10time_pointINS_3_V212system_clockENS_8durationIlSt5ratioILl1ELl1000000000EEEEE16time_since_epochEv
	movq	%rax, -16(%rbp)
	movq	-40(%rbp), %rax
	movq	%rax, %rdi
	call	_ZNKSt6chrono10time_pointINS_3_V212system_clockENS_8durationIlSt5ratioILl1ELl1000000000EEEEE16time_since_epochEv
	movq	%rax, -24(%rbp)
	leaq	-16(%rbp), %rdx
	leaq	-24(%rbp), %rax
	movq	%rdx, %rsi
	movq	%rax, %rdi
	call	_ZNSt6chronomiIlSt5ratioILl1ELl1000000000EElS2_EENSt11common_typeIJNS_8durationIT_T0_EENS4_IT1_T2_EEEE4typeERKS7_RKSA_
	movq	-8(%rbp), %rdx
	subq	%fs:40, %rdx
	je	.L177
	call	__stack_chk_fail@PLT
.L177:
	leave
	.cfi_def_cfa 7, 8
	ret
	.cfi_endproc
.LFE3362:
	.size	_ZNSt6chronomiINS_3_V212system_clockENS_8durationIlSt5ratioILl1ELl1000000000EEEES6_EENSt11common_typeIJT0_T1_EE4typeERKNS_10time_pointIT_S8_EERKNSC_ISD_S9_EE, .-_ZNSt6chronomiINS_3_V212system_clockENS_8durationIlSt5ratioILl1ELl1000000000EEEES6_EENSt11common_typeIJT0_T1_EE4typeERKNS_10time_pointIT_S8_EERKNSC_ISD_S9_EE
	.text
	.type	_Z11time_streamIZ4mainEUlmE_EdOT_m, @function
_Z11time_streamIZ4mainEUlmE_EdOT_m:
.LFB3360:
	.cfi_startproc
	endbr64
	pushq	%rbp
	.cfi_def_cfa_offset 16
	.cfi_offset 6, -16
	movq	%rsp, %rbp
	.cfi_def_cfa_register 6
	subq	$64, %rsp
	movq	%rdi, -56(%rbp)
	movq	%rsi, -64(%rbp)
	movq	%fs:40, %rax
	movq	%rax, -8(%rbp)
	xorl	%eax, %eax
	call	_ZNSt6chrono3_V212system_clock3nowEv@PLT
	movq	%rax, -40(%rbp)
	movq	-64(%rbp), %rdx
	movq	-56(%rbp), %rax
	movq	%rdx, %rsi
	movq	%rax, %rdi
	call	_ZZ4mainENKUlmE_clEm
	call	_ZNSt6chrono3_V212system_clock3nowEv@PLT
	movq	%rax, -32(%rbp)
	leaq	-40(%rbp), %rdx
	leaq	-32(%rbp), %rax
	movq	%rdx, %rsi
	movq	%rax, %rdi
	call	_ZNSt6chronomiINS_3_V212system_clockENS_8durationIlSt5ratioILl1ELl1000000000EEEES6_EENSt11common_typeIJT0_T1_EE4typeERKNS_10time_pointIT_S8_EERKNSC_ISD_S9_EE
	movq	%rax, -16(%rbp)
	leaq	-16(%rbp), %rdx
	leaq	-24(%rbp), %rax
	movq	%rdx, %rsi
	movq	%rax, %rdi
	call	_ZNSt6chrono8durationIdSt5ratioILl1ELl1EEEC1IlS1_ILl1ELl1000000000EEvEERKNS0_IT_T0_EE
	leaq	-24(%rbp), %rax
	movq	%rax, %rdi
	call	_ZNKSt6chrono8durationIdSt5ratioILl1ELl1EEE5countEv
	movq	-8(%rbp), %rax
	subq	%fs:40, %rax
	je	.L180
	call	__stack_chk_fail@PLT
.L180:
	leave
	.cfi_def_cfa 7, 8
	ret
	.cfi_endproc
.LFE3360:
	.size	_Z11time_streamIZ4mainEUlmE_EdOT_m, .-_Z11time_streamIZ4mainEUlmE_EdOT_m
	.type	_Z11time_streamIZ4mainEUlmE0_EdOT_m, @function
_Z11time_streamIZ4mainEUlmE0_EdOT_m:
.LFB3363:
	.cfi_startproc
	endbr64
	pushq	%rbp
	.cfi_def_cfa_offset 16
	.cfi_offset 6, -16
	movq	%rsp, %rbp
	.cfi_def_cfa_register 6
	subq	$64, %rsp
	movq	%rdi, -56(%rbp)
	movq	%rsi, -64(%rbp)
	movq	%fs:40, %rax
	movq	%rax, -8(%rbp)
	xorl	%eax, %eax
	call	_ZNSt6chrono3_V212system_clock3nowEv@PLT
	movq	%rax, -40(%rbp)
	movq	-64(%rbp), %rdx
	movq	-56(%rbp), %rax
	movq	%rdx, %rsi
	movq	%rax, %rdi
	call	_ZZ4mainENKUlmE0_clEm
	call	_ZNSt6chrono3_V212system_clock3nowEv@PLT
	movq	%rax, -32(%rbp)
	leaq	-40(%rbp), %rdx
	leaq	-32(%rbp), %rax
	movq	%rdx, %rsi
	movq	%rax, %rdi
	call	_ZNSt6chronomiINS_3_V212system_clockENS_8durationIlSt5ratioILl1ELl1000000000EEEES6_EENSt11common_typeIJT0_T1_EE4typeERKNS_10time_pointIT_S8_EERKNSC_ISD_S9_EE
	movq	%rax, -16(%rbp)
	leaq	-16(%rbp), %rdx
	leaq	-24(%rbp), %rax
	movq	%rdx, %rsi
	movq	%rax, %rdi
	call	_ZNSt6chrono8durationIdSt5ratioILl1ELl1EEEC1IlS1_ILl1ELl1000000000EEvEERKNS0_IT_T0_EE
	leaq	-24(%rbp), %rax
	movq	%rax, %rdi
	call	_ZNKSt6chrono8durationIdSt5ratioILl1ELl1EEE5countEv
	movq	-8(%rbp), %rax
	subq	%fs:40, %rax
	je	.L183
	call	__stack_chk_fail@PLT
.L183:
	leave
	.cfi_def_cfa 7, 8
	ret
	.cfi_endproc
.LFE3363:
	.size	_Z11time_streamIZ4mainEUlmE0_EdOT_m, .-_Z11time_streamIZ4mainEUlmE0_EdOT_m
	.section	.text._ZN9__gnu_cxx11char_traitsIcE2eqERKcS3_,"axG",@progbits,_ZN9__gnu_cxx11char_traitsIcE2eqERKcS3_,comdat
	.weak	_ZN9__gnu_cxx11char_traitsIcE2eqERKcS3_
	.type	_ZN9__gnu_cxx11char_traitsIcE2eqERKcS3_, @function
_ZN9__gnu_cxx11char_traitsIcE2eqERKcS3_:
.LFB3366:
	.cfi_startproc
	endbr64
	pushq	%rbp
	.cfi_def_cfa_offset 16
	.cfi_offset 6, -16
	movq	%rsp, %rbp
	.cfi_def_cfa_register 6
	movq	%rdi, -8(%rbp)
	movq	%rsi, -16(%rbp)
	movq	-8(%rbp), %rax
	movzbl	(%rax), %edx
	movq	-16(%rbp), %rax
	movzbl	(%rax), %eax
	cmpb	%al, %dl
	sete	%al
	popq	%rbp
	.cfi_def_cfa 7, 8
	ret
	.cfi_endproc
.LFE3366:
	.size	_ZN9__gnu_cxx11char_traitsIcE2eqERKcS3_, .-_ZN9__gnu_cxx11char_traitsIcE2eqERKcS3_
	.section	.text._ZNSt15__new_allocatorIcED2Ev,"axG",@progbits,_ZNSt15__new_allocatorIcED5Ev,comdat
	.align 2
	.weak	_ZNSt15__new_allocatorIcED2Ev
	.type	_ZNSt15__new_allocatorIcED2Ev, @function
_ZNSt15__new_allocatorIcED2Ev:
.LFB3374:
	.cfi_startproc
	endbr64
	pushq	%rbp
	.cfi_def_cfa_offset 16
	.cfi_offset 6, -16
	movq	%rsp, %rbp
	.cfi_def_cfa_register 6
	movq	%rdi, -8(%rbp)
	nop
	popq	%rbp
	.cfi_def_cfa 7, 8
	ret
	.cfi_endproc
.LFE3374:
	.size	_ZNSt15__new_allocatorIcED2Ev, .-_ZNSt15__new_allocatorIcED2Ev
	.weak	_ZNSt15__new_allocatorIcED1Ev
	.set	_ZNSt15__new_allocatorIcED1Ev,_ZNSt15__new_allocatorIcED2Ev
	.section	.text._ZZNSt7__cxx1112basic_stringIcSt11char_traitsIcESaIcEE12_M_constructIPKcEEvT_S8_St20forward_iterator_tagEN6_GuardC2EPS4_,"axG",@progbits,_ZZNSt7__cxx1112basic_stringIcSt11char_traitsIcESaIcEE12_M_constructIPKcEEvT_S8_St20forward_iterator_tagEN6_GuardC5EPS4_,comdat
	.align 2
	.weak	_ZZNSt7__cxx1112basic_stringIcSt11char_traitsIcESaIcEE12_M_constructIPKcEEvT_S8_St20forward_iterator_tagEN6_GuardC2EPS4_
	.type	_ZZNSt7__cxx1112basic_stringIcSt11char_traitsIcESaIcEE12_M_constructIPKcEEvT_S8_St20forward_iterator_tagEN6_GuardC2EPS4_, @function
_ZZNSt7__cxx1112basic_stringIcSt11char_traitsIcESaIcEE12_M_constructIPKcEEvT_S8_St20forward_iterator_tagEN6_GuardC2EPS4_:
.LFB3404:
	.cfi_startproc
	endbr64
	pushq	%rbp
	.cfi_def_cfa_offset 16
	.cfi_offset 6, -16
	movq	%rsp, %rbp
	.cfi_def_cfa_register 6
	movq	%rdi, -8(%rbp)
	movq	%rsi, -16(%rbp)
	movq	-8(%rbp), %rax
	movq	-16(%rbp), %rdx
	movq	%rdx, (%rax)
	nop
	popq	%rbp
	.cfi_def_cfa 7, 8
	ret
	.cfi_endproc
.LFE3404:
	.size	_ZZNSt7__cxx1112basic_stringIcSt11char_traitsIcESaIcEE12_M_constructIPKcEEvT_S8_St20forward_iterator_tagEN6_GuardC2EPS4_, .-_ZZNSt7__cxx1112basic_stringIcSt11char_traitsIcESaIcEE12_M_constructIPKcEEvT_S8_St20forward_iterator_tagEN6_GuardC2EPS4_
	.weak	_ZZNSt7__cxx1112basic_stringIcSt11char_traitsIcESaIcEE12_M_constructIPKcEEvT_S8_St20forward_iterator_tagEN6_GuardC1EPS4_
	.set	_ZZNSt7__cxx1112basic_stringIcSt11char_traitsIcESaIcEE12_M_constructIPKcEEvT_S8_St20forward_iterator_tagEN6_GuardC1EPS4_,_ZZNSt7__cxx1112basic_stringIcSt11char_traitsIcESaIcEE12_M_constructIPKcEEvT_S8_St20forward_iterator_tagEN6_GuardC2EPS4_
	.section	.text._ZZNSt7__cxx1112basic_stringIcSt11char_traitsIcESaIcEE12_M_constructIPKcEEvT_S8_St20forward_iterator_tagEN6_GuardD2Ev,"axG",@progbits,_ZZNSt7__cxx1112basic_stringIcSt11char_traitsIcESaIcEE12_M_constructIPKcEEvT_S8_St20forward_iterator_tagEN6_GuardD5Ev,comdat
	.align 2
	.weak	_ZZNSt7__cxx1112basic_stringIcSt11char_traitsIcESaIcEE12_M_constructIPKcEEvT_S8_St20forward_iterator_tagEN6_GuardD2Ev
	.type	_ZZNSt7__cxx1112basic_stringIcSt11char_traitsIcESaIcEE12_M_constructIPKcEEvT_S8_St20forward_iterator_tagEN6_GuardD2Ev, @function
_ZZNSt7__cxx1112basic_stringIcSt11char_traitsIcESaIcEE12_M_constructIPKcEEvT_S8_St20forward_iterator_tagEN6_GuardD2Ev:
.LFB3407:
	.cfi_startproc
	.cfi_personality 0x9b,DW.ref.__gxx_personality_v0
	.cfi_lsda 0x1b,.LLSDA3407
	endbr64
	pushq	%rbp
	.cfi_def_cfa_offset 16
	.cfi_offset 6, -16
	movq	%rsp, %rbp
	.cfi_def_cfa_register 6
	subq	$16, %rsp
	movq	%rdi, -8(%rbp)
	movq	-8(%rbp), %rax
	movq	(%rax), %rax
	testq	%rax, %rax
	je	.L190
	movq	-8(%rbp), %rax
	movq	(%rax), %rax
	movq	%rax, %rdi
	call	_ZNSt7__cxx1112basic_stringIcSt11char_traitsIcESaIcEE10_M_disposeEv@PLT
.L190:
	nop
	leave
	.cfi_def_cfa 7, 8
	ret
	.cfi_endproc
.LFE3407:
	.section	.gcc_except_table
.LLSDA3407:
	.byte	0xff
	.byte	0xff
	.byte	0x1
	.uleb128 .LLSDACSE3407-.LLSDACSB3407
.LLSDACSB3407:
.LLSDACSE3407:
	.section	.text._ZZNSt7__cxx1112basic_stringIcSt11char_traitsIcESaIcEE12_M_constructIPKcEEvT_S8_St20forward_iterator_tagEN6_GuardD2Ev,"axG",@progbits,_ZZNSt7__cxx1112basic_stringIcSt11char_traitsIcESaIcEE12_M_constructIPKcEEvT_S8_St20forward_iterator_tagEN6_GuardD5Ev,comdat
	.size	_ZZNSt7__cxx1112basic_stringIcSt11char_traitsIcESaIcEE12_M_constructIPKcEEvT_S8_St20forward_iterator_tagEN6_GuardD2Ev, .-_ZZNSt7__cxx1112basic_stringIcSt11char_traitsIcESaIcEE12_M_constructIPKcEEvT_S8_St20forward_iterator_tagEN6_GuardD2Ev
	.weak	_ZZNSt7__cxx1112basic_stringIcSt11char_traitsIcESaIcEE12_M_constructIPKcEEvT_S8_St20forward_iterator_tagEN6_GuardD1Ev
	.set	_ZZNSt7__cxx1112basic_stringIcSt11char_traitsIcESaIcEE12_M_constructIPKcEEvT_S8_St20forward_iterator_tagEN6_GuardD1Ev,_ZZNSt7__cxx1112basic_stringIcSt11char_traitsIcESaIcEE12_M_constructIPKcEEvT_S8_St20forward_iterator_tagEN6_GuardD2Ev
	.section	.text._ZNSt7__cxx1112basic_stringIcSt11char_traitsIcESaIcEE12_M_constructIPKcEEvT_S8_St20forward_iterator_tag,"axG",@progbits,_ZNSt7__cxx1112basic_stringIcSt11char_traitsIcESaIcEE12_M_constructIPKcEEvT_S8_St20forward_iterator_tag,comdat
	.align 2
	.weak	_ZNSt7__cxx1112basic_stringIcSt11char_traitsIcESaIcEE12_M_constructIPKcEEvT_S8_St20forward_iterator_tag
	.type	_ZNSt7__cxx1112basic_stringIcSt11char_traitsIcESaIcEE12_M_constructIPKcEEvT_S8_St20forward_iterator_tag, @function
_ZNSt7__cxx1112basic_stringIcSt11char_traitsIcESaIcEE12_M_constructIPKcEEvT_S8_St20forward_iterator_tag:
.LFB3402:
	.cfi_startproc
	endbr64
	pushq	%rbp
	.cfi_def_cfa_offset 16
	.cfi_offset 6, -16
	movq	%rsp, %rbp
	.cfi_def_cfa_register 6
	subq	$96, %rsp
	movq	%rdi, -72(%rbp)
	movq	%rsi, -80(%rbp)
	movq	%rdx, -88(%rbp)
	movq	%fs:40, %rax
	movq	%rax, -8(%rbp)
	xorl	%eax, %eax
	movq	-80(%rbp), %rax
	movq	%rax, -48(%rbp)
	movq	-88(%rbp), %rax
	movq	%rax, -40(%rbp)
	nop
	movq	-48(%rbp), %rax
	movq	%rax, -32(%rbp)
	movq	-40(%rbp), %rax
	movq	%rax, -24(%rbp)
	movq	-24(%rbp), %rax
	subq	-32(%rbp), %rax
	nop
	movq	%rax, -56(%rbp)
	movq	-56(%rbp), %rax
	cmpq	$15, %rax
	jbe	.L195
	leaq	-56(%rbp), %rcx
	movq	-72(%rbp), %rax
	movl	$0, %edx
	movq	%rcx, %rsi
	movq	%rax, %rdi
	call	_ZNSt7__cxx1112basic_stringIcSt11char_traitsIcESaIcEE9_M_createERmm@PLT
	movq	%rax, %rdx
	movq	-72(%rbp), %rax
	movq	%rdx, %rsi
	movq	%rax, %rdi
	call	_ZNSt7__cxx1112basic_stringIcSt11char_traitsIcESaIcEE7_M_dataEPc@PLT
	movq	-56(%rbp), %rdx
	movq	-72(%rbp), %rax
	movq	%rdx, %rsi
	movq	%rax, %rdi
	call	_ZNSt7__cxx1112basic_stringIcSt11char_traitsIcESaIcEE11_M_capacityEm@PLT
	jmp	.L196
.L195:
	movq	-72(%rbp), %rax
	movq	%rax, -16(%rbp)
	nop
.L196:
	movq	-72(%rbp), %rdx
	leaq	-48(%rbp), %rax
	movq	%rdx, %rsi
	movq	%rax, %rdi
	call	_ZZNSt7__cxx1112basic_stringIcSt11char_traitsIcESaIcEE12_M_constructIPKcEEvT_S8_St20forward_iterator_tagEN6_GuardC1EPS4_
	movq	-72(%rbp), %rax
	movq	%rax, %rdi
	call	_ZNKSt7__cxx1112basic_stringIcSt11char_traitsIcESaIcEE7_M_dataEv@PLT
	movq	%rax, %rcx
	movq	-88(%rbp), %rdx
	movq	-80(%rbp), %rax
	movq	%rax, %rsi
	movq	%rcx, %rdi
	call	_ZNSt7__cxx1112basic_stringIcSt11char_traitsIcESaIcEE13_S_copy_charsEPcPKcS7_@PLT
	movq	$0, -48(%rbp)
	movq	-56(%rbp), %rdx
	movq	-72(%rbp), %rax
	movq	%rdx, %rsi
	movq	%rax, %rdi
	call	_ZNSt7__cxx1112basic_stringIcSt11char_traitsIcESaIcEE13_M_set_lengthEm@PLT
	leaq	-48(%rbp), %rax
	movq	%rax, %rdi
	call	_ZZNSt7__cxx1112basic_stringIcSt11char_traitsIcESaIcEE12_M_constructIPKcEEvT_S8_St20forward_iterator_tagEN6_GuardD1Ev
	movq	-8(%rbp), %rax
	subq	%fs:40, %rax
	je	.L197
	call	__stack_chk_fail@PLT
.L197:
	leave
	.cfi_def_cfa 7, 8
	ret
	.cfi_endproc
.LFE3402:
	.size	_ZNSt7__cxx1112basic_stringIcSt11char_traitsIcESaIcEE12_M_constructIPKcEEvT_S8_St20forward_iterator_tag, .-_ZNSt7__cxx1112basic_stringIcSt11char_traitsIcESaIcEE12_M_constructIPKcEEvT_S8_St20forward_iterator_tag
	.section	.text._ZNSt15__new_allocatorIjED2Ev,"axG",@progbits,_ZNSt15__new_allocatorIjED5Ev,comdat
	.align 2
	.weak	_ZNSt15__new_allocatorIjED2Ev
	.type	_ZNSt15__new_allocatorIjED2Ev, @function
_ZNSt15__new_allocatorIjED2Ev:
.LFB3516:
	.cfi_startproc
	endbr64
	pushq	%rbp
	.cfi_def_cfa_offset 16
	.cfi_offset 6, -16
	movq	%rsp, %rbp
	.cfi_def_cfa_register 6
	movq	%rdi, -8(%rbp)
	nop
	popq	%rbp
	.cfi_def_cfa 7, 8
	ret
	.cfi_endproc
.LFE3516:
	.size	_ZNSt15__new_allocatorIjED2Ev, .-_ZNSt15__new_allocatorIjED2Ev
	.weak	_ZNSt15__new_allocatorIjED1Ev
	.set	_ZNSt15__new_allocatorIjED1Ev,_ZNSt15__new_allocatorIjED2Ev
	.section	.rodata
	.align 8
.LC35:
	.string	"cannot create std::vector larger than max_size()"
	.section	.text._ZNSt6vectorIjSaIjEE17_S_check_init_lenEmRKS0_,"axG",@progbits,_ZNSt6vectorIjSaIjEE17_S_check_init_lenEmRKS0_,comdat
	.weak	_ZNSt6vectorIjSaIjEE17_S_check_init_lenEmRKS0_
	.type	_ZNSt6vectorIjSaIjEE17_S_check_init_lenEmRKS0_, @function
_ZNSt6vectorIjSaIjEE17_S_check_init_lenEmRKS0_:
.LFB3518:
	.cfi_startproc
	endbr64
	pushq	%rbp
	.cfi_def_cfa_offset 16
	.cfi_offset 6, -16
	movq	%rsp, %rbp
	.cfi_def_cfa_register 6
	pushq	%rbx
	subq	$72, %rsp
	.cfi_offset 3, -24
	movq	%rdi, -72(%rbp)
	movq	%rsi, -80(%rbp)
	movq	%fs:40, %rax
	movq	%rax, -24(%rbp)
	xorl	%eax, %eax
	movq	-80(%rbp), %rax
	movq	%rax, -48(%rbp)
	leaq	-49(%rbp), %rax
	movq	%rax, -40(%rbp)
	movq	-48(%rbp), %rax
	movq	%rax, -32(%rbp)
	nop
	nop
	leaq	-49(%rbp), %rax
	movq	%rax, %rdi
	call	_ZNSt6vectorIjSaIjEE11_S_max_sizeERKS0_
	cmpq	-72(%rbp), %rax
	setb	%bl
	leaq	-49(%rbp), %rax
	movq	%rax, %rdi
	call	_ZNSt15__new_allocatorIjED2Ev
	nop
	testb	%bl, %bl
	je	.L200
	movq	-24(%rbp), %rax
	subq	%fs:40, %rax
	je	.L201
	call	__stack_chk_fail@PLT
.L201:
	leaq	.LC35(%rip), %rax
	movq	%rax, %rdi
	call	_ZSt20__throw_length_errorPKc@PLT
.L200:
	movq	-72(%rbp), %rax
	movq	-24(%rbp), %rdx
	subq	%fs:40, %rdx
	je	.L203
	call	__stack_chk_fail@PLT
.L203:
	movq	-8(%rbp), %rbx
	leave
	.cfi_def_cfa 7, 8
	ret
	.cfi_endproc
.LFE3518:
	.size	_ZNSt6vectorIjSaIjEE17_S_check_init_lenEmRKS0_, .-_ZNSt6vectorIjSaIjEE17_S_check_init_lenEmRKS0_
	.section	.text._ZNSt12_Vector_baseIjSaIjEE12_Vector_implD2Ev,"axG",@progbits,_ZNSt12_Vector_baseIjSaIjEE12_Vector_implD5Ev,comdat
	.align 2
	.weak	_ZNSt12_Vector_baseIjSaIjEE12_Vector_implD2Ev
	.type	_ZNSt12_Vector_baseIjSaIjEE12_Vector_implD2Ev, @function
_ZNSt12_Vector_baseIjSaIjEE12_Vector_implD2Ev:
.LFB3521:
	.cfi_startproc
	endbr64
	pushq	%rbp
	.cfi_def_cfa_offset 16
	.cfi_offset 6, -16
	movq	%rsp, %rbp
	.cfi_def_cfa_register 6
	subq	$32, %rsp
	movq	%rdi, -24(%rbp)
	movq	-24(%rbp), %rax
	movq	%rax, -8(%rbp)
	movq	-8(%rbp), %rax
	movq	%rax, %rdi
	call	_ZNSt15__new_allocatorIjED2Ev
	nop
	nop
	leave
	.cfi_def_cfa 7, 8
	ret
	.cfi_endproc
.LFE3521:
	.size	_ZNSt12_Vector_baseIjSaIjEE12_Vector_implD2Ev, .-_ZNSt12_Vector_baseIjSaIjEE12_Vector_implD2Ev
	.weak	_ZNSt12_Vector_baseIjSaIjEE12_Vector_implD1Ev
	.set	_ZNSt12_Vector_baseIjSaIjEE12_Vector_implD1Ev,_ZNSt12_Vector_baseIjSaIjEE12_Vector_implD2Ev
	.section	.text._ZNSt12_Vector_baseIjSaIjEEC2EmRKS0_,"axG",@progbits,_ZNSt12_Vector_baseIjSaIjEEC5EmRKS0_,comdat
	.align 2
	.weak	_ZNSt12_Vector_baseIjSaIjEEC2EmRKS0_
	.type	_ZNSt12_Vector_baseIjSaIjEEC2EmRKS0_, @function
_ZNSt12_Vector_baseIjSaIjEEC2EmRKS0_:
.LFB3523:
	.cfi_startproc
	.cfi_personality 0x9b,DW.ref.__gxx_personality_v0
	.cfi_lsda 0x1b,.LLSDA3523
	endbr64
	pushq	%rbp
	.cfi_def_cfa_offset 16
	.cfi_offset 6, -16
	movq	%rsp, %rbp
	.cfi_def_cfa_register 6
	pushq	%rbx
	subq	$40, %rsp
	.cfi_offset 3, -24
	movq	%rdi, -24(%rbp)
	movq	%rsi, -32(%rbp)
	movq	%rdx, -40(%rbp)
	movq	-24(%rbp), %rax
	movq	-40(%rbp), %rdx
	movq	%rdx, %rsi
	movq	%rax, %rdi
	call	_ZNSt12_Vector_baseIjSaIjEE12_Vector_implC1ERKS0_
	movq	-32(%rbp), %rdx
	movq	-24(%rbp), %rax
	movq	%rdx, %rsi
	movq	%rax, %rdi
.LEHB23:
	call	_ZNSt12_Vector_baseIjSaIjEE17_M_create_storageEm
.LEHE23:
	jmp	.L208
.L207:
	endbr64
	movq	%rax, %rbx
	movq	-24(%rbp), %rax
	movq	%rax, %rdi
	call	_ZNSt12_Vector_baseIjSaIjEE12_Vector_implD1Ev
	movq	%rbx, %rax
	movq	%rax, %rdi
.LEHB24:
	call	_Unwind_Resume@PLT
.LEHE24:
.L208:
	movq	-8(%rbp), %rbx
	leave
	.cfi_def_cfa 7, 8
	ret
	.cfi_endproc
.LFE3523:
	.section	.gcc_except_table
.LLSDA3523:
	.byte	0xff
	.byte	0xff
	.byte	0x1
	.uleb128 .LLSDACSE3523-.LLSDACSB3523
.LLSDACSB3523:
	.uleb128 .LEHB23-.LFB3523
	.uleb128 .LEHE23-.LEHB23
	.uleb128 .L207-.LFB3523
	.uleb128 0
	.uleb128 .LEHB24-.LFB3523
	.uleb128 .LEHE24-.LEHB24
	.uleb128 0
	.uleb128 0
.LLSDACSE3523:
	.section	.text._ZNSt12_Vector_baseIjSaIjEEC2EmRKS0_,"axG",@progbits,_ZNSt12_Vector_baseIjSaIjEEC5EmRKS0_,comdat
	.size	_ZNSt12_Vector_baseIjSaIjEEC2EmRKS0_, .-_ZNSt12_Vector_baseIjSaIjEEC2EmRKS0_
	.weak	_ZNSt12_Vector_baseIjSaIjEEC1EmRKS0_
	.set	_ZNSt12_Vector_baseIjSaIjEEC1EmRKS0_,_ZNSt12_Vector_baseIjSaIjEEC2EmRKS0_
	.section	.text._ZNSt12_Vector_baseIjSaIjEED2Ev,"axG",@progbits,_ZNSt12_Vector_baseIjSaIjEED5Ev,comdat
	.align 2
	.weak	_ZNSt12_Vector_baseIjSaIjEED2Ev
	.type	_ZNSt12_Vector_baseIjSaIjEED2Ev, @function
_ZNSt12_Vector_baseIjSaIjEED2Ev:
.LFB3526:
	.cfi_startproc
	.cfi_personality 0x9b,DW.ref.__gxx_personality_v0
	.cfi_lsda 0x1b,.LLSDA3526
	endbr64
	pushq	%rbp
	.cfi_def_cfa_offset 16
	.cfi_offset 6, -16
	movq	%rsp, %rbp
	.cfi_def_cfa_register 6
	subq	$16, %rsp
	movq	%rdi, -8(%rbp)
	movq	-8(%rbp), %rax
	movq	16(%rax), %rdx
	movq	-8(%rbp), %rax
	movq	(%rax), %rax
	subq	%rax, %rdx
	movq	%rdx, %rax
	sarq	$2, %rax
	movq	%rax, %rdx
	movq	-8(%rbp), %rax
	movq	(%rax), %rcx
	movq	-8(%rbp), %rax
	movq	%rcx, %rsi
	movq	%rax, %rdi
	call	_ZNSt12_Vector_baseIjSaIjEE13_M_deallocateEPjm
	movq	-8(%rbp), %rax
	movq	%rax, %rdi
	call	_ZNSt12_Vector_baseIjSaIjEE12_Vector_implD1Ev
	nop
	leave
	.cfi_def_cfa 7, 8
	ret
	.cfi_endproc
.LFE3526:
	.section	.gcc_except_table
.LLSDA3526:
	.byte	0xff
	.byte	0xff
	.byte	0x1
	.uleb128 .LLSDACSE3526-.LLSDACSB3526
.LLSDACSB3526:
.LLSDACSE3526:
	.section	.text._ZNSt12_Vector_baseIjSaIjEED2Ev,"axG",@progbits,_ZNSt12_Vector_baseIjSaIjEED5Ev,comdat
	.size	_ZNSt12_Vector_baseIjSaIjEED2Ev, .-_ZNSt12_Vector_baseIjSaIjEED2Ev
	.weak	_ZNSt12_Vector_baseIjSaIjEED1Ev
	.set	_ZNSt12_Vector_baseIjSaIjEED1Ev,_ZNSt12_Vector_baseIjSaIjEED2Ev
	.section	.text._ZNSt6vectorIjSaIjEE21_M_default_initializeEm,"axG",@progbits,_ZNSt6vectorIjSaIjEE21_M_default_initializeEm,comdat
	.align 2
	.weak	_ZNSt6vectorIjSaIjEE21_M_default_initializeEm
	.type	_ZNSt6vectorIjSaIjEE21_M_default_initializeEm, @function
_ZNSt6vectorIjSaIjEE21_M_default_initializeEm:
.LFB3528:
	.cfi_startproc
	endbr64
	pushq	%rbp
	.cfi_def_cfa_offset 16
	.cfi_offset 6, -16
	movq	%rsp, %rbp
	.cfi_def_cfa_register 6
	subq	$16, %rsp
	movq	%rdi, -8(%rbp)
	movq	%rsi, -16(%rbp)
	movq	-8(%rbp), %rax
	movq	%rax, %rdi
	call	_ZNSt12_Vector_baseIjSaIjEE19_M_get_Tp_allocatorEv
	movq	%rax, %rdx
	movq	-8(%rbp), %rax
	movq	(%rax), %rax
	movq	-16(%rbp), %rcx
	movq	%rcx, %rsi
	movq	%rax, %rdi
	call	_ZSt27__uninitialized_default_n_aIPjmjET_S1_T0_RSaIT1_E
	movq	-8(%rbp), %rdx
	movq	%rax, 8(%rdx)
	nop
	leave
	.cfi_def_cfa 7, 8
	ret
	.cfi_endproc
.LFE3528:
	.size	_ZNSt6vectorIjSaIjEE21_M_default_initializeEm, .-_ZNSt6vectorIjSaIjEE21_M_default_initializeEm
	.section	.text._ZNSt12_Vector_baseIjSaIjEE19_M_get_Tp_allocatorEv,"axG",@progbits,_ZNSt12_Vector_baseIjSaIjEE19_M_get_Tp_allocatorEv,comdat
	.align 2
	.weak	_ZNSt12_Vector_baseIjSaIjEE19_M_get_Tp_allocatorEv
	.type	_ZNSt12_Vector_baseIjSaIjEE19_M_get_Tp_allocatorEv, @function
_ZNSt12_Vector_baseIjSaIjEE19_M_get_Tp_allocatorEv:
.LFB3529:
	.cfi_startproc
	endbr64
	pushq	%rbp
	.cfi_def_cfa_offset 16
	.cfi_offset 6, -16
	movq	%rsp, %rbp
	.cfi_def_cfa_register 6
	movq	%rdi, -8(%rbp)
	movq	-8(%rbp), %rax
	popq	%rbp
	.cfi_def_cfa 7, 8
	ret
	.cfi_endproc
.LFE3529:
	.size	_ZNSt12_Vector_baseIjSaIjEE19_M_get_Tp_allocatorEv, .-_ZNSt12_Vector_baseIjSaIjEE19_M_get_Tp_allocatorEv
	.section	.text._ZNSt6chrono8durationIdSt5ratioILl1ELl1EEEC2IlS1_ILl1ELl1000000000EEvEERKNS0_IT_T0_EE,"axG",@progbits,_ZNSt6chrono8durationIdSt5ratioILl1ELl1EEEC5IlS1_ILl1ELl1000000000EEvEERKNS0_IT_T0_EE,comdat
	.align 2
	.weak	_ZNSt6chrono8durationIdSt5ratioILl1ELl1EEEC2IlS1_ILl1ELl1000000000EEvEERKNS0_IT_T0_EE
	.type	_ZNSt6chrono8durationIdSt5ratioILl1ELl1EEEC2IlS1_ILl1ELl1000000000EEvEERKNS0_IT_T0_EE, @function
_ZNSt6chrono8durationIdSt5ratioILl1ELl1EEEC2IlS1_ILl1ELl1000000000EEvEERKNS0_IT_T0_EE:
.LFB3534:
	.cfi_startproc
	endbr64
	pushq	%rbp
	.cfi_def_cfa_offset 16
	.cfi_offset 6, -16
	movq	%rsp, %rbp
	.cfi_def_cfa_register 6
	subq	$32, %rsp
	movq	%rdi, -24(%rbp)
	movq	%rsi, -32(%rbp)
	movq	%fs:40, %rax
	movq	%rax, -8(%rbp)
	xorl	%eax, %eax
	movq	-32(%rbp), %rax
	movq	%rax, %rdi
	call	_ZNSt6chrono13duration_castINS_8durationIdSt5ratioILl1ELl1EEEElS2_ILl1ELl1000000000EEEENSt9enable_ifIXsrNS_13__is_durationIT_EE5valueES8_E4typeERKNS1_IT0_T1_EE
	movsd	%xmm0, -16(%rbp)
	leaq	-16(%rbp), %rax
	movq	%rax, %rdi
	call	_ZNKSt6chrono8durationIdSt5ratioILl1ELl1EEE5countEv
	movq	%xmm0, %rax
	movq	-24(%rbp), %rdx
	movq	%rax, (%rdx)
	nop
	movq	-8(%rbp), %rax
	subq	%fs:40, %rax
	je	.L214
	call	__stack_chk_fail@PLT
.L214:
	leave
	.cfi_def_cfa 7, 8
	ret
	.cfi_endproc
.LFE3534:
	.size	_ZNSt6chrono8durationIdSt5ratioILl1ELl1EEEC2IlS1_ILl1ELl1000000000EEvEERKNS0_IT_T0_EE, .-_ZNSt6chrono8durationIdSt5ratioILl1ELl1EEEC2IlS1_ILl1ELl1000000000EEvEERKNS0_IT_T0_EE
	.weak	_ZNSt6chrono8durationIdSt5ratioILl1ELl1EEEC1IlS1_ILl1ELl1000000000EEvEERKNS0_IT_T0_EE
	.set	_ZNSt6chrono8durationIdSt5ratioILl1ELl1EEEC1IlS1_ILl1ELl1000000000EEvEERKNS0_IT_T0_EE,_ZNSt6chrono8durationIdSt5ratioILl1ELl1EEEC2IlS1_ILl1ELl1000000000EEvEERKNS0_IT_T0_EE
	.section	.text._ZNSt6chronomiIlSt5ratioILl1ELl1000000000EElS2_EENSt11common_typeIJNS_8durationIT_T0_EENS4_IT1_T2_EEEE4typeERKS7_RKSA_,"axG",@progbits,_ZNSt6chronomiIlSt5ratioILl1ELl1000000000EElS2_EENSt11common_typeIJNS_8durationIT_T0_EENS4_IT1_T2_EEEE4typeERKS7_RKSA_,comdat
	.weak	_ZNSt6chronomiIlSt5ratioILl1ELl1000000000EElS2_EENSt11common_typeIJNS_8durationIT_T0_EENS4_IT1_T2_EEEE4typeERKS7_RKSA_
	.type	_ZNSt6chronomiIlSt5ratioILl1ELl1000000000EElS2_EENSt11common_typeIJNS_8durationIT_T0_EENS4_IT1_T2_EEEE4typeERKS7_RKSA_, @function
_ZNSt6chronomiIlSt5ratioILl1ELl1000000000EElS2_EENSt11common_typeIJNS_8durationIT_T0_EENS4_IT1_T2_EEEE4typeERKS7_RKSA_:
.LFB3536:
	.cfi_startproc
	endbr64
	pushq	%rbp
	.cfi_def_cfa_offset 16
	.cfi_offset 6, -16
	movq	%rsp, %rbp
	.cfi_def_cfa_register 6
	pushq	%rbx
	subq	$72, %rsp
	.cfi_offset 3, -24
	movq	%rdi, -72(%rbp)
	movq	%rsi, -80(%rbp)
	movq	%fs:40, %rax
	movq	%rax, -24(%rbp)
	xorl	%eax, %eax
	movq	-72(%rbp), %rax
	movq	(%rax), %rax
	movq	%rax, -56(%rbp)
	leaq	-56(%rbp), %rax
	movq	%rax, %rdi
	call	_ZNKSt6chrono8durationIlSt5ratioILl1ELl1000000000EEE5countEv
	movq	%rax, %rbx
	movq	-80(%rbp), %rax
	movq	(%rax), %rax
	movq	%rax, -48(%rbp)
	leaq	-48(%rbp), %rax
	movq	%rax, %rdi
	call	_ZNKSt6chrono8durationIlSt5ratioILl1ELl1000000000EEE5countEv
	subq	%rax, %rbx
	movq	%rbx, %rdx
	movq	%rdx, -40(%rbp)
	leaq	-40(%rbp), %rdx
	leaq	-32(%rbp), %rax
	movq	%rdx, %rsi
	movq	%rax, %rdi
	call	_ZNSt6chrono8durationIlSt5ratioILl1ELl1000000000EEEC1IlvEERKT_
	movq	-32(%rbp), %rax
	movq	-24(%rbp), %rdx
	subq	%fs:40, %rdx
	je	.L217
	call	__stack_chk_fail@PLT
.L217:
	movq	-8(%rbp), %rbx
	leave
	.cfi_def_cfa 7, 8
	ret
	.cfi_endproc
.LFE3536:
	.size	_ZNSt6chronomiIlSt5ratioILl1ELl1000000000EElS2_EENSt11common_typeIJNS_8durationIT_T0_EENS4_IT1_T2_EEEE4typeERKS7_RKSA_, .-_ZNSt6chronomiIlSt5ratioILl1ELl1000000000EElS2_EENSt11common_typeIJNS_8durationIT_T0_EENS4_IT1_T2_EEEE4typeERKS7_RKSA_
	.section	.text._ZNKSt6chrono8durationIdSt5ratioILl1ELl1EEE5countEv,"axG",@progbits,_ZNKSt6chrono8durationIdSt5ratioILl1ELl1EEE5countEv,comdat
	.align 2
	.weak	_ZNKSt6chrono8durationIdSt5ratioILl1ELl1EEE5countEv
	.type	_ZNKSt6chrono8durationIdSt5ratioILl1ELl1EEE5countEv, @function
_ZNKSt6chrono8durationIdSt5ratioILl1ELl1EEE5countEv:
.LFB3537:
	.cfi_startproc
	endbr64
	pushq	%rbp
	.cfi_def_cfa_offset 16
	.cfi_offset 6, -16
	movq	%rsp, %rbp
	.cfi_def_cfa_register 6
	movq	%rdi, -8(%rbp)
	movq	-8(%rbp), %rax
	movsd	(%rax), %xmm0
	popq	%rbp
	.cfi_def_cfa 7, 8
	ret
	.cfi_endproc
.LFE3537:
	.size	_ZNKSt6chrono8durationIdSt5ratioILl1ELl1EEE5countEv, .-_ZNKSt6chrono8durationIdSt5ratioILl1ELl1EEE5countEv
	.section	.text._ZNSt6vectorIjSaIjEE11_S_max_sizeERKS0_,"axG",@progbits,_ZNSt6vectorIjSaIjEE11_S_max_sizeERKS0_,comdat
	.weak	_ZNSt6vectorIjSaIjEE11_S_max_sizeERKS0_
	.type	_ZNSt6vectorIjSaIjEE11_S_max_sizeERKS0_, @function
_ZNSt6vectorIjSaIjEE11_S_max_sizeERKS0_:
.LFB3617:
	.cfi_startproc
	endbr64
	pushq	%rbp
	.cfi_def_cfa_offset 16
	.cfi_offset 6, -16
	movq	%rsp, %rbp
	.cfi_def_cfa_register 6
	subq	$64, %rsp
	movq	%rdi, -56(%rbp)
	movq	%fs:40, %rax
	movq	%rax, -8(%rbp)
	xorl	%eax, %eax
	movabsq	$2305843009213693951, %rax
	movq	%rax, -48(%rbp)
	movq	-56(%rbp), %rax
	movq	%rax, -32(%rbp)
	movq	-32(%rbp), %rax
	movq	%rax, -24(%rbp)
	movq	-24(%rbp), %rax
	movq	%rax, -16(%rbp)
	movabsq	$2305843009213693951, %rax
	nop
	nop
	movq	%rax, -40(%rbp)
	leaq	-40(%rbp), %rdx
	leaq	-48(%rbp), %rax
	movq	%rdx, %rsi
	movq	%rax, %rdi
	call	_ZSt3minImERKT_S2_S2_
	movq	(%rax), %rax
	movq	-8(%rbp), %rdx
	subq	%fs:40, %rdx
	je	.L225
	call	__stack_chk_fail@PLT
.L225:
	leave
	.cfi_def_cfa 7, 8
	ret
	.cfi_endproc
.LFE3617:
	.size	_ZNSt6vectorIjSaIjEE11_S_max_sizeERKS0_, .-_ZNSt6vectorIjSaIjEE11_S_max_sizeERKS0_
	.section	.text._ZNSt12_Vector_baseIjSaIjEE12_Vector_implC2ERKS0_,"axG",@progbits,_ZNSt12_Vector_baseIjSaIjEE12_Vector_implC5ERKS0_,comdat
	.align 2
	.weak	_ZNSt12_Vector_baseIjSaIjEE12_Vector_implC2ERKS0_
	.type	_ZNSt12_Vector_baseIjSaIjEE12_Vector_implC2ERKS0_, @function
_ZNSt12_Vector_baseIjSaIjEE12_Vector_implC2ERKS0_:
.LFB3622:
	.cfi_startproc
	endbr64
	pushq	%rbp
	.cfi_def_cfa_offset 16
	.cfi_offset 6, -16
	movq	%rsp, %rbp
	.cfi_def_cfa_register 6
	subq	$48, %rsp
	movq	%rdi, -40(%rbp)
	movq	%rsi, -48(%rbp)
	movq	-40(%rbp), %rax
	movq	%rax, -32(%rbp)
	movq	-48(%rbp), %rax
	movq	%rax, -24(%rbp)
	movq	-32(%rbp), %rax
	movq	%rax, -16(%rbp)
	movq	-24(%rbp), %rax
	movq	%rax, -8(%rbp)
	nop
	nop
	movq	-40(%rbp), %rax
	movq	%rax, %rdi
	call	_ZNSt12_Vector_baseIjSaIjEE17_Vector_impl_dataC2Ev
	nop
	leave
	.cfi_def_cfa 7, 8
	ret
	.cfi_endproc
.LFE3622:
	.size	_ZNSt12_Vector_baseIjSaIjEE12_Vector_implC2ERKS0_, .-_ZNSt12_Vector_baseIjSaIjEE12_Vector_implC2ERKS0_
	.weak	_ZNSt12_Vector_baseIjSaIjEE12_Vector_implC1ERKS0_
	.set	_ZNSt12_Vector_baseIjSaIjEE12_Vector_implC1ERKS0_,_ZNSt12_Vector_baseIjSaIjEE12_Vector_implC2ERKS0_
	.section	.text._ZNSt12_Vector_baseIjSaIjEE17_M_create_storageEm,"axG",@progbits,_ZNSt12_Vector_baseIjSaIjEE17_M_create_storageEm,comdat
	.align 2
	.weak	_ZNSt12_Vector_baseIjSaIjEE17_M_create_storageEm
	.type	_ZNSt12_Vector_baseIjSaIjEE17_M_create_storageEm, @function
_ZNSt12_Vector_baseIjSaIjEE17_M_create_storageEm:
.LFB3624:
	.cfi_startproc
	endbr64
	pushq	%rbp
	.cfi_def_cfa_offset 16
	.cfi_offset 6, -16
	movq	%rsp, %rbp
	.cfi_def_cfa_register 6
	subq	$16, %rsp
	movq	%rdi, -8(%rbp)
	movq	%rsi, -16(%rbp)
	movq	-16(%rbp), %rdx
	movq	-8(%rbp), %rax
	movq	%rdx, %rsi
	movq	%rax, %rdi
	call	_ZNSt12_Vector_baseIjSaIjEE11_M_allocateEm
	movq	-8(%rbp), %rdx
	movq	%rax, (%rdx)
	movq	-8(%rbp), %rax
	movq	(%rax), %rdx
	movq	-8(%rbp), %rax
	movq	%rdx, 8(%rax)
	movq	-8(%rbp), %rax
	movq	(%rax), %rax
	movq	-16(%rbp), %rdx
	salq	$2, %rdx
	addq	%rax, %rdx
	movq	-8(%rbp), %rax
	movq	%rdx, 16(%rax)
	nop
	leave
	.cfi_def_cfa 7, 8
	ret
	.cfi_endproc
.LFE3624:
	.size	_ZNSt12_Vector_baseIjSaIjEE17_M_create_storageEm, .-_ZNSt12_Vector_baseIjSaIjEE17_M_create_storageEm
	.section	.text._ZNSt12_Vector_baseIjSaIjEE13_M_deallocateEPjm,"axG",@progbits,_ZNSt12_Vector_baseIjSaIjEE13_M_deallocateEPjm,comdat
	.align 2
	.weak	_ZNSt12_Vector_baseIjSaIjEE13_M_deallocateEPjm
	.type	_ZNSt12_Vector_baseIjSaIjEE13_M_deallocateEPjm, @function
_ZNSt12_Vector_baseIjSaIjEE13_M_deallocateEPjm:
.LFB3625:
	.cfi_startproc
	endbr64
	pushq	%rbp
	.cfi_def_cfa_offset 16
	.cfi_offset 6, -16
	movq	%rsp, %rbp
	.cfi_def_cfa_register 6
	subq	$64, %rsp
	movq	%rdi, -40(%rbp)
	movq	%rsi, -48(%rbp)
	movq	%rdx, -56(%rbp)
	cmpq	$0, -48(%rbp)
	je	.L230
	movq	-40(%rbp), %rax
	movq	%rax, -24(%rbp)
	movq	-48(%rbp), %rax
	movq	%rax, -16(%rbp)
	movq	-56(%rbp), %rax
	movq	%rax, -8(%rbp)
	movq	-8(%rbp), %rdx
	movq	-16(%rbp), %rcx
	movq	-24(%rbp), %rax
	movq	%rcx, %rsi
	movq	%rax, %rdi
	call	_ZNSt15__new_allocatorIjE10deallocateEPjm
	nop
.L230:
	nop
	leave
	.cfi_def_cfa 7, 8
	ret
	.cfi_endproc
.LFE3625:
	.size	_ZNSt12_Vector_baseIjSaIjEE13_M_deallocateEPjm, .-_ZNSt12_Vector_baseIjSaIjEE13_M_deallocateEPjm
	.section	.text._ZSt27__uninitialized_default_n_aIPjmjET_S1_T0_RSaIT1_E,"axG",@progbits,_ZSt27__uninitialized_default_n_aIPjmjET_S1_T0_RSaIT1_E,comdat
	.weak	_ZSt27__uninitialized_default_n_aIPjmjET_S1_T0_RSaIT1_E
	.type	_ZSt27__uninitialized_default_n_aIPjmjET_S1_T0_RSaIT1_E, @function
_ZSt27__uninitialized_default_n_aIPjmjET_S1_T0_RSaIT1_E:
.LFB3626:
	.cfi_startproc
	endbr64
	pushq	%rbp
	.cfi_def_cfa_offset 16
	.cfi_offset 6, -16
	movq	%rsp, %rbp
	.cfi_def_cfa_register 6
	subq	$32, %rsp
	movq	%rdi, -8(%rbp)
	movq	%rsi, -16(%rbp)
	movq	%rdx, -24(%rbp)
	movq	-16(%rbp), %rdx
	movq	-8(%rbp), %rax
	movq	%rdx, %rsi
	movq	%rax, %rdi
	call	_ZSt25__uninitialized_default_nIPjmET_S1_T0_
	leave
	.cfi_def_cfa 7, 8
	ret
	.cfi_endproc
.LFE3626:
	.size	_ZSt27__uninitialized_default_n_aIPjmjET_S1_T0_RSaIT1_E, .-_ZSt27__uninitialized_default_n_aIPjmjET_S1_T0_RSaIT1_E
	.section	.text._ZSt8_DestroyIPjEvT_S1_,"axG",@progbits,_ZSt8_DestroyIPjEvT_S1_,comdat
	.weak	_ZSt8_DestroyIPjEvT_S1_
	.type	_ZSt8_DestroyIPjEvT_S1_, @function
_ZSt8_DestroyIPjEvT_S1_:
.LFB3627:
	.cfi_startproc
	endbr64
	pushq	%rbp
	.cfi_def_cfa_offset 16
	.cfi_offset 6, -16
	movq	%rsp, %rbp
	.cfi_def_cfa_register 6
	subq	$16, %rsp
	movq	%rdi, -8(%rbp)
	movq	%rsi, -16(%rbp)
	movq	-16(%rbp), %rdx
	movq	-8(%rbp), %rax
	movq	%rdx, %rsi
	movq	%rax, %rdi
	call	_ZNSt12_Destroy_auxILb1EE9__destroyIPjEEvT_S3_
	nop
	leave
	.cfi_def_cfa 7, 8
	ret
	.cfi_endproc
.LFE3627:
	.size	_ZSt8_DestroyIPjEvT_S1_, .-_ZSt8_DestroyIPjEvT_S1_
	.section	.text._ZNSt6chrono13duration_castINS_8durationIdSt5ratioILl1ELl1EEEElS2_ILl1ELl1000000000EEEENSt9enable_ifIXsrNS_13__is_durationIT_EE5valueES8_E4typeERKNS1_IT0_T1_EE,"axG",@progbits,_ZNSt6chrono13duration_castINS_8durationIdSt5ratioILl1ELl1EEEElS2_ILl1ELl1000000000EEEENSt9enable_ifIXsrNS_13__is_durationIT_EE5valueES8_E4typeERKNS1_IT0_T1_EE,comdat
	.weak	_ZNSt6chrono13duration_castINS_8durationIdSt5ratioILl1ELl1EEEElS2_ILl1ELl1000000000EEEENSt9enable_ifIXsrNS_13__is_durationIT_EE5valueES8_E4typeERKNS1_IT0_T1_EE
	.type	_ZNSt6chrono13duration_castINS_8durationIdSt5ratioILl1ELl1EEEElS2_ILl1ELl1000000000EEEENSt9enable_ifIXsrNS_13__is_durationIT_EE5valueES8_E4typeERKNS1_IT0_T1_EE, @function
_ZNSt6chrono13duration_castINS_8durationIdSt5ratioILl1ELl1EEEElS2_ILl1ELl1000000000EEEENSt9enable_ifIXsrNS_13__is_durationIT_EE5valueES8_E4typeERKNS1_IT0_T1_EE:
.LFB3629:
	.cfi_startproc
	endbr64
	pushq	%rbp
	.cfi_def_cfa_offset 16
	.cfi_offset 6, -16
	movq	%rsp, %rbp
	.cfi_def_cfa_register 6
	subq	$16, %rsp
	movq	%rdi, -8(%rbp)
	movq	-8(%rbp), %rax
	movq	%rax, %rdi
	call	_ZNSt6chrono20__duration_cast_implINS_8durationIdSt5ratioILl1ELl1EEEES2_ILl1ELl1000000000EEdLb1ELb0EE6__castIlS5_EES4_RKNS1_IT_T0_EE
	leave
	.cfi_def_cfa 7, 8
	ret
	.cfi_endproc
.LFE3629:
	.size	_ZNSt6chrono13duration_castINS_8durationIdSt5ratioILl1ELl1EEEElS2_ILl1ELl1000000000EEEENSt9enable_ifIXsrNS_13__is_durationIT_EE5valueES8_E4typeERKNS1_IT0_T1_EE, .-_ZNSt6chrono13duration_castINS_8durationIdSt5ratioILl1ELl1EEEElS2_ILl1ELl1000000000EEEENSt9enable_ifIXsrNS_13__is_durationIT_EE5valueES8_E4typeERKNS1_IT0_T1_EE
	.section	.text._ZSt3minImERKT_S2_S2_,"axG",@progbits,_ZSt3minImERKT_S2_S2_,comdat
	.weak	_ZSt3minImERKT_S2_S2_
	.type	_ZSt3minImERKT_S2_S2_, @function
_ZSt3minImERKT_S2_S2_:
.LFB3684:
	.cfi_startproc
	endbr64
	pushq	%rbp
	.cfi_def_cfa_offset 16
	.cfi_offset 6, -16
	movq	%rsp, %rbp
	.cfi_def_cfa_register 6
	movq	%rdi, -8(%rbp)
	movq	%rsi, -16(%rbp)
	movq	-16(%rbp), %rax
	movq	(%rax), %rdx
	movq	-8(%rbp), %rax
	movq	(%rax), %rax
	cmpq	%rax, %rdx
	jnb	.L237
	movq	-16(%rbp), %rax
	jmp	.L238
.L237:
	movq	-8(%rbp), %rax
.L238:
	popq	%rbp
	.cfi_def_cfa 7, 8
	ret
	.cfi_endproc
.LFE3684:
	.size	_ZSt3minImERKT_S2_S2_, .-_ZSt3minImERKT_S2_S2_
	.section	.text._ZNSt12_Vector_baseIjSaIjEE17_Vector_impl_dataC2Ev,"axG",@progbits,_ZNSt12_Vector_baseIjSaIjEE17_Vector_impl_dataC5Ev,comdat
	.align 2
	.weak	_ZNSt12_Vector_baseIjSaIjEE17_Vector_impl_dataC2Ev
	.type	_ZNSt12_Vector_baseIjSaIjEE17_Vector_impl_dataC2Ev, @function
_ZNSt12_Vector_baseIjSaIjEE17_Vector_impl_dataC2Ev:
.LFB3689:
	.cfi_startproc
	endbr64
	pushq	%rbp
	.cfi_def_cfa_offset 16
	.cfi_offset 6, -16
	movq	%rsp, %rbp
	.cfi_def_cfa_register 6
	movq	%rdi, -8(%rbp)
	movq	-8(%rbp), %rax
	movq	$0, (%rax)
	movq	-8(%rbp), %rax
	movq	$0, 8(%rax)
	movq	-8(%rbp), %rax
	movq	$0, 16(%rax)
	nop
	popq	%rbp
	.cfi_def_cfa 7, 8
	ret
	.cfi_endproc
.LFE3689:
	.size	_ZNSt12_Vector_baseIjSaIjEE17_Vector_impl_dataC2Ev, .-_ZNSt12_Vector_baseIjSaIjEE17_Vector_impl_dataC2Ev
	.weak	_ZNSt12_Vector_baseIjSaIjEE17_Vector_impl_dataC1Ev
	.set	_ZNSt12_Vector_baseIjSaIjEE17_Vector_impl_dataC1Ev,_ZNSt12_Vector_baseIjSaIjEE17_Vector_impl_dataC2Ev
	.section	.text._ZNSt12_Vector_baseIjSaIjEE11_M_allocateEm,"axG",@progbits,_ZNSt12_Vector_baseIjSaIjEE11_M_allocateEm,comdat
	.align 2
	.weak	_ZNSt12_Vector_baseIjSaIjEE11_M_allocateEm
	.type	_ZNSt12_Vector_baseIjSaIjEE11_M_allocateEm, @function
_ZNSt12_Vector_baseIjSaIjEE11_M_allocateEm:
.LFB3691:
	.cfi_startproc
	endbr64
	pushq	%rbp
	.cfi_def_cfa_offset 16
	.cfi_offset 6, -16
	movq	%rsp, %rbp
	.cfi_def_cfa_register 6
	subq	$32, %rsp
	movq	%rdi, -24(%rbp)
	movq	%rsi, -32(%rbp)
	cmpq	$0, -32(%rbp)
	je	.L241
	movq	-24(%rbp), %rax
	movq	%rax, -16(%rbp)
	movq	-32(%rbp), %rax
	movq	%rax, -8(%rbp)
	movq	-8(%rbp), %rcx
	movq	-16(%rbp), %rax
	movl	$0, %edx
	movq	%rcx, %rsi
	movq	%rax, %rdi
	call	_ZNSt15__new_allocatorIjE8allocateEmPKv
	nop
	jmp	.L243
.L241:
	movl	$0, %eax
.L243:
	leave
	.cfi_def_cfa 7, 8
	ret
	.cfi_endproc
.LFE3691:
	.size	_ZNSt12_Vector_baseIjSaIjEE11_M_allocateEm, .-_ZNSt12_Vector_baseIjSaIjEE11_M_allocateEm
	.section	.text._ZSt25__uninitialized_default_nIPjmET_S1_T0_,"axG",@progbits,_ZSt25__uninitialized_default_nIPjmET_S1_T0_,comdat
	.weak	_ZSt25__uninitialized_default_nIPjmET_S1_T0_
	.type	_ZSt25__uninitialized_default_nIPjmET_S1_T0_, @function
_ZSt25__uninitialized_default_nIPjmET_S1_T0_:
.LFB3693:
	.cfi_startproc
	endbr64
	pushq	%rbp
	.cfi_def_cfa_offset 16
	.cfi_offset 6, -16
	movq	%rsp, %rbp
	.cfi_def_cfa_register 6
	subq	$32, %rsp
	movq	%rdi, -24(%rbp)
	movq	%rsi, -32(%rbp)
	movb	$1, -1(%rbp)
	movq	-32(%rbp), %rdx
	movq	-24(%rbp), %rax
	movq	%rdx, %rsi
	movq	%rax, %rdi
	call	_ZNSt27__uninitialized_default_n_1ILb1EE18__uninit_default_nIPjmEET_S3_T0_
	leave
	.cfi_def_cfa 7, 8
	ret
	.cfi_endproc
.LFE3693:
	.size	_ZSt25__uninitialized_default_nIPjmET_S1_T0_, .-_ZSt25__uninitialized_default_nIPjmET_S1_T0_
	.section	.text._ZNSt12_Destroy_auxILb1EE9__destroyIPjEEvT_S3_,"axG",@progbits,_ZNSt12_Destroy_auxILb1EE9__destroyIPjEEvT_S3_,comdat
	.weak	_ZNSt12_Destroy_auxILb1EE9__destroyIPjEEvT_S3_
	.type	_ZNSt12_Destroy_auxILb1EE9__destroyIPjEEvT_S3_, @function
_ZNSt12_Destroy_auxILb1EE9__destroyIPjEEvT_S3_:
.LFB3694:
	.cfi_startproc
	endbr64
	pushq	%rbp
	.cfi_def_cfa_offset 16
	.cfi_offset 6, -16
	movq	%rsp, %rbp
	.cfi_def_cfa_register 6
	movq	%rdi, -8(%rbp)
	movq	%rsi, -16(%rbp)
	nop
	popq	%rbp
	.cfi_def_cfa 7, 8
	ret
	.cfi_endproc
.LFE3694:
	.size	_ZNSt12_Destroy_auxILb1EE9__destroyIPjEEvT_S3_, .-_ZNSt12_Destroy_auxILb1EE9__destroyIPjEEvT_S3_
	.section	.text._ZNSt6chrono20__duration_cast_implINS_8durationIdSt5ratioILl1ELl1EEEES2_ILl1ELl1000000000EEdLb1ELb0EE6__castIlS5_EES4_RKNS1_IT_T0_EE,"axG",@progbits,_ZNSt6chrono20__duration_cast_implINS_8durationIdSt5ratioILl1ELl1EEEES2_ILl1ELl1000000000EEdLb1ELb0EE6__castIlS5_EES4_RKNS1_IT_T0_EE,comdat
	.weak	_ZNSt6chrono20__duration_cast_implINS_8durationIdSt5ratioILl1ELl1EEEES2_ILl1ELl1000000000EEdLb1ELb0EE6__castIlS5_EES4_RKNS1_IT_T0_EE
	.type	_ZNSt6chrono20__duration_cast_implINS_8durationIdSt5ratioILl1ELl1EEEES2_ILl1ELl1000000000EEdLb1ELb0EE6__castIlS5_EES4_RKNS1_IT_T0_EE, @function
_ZNSt6chrono20__duration_cast_implINS_8durationIdSt5ratioILl1ELl1EEEES2_ILl1ELl1000000000EEdLb1ELb0EE6__castIlS5_EES4_RKNS1_IT_T0_EE:
.LFB3695:
	.cfi_startproc
	endbr64
	pushq	%rbp
	.cfi_def_cfa_offset 16
	.cfi_offset 6, -16
	movq	%rsp, %rbp
	.cfi_def_cfa_register 6
	subq	$48, %rsp
	movq	%rdi, -40(%rbp)
	movq	%fs:40, %rax
	movq	%rax, -8(%rbp)
	xorl	%eax, %eax
	movq	-40(%rbp), %rax
	movq	%rax, %rdi
	call	_ZNKSt6chrono8durationIlSt5ratioILl1ELl1000000000EEE5countEv
	pxor	%xmm0, %xmm0
	cvtsi2sdq	%rax, %xmm0
	movsd	.LC36(%rip), %xmm1
	divsd	%xmm1, %xmm0
	movsd	%xmm0, -24(%rbp)
	leaq	-24(%rbp), %rdx
	leaq	-16(%rbp), %rax
	movq	%rdx, %rsi
	movq	%rax, %rdi
	call	_ZNSt6chrono8durationIdSt5ratioILl1ELl1EEEC1IdvEERKT_
	movsd	-16(%rbp), %xmm0
	movq	-8(%rbp), %rax
	subq	%fs:40, %rax
	je	.L250
	call	__stack_chk_fail@PLT
.L250:
	leave
	.cfi_def_cfa 7, 8
	ret
	.cfi_endproc
.LFE3695:
	.size	_ZNSt6chrono20__duration_cast_implINS_8durationIdSt5ratioILl1ELl1EEEES2_ILl1ELl1000000000EEdLb1ELb0EE6__castIlS5_EES4_RKNS1_IT_T0_EE, .-_ZNSt6chrono20__duration_cast_implINS_8durationIdSt5ratioILl1ELl1EEEES2_ILl1ELl1000000000EEdLb1ELb0EE6__castIlS5_EES4_RKNS1_IT_T0_EE
	.section	.text._ZNSt15__new_allocatorIjE10deallocateEPjm,"axG",@progbits,_ZNSt15__new_allocatorIjE10deallocateEPjm,comdat
	.align 2
	.weak	_ZNSt15__new_allocatorIjE10deallocateEPjm
	.type	_ZNSt15__new_allocatorIjE10deallocateEPjm, @function
_ZNSt15__new_allocatorIjE10deallocateEPjm:
.LFB3718:
	.cfi_startproc
	endbr64
	pushq	%rbp
	.cfi_def_cfa_offset 16
	.cfi_offset 6, -16
	movq	%rsp, %rbp
	.cfi_def_cfa_register 6
	subq	$32, %rsp
	movq	%rdi, -8(%rbp)
	movq	%rsi, -16(%rbp)
	movq	%rdx, -24(%rbp)
	movq	-24(%rbp), %rax
	leaq	0(,%rax,4), %rdx
	movq	-16(%rbp), %rax
	movq	%rdx, %rsi
	movq	%rax, %rdi
	call	_ZdlPvm@PLT
	leave
	.cfi_def_cfa 7, 8
	ret
	.cfi_endproc
.LFE3718:
	.size	_ZNSt15__new_allocatorIjE10deallocateEPjm, .-_ZNSt15__new_allocatorIjE10deallocateEPjm
	.section	.text._ZNSt27__uninitialized_default_n_1ILb1EE18__uninit_default_nIPjmEET_S3_T0_,"axG",@progbits,_ZNSt27__uninitialized_default_n_1ILb1EE18__uninit_default_nIPjmEET_S3_T0_,comdat
	.weak	_ZNSt27__uninitialized_default_n_1ILb1EE18__uninit_default_nIPjmEET_S3_T0_
	.type	_ZNSt27__uninitialized_default_n_1ILb1EE18__uninit_default_nIPjmEET_S3_T0_, @function
_ZNSt27__uninitialized_default_n_1ILb1EE18__uninit_default_nIPjmEET_S3_T0_:
.LFB3719:
	.cfi_startproc
	endbr64
	pushq	%rbp
	.cfi_def_cfa_offset 16
	.cfi_offset 6, -16
	movq	%rsp, %rbp
	.cfi_def_cfa_register 6
	subq	$32, %rsp
	movq	%rdi, -24(%rbp)
	movq	%rsi, -32(%rbp)
	cmpq	$0, -32(%rbp)
	je	.L254
	movq	-24(%rbp), %rax
	movq	%rax, %rdi
	call	_ZSt11__addressofIjEPT_RS0_
	movq	%rax, -8(%rbp)
	movq	-8(%rbp), %rax
	movq	%rax, %rdi
	call	_ZSt10_ConstructIjJEEvPT_DpOT0_
	addq	$4, -24(%rbp)
	movq	-32(%rbp), %rax
	leaq	-1(%rax), %rcx
	movq	-8(%rbp), %rdx
	movq	-24(%rbp), %rax
	movq	%rcx, %rsi
	movq	%rax, %rdi
	call	_ZSt6fill_nIPjmjET_S1_T0_RKT1_
	movq	%rax, -24(%rbp)
.L254:
	movq	-24(%rbp), %rax
	leave
	.cfi_def_cfa 7, 8
	ret
	.cfi_endproc
.LFE3719:
	.size	_ZNSt27__uninitialized_default_n_1ILb1EE18__uninit_default_nIPjmEET_S3_T0_, .-_ZNSt27__uninitialized_default_n_1ILb1EE18__uninit_default_nIPjmEET_S3_T0_
	.section	.text._ZNSt6chrono8durationIdSt5ratioILl1ELl1EEEC2IdvEERKT_,"axG",@progbits,_ZNSt6chrono8durationIdSt5ratioILl1ELl1EEEC5IdvEERKT_,comdat
	.align 2
	.weak	_ZNSt6chrono8durationIdSt5ratioILl1ELl1EEEC2IdvEERKT_
	.type	_ZNSt6chrono8durationIdSt5ratioILl1ELl1EEEC2IdvEERKT_, @function
_ZNSt6chrono8durationIdSt5ratioILl1ELl1EEEC2IdvEERKT_:
.LFB3721:
	.cfi_startproc
	endbr64
	pushq	%rbp
	.cfi_def_cfa_offset 16
	.cfi_offset 6, -16
	movq	%rsp, %rbp
	.cfi_def_cfa_register 6
	movq	%rdi, -8(%rbp)
	movq	%rsi, -16(%rbp)
	movq	-16(%rbp), %rax
	movsd	(%rax), %xmm0
	movq	-8(%rbp), %rax
	movsd	%xmm0, (%rax)
	nop
	popq	%rbp
	.cfi_def_cfa 7, 8
	ret
	.cfi_endproc
.LFE3721:
	.size	_ZNSt6chrono8durationIdSt5ratioILl1ELl1EEEC2IdvEERKT_, .-_ZNSt6chrono8durationIdSt5ratioILl1ELl1EEEC2IdvEERKT_
	.weak	_ZNSt6chrono8durationIdSt5ratioILl1ELl1EEEC1IdvEERKT_
	.set	_ZNSt6chrono8durationIdSt5ratioILl1ELl1EEEC1IdvEERKT_,_ZNSt6chrono8durationIdSt5ratioILl1ELl1EEEC2IdvEERKT_
	.section	.text._ZNSt15__new_allocatorIjE8allocateEmPKv,"axG",@progbits,_ZNSt15__new_allocatorIjE8allocateEmPKv,comdat
	.align 2
	.weak	_ZNSt15__new_allocatorIjE8allocateEmPKv
	.type	_ZNSt15__new_allocatorIjE8allocateEmPKv, @function
_ZNSt15__new_allocatorIjE8allocateEmPKv:
.LFB3733:
	.cfi_startproc
	endbr64
	pushq	%rbp
	.cfi_def_cfa_offset 16
	.cfi_offset 6, -16
	movq	%rsp, %rbp
	.cfi_def_cfa_register 6
	subq	$48, %rsp
	movq	%rdi, -24(%rbp)
	movq	%rsi, -32(%rbp)
	movq	%rdx, -40(%rbp)
	movq	-24(%rbp), %rax
	movq	%rax, -8(%rbp)
	movabsq	$2305843009213693951, %rax
	cmpq	-32(%rbp), %rax
	setb	%al
	movzbl	%al, %eax
	testq	%rax, %rax
	setne	%al
	testb	%al, %al
	je	.L259
	movabsq	$4611686018427387903, %rax
	cmpq	-32(%rbp), %rax
	jnb	.L260
	call	_ZSt28__throw_bad_array_new_lengthv@PLT
.L260:
	call	_ZSt17__throw_bad_allocv@PLT
.L259:
	movq	-32(%rbp), %rax
	salq	$2, %rax
	movq	%rax, %rdi
	call	_Znwm@PLT
	nop
	leave
	.cfi_def_cfa 7, 8
	ret
	.cfi_endproc
.LFE3733:
	.size	_ZNSt15__new_allocatorIjE8allocateEmPKv, .-_ZNSt15__new_allocatorIjE8allocateEmPKv
	.section	.text._ZSt11__addressofIjEPT_RS0_,"axG",@progbits,_ZSt11__addressofIjEPT_RS0_,comdat
	.weak	_ZSt11__addressofIjEPT_RS0_
	.type	_ZSt11__addressofIjEPT_RS0_, @function
_ZSt11__addressofIjEPT_RS0_:
.LFB3734:
	.cfi_startproc
	endbr64
	pushq	%rbp
	.cfi_def_cfa_offset 16
	.cfi_offset 6, -16
	movq	%rsp, %rbp
	.cfi_def_cfa_register 6
	movq	%rdi, -8(%rbp)
	movq	-8(%rbp), %rax
	popq	%rbp
	.cfi_def_cfa 7, 8
	ret
	.cfi_endproc
.LFE3734:
	.size	_ZSt11__addressofIjEPT_RS0_, .-_ZSt11__addressofIjEPT_RS0_
	.section	.text._ZSt10_ConstructIjJEEvPT_DpOT0_,"axG",@progbits,_ZSt10_ConstructIjJEEvPT_DpOT0_,comdat
	.weak	_ZSt10_ConstructIjJEEvPT_DpOT0_
	.type	_ZSt10_ConstructIjJEEvPT_DpOT0_, @function
_ZSt10_ConstructIjJEEvPT_DpOT0_:
.LFB3735:
	.cfi_startproc
	endbr64
	pushq	%rbp
	.cfi_def_cfa_offset 16
	.cfi_offset 6, -16
	movq	%rsp, %rbp
	.cfi_def_cfa_register 6
	subq	$16, %rsp
	movq	%rdi, -8(%rbp)
	movq	-8(%rbp), %rax
	movq	%rax, %rsi
	movl	$4, %edi
	call	_ZnwmPv
	movl	$0, (%rax)
	nop
	leave
	.cfi_def_cfa 7, 8
	ret
	.cfi_endproc
.LFE3735:
	.size	_ZSt10_ConstructIjJEEvPT_DpOT0_, .-_ZSt10_ConstructIjJEEvPT_DpOT0_
	.section	.text._ZSt6fill_nIPjmjET_S1_T0_RKT1_,"axG",@progbits,_ZSt6fill_nIPjmjET_S1_T0_RKT1_,comdat
	.weak	_ZSt6fill_nIPjmjET_S1_T0_RKT1_
	.type	_ZSt6fill_nIPjmjET_S1_T0_RKT1_, @function
_ZSt6fill_nIPjmjET_S1_T0_RKT1_:
.LFB3736:
	.cfi_startproc
	endbr64
	pushq	%rbp
	.cfi_def_cfa_offset 16
	.cfi_offset 6, -16
	movq	%rsp, %rbp
	.cfi_def_cfa_register 6
	subq	$32, %rsp
	movq	%rdi, -8(%rbp)
	movq	%rsi, -16(%rbp)
	movq	%rdx, -24(%rbp)
	nop
	movq	-16(%rbp), %rax
	movq	%rax, %rdi
	call	_ZSt17__size_to_integerm
	movq	%rax, %rcx
	movq	-8(%rbp), %rax
	movq	-24(%rbp), %rdx
	movq	%rcx, %rsi
	movq	%rax, %rdi
	call	_ZSt10__fill_n_aIPjmjET_S1_T0_RKT1_St26random_access_iterator_tag
	leave
	.cfi_def_cfa 7, 8
	ret
	.cfi_endproc
.LFE3736:
	.size	_ZSt6fill_nIPjmjET_S1_T0_RKT1_, .-_ZSt6fill_nIPjmjET_S1_T0_RKT1_
	.section	.text._ZSt10__fill_n_aIPjmjET_S1_T0_RKT1_St26random_access_iterator_tag,"axG",@progbits,_ZSt10__fill_n_aIPjmjET_S1_T0_RKT1_St26random_access_iterator_tag,comdat
	.weak	_ZSt10__fill_n_aIPjmjET_S1_T0_RKT1_St26random_access_iterator_tag
	.type	_ZSt10__fill_n_aIPjmjET_S1_T0_RKT1_St26random_access_iterator_tag, @function
_ZSt10__fill_n_aIPjmjET_S1_T0_RKT1_St26random_access_iterator_tag:
.LFB3743:
	.cfi_startproc
	endbr64
	pushq	%rbp
	.cfi_def_cfa_offset 16
	.cfi_offset 6, -16
	movq	%rsp, %rbp
	.cfi_def_cfa_register 6
	subq	$32, %rsp
	movq	%rdi, -8(%rbp)
	movq	%rsi, -16(%rbp)
	movq	%rdx, -24(%rbp)
	cmpq	$0, -16(%rbp)
	jne	.L269
	movq	-8(%rbp), %rax
	jmp	.L270
.L269:
	movq	-16(%rbp), %rax
	leaq	0(,%rax,4), %rdx
	movq	-8(%rbp), %rax
	leaq	(%rdx,%rax), %rcx
	movq	-24(%rbp), %rdx
	movq	-8(%rbp), %rax
	movq	%rcx, %rsi
	movq	%rax, %rdi
	call	_ZSt8__fill_aIPjjEvT_S1_RKT0_
	movq	-16(%rbp), %rax
	leaq	0(,%rax,4), %rdx
	movq	-8(%rbp), %rax
	addq	%rdx, %rax
.L270:
	leave
	.cfi_def_cfa 7, 8
	ret
	.cfi_endproc
.LFE3743:
	.size	_ZSt10__fill_n_aIPjmjET_S1_T0_RKT1_St26random_access_iterator_tag, .-_ZSt10__fill_n_aIPjmjET_S1_T0_RKT1_St26random_access_iterator_tag
	.section	.text._ZSt8__fill_aIPjjEvT_S1_RKT0_,"axG",@progbits,_ZSt8__fill_aIPjjEvT_S1_RKT0_,comdat
	.weak	_ZSt8__fill_aIPjjEvT_S1_RKT0_
	.type	_ZSt8__fill_aIPjjEvT_S1_RKT0_, @function
_ZSt8__fill_aIPjjEvT_S1_RKT0_:
.LFB3744:
	.cfi_startproc
	endbr64
	pushq	%rbp
	.cfi_def_cfa_offset 16
	.cfi_offset 6, -16
	movq	%rsp, %rbp
	.cfi_def_cfa_register 6
	subq	$32, %rsp
	movq	%rdi, -8(%rbp)
	movq	%rsi, -16(%rbp)
	movq	%rdx, -24(%rbp)
	movq	-24(%rbp), %rdx
	movq	-16(%rbp), %rcx
	movq	-8(%rbp), %rax
	movq	%rcx, %rsi
	movq	%rax, %rdi
	call	_ZSt9__fill_a1IPjjEN9__gnu_cxx11__enable_ifIXsrSt11__is_scalarIT0_E7__valueEvE6__typeET_S8_RKS4_
	nop
	leave
	.cfi_def_cfa 7, 8
	ret
	.cfi_endproc
.LFE3744:
	.size	_ZSt8__fill_aIPjjEvT_S1_RKT0_, .-_ZSt8__fill_aIPjjEvT_S1_RKT0_
	.section	.text._ZSt9__fill_a1IPjjEN9__gnu_cxx11__enable_ifIXsrSt11__is_scalarIT0_E7__valueEvE6__typeET_S8_RKS4_,"axG",@progbits,_ZSt9__fill_a1IPjjEN9__gnu_cxx11__enable_ifIXsrSt11__is_scalarIT0_E7__valueEvE6__typeET_S8_RKS4_,comdat
	.weak	_ZSt9__fill_a1IPjjEN9__gnu_cxx11__enable_ifIXsrSt11__is_scalarIT0_E7__valueEvE6__typeET_S8_RKS4_
	.type	_ZSt9__fill_a1IPjjEN9__gnu_cxx11__enable_ifIXsrSt11__is_scalarIT0_E7__valueEvE6__typeET_S8_RKS4_, @function
_ZSt9__fill_a1IPjjEN9__gnu_cxx11__enable_ifIXsrSt11__is_scalarIT0_E7__valueEvE6__typeET_S8_RKS4_:
.LFB3745:
	.cfi_startproc
	endbr64
	pushq	%rbp
	.cfi_def_cfa_offset 16
	.cfi_offset 6, -16
	movq	%rsp, %rbp
	.cfi_def_cfa_register 6
	movq	%rdi, -24(%rbp)
	movq	%rsi, -32(%rbp)
	movq	%rdx, -40(%rbp)
	movq	-40(%rbp), %rax
	movl	(%rax), %eax
	movl	%eax, -4(%rbp)
	jmp	.L273
.L274:
	movq	-24(%rbp), %rax
	movl	-4(%rbp), %edx
	movl	%edx, (%rax)
	addq	$4, -24(%rbp)
.L273:
	movq	-24(%rbp), %rax
	cmpq	-32(%rbp), %rax
	jne	.L274
	nop
	nop
	popq	%rbp
	.cfi_def_cfa 7, 8
	ret
	.cfi_endproc
.LFE3745:
	.size	_ZSt9__fill_a1IPjjEN9__gnu_cxx11__enable_ifIXsrSt11__is_scalarIT0_E7__valueEvE6__typeET_S8_RKS4_, .-_ZSt9__fill_a1IPjjEN9__gnu_cxx11__enable_ifIXsrSt11__is_scalarIT0_E7__valueEvE6__typeET_S8_RKS4_
	.section	.rodata
	.type	_ZNSt8__detail30__integer_to_chars_is_unsignedIjEE, @object
	.size	_ZNSt8__detail30__integer_to_chars_is_unsignedIjEE, 1
_ZNSt8__detail30__integer_to_chars_is_unsignedIjEE:
	.byte	1
	.type	_ZNSt8__detail30__integer_to_chars_is_unsignedImEE, @object
	.size	_ZNSt8__detail30__integer_to_chars_is_unsignedImEE, 1
_ZNSt8__detail30__integer_to_chars_is_unsignedImEE:
	.byte	1
	.type	_ZNSt8__detail30__integer_to_chars_is_unsignedIyEE, @object
	.size	_ZNSt8__detail30__integer_to_chars_is_unsignedIyEE, 1
_ZNSt8__detail30__integer_to_chars_is_unsignedIyEE:
	.byte	1
	.type	_ZSt12__is_ratio_vISt5ratioILl1ELl1000000000EEE, @object
	.size	_ZSt12__is_ratio_vISt5ratioILl1ELl1000000000EEE, 1
_ZSt12__is_ratio_vISt5ratioILl1ELl1000000000EEE:
	.byte	1
	.type	_ZSt12__is_ratio_vISt5ratioILl1ELl1EEE, @object
	.size	_ZSt12__is_ratio_vISt5ratioILl1ELl1EEE, 1
_ZSt12__is_ratio_vISt5ratioILl1ELl1EEE:
	.byte	1
	.type	_ZSt12__is_ratio_vISt5ratioILl1000000000ELl1EEE, @object
	.size	_ZSt12__is_ratio_vISt5ratioILl1000000000ELl1EEE, 1
_ZSt12__is_ratio_vISt5ratioILl1000000000ELl1EEE:
	.byte	1
	.align 8
.LC20:
	.long	0
	.long	1078984704
	.align 8
.LC22:
	.long	0
	.long	1093664768
	.align 8
.LC26:
	.long	0
	.long	1093567616
	.align 8
.LC36:
	.long	0
	.long	1104006501
	.hidden	DW.ref.__gxx_personality_v0
	.weak	DW.ref.__gxx_personality_v0
	.section	.data.rel.local.DW.ref.__gxx_personality_v0,"awG",@progbits,DW.ref.__gxx_personality_v0,comdat
	.align 8
	.type	DW.ref.__gxx_personality_v0, @object
	.size	DW.ref.__gxx_personality_v0, 8
DW.ref.__gxx_personality_v0:
	.quad	__gxx_personality_v0
	.ident	"GCC: (Ubuntu 13.3.0-6ubuntu2~24.04) 13.3.0"
	.section	.note.GNU-stack,"",@progbits
	.section	.note.gnu.property,"a"
	.align 8
	.long	1f - 0f
	.long	4f - 1f
	.long	5
0:
	.string	"GNU"
1:
	.align 8
	.long	0xc0000002
	.long	3f - 2f
2:
	.long	0x3
3:
	.align 8
4:
