	.file	"bench_barret_reist.cpp"
	.text
	.section	.text._ZStanSt13_Ios_FmtflagsS_,"axG",@progbits,_ZStanSt13_Ios_FmtflagsS_,comdat
	.weak	_ZStanSt13_Ios_FmtflagsS_
	.type	_ZStanSt13_Ios_FmtflagsS_, @function
_ZStanSt13_Ios_FmtflagsS_:
.LFB1567:
	.cfi_startproc
	pushq	%rbp
	.cfi_def_cfa_offset 16
	.cfi_offset 6, -16
	movq	%rsp, %rbp
	.cfi_def_cfa_register 6
	movl	%edi, -4(%rbp)
	movl	%esi, -8(%rbp)
	movl	-4(%rbp), %eax
	andl	-8(%rbp), %eax
	popq	%rbp
	.cfi_def_cfa 7, 8
	ret
	.cfi_endproc
.LFE1567:
	.size	_ZStanSt13_Ios_FmtflagsS_, .-_ZStanSt13_Ios_FmtflagsS_
	.section	.text._ZStorSt13_Ios_FmtflagsS_,"axG",@progbits,_ZStorSt13_Ios_FmtflagsS_,comdat
	.weak	_ZStorSt13_Ios_FmtflagsS_
	.type	_ZStorSt13_Ios_FmtflagsS_, @function
_ZStorSt13_Ios_FmtflagsS_:
.LFB1568:
	.cfi_startproc
	pushq	%rbp
	.cfi_def_cfa_offset 16
	.cfi_offset 6, -16
	movq	%rsp, %rbp
	.cfi_def_cfa_register 6
	movl	%edi, -4(%rbp)
	movl	%esi, -8(%rbp)
	movl	-4(%rbp), %eax
	orl	-8(%rbp), %eax
	popq	%rbp
	.cfi_def_cfa 7, 8
	ret
	.cfi_endproc
.LFE1568:
	.size	_ZStorSt13_Ios_FmtflagsS_, .-_ZStorSt13_Ios_FmtflagsS_
	.section	.text._ZStcoSt13_Ios_Fmtflags,"axG",@progbits,_ZStcoSt13_Ios_Fmtflags,comdat
	.weak	_ZStcoSt13_Ios_Fmtflags
	.type	_ZStcoSt13_Ios_Fmtflags, @function
_ZStcoSt13_Ios_Fmtflags:
.LFB1570:
	.cfi_startproc
	pushq	%rbp
	.cfi_def_cfa_offset 16
	.cfi_offset 6, -16
	movq	%rsp, %rbp
	.cfi_def_cfa_register 6
	movl	%edi, -4(%rbp)
	movl	-4(%rbp), %eax
	notl	%eax
	popq	%rbp
	.cfi_def_cfa 7, 8
	ret
	.cfi_endproc
.LFE1570:
	.size	_ZStcoSt13_Ios_Fmtflags, .-_ZStcoSt13_Ios_Fmtflags
	.section	.text._ZStoRRSt13_Ios_FmtflagsS_,"axG",@progbits,_ZStoRRSt13_Ios_FmtflagsS_,comdat
	.weak	_ZStoRRSt13_Ios_FmtflagsS_
	.type	_ZStoRRSt13_Ios_FmtflagsS_, @function
_ZStoRRSt13_Ios_FmtflagsS_:
.LFB1571:
	.cfi_startproc
	pushq	%rbp
	.cfi_def_cfa_offset 16
	.cfi_offset 6, -16
	movq	%rsp, %rbp
	.cfi_def_cfa_register 6
	subq	$16, %rsp
	movq	%rdi, -8(%rbp)
	movl	%esi, -12(%rbp)
	movq	-8(%rbp), %rax
	movl	(%rax), %eax
	movl	-12(%rbp), %edx
	movl	%edx, %esi
	movl	%eax, %edi
	call	_ZStorSt13_Ios_FmtflagsS_
	movq	-8(%rbp), %rdx
	movl	%eax, (%rdx)
	movq	-8(%rbp), %rax
	leave
	.cfi_def_cfa 7, 8
	ret
	.cfi_endproc
.LFE1571:
	.size	_ZStoRRSt13_Ios_FmtflagsS_, .-_ZStoRRSt13_Ios_FmtflagsS_
	.section	.text._ZStaNRSt13_Ios_FmtflagsS_,"axG",@progbits,_ZStaNRSt13_Ios_FmtflagsS_,comdat
	.weak	_ZStaNRSt13_Ios_FmtflagsS_
	.type	_ZStaNRSt13_Ios_FmtflagsS_, @function
_ZStaNRSt13_Ios_FmtflagsS_:
.LFB1572:
	.cfi_startproc
	pushq	%rbp
	.cfi_def_cfa_offset 16
	.cfi_offset 6, -16
	movq	%rsp, %rbp
	.cfi_def_cfa_register 6
	subq	$16, %rsp
	movq	%rdi, -8(%rbp)
	movl	%esi, -12(%rbp)
	movq	-8(%rbp), %rax
	movl	(%rax), %eax
	movl	-12(%rbp), %edx
	movl	%edx, %esi
	movl	%eax, %edi
	call	_ZStanSt13_Ios_FmtflagsS_
	movq	-8(%rbp), %rdx
	movl	%eax, (%rdx)
	movq	-8(%rbp), %rax
	leave
	.cfi_def_cfa 7, 8
	ret
	.cfi_endproc
.LFE1572:
	.size	_ZStaNRSt13_Ios_FmtflagsS_, .-_ZStaNRSt13_Ios_FmtflagsS_
	.section	.text._ZNSt8ios_base4setfESt13_Ios_FmtflagsS0_,"axG",@progbits,_ZNSt8ios_base4setfESt13_Ios_FmtflagsS0_,comdat
	.align 2
	.weak	_ZNSt8ios_base4setfESt13_Ios_FmtflagsS0_
	.type	_ZNSt8ios_base4setfESt13_Ios_FmtflagsS0_, @function
_ZNSt8ios_base4setfESt13_Ios_FmtflagsS0_:
.LFB1601:
	.cfi_startproc
	pushq	%rbp
	.cfi_def_cfa_offset 16
	.cfi_offset 6, -16
	movq	%rsp, %rbp
	.cfi_def_cfa_register 6
	subq	$32, %rsp
	movq	%rdi, -24(%rbp)
	movl	%esi, -28(%rbp)
	movl	%edx, -32(%rbp)
	movq	-24(%rbp), %rax
	movl	24(%rax), %eax
	movl	%eax, -4(%rbp)
	movl	-32(%rbp), %eax
	movl	%eax, %edi
	call	_ZStcoSt13_Ios_Fmtflags
	movl	%eax, %edx
	movq	-24(%rbp), %rax
	addq	$24, %rax
	movl	%edx, %esi
	movq	%rax, %rdi
	call	_ZStaNRSt13_Ios_FmtflagsS_
	movl	-32(%rbp), %edx
	movl	-28(%rbp), %eax
	movl	%edx, %esi
	movl	%eax, %edi
	call	_ZStanSt13_Ios_FmtflagsS_
	movl	%eax, %edx
	movq	-24(%rbp), %rax
	addq	$24, %rax
	movl	%edx, %esi
	movq	%rax, %rdi
	call	_ZStoRRSt13_Ios_FmtflagsS_
	movl	-4(%rbp), %eax
	leave
	.cfi_def_cfa 7, 8
	ret
	.cfi_endproc
.LFE1601:
	.size	_ZNSt8ios_base4setfESt13_Ios_FmtflagsS0_, .-_ZNSt8ios_base4setfESt13_Ios_FmtflagsS0_
	.section	.text._ZSt5fixedRSt8ios_base,"axG",@progbits,_ZSt5fixedRSt8ios_base,comdat
	.weak	_ZSt5fixedRSt8ios_base
	.type	_ZSt5fixedRSt8ios_base, @function
_ZSt5fixedRSt8ios_base:
.LFB1631:
	.cfi_startproc
	pushq	%rbp
	.cfi_def_cfa_offset 16
	.cfi_offset 6, -16
	movq	%rsp, %rbp
	.cfi_def_cfa_register 6
	subq	$16, %rsp
	movq	%rdi, -8(%rbp)
	movq	-8(%rbp), %rax
	movl	$260, %edx
	movl	$4, %esi
	movq	%rax, %rdi
	call	_ZNSt8ios_base4setfESt13_Ios_FmtflagsS0_
	movq	-8(%rbp), %rax
	leave
	.cfi_def_cfa 7, 8
	ret
	.cfi_endproc
.LFE1631:
	.size	_ZSt5fixedRSt8ios_base, .-_ZSt5fixedRSt8ios_base
#APP
	.globl _ZSt21ios_base_library_initv
#NO_APP
	.section	.text._ZNSt6chrono8durationIlSt5ratioILl1ELl1000000000EEEC2IlvEERKT_,"axG",@progbits,_ZNSt6chrono8durationIlSt5ratioILl1ELl1000000000EEEC5IlvEERKT_,comdat
	.align 2
	.weak	_ZNSt6chrono8durationIlSt5ratioILl1ELl1000000000EEEC2IlvEERKT_
	.type	_ZNSt6chrono8durationIlSt5ratioILl1ELl1000000000EEEC2IlvEERKT_, @function
_ZNSt6chrono8durationIlSt5ratioILl1ELl1000000000EEEC2IlvEERKT_:
.LFB2282:
	.cfi_startproc
	pushq	%rbp
	.cfi_def_cfa_offset 16
	.cfi_offset 6, -16
	movq	%rsp, %rbp
	.cfi_def_cfa_register 6
	movq	%rdi, -8(%rbp)
	movq	%rsi, -16(%rbp)
	movq	-16(%rbp), %rax
	movq	(%rax), %rdx
	movq	-8(%rbp), %rax
	movq	%rdx, (%rax)
	nop
	popq	%rbp
	.cfi_def_cfa 7, 8
	ret
	.cfi_endproc
.LFE2282:
	.size	_ZNSt6chrono8durationIlSt5ratioILl1ELl1000000000EEEC2IlvEERKT_, .-_ZNSt6chrono8durationIlSt5ratioILl1ELl1000000000EEEC2IlvEERKT_
	.weak	_ZNSt6chrono8durationIlSt5ratioILl1ELl1000000000EEEC1IlvEERKT_
	.set	_ZNSt6chrono8durationIlSt5ratioILl1ELl1000000000EEEC1IlvEERKT_,_ZNSt6chrono8durationIlSt5ratioILl1ELl1000000000EEEC2IlvEERKT_
	.section	.text._ZNKSt6chrono8durationIlSt5ratioILl1ELl1000000000EEE5countEv,"axG",@progbits,_ZNKSt6chrono8durationIlSt5ratioILl1ELl1000000000EEE5countEv,comdat
	.align 2
	.weak	_ZNKSt6chrono8durationIlSt5ratioILl1ELl1000000000EEE5countEv
	.type	_ZNKSt6chrono8durationIlSt5ratioILl1ELl1000000000EEE5countEv, @function
_ZNKSt6chrono8durationIlSt5ratioILl1ELl1000000000EEE5countEv:
.LFB2285:
	.cfi_startproc
	pushq	%rbp
	.cfi_def_cfa_offset 16
	.cfi_offset 6, -16
	movq	%rsp, %rbp
	.cfi_def_cfa_register 6
	movq	%rdi, -8(%rbp)
	movq	-8(%rbp), %rax
	movq	(%rax), %rax
	popq	%rbp
	.cfi_def_cfa 7, 8
	ret
	.cfi_endproc
.LFE2285:
	.size	_ZNKSt6chrono8durationIlSt5ratioILl1ELl1000000000EEE5countEv, .-_ZNKSt6chrono8durationIlSt5ratioILl1ELl1000000000EEE5countEv
	.section	.text._ZSt12setprecisioni,"axG",@progbits,_ZSt12setprecisioni,comdat
	.weak	_ZSt12setprecisioni
	.type	_ZSt12setprecisioni, @function
_ZSt12setprecisioni:
.LFB2943:
	.cfi_startproc
	pushq	%rbp
	.cfi_def_cfa_offset 16
	.cfi_offset 6, -16
	movq	%rsp, %rbp
	.cfi_def_cfa_register 6
	movl	%edi, -4(%rbp)
	movl	-4(%rbp), %eax
	popq	%rbp
	.cfi_def_cfa 7, 8
	ret
	.cfi_endproc
.LFE2943:
	.size	_ZSt12setprecisioni, .-_ZSt12setprecisioni
	.section	.text._Z14classic_modaddlll,"axG",@progbits,_Z14classic_modaddlll,comdat
	.weak	_Z14classic_modaddlll
	.type	_Z14classic_modaddlll, @function
_Z14classic_modaddlll:
.LFB8560:
	.cfi_startproc
	pushq	%rbp
	.cfi_def_cfa_offset 16
	.cfi_offset 6, -16
	movq	%rsp, %rbp
	.cfi_def_cfa_register 6
	movq	%rdi, -8(%rbp)
	movq	%rsi, -16(%rbp)
	movq	%rdx, -24(%rbp)
	movq	-8(%rbp), %rdx
	movq	-16(%rbp), %rax
	addq	%rdx, %rax
	cqto
	idivq	-24(%rbp)
	movq	%rdx, %rax
	popq	%rbp
	.cfi_def_cfa 7, 8
	ret
	.cfi_endproc
.LFE8560:
	.size	_Z14classic_modaddlll, .-_Z14classic_modaddlll
	.section	.text._Z8center64ll,"axG",@progbits,_Z8center64ll,comdat
	.weak	_Z8center64ll
	.type	_Z8center64ll, @function
_Z8center64ll:
.LFB8561:
	.cfi_startproc
	pushq	%rbp
	.cfi_def_cfa_offset 16
	.cfi_offset 6, -16
	movq	%rsp, %rbp
	.cfi_def_cfa_register 6
	movq	%rdi, -24(%rbp)
	movq	%rsi, -32(%rbp)
	movq	-32(%rbp), %rax
	sarq	%rax
	movq	%rax, -8(%rbp)
	movq	-24(%rbp), %rax
	cqto
	idivq	-32(%rbp)
	movq	%rdx, -24(%rbp)
	movq	-24(%rbp), %rax
	cmpq	-8(%rbp), %rax
	jle	.L23
	movq	-32(%rbp), %rax
	subq	%rax, -24(%rbp)
.L23:
	movq	-24(%rbp), %rax
	popq	%rbp
	.cfi_def_cfa 7, 8
	ret
	.cfi_endproc
.LFE8561:
	.size	_Z8center64ll, .-_Z8center64ll
	.section	.text._Z8center32ii,"axG",@progbits,_Z8center32ii,comdat
	.weak	_Z8center32ii
	.type	_Z8center32ii, @function
_Z8center32ii:
.LFB8562:
	.cfi_startproc
	pushq	%rbp
	.cfi_def_cfa_offset 16
	.cfi_offset 6, -16
	movq	%rsp, %rbp
	.cfi_def_cfa_register 6
	movl	%edi, -20(%rbp)
	movl	%esi, -24(%rbp)
	movl	-24(%rbp), %eax
	sarl	%eax
	movl	%eax, -4(%rbp)
	movl	-20(%rbp), %eax
	cltd
	idivl	-24(%rbp)
	movl	%edx, -20(%rbp)
	movl	-20(%rbp), %eax
	cmpl	-4(%rbp), %eax
	jle	.L26
	movl	-24(%rbp), %eax
	subl	%eax, -20(%rbp)
.L26:
	movl	-20(%rbp), %eax
	popq	%rbp
	.cfi_def_cfa 7, 8
	ret
	.cfi_endproc
.LFE8562:
	.size	_Z8center32ii, .-_Z8center32ii
	.section	.text._Z21reist_v1_modadd_nodivlll,"axG",@progbits,_Z21reist_v1_modadd_nodivlll,comdat
	.weak	_Z21reist_v1_modadd_nodivlll
	.type	_Z21reist_v1_modadd_nodivlll, @function
_Z21reist_v1_modadd_nodivlll:
.LFB8563:
	.cfi_startproc
	pushq	%rbp
	.cfi_def_cfa_offset 16
	.cfi_offset 6, -16
	movq	%rsp, %rbp
	.cfi_def_cfa_register 6
	movq	%rdi, -24(%rbp)
	movq	%rsi, -32(%rbp)
	movq	%rdx, -40(%rbp)
	movq	-40(%rbp), %rax
	sarq	%rax
	movq	%rax, -8(%rbp)
	movq	-24(%rbp), %rdx
	movq	-32(%rbp), %rax
	addq	%rdx, %rax
	movq	%rax, -16(%rbp)
	movq	-16(%rbp), %rax
	cmpq	-8(%rbp), %rax
	jle	.L29
	movq	-40(%rbp), %rax
	subq	%rax, -16(%rbp)
	jmp	.L30
.L29:
	movq	-8(%rbp), %rax
	negq	%rax
	cmpq	%rax, -16(%rbp)
	jg	.L30
	movq	-40(%rbp), %rax
	addq	%rax, -16(%rbp)
.L30:
	movq	-16(%rbp), %rax
	popq	%rbp
	.cfi_def_cfa 7, 8
	ret
	.cfi_endproc
.LFE8563:
	.size	_Z21reist_v1_modadd_nodivlll, .-_Z21reist_v1_modadd_nodivlll
	.section	.text._ZN14BarretReistCtxC2El,"axG",@progbits,_ZN14BarretReistCtxC5El,comdat
	.align 2
	.weak	_ZN14BarretReistCtxC2El
	.type	_ZN14BarretReistCtxC2El, @function
_ZN14BarretReistCtxC2El:
.LFB8565:
	.cfi_startproc
	pushq	%rbp
	.cfi_def_cfa_offset 16
	.cfi_offset 6, -16
	movq	%rsp, %rbp
	.cfi_def_cfa_register 6
	movq	%rdi, -24(%rbp)
	movq	%rsi, -32(%rbp)
	movq	-24(%rbp), %rax
	movq	-32(%rbp), %rdx
	movq	%rdx, (%rax)
	movq	-32(%rbp), %rax
	sarq	%rax
	movq	%rax, %rdx
	movq	-24(%rbp), %rax
	movq	%rdx, 8(%rax)
	movq	-24(%rbp), %rax
	movl	$32, 24(%rax)
	movq	-24(%rbp), %rax
	movq	(%rax), %rax
	pxor	%xmm1, %xmm1
	cvtsi2sdq	%rax, %xmm1
	movsd	.LC0(%rip), %xmm0
	divsd	%xmm1, %xmm0
	movsd	%xmm0, -8(%rbp)
	movq	-24(%rbp), %rax
	movl	24(%rax), %eax
	movl	$1, %edx
	movl	%eax, %ecx
	salq	%cl, %rdx
	movq	%rdx, %rax
	testq	%rax, %rax
	js	.L33
	pxor	%xmm0, %xmm0
	cvtsi2sdq	%rax, %xmm0
	jmp	.L34
.L33:
	movq	%rax, %rdx
	shrq	%rdx
	andl	$1, %eax
	orq	%rax, %rdx
	pxor	%xmm0, %xmm0
	cvtsi2sdq	%rdx, %xmm0
	addsd	%xmm0, %xmm0
.L34:
	mulsd	-8(%rbp), %xmm0
	comisd	.LC1(%rip), %xmm0
	jnb	.L35
	cvttsd2siq	%xmm0, %rax
	jmp	.L36
.L35:
	movsd	.LC1(%rip), %xmm1
	subsd	%xmm1, %xmm0
	cvttsd2siq	%xmm0, %rax
	movabsq	$-9223372036854775808, %rdx
	xorq	%rdx, %rax
.L36:
	movq	-24(%rbp), %rdx
	movq	%rax, 16(%rdx)
	nop
	popq	%rbp
	.cfi_def_cfa 7, 8
	ret
	.cfi_endproc
.LFE8565:
	.size	_ZN14BarretReistCtxC2El, .-_ZN14BarretReistCtxC2El
	.weak	_ZN14BarretReistCtxC1El
	.set	_ZN14BarretReistCtxC1El,_ZN14BarretReistCtxC2El
	.section	.text._ZN16BarretReistCtx32C2Ei,"axG",@progbits,_ZN16BarretReistCtx32C5Ei,comdat
	.align 2
	.weak	_ZN16BarretReistCtx32C2Ei
	.type	_ZN16BarretReistCtx32C2Ei, @function
_ZN16BarretReistCtx32C2Ei:
.LFB8568:
	.cfi_startproc
	pushq	%rbp
	.cfi_def_cfa_offset 16
	.cfi_offset 6, -16
	movq	%rsp, %rbp
	.cfi_def_cfa_register 6
	movq	%rdi, -24(%rbp)
	movl	%esi, -28(%rbp)
	movq	-24(%rbp), %rax
	movl	-28(%rbp), %edx
	movl	%edx, (%rax)
	movl	-28(%rbp), %eax
	sarl	%eax
	movl	%eax, %edx
	movq	-24(%rbp), %rax
	movl	%edx, 4(%rax)
	movq	-24(%rbp), %rax
	movl	$32, 12(%rax)
	movq	-24(%rbp), %rax
	movl	(%rax), %eax
	pxor	%xmm1, %xmm1
	cvtsi2sdl	%eax, %xmm1
	movsd	.LC0(%rip), %xmm0
	divsd	%xmm1, %xmm0
	movsd	%xmm0, -8(%rbp)
	movq	-24(%rbp), %rax
	movl	12(%rax), %eax
	movl	$1, %edx
	movl	%eax, %ecx
	salq	%cl, %rdx
	movq	%rdx, %rax
	testq	%rax, %rax
	js	.L38
	pxor	%xmm0, %xmm0
	cvtsi2sdq	%rax, %xmm0
	jmp	.L39
.L38:
	movq	%rax, %rdx
	shrq	%rdx
	andl	$1, %eax
	orq	%rax, %rdx
	pxor	%xmm0, %xmm0
	cvtsi2sdq	%rdx, %xmm0
	addsd	%xmm0, %xmm0
.L39:
	mulsd	-8(%rbp), %xmm0
	cvttsd2siq	%xmm0, %rax
	movl	%eax, %edx
	movq	-24(%rbp), %rax
	movl	%edx, 8(%rax)
	nop
	popq	%rbp
	.cfi_def_cfa 7, 8
	ret
	.cfi_endproc
.LFE8568:
	.size	_ZN16BarretReistCtx32C2Ei, .-_ZN16BarretReistCtx32C2Ei
	.weak	_ZN16BarretReistCtx32C1Ei
	.set	_ZN16BarretReistCtx32C1Ei,_ZN16BarretReistCtx32C2Ei
	.section	.text._Z19Barret_reist_reducelRK14BarretReistCtx,"axG",@progbits,_Z19Barret_reist_reducelRK14BarretReistCtx,comdat
	.weak	_Z19Barret_reist_reducelRK14BarretReistCtx
	.type	_Z19Barret_reist_reducelRK14BarretReistCtx, @function
_Z19Barret_reist_reducelRK14BarretReistCtx:
.LFB8570:
	.cfi_startproc
	pushq	%rbp
	.cfi_def_cfa_offset 16
	.cfi_offset 6, -16
	movq	%rsp, %rbp
	.cfi_def_cfa_register 6
	pushq	%rbx
	.cfi_offset 3, -24
	movq	%rdi, -40(%rbp)
	movq	%rsi, -48(%rbp)
	movq	-40(%rbp), %rax
	cqto
	movq	-48(%rbp), %rcx
	movq	16(%rcx), %rcx
	movq	%rcx, %rcx
	movl	$0, %ebx
	movq	%rdx, %rdi
	imulq	%rcx, %rdi
	movq	%rbx, %rsi
	imulq	%rax, %rsi
	addq	%rdi, %rsi
	mulq	%rcx
	leaq	(%rsi,%rdx), %rcx
	movq	%rcx, %rdx
	movq	-48(%rbp), %rcx
	movl	24(%rcx), %ecx
	shrdq	%cl, %rdx, %rax
	sarq	%cl, %rdx
	testb	$64, %cl
	je	.L44
	movq	%rdx, %rax
	sarq	$63, %rdx
.L44:
	movq	%rax, -24(%rbp)
	movq	-48(%rbp), %rax
	movq	(%rax), %rax
	imulq	-24(%rbp), %rax
	movq	-40(%rbp), %rdx
	subq	%rax, %rdx
	movq	%rdx, -32(%rbp)
	movq	-48(%rbp), %rax
	movq	8(%rax), %rax
	cmpq	%rax, -32(%rbp)
	jle	.L41
	movq	-48(%rbp), %rax
	movq	(%rax), %rax
	subq	%rax, -32(%rbp)
	jmp	.L42
.L41:
	movq	-48(%rbp), %rax
	movq	8(%rax), %rax
	negq	%rax
	cmpq	%rax, -32(%rbp)
	jg	.L42
	movq	-48(%rbp), %rax
	movq	(%rax), %rax
	addq	%rax, -32(%rbp)
.L42:
	movq	-32(%rbp), %rax
	movq	-8(%rbp), %rbx
	leave
	.cfi_def_cfa 7, 8
	ret
	.cfi_endproc
.LFE8570:
	.size	_Z19Barret_reist_reducelRK14BarretReistCtx, .-_Z19Barret_reist_reducelRK14BarretReistCtx
	.section	.text._Z21Barret_reist_reduce32iRK16BarretReistCtx32,"axG",@progbits,_Z21Barret_reist_reduce32iRK16BarretReistCtx32,comdat
	.weak	_Z21Barret_reist_reduce32iRK16BarretReistCtx32
	.type	_Z21Barret_reist_reduce32iRK16BarretReistCtx32, @function
_Z21Barret_reist_reduce32iRK16BarretReistCtx32:
.LFB8571:
	.cfi_startproc
	pushq	%rbp
	.cfi_def_cfa_offset 16
	.cfi_offset 6, -16
	movq	%rsp, %rbp
	.cfi_def_cfa_register 6
	movl	%edi, -20(%rbp)
	movq	%rsi, -32(%rbp)
	movl	-20(%rbp), %eax
	cltq
	movq	-32(%rbp), %rdx
	movl	8(%rdx), %edx
	movl	%edx, %edx
	imulq	%rax, %rdx
	movq	-32(%rbp), %rax
	movl	12(%rax), %eax
	movl	%eax, %ecx
	sarq	%cl, %rdx
	movq	%rdx, %rax
	movl	%eax, -4(%rbp)
	movq	-32(%rbp), %rax
	movl	(%rax), %eax
	imull	-4(%rbp), %eax
	movl	-20(%rbp), %edx
	subl	%eax, %edx
	movl	%edx, -8(%rbp)
	movq	-32(%rbp), %rax
	movl	4(%rax), %eax
	cmpl	%eax, -8(%rbp)
	jle	.L46
	movq	-32(%rbp), %rax
	movl	(%rax), %eax
	subl	%eax, -8(%rbp)
	jmp	.L47
.L46:
	movq	-32(%rbp), %rax
	movl	4(%rax), %eax
	negl	%eax
	cmpl	%eax, -8(%rbp)
	jg	.L47
	movq	-32(%rbp), %rax
	movl	(%rax), %eax
	addl	%eax, -8(%rbp)
.L47:
	movl	-8(%rbp), %eax
	popq	%rbp
	.cfi_def_cfa 7, 8
	ret
	.cfi_endproc
.LFE8571:
	.size	_Z21Barret_reist_reduce32iRK16BarretReistCtx32, .-_Z21Barret_reist_reduce32iRK16BarretReistCtx32
	.text
	.align 2
	.type	_ZZ4mainENKUllE_clEl, @function
_ZZ4mainENKUllE_clEl:
.LFB8577:
	.cfi_startproc
	pushq	%rbp
	.cfi_def_cfa_offset 16
	.cfi_offset 6, -16
	movq	%rsp, %rbp
	.cfi_def_cfa_register 6
	subq	$48, %rsp
	movq	%rdi, -40(%rbp)
	movq	%rsi, -48(%rbp)
	movq	-40(%rbp), %rax
	movq	(%rax), %rax
	movq	(%rax), %rax
	movq	%rax, -24(%rbp)
	movq	-40(%rbp), %rax
	movq	8(%rax), %rax
	movq	(%rax), %rax
	movq	%rax, -8(%rbp)
	movq	$0, -16(%rbp)
	jmp	.L50
.L51:
	movq	-40(%rbp), %rax
	movq	16(%rax), %rax
	movq	(%rax), %rdx
	movq	-8(%rbp), %rcx
	movq	-24(%rbp), %rax
	movq	%rcx, %rsi
	movq	%rax, %rdi
	call	_Z14classic_modaddlll
	movq	%rax, -24(%rbp)
	addq	$1, -16(%rbp)
.L50:
	movq	-16(%rbp), %rax
	cmpq	-48(%rbp), %rax
	jl	.L51
	movq	-40(%rbp), %rax
	movq	24(%rax), %rax
	movq	-24(%rbp), %rdx
	movq	%rdx, (%rax)
	nop
	leave
	.cfi_def_cfa 7, 8
	ret
	.cfi_endproc
.LFE8577:
	.size	_ZZ4mainENKUllE_clEl, .-_ZZ4mainENKUllE_clEl
	.align 2
	.type	_ZZ4mainENKUllE0_clEl, @function
_ZZ4mainENKUllE0_clEl:
.LFB8578:
	.cfi_startproc
	pushq	%rbp
	.cfi_def_cfa_offset 16
	.cfi_offset 6, -16
	movq	%rsp, %rbp
	.cfi_def_cfa_register 6
	subq	$48, %rsp
	movq	%rdi, -40(%rbp)
	movq	%rsi, -48(%rbp)
	movq	-40(%rbp), %rax
	movq	(%rax), %rax
	movq	(%rax), %rax
	movq	%rax, -24(%rbp)
	movq	-40(%rbp), %rax
	movq	8(%rax), %rax
	movq	(%rax), %rax
	movq	%rax, -8(%rbp)
	movq	$0, -16(%rbp)
	jmp	.L53
.L54:
	movq	-40(%rbp), %rax
	movq	16(%rax), %rax
	movq	(%rax), %rdx
	movq	-8(%rbp), %rcx
	movq	-24(%rbp), %rax
	movq	%rcx, %rsi
	movq	%rax, %rdi
	call	_Z21reist_v1_modadd_nodivlll
	movq	%rax, -24(%rbp)
	addq	$1, -16(%rbp)
.L53:
	movq	-16(%rbp), %rax
	cmpq	-48(%rbp), %rax
	jl	.L54
	movq	-40(%rbp), %rax
	movq	24(%rax), %rax
	movq	-24(%rbp), %rdx
	movq	%rdx, (%rax)
	nop
	leave
	.cfi_def_cfa 7, 8
	ret
	.cfi_endproc
.LFE8578:
	.size	_ZZ4mainENKUllE0_clEl, .-_ZZ4mainENKUllE0_clEl
	.align 2
	.type	_ZZ4mainENKUllE1_clEl, @function
_ZZ4mainENKUllE1_clEl:
.LFB8579:
	.cfi_startproc
	pushq	%rbp
	.cfi_def_cfa_offset 16
	.cfi_offset 6, -16
	movq	%rsp, %rbp
	.cfi_def_cfa_register 6
	subq	$48, %rsp
	movq	%rdi, -40(%rbp)
	movq	%rsi, -48(%rbp)
	movq	-40(%rbp), %rax
	movq	(%rax), %rax
	movq	(%rax), %rax
	movq	%rax, -24(%rbp)
	movq	-40(%rbp), %rax
	movq	8(%rax), %rax
	movq	(%rax), %rax
	movq	%rax, -8(%rbp)
	movq	$0, -16(%rbp)
	jmp	.L56
.L57:
	movq	-40(%rbp), %rax
	movq	16(%rax), %rax
	movq	-24(%rbp), %rcx
	movq	-8(%rbp), %rdx
	addq	%rcx, %rdx
	movq	%rax, %rsi
	movq	%rdx, %rdi
	call	_Z19Barret_reist_reducelRK14BarretReistCtx
	movq	%rax, -24(%rbp)
	addq	$1, -16(%rbp)
.L56:
	movq	-16(%rbp), %rax
	cmpq	-48(%rbp), %rax
	jl	.L57
	movq	-40(%rbp), %rax
	movq	24(%rax), %rax
	movq	-24(%rbp), %rdx
	movq	%rdx, (%rax)
	nop
	leave
	.cfi_def_cfa 7, 8
	ret
	.cfi_endproc
.LFE8579:
	.size	_ZZ4mainENKUllE1_clEl, .-_ZZ4mainENKUllE1_clEl
	.align 2
	.type	_ZZ4mainENKUllE2_clEl, @function
_ZZ4mainENKUllE2_clEl:
.LFB8580:
	.cfi_startproc
	pushq	%rbp
	.cfi_def_cfa_offset 16
	.cfi_offset 6, -16
	movq	%rsp, %rbp
	.cfi_def_cfa_register 6
	subq	$32, %rsp
	movq	%rdi, -24(%rbp)
	movq	%rsi, -32(%rbp)
	movq	-24(%rbp), %rax
	movq	(%rax), %rax
	movl	(%rax), %eax
	movl	%eax, -16(%rbp)
	movq	-24(%rbp), %rax
	movq	8(%rax), %rax
	movl	(%rax), %eax
	movl	%eax, -12(%rbp)
	movq	$0, -8(%rbp)
	jmp	.L59
.L60:
	movq	-24(%rbp), %rax
	movq	16(%rax), %rax
	movl	-16(%rbp), %ecx
	movl	-12(%rbp), %edx
	addl	%ecx, %edx
	movq	%rax, %rsi
	movl	%edx, %edi
	call	_Z21Barret_reist_reduce32iRK16BarretReistCtx32
	movl	%eax, -16(%rbp)
	addq	$1, -8(%rbp)
.L59:
	movq	-8(%rbp), %rax
	cmpq	-32(%rbp), %rax
	jl	.L60
	movq	-24(%rbp), %rax
	movq	24(%rax), %rax
	movl	-16(%rbp), %edx
	movslq	%edx, %rdx
	movq	%rdx, (%rax)
	nop
	leave
	.cfi_def_cfa 7, 8
	ret
	.cfi_endproc
.LFE8580:
	.size	_ZZ4mainENKUllE2_clEl, .-_ZZ4mainENKUllE2_clEl
	.section	.rodata
	.align 8
.LC2:
	.string	"=============================================\n"
	.align 8
.LC3:
	.string	"Barret-REIST v2 Benchmark (Division-Free)\n"
.LC4:
	.string	"Iterations per modulus: "
.LC5:
	.string	"\n\n"
	.align 8
.LC6:
	.string	"---------------------------------------------\n"
.LC7:
	.string	"Modulus = "
.LC8:
	.string	"\n"
.LC9:
	.string	"Classic modulo           : "
.LC10:
	.string	" s\n"
.LC11:
	.string	"REIST v1 scalar          : "
.LC12:
	.string	"Barret-REIST v2 scalar     : "
.LC13:
	.string	"Barret-REIST v2 int32      : "
.LC14:
	.string	"Speedups:\n"
	.align 8
.LC15:
	.string	"  REIST v1 scalar vs Classic        : "
.LC16:
	.string	"x\n"
	.align 8
.LC17:
	.string	"  Barret-REIST scalar vs Classic      : "
	.align 8
.LC18:
	.string	"  Barret-REIST int32 vs scalar        : "
.LC19:
	.string	"\nSink: "
	.text
	.globl	main
	.type	main, @function
main:
.LFB8573:
	.cfi_startproc
	.cfi_personality 0x9b,DW.ref.__gxx_personality_v0
	.cfi_lsda 0x1b,.LLSDA8573
	pushq	%rbp
	.cfi_def_cfa_offset 16
	.cfi_offset 6, -16
	movq	%rsp, %rbp
	.cfi_def_cfa_register 6
	pushq	%rbx
	subq	$296, %rsp
	.cfi_offset 3, -24
	movq	%fs:40, %rcx
	movq	%rcx, -24(%rbp)
	xorl	%ecx, %ecx
	movq	$10000000, -216(%rbp)
	leaq	C.0.0(%rip), %rax
	movl	$5, %edx
	leaq	-64(%rbp), %rcx
	movq	%rcx, -168(%rbp)
	nop
	nop
	leaq	-64(%rbp), %rcx
	movq	%rax, %rsi
	leaq	-128(%rbp), %rax
	movq	%rax, %rdi
.LEHB0:
	call	_ZNSt6vectorIlSaIlEEC1ESt16initializer_listIlERKS0_
.LEHE0:
	leaq	-64(%rbp), %rax
	movq	%rax, %rdi
	call	_ZNSt15__new_allocatorIlED2Ev
	nop
	leaq	_ZSt5fixedRSt8ios_base(%rip), %rdx
	leaq	_ZSt4cout(%rip), %rax
	movq	%rdx, %rsi
	movq	%rax, %rdi
.LEHB1:
	call	_ZNSolsEPFRSt8ios_baseS0_E@PLT
	movq	%rax, %rbx
	movl	$6, %edi
	call	_ZSt12setprecisioni
	movl	%eax, %esi
	movq	%rbx, %rdi
	call	_ZStlsIcSt11char_traitsIcEERSt13basic_ostreamIT_T0_ES6_St13_Setprecision@PLT
	leaq	.LC2(%rip), %rdx
	leaq	_ZSt4cout(%rip), %rax
	movq	%rdx, %rsi
	movq	%rax, %rdi
	call	_ZStlsISt11char_traitsIcEERSt13basic_ostreamIcT_ES5_PKc@PLT
	leaq	.LC3(%rip), %rdx
	leaq	_ZSt4cout(%rip), %rax
	movq	%rdx, %rsi
	movq	%rax, %rdi
	call	_ZStlsISt11char_traitsIcEERSt13basic_ostreamIcT_ES5_PKc@PLT
	leaq	.LC2(%rip), %rdx
	leaq	_ZSt4cout(%rip), %rax
	movq	%rdx, %rsi
	movq	%rax, %rdi
	call	_ZStlsISt11char_traitsIcEERSt13basic_ostreamIcT_ES5_PKc@PLT
	leaq	.LC4(%rip), %rdx
	leaq	_ZSt4cout(%rip), %rax
	movq	%rdx, %rsi
	movq	%rax, %rdi
	call	_ZStlsISt11char_traitsIcEERSt13basic_ostreamIcT_ES5_PKc@PLT
	movl	$10000000, %esi
	movq	%rax, %rdi
	call	_ZNSolsEl@PLT
	movq	%rax, %rdx
	leaq	.LC5(%rip), %rax
	movq	%rax, %rsi
	movq	%rdx, %rdi
	call	_ZStlsISt11char_traitsIcEERSt13basic_ostreamIcT_ES5_PKc@PLT
	leaq	-128(%rbp), %rax
	movq	%rax, -208(%rbp)
	movq	-208(%rbp), %rax
	movq	%rax, %rdi
	call	_ZNSt6vectorIlSaIlEE5beginEv
	movq	%rax, -272(%rbp)
	movq	-208(%rbp), %rax
	movq	%rax, %rdi
	call	_ZNSt6vectorIlSaIlEE3endEv
	movq	%rax, -264(%rbp)
	jmp	.L62
.L68:
	movq	-272(%rbp), %rax
	movq	(%rax), %rax
	movq	%rax, -280(%rbp)
	leaq	.LC6(%rip), %rdx
	leaq	_ZSt4cout(%rip), %rax
	movq	%rdx, %rsi
	movq	%rax, %rdi
	call	_ZStlsISt11char_traitsIcEERSt13basic_ostreamIcT_ES5_PKc@PLT
	leaq	.LC7(%rip), %rdx
	leaq	_ZSt4cout(%rip), %rax
	movq	%rdx, %rsi
	movq	%rax, %rdi
	call	_ZStlsISt11char_traitsIcEERSt13basic_ostreamIcT_ES5_PKc@PLT
	movq	%rax, %rdx
	movq	-280(%rbp), %rax
	movq	%rax, %rsi
	movq	%rdx, %rdi
	call	_ZNSolsEl@PLT
	movq	%rax, %rdx
	leaq	.LC8(%rip), %rax
	movq	%rax, %rsi
	movq	%rdx, %rdi
	call	_ZStlsISt11char_traitsIcEERSt13basic_ostreamIcT_ES5_PKc@PLT
	leaq	.LC6(%rip), %rdx
	leaq	_ZSt4cout(%rip), %rax
	movq	%rdx, %rsi
	movq	%rax, %rdi
	call	_ZStlsISt11char_traitsIcEERSt13basic_ostreamIcT_ES5_PKc@PLT
	movq	-280(%rbp), %rbx
	movl	$1234567, %eax
	cqto
	idivq	%rbx
	movq	%rdx, %rcx
	movq	%rcx, %rax
	movq	%rax, -256(%rbp)
	movq	-280(%rbp), %rbx
	movl	$891011, %eax
	cqto
	idivq	%rbx
	movq	%rdx, %rcx
	movq	%rcx, %rax
	movq	%rax, -248(%rbp)
	movq	-280(%rbp), %rax
	movq	%rax, %rsi
	movl	$1234567, %edi
	call	_Z8center64ll
	movq	%rax, -240(%rbp)
	movq	-280(%rbp), %rax
	movq	%rax, %rsi
	movl	$891011, %edi
	call	_Z8center64ll
	movq	%rax, -232(%rbp)
	movq	-280(%rbp), %rax
	movl	%eax, -284(%rbp)
	movq	-280(%rbp), %rbx
	movl	$1234567, %eax
	cqto
	idivq	%rbx
	movq	%rdx, %rcx
	movq	%rcx, %rax
	movl	%eax, %edx
	movl	-284(%rbp), %eax
	movl	%eax, %esi
	movl	%edx, %edi
	call	_Z8center32ii
	movl	%eax, -292(%rbp)
	movq	-280(%rbp), %rcx
	movl	$891011, %eax
	cqto
	idivq	%rcx
	movq	%rdx, %rcx
	movq	%rcx, %rax
	movl	%eax, %edx
	movl	-284(%rbp), %eax
	movl	%eax, %esi
	movl	%edx, %edi
	call	_Z8center32ii
	movl	%eax, -288(%rbp)
	movq	$0, -224(%rbp)
	movq	-280(%rbp), %rdx
	leaq	-96(%rbp), %rax
	movq	%rdx, %rsi
	movq	%rax, %rdi
	call	_ZN14BarretReistCtxC1El
	movl	-284(%rbp), %edx
	leaq	-144(%rbp), %rax
	movl	%edx, %esi
	movq	%rax, %rdi
	call	_ZN16BarretReistCtx32C1Ei
	leaq	-256(%rbp), %rax
	movq	%rax, -64(%rbp)
	leaq	-248(%rbp), %rax
	movq	%rax, -56(%rbp)
	leaq	-280(%rbp), %rax
	movq	%rax, -48(%rbp)
	leaq	-224(%rbp), %rax
	movq	%rax, -40(%rbp)
	leaq	-64(%rbp), %rax
	movl	$10000000, %esi
	movq	%rax, %rdi
	call	_Z9time_loopIZ4mainEUllE_EdOT_l
	movq	%xmm0, %rax
	movq	%rax, -200(%rbp)
	leaq	-240(%rbp), %rax
	movq	%rax, -64(%rbp)
	leaq	-232(%rbp), %rax
	movq	%rax, -56(%rbp)
	leaq	-280(%rbp), %rax
	movq	%rax, -48(%rbp)
	leaq	-224(%rbp), %rax
	movq	%rax, -40(%rbp)
	leaq	-64(%rbp), %rax
	movl	$10000000, %esi
	movq	%rax, %rdi
	call	_Z9time_loopIZ4mainEUllE0_EdOT_l
	movq	%xmm0, %rax
	movq	%rax, -192(%rbp)
	leaq	-240(%rbp), %rax
	movq	%rax, -64(%rbp)
	leaq	-232(%rbp), %rax
	movq	%rax, -56(%rbp)
	leaq	-96(%rbp), %rax
	movq	%rax, -48(%rbp)
	leaq	-224(%rbp), %rax
	movq	%rax, -40(%rbp)
	leaq	-64(%rbp), %rax
	movl	$10000000, %esi
	movq	%rax, %rdi
	call	_Z9time_loopIZ4mainEUllE1_EdOT_l
	movq	%xmm0, %rax
	movq	%rax, -184(%rbp)
	leaq	-292(%rbp), %rax
	movq	%rax, -64(%rbp)
	leaq	-288(%rbp), %rax
	movq	%rax, -56(%rbp)
	leaq	-144(%rbp), %rax
	movq	%rax, -48(%rbp)
	leaq	-224(%rbp), %rax
	movq	%rax, -40(%rbp)
	leaq	-64(%rbp), %rax
	movl	$10000000, %esi
	movq	%rax, %rdi
	call	_Z9time_loopIZ4mainEUllE2_EdOT_l
	movq	%xmm0, %rax
	movq	%rax, -176(%rbp)
	leaq	.LC9(%rip), %rdx
	leaq	_ZSt4cout(%rip), %rax
	movq	%rdx, %rsi
	movq	%rax, %rdi
	call	_ZStlsISt11char_traitsIcEERSt13basic_ostreamIcT_ES5_PKc@PLT
	movq	%rax, %rdx
	movq	-200(%rbp), %rax
	movq	%rax, %xmm0
	movq	%rdx, %rdi
	call	_ZNSolsEd@PLT
	movq	%rax, %rdx
	leaq	.LC10(%rip), %rax
	movq	%rax, %rsi
	movq	%rdx, %rdi
	call	_ZStlsISt11char_traitsIcEERSt13basic_ostreamIcT_ES5_PKc@PLT
	leaq	.LC11(%rip), %rdx
	leaq	_ZSt4cout(%rip), %rax
	movq	%rdx, %rsi
	movq	%rax, %rdi
	call	_ZStlsISt11char_traitsIcEERSt13basic_ostreamIcT_ES5_PKc@PLT
	movq	%rax, %rdx
	movq	-192(%rbp), %rax
	movq	%rax, %xmm0
	movq	%rdx, %rdi
	call	_ZNSolsEd@PLT
	movq	%rax, %rdx
	leaq	.LC10(%rip), %rax
	movq	%rax, %rsi
	movq	%rdx, %rdi
	call	_ZStlsISt11char_traitsIcEERSt13basic_ostreamIcT_ES5_PKc@PLT
	leaq	.LC12(%rip), %rdx
	leaq	_ZSt4cout(%rip), %rax
	movq	%rdx, %rsi
	movq	%rax, %rdi
	call	_ZStlsISt11char_traitsIcEERSt13basic_ostreamIcT_ES5_PKc@PLT
	movq	%rax, %rdx
	movq	-184(%rbp), %rax
	movq	%rax, %xmm0
	movq	%rdx, %rdi
	call	_ZNSolsEd@PLT
	movq	%rax, %rdx
	leaq	.LC10(%rip), %rax
	movq	%rax, %rsi
	movq	%rdx, %rdi
	call	_ZStlsISt11char_traitsIcEERSt13basic_ostreamIcT_ES5_PKc@PLT
	leaq	.LC13(%rip), %rdx
	leaq	_ZSt4cout(%rip), %rax
	movq	%rdx, %rsi
	movq	%rax, %rdi
	call	_ZStlsISt11char_traitsIcEERSt13basic_ostreamIcT_ES5_PKc@PLT
	movq	%rax, %rdx
	movq	-176(%rbp), %rax
	movq	%rax, %xmm0
	movq	%rdx, %rdi
	call	_ZNSolsEd@PLT
	movq	%rax, %rdx
	leaq	.LC10(%rip), %rax
	movq	%rax, %rsi
	movq	%rdx, %rdi
	call	_ZStlsISt11char_traitsIcEERSt13basic_ostreamIcT_ES5_PKc@PLT
	leaq	.LC14(%rip), %rdx
	leaq	_ZSt4cout(%rip), %rax
	movq	%rdx, %rsi
	movq	%rax, %rdi
	call	_ZStlsISt11char_traitsIcEERSt13basic_ostreamIcT_ES5_PKc@PLT
	leaq	.LC15(%rip), %rdx
	leaq	_ZSt4cout(%rip), %rax
	movq	%rdx, %rsi
	movq	%rax, %rdi
	call	_ZStlsISt11char_traitsIcEERSt13basic_ostreamIcT_ES5_PKc@PLT
	movq	%rax, %rdx
	movsd	-200(%rbp), %xmm0
	divsd	-192(%rbp), %xmm0
	movq	%xmm0, %rax
	movq	%rax, %xmm0
	movq	%rdx, %rdi
	call	_ZNSolsEd@PLT
	movq	%rax, %rdx
	leaq	.LC16(%rip), %rax
	movq	%rax, %rsi
	movq	%rdx, %rdi
	call	_ZStlsISt11char_traitsIcEERSt13basic_ostreamIcT_ES5_PKc@PLT
	leaq	.LC17(%rip), %rdx
	leaq	_ZSt4cout(%rip), %rax
	movq	%rdx, %rsi
	movq	%rax, %rdi
	call	_ZStlsISt11char_traitsIcEERSt13basic_ostreamIcT_ES5_PKc@PLT
	movq	%rax, %rdx
	movsd	-200(%rbp), %xmm0
	divsd	-184(%rbp), %xmm0
	movq	%xmm0, %rax
	movq	%rax, %xmm0
	movq	%rdx, %rdi
	call	_ZNSolsEd@PLT
	movq	%rax, %rdx
	leaq	.LC16(%rip), %rax
	movq	%rax, %rsi
	movq	%rdx, %rdi
	call	_ZStlsISt11char_traitsIcEERSt13basic_ostreamIcT_ES5_PKc@PLT
	leaq	.LC18(%rip), %rdx
	leaq	_ZSt4cout(%rip), %rax
	movq	%rdx, %rsi
	movq	%rax, %rdi
	call	_ZStlsISt11char_traitsIcEERSt13basic_ostreamIcT_ES5_PKc@PLT
	movq	%rax, %rdx
	movsd	-184(%rbp), %xmm0
	divsd	-176(%rbp), %xmm0
	movq	%xmm0, %rax
	movq	%rax, %xmm0
	movq	%rdx, %rdi
	call	_ZNSolsEd@PLT
	movq	%rax, %rdx
	leaq	.LC16(%rip), %rax
	movq	%rax, %rsi
	movq	%rdx, %rdi
	call	_ZStlsISt11char_traitsIcEERSt13basic_ostreamIcT_ES5_PKc@PLT
	leaq	.LC19(%rip), %rdx
	leaq	_ZSt4cout(%rip), %rax
	movq	%rdx, %rsi
	movq	%rax, %rdi
	call	_ZStlsISt11char_traitsIcEERSt13basic_ostreamIcT_ES5_PKc@PLT
	movq	%rax, %rdx
	movq	-224(%rbp), %rax
	movq	%rax, %rsi
	movq	%rdx, %rdi
	call	_ZNSolsEl@PLT
	movq	%rax, %rdx
	leaq	.LC5(%rip), %rax
	movq	%rax, %rsi
	movq	%rdx, %rdi
	call	_ZStlsISt11char_traitsIcEERSt13basic_ostreamIcT_ES5_PKc@PLT
.LEHE1:
	movq	-272(%rbp), %rax
	addq	$8, %rax
	movq	%rax, -272(%rbp)
	nop
.L62:
	leaq	-272(%rbp), %rax
	movq	%rax, -160(%rbp)
	movq	-160(%rbp), %rax
	movq	(%rax), %rdx
	leaq	-264(%rbp), %rax
	movq	%rax, -152(%rbp)
	movq	-152(%rbp), %rax
	movq	(%rax), %rax
	cmpq	%rax, %rdx
	setne	%al
	testb	%al, %al
	jne	.L68
	movl	$0, %ebx
	leaq	-128(%rbp), %rax
	movq	%rax, %rdi
	call	_ZNSt6vectorIlSaIlEED1Ev
	movl	%ebx, %eax
	movq	-24(%rbp), %rdx
	subq	%fs:40, %rdx
	je	.L74
	jmp	.L77
.L75:
	movq	%rax, %rbx
	leaq	-64(%rbp), %rax
	movq	%rax, %rdi
	call	_ZNSt15__new_allocatorIlED2Ev
	nop
	movq	%rbx, %rax
	movq	-24(%rbp), %rdx
	subq	%fs:40, %rdx
	je	.L71
	call	__stack_chk_fail@PLT
.L71:
	movq	%rax, %rdi
.LEHB2:
	call	_Unwind_Resume@PLT
.L76:
	movq	%rax, %rbx
	leaq	-128(%rbp), %rax
	movq	%rax, %rdi
	call	_ZNSt6vectorIlSaIlEED1Ev
	movq	%rbx, %rax
	movq	-24(%rbp), %rdx
	subq	%fs:40, %rdx
	je	.L73
	call	__stack_chk_fail@PLT
.L73:
	movq	%rax, %rdi
	call	_Unwind_Resume@PLT
.LEHE2:
.L77:
	call	__stack_chk_fail@PLT
.L74:
	movq	-8(%rbp), %rbx
	leave
	.cfi_def_cfa 7, 8
	ret
	.cfi_endproc
.LFE8573:
	.section	.gcc_except_table,"a",@progbits
.LLSDA8573:
	.byte	0xff
	.byte	0xff
	.byte	0x1
	.uleb128 .LLSDACSE8573-.LLSDACSB8573
.LLSDACSB8573:
	.uleb128 .LEHB0-.LFB8573
	.uleb128 .LEHE0-.LEHB0
	.uleb128 .L75-.LFB8573
	.uleb128 0
	.uleb128 .LEHB1-.LFB8573
	.uleb128 .LEHE1-.LEHB1
	.uleb128 .L76-.LFB8573
	.uleb128 0
	.uleb128 .LEHB2-.LFB8573
	.uleb128 .LEHE2-.LEHB2
	.uleb128 0
	.uleb128 0
.LLSDACSE8573:
	.text
	.size	main, .-main
	.section	.text._ZNKSt6chrono10time_pointINS_3_V212system_clockENS_8durationIlSt5ratioILl1ELl1000000000EEEEE16time_since_epochEv,"axG",@progbits,_ZNKSt6chrono10time_pointINS_3_V212system_clockENS_8durationIlSt5ratioILl1ELl1000000000EEEEE16time_since_epochEv,comdat
	.align 2
	.weak	_ZNKSt6chrono10time_pointINS_3_V212system_clockENS_8durationIlSt5ratioILl1ELl1000000000EEEEE16time_since_epochEv
	.type	_ZNKSt6chrono10time_pointINS_3_V212system_clockENS_8durationIlSt5ratioILl1ELl1000000000EEEEE16time_since_epochEv, @function
_ZNKSt6chrono10time_pointINS_3_V212system_clockENS_8durationIlSt5ratioILl1ELl1000000000EEEEE16time_since_epochEv:
.LFB8857:
	.cfi_startproc
	pushq	%rbp
	.cfi_def_cfa_offset 16
	.cfi_offset 6, -16
	movq	%rsp, %rbp
	.cfi_def_cfa_register 6
	movq	%rdi, -8(%rbp)
	movq	-8(%rbp), %rax
	movq	(%rax), %rax
	popq	%rbp
	.cfi_def_cfa 7, 8
	ret
	.cfi_endproc
.LFE8857:
	.size	_ZNKSt6chrono10time_pointINS_3_V212system_clockENS_8durationIlSt5ratioILl1ELl1000000000EEEEE16time_since_epochEv, .-_ZNKSt6chrono10time_pointINS_3_V212system_clockENS_8durationIlSt5ratioILl1ELl1000000000EEEEE16time_since_epochEv
	.section	.text._ZNSt6vectorIlSaIlEEC2ESt16initializer_listIlERKS0_,"axG",@progbits,_ZNSt6vectorIlSaIlEEC5ESt16initializer_listIlERKS0_,comdat
	.align 2
	.weak	_ZNSt6vectorIlSaIlEEC2ESt16initializer_listIlERKS0_
	.type	_ZNSt6vectorIlSaIlEEC2ESt16initializer_listIlERKS0_, @function
_ZNSt6vectorIlSaIlEEC2ESt16initializer_listIlERKS0_:
.LFB8906:
	.cfi_startproc
	.cfi_personality 0x9b,DW.ref.__gxx_personality_v0
	.cfi_lsda 0x1b,.LLSDA8906
	pushq	%rbp
	.cfi_def_cfa_offset 16
	.cfi_offset 6, -16
	movq	%rsp, %rbp
	.cfi_def_cfa_register 6
	pushq	%r12
	pushq	%rbx
	subq	$32, %rsp
	.cfi_offset 12, -24
	.cfi_offset 3, -32
	movq	%rdi, -24(%rbp)
	movq	%rsi, %rax
	movq	%rdx, %rsi
	movq	%rax, %rax
	movl	$0, %edx
	movq	%rsi, %rdx
	movq	%rax, -48(%rbp)
	movq	%rdx, -40(%rbp)
	movq	%rcx, -32(%rbp)
	movq	-24(%rbp), %rax
	movq	-32(%rbp), %rdx
	movq	%rdx, %rsi
	movq	%rax, %rdi
	call	_ZNSt12_Vector_baseIlSaIlEEC2ERKS0_
	leaq	-48(%rbp), %rax
	movq	%rax, %rdi
	call	_ZNKSt16initializer_listIlE4sizeEv
	movq	%rax, %r12
	leaq	-48(%rbp), %rax
	movq	%rax, %rdi
	call	_ZNKSt16initializer_listIlE3endEv
	movq	%rax, %rbx
	leaq	-48(%rbp), %rax
	movq	%rax, %rdi
	call	_ZNKSt16initializer_listIlE5beginEv
	movq	%rax, %rsi
	movq	-24(%rbp), %rax
	movq	%r12, %rcx
	movq	%rbx, %rdx
	movq	%rax, %rdi
.LEHB3:
	call	_ZNSt6vectorIlSaIlEE21_M_range_initialize_nIPKlS4_EEvT_T0_m
.LEHE3:
	jmp	.L83
.L82:
	movq	%rax, %rbx
	movq	-24(%rbp), %rax
	movq	%rax, %rdi
	call	_ZNSt12_Vector_baseIlSaIlEED2Ev
	movq	%rbx, %rax
	movq	%rax, %rdi
.LEHB4:
	call	_Unwind_Resume@PLT
.LEHE4:
.L83:
	addq	$32, %rsp
	popq	%rbx
	popq	%r12
	popq	%rbp
	.cfi_def_cfa 7, 8
	ret
	.cfi_endproc
.LFE8906:
	.section	.gcc_except_table
.LLSDA8906:
	.byte	0xff
	.byte	0xff
	.byte	0x1
	.uleb128 .LLSDACSE8906-.LLSDACSB8906
.LLSDACSB8906:
	.uleb128 .LEHB3-.LFB8906
	.uleb128 .LEHE3-.LEHB3
	.uleb128 .L82-.LFB8906
	.uleb128 0
	.uleb128 .LEHB4-.LFB8906
	.uleb128 .LEHE4-.LEHB4
	.uleb128 0
	.uleb128 0
.LLSDACSE8906:
	.section	.text._ZNSt6vectorIlSaIlEEC2ESt16initializer_listIlERKS0_,"axG",@progbits,_ZNSt6vectorIlSaIlEEC5ESt16initializer_listIlERKS0_,comdat
	.size	_ZNSt6vectorIlSaIlEEC2ESt16initializer_listIlERKS0_, .-_ZNSt6vectorIlSaIlEEC2ESt16initializer_listIlERKS0_
	.weak	_ZNSt6vectorIlSaIlEEC1ESt16initializer_listIlERKS0_
	.set	_ZNSt6vectorIlSaIlEEC1ESt16initializer_listIlERKS0_,_ZNSt6vectorIlSaIlEEC2ESt16initializer_listIlERKS0_
	.section	.text._ZNSt6vectorIlSaIlEED2Ev,"axG",@progbits,_ZNSt6vectorIlSaIlEED5Ev,comdat
	.align 2
	.weak	_ZNSt6vectorIlSaIlEED2Ev
	.type	_ZNSt6vectorIlSaIlEED2Ev, @function
_ZNSt6vectorIlSaIlEED2Ev:
.LFB8909:
	.cfi_startproc
	pushq	%rbp
	.cfi_def_cfa_offset 16
	.cfi_offset 6, -16
	movq	%rsp, %rbp
	.cfi_def_cfa_register 6
	subq	$48, %rsp
	movq	%rdi, -40(%rbp)
	movq	-40(%rbp), %rax
	movq	%rax, %rdi
	call	_ZNSt12_Vector_baseIlSaIlEE19_M_get_Tp_allocatorEv
	movq	-40(%rbp), %rdx
	movq	8(%rdx), %rdx
	movq	-40(%rbp), %rcx
	movq	(%rcx), %rcx
	movq	%rcx, -24(%rbp)
	movq	%rdx, -16(%rbp)
	movq	%rax, -8(%rbp)
	movq	-16(%rbp), %rdx
	movq	-24(%rbp), %rax
	movq	%rdx, %rsi
	movq	%rax, %rdi
	call	_ZSt8_DestroyIPlEvT_S1_
	nop
	movq	-40(%rbp), %rax
	movq	%rax, %rdi
	call	_ZNSt12_Vector_baseIlSaIlEED2Ev
	nop
	leave
	.cfi_def_cfa 7, 8
	ret
	.cfi_endproc
.LFE8909:
	.size	_ZNSt6vectorIlSaIlEED2Ev, .-_ZNSt6vectorIlSaIlEED2Ev
	.weak	_ZNSt6vectorIlSaIlEED1Ev
	.set	_ZNSt6vectorIlSaIlEED1Ev,_ZNSt6vectorIlSaIlEED2Ev
	.section	.text._ZNSt6vectorIlSaIlEE5beginEv,"axG",@progbits,_ZNSt6vectorIlSaIlEE5beginEv,comdat
	.align 2
	.weak	_ZNSt6vectorIlSaIlEE5beginEv
	.type	_ZNSt6vectorIlSaIlEE5beginEv, @function
_ZNSt6vectorIlSaIlEE5beginEv:
.LFB8915:
	.cfi_startproc
	pushq	%rbp
	.cfi_def_cfa_offset 16
	.cfi_offset 6, -16
	movq	%rsp, %rbp
	.cfi_def_cfa_register 6
	subq	$48, %rsp
	movq	%rdi, -40(%rbp)
	movq	%fs:40, %rax
	movq	%rax, -8(%rbp)
	xorl	%eax, %eax
	movq	-40(%rbp), %rax
	movq	%rax, -16(%rbp)
	movq	-16(%rbp), %rax
	movq	(%rax), %rax
	movq	%rax, -24(%rbp)
	nop
	movq	-24(%rbp), %rax
	movq	-8(%rbp), %rdx
	subq	%fs:40, %rdx
	je	.L87
	call	__stack_chk_fail@PLT
.L87:
	leave
	.cfi_def_cfa 7, 8
	ret
	.cfi_endproc
.LFE8915:
	.size	_ZNSt6vectorIlSaIlEE5beginEv, .-_ZNSt6vectorIlSaIlEE5beginEv
	.section	.text._ZNSt6vectorIlSaIlEE3endEv,"axG",@progbits,_ZNSt6vectorIlSaIlEE3endEv,comdat
	.align 2
	.weak	_ZNSt6vectorIlSaIlEE3endEv
	.type	_ZNSt6vectorIlSaIlEE3endEv, @function
_ZNSt6vectorIlSaIlEE3endEv:
.LFB8916:
	.cfi_startproc
	pushq	%rbp
	.cfi_def_cfa_offset 16
	.cfi_offset 6, -16
	movq	%rsp, %rbp
	.cfi_def_cfa_register 6
	subq	$48, %rsp
	movq	%rdi, -40(%rbp)
	movq	%fs:40, %rax
	movq	%rax, -8(%rbp)
	xorl	%eax, %eax
	movq	-40(%rbp), %rax
	addq	$8, %rax
	movq	%rax, -16(%rbp)
	movq	-16(%rbp), %rax
	movq	(%rax), %rax
	movq	%rax, -24(%rbp)
	nop
	movq	-24(%rbp), %rax
	movq	-8(%rbp), %rdx
	subq	%fs:40, %rdx
	je	.L90
	call	__stack_chk_fail@PLT
.L90:
	leave
	.cfi_def_cfa 7, 8
	ret
	.cfi_endproc
.LFE8916:
	.size	_ZNSt6vectorIlSaIlEE3endEv, .-_ZNSt6vectorIlSaIlEE3endEv
	.text
	.type	_Z9time_loopIZ4mainEUllE_EdOT_l, @function
_Z9time_loopIZ4mainEUllE_EdOT_l:
.LFB8918:
	.cfi_startproc
	pushq	%rbp
	.cfi_def_cfa_offset 16
	.cfi_offset 6, -16
	movq	%rsp, %rbp
	.cfi_def_cfa_register 6
	subq	$64, %rsp
	movq	%rdi, -56(%rbp)
	movq	%rsi, -64(%rbp)
	movq	%fs:40, %rax
	movq	%rax, -8(%rbp)
	xorl	%eax, %eax
	call	_ZNSt6chrono3_V212system_clock3nowEv@PLT
	movq	%rax, -40(%rbp)
	movq	-64(%rbp), %rdx
	movq	-56(%rbp), %rax
	movq	%rdx, %rsi
	movq	%rax, %rdi
	call	_ZZ4mainENKUllE_clEl
	call	_ZNSt6chrono3_V212system_clock3nowEv@PLT
	movq	%rax, -32(%rbp)
	leaq	-40(%rbp), %rdx
	leaq	-32(%rbp), %rax
	movq	%rdx, %rsi
	movq	%rax, %rdi
	call	_ZNSt6chronomiINS_3_V212system_clockENS_8durationIlSt5ratioILl1ELl1000000000EEEES6_EENSt11common_typeIJT0_T1_EE4typeERKNS_10time_pointIT_S8_EERKNSC_ISD_S9_EE
	movq	%rax, -24(%rbp)
	leaq	-24(%rbp), %rdx
	leaq	-16(%rbp), %rax
	movq	%rdx, %rsi
	movq	%rax, %rdi
	call	_ZNSt6chrono8durationIdSt5ratioILl1ELl1EEEC1IlS1_ILl1ELl1000000000EEvEERKNS0_IT_T0_EE
	leaq	-16(%rbp), %rax
	movq	%rax, %rdi
	call	_ZNKSt6chrono8durationIdSt5ratioILl1ELl1EEE5countEv
	movq	-8(%rbp), %rax
	subq	%fs:40, %rax
	je	.L93
	call	__stack_chk_fail@PLT
.L93:
	leave
	.cfi_def_cfa 7, 8
	ret
	.cfi_endproc
.LFE8918:
	.size	_Z9time_loopIZ4mainEUllE_EdOT_l, .-_Z9time_loopIZ4mainEUllE_EdOT_l
	.type	_Z9time_loopIZ4mainEUllE0_EdOT_l, @function
_Z9time_loopIZ4mainEUllE0_EdOT_l:
.LFB8920:
	.cfi_startproc
	pushq	%rbp
	.cfi_def_cfa_offset 16
	.cfi_offset 6, -16
	movq	%rsp, %rbp
	.cfi_def_cfa_register 6
	subq	$64, %rsp
	movq	%rdi, -56(%rbp)
	movq	%rsi, -64(%rbp)
	movq	%fs:40, %rax
	movq	%rax, -8(%rbp)
	xorl	%eax, %eax
	call	_ZNSt6chrono3_V212system_clock3nowEv@PLT
	movq	%rax, -40(%rbp)
	movq	-64(%rbp), %rdx
	movq	-56(%rbp), %rax
	movq	%rdx, %rsi
	movq	%rax, %rdi
	call	_ZZ4mainENKUllE0_clEl
	call	_ZNSt6chrono3_V212system_clock3nowEv@PLT
	movq	%rax, -32(%rbp)
	leaq	-40(%rbp), %rdx
	leaq	-32(%rbp), %rax
	movq	%rdx, %rsi
	movq	%rax, %rdi
	call	_ZNSt6chronomiINS_3_V212system_clockENS_8durationIlSt5ratioILl1ELl1000000000EEEES6_EENSt11common_typeIJT0_T1_EE4typeERKNS_10time_pointIT_S8_EERKNSC_ISD_S9_EE
	movq	%rax, -24(%rbp)
	leaq	-24(%rbp), %rdx
	leaq	-16(%rbp), %rax
	movq	%rdx, %rsi
	movq	%rax, %rdi
	call	_ZNSt6chrono8durationIdSt5ratioILl1ELl1EEEC1IlS1_ILl1ELl1000000000EEvEERKNS0_IT_T0_EE
	leaq	-16(%rbp), %rax
	movq	%rax, %rdi
	call	_ZNKSt6chrono8durationIdSt5ratioILl1ELl1EEE5countEv
	movq	-8(%rbp), %rax
	subq	%fs:40, %rax
	je	.L96
	call	__stack_chk_fail@PLT
.L96:
	leave
	.cfi_def_cfa 7, 8
	ret
	.cfi_endproc
.LFE8920:
	.size	_Z9time_loopIZ4mainEUllE0_EdOT_l, .-_Z9time_loopIZ4mainEUllE0_EdOT_l
	.type	_Z9time_loopIZ4mainEUllE1_EdOT_l, @function
_Z9time_loopIZ4mainEUllE1_EdOT_l:
.LFB8921:
	.cfi_startproc
	pushq	%rbp
	.cfi_def_cfa_offset 16
	.cfi_offset 6, -16
	movq	%rsp, %rbp
	.cfi_def_cfa_register 6
	subq	$64, %rsp
	movq	%rdi, -56(%rbp)
	movq	%rsi, -64(%rbp)
	movq	%fs:40, %rax
	movq	%rax, -8(%rbp)
	xorl	%eax, %eax
	call	_ZNSt6chrono3_V212system_clock3nowEv@PLT
	movq	%rax, -40(%rbp)
	movq	-64(%rbp), %rdx
	movq	-56(%rbp), %rax
	movq	%rdx, %rsi
	movq	%rax, %rdi
	call	_ZZ4mainENKUllE1_clEl
	call	_ZNSt6chrono3_V212system_clock3nowEv@PLT
	movq	%rax, -32(%rbp)
	leaq	-40(%rbp), %rdx
	leaq	-32(%rbp), %rax
	movq	%rdx, %rsi
	movq	%rax, %rdi
	call	_ZNSt6chronomiINS_3_V212system_clockENS_8durationIlSt5ratioILl1ELl1000000000EEEES6_EENSt11common_typeIJT0_T1_EE4typeERKNS_10time_pointIT_S8_EERKNSC_ISD_S9_EE
	movq	%rax, -24(%rbp)
	leaq	-24(%rbp), %rdx
	leaq	-16(%rbp), %rax
	movq	%rdx, %rsi
	movq	%rax, %rdi
	call	_ZNSt6chrono8durationIdSt5ratioILl1ELl1EEEC1IlS1_ILl1ELl1000000000EEvEERKNS0_IT_T0_EE
	leaq	-16(%rbp), %rax
	movq	%rax, %rdi
	call	_ZNKSt6chrono8durationIdSt5ratioILl1ELl1EEE5countEv
	movq	-8(%rbp), %rax
	subq	%fs:40, %rax
	je	.L99
	call	__stack_chk_fail@PLT
.L99:
	leave
	.cfi_def_cfa 7, 8
	ret
	.cfi_endproc
.LFE8921:
	.size	_Z9time_loopIZ4mainEUllE1_EdOT_l, .-_Z9time_loopIZ4mainEUllE1_EdOT_l
	.type	_Z9time_loopIZ4mainEUllE2_EdOT_l, @function
_Z9time_loopIZ4mainEUllE2_EdOT_l:
.LFB8922:
	.cfi_startproc
	pushq	%rbp
	.cfi_def_cfa_offset 16
	.cfi_offset 6, -16
	movq	%rsp, %rbp
	.cfi_def_cfa_register 6
	subq	$64, %rsp
	movq	%rdi, -56(%rbp)
	movq	%rsi, -64(%rbp)
	movq	%fs:40, %rax
	movq	%rax, -8(%rbp)
	xorl	%eax, %eax
	call	_ZNSt6chrono3_V212system_clock3nowEv@PLT
	movq	%rax, -40(%rbp)
	movq	-64(%rbp), %rdx
	movq	-56(%rbp), %rax
	movq	%rdx, %rsi
	movq	%rax, %rdi
	call	_ZZ4mainENKUllE2_clEl
	call	_ZNSt6chrono3_V212system_clock3nowEv@PLT
	movq	%rax, -32(%rbp)
	leaq	-40(%rbp), %rdx
	leaq	-32(%rbp), %rax
	movq	%rdx, %rsi
	movq	%rax, %rdi
	call	_ZNSt6chronomiINS_3_V212system_clockENS_8durationIlSt5ratioILl1ELl1000000000EEEES6_EENSt11common_typeIJT0_T1_EE4typeERKNS_10time_pointIT_S8_EERKNSC_ISD_S9_EE
	movq	%rax, -24(%rbp)
	leaq	-24(%rbp), %rdx
	leaq	-16(%rbp), %rax
	movq	%rdx, %rsi
	movq	%rax, %rdi
	call	_ZNSt6chrono8durationIdSt5ratioILl1ELl1EEEC1IlS1_ILl1ELl1000000000EEvEERKNS0_IT_T0_EE
	leaq	-16(%rbp), %rax
	movq	%rax, %rdi
	call	_ZNKSt6chrono8durationIdSt5ratioILl1ELl1EEE5countEv
	movq	-8(%rbp), %rax
	subq	%fs:40, %rax
	je	.L102
	call	__stack_chk_fail@PLT
.L102:
	leave
	.cfi_def_cfa 7, 8
	ret
	.cfi_endproc
.LFE8922:
	.size	_Z9time_loopIZ4mainEUllE2_EdOT_l, .-_Z9time_loopIZ4mainEUllE2_EdOT_l
	.section	.text._ZNSt15__new_allocatorIlED2Ev,"axG",@progbits,_ZNSt15__new_allocatorIlED5Ev,comdat
	.align 2
	.weak	_ZNSt15__new_allocatorIlED2Ev
	.type	_ZNSt15__new_allocatorIlED2Ev, @function
_ZNSt15__new_allocatorIlED2Ev:
.LFB9052:
	.cfi_startproc
	pushq	%rbp
	.cfi_def_cfa_offset 16
	.cfi_offset 6, -16
	movq	%rsp, %rbp
	.cfi_def_cfa_register 6
	movq	%rdi, -8(%rbp)
	nop
	popq	%rbp
	.cfi_def_cfa 7, 8
	ret
	.cfi_endproc
.LFE9052:
	.size	_ZNSt15__new_allocatorIlED2Ev, .-_ZNSt15__new_allocatorIlED2Ev
	.weak	_ZNSt15__new_allocatorIlED1Ev
	.set	_ZNSt15__new_allocatorIlED1Ev,_ZNSt15__new_allocatorIlED2Ev
	.section	.text._ZNSt12_Vector_baseIlSaIlEE12_Vector_implD2Ev,"axG",@progbits,_ZNSt12_Vector_baseIlSaIlEE12_Vector_implD5Ev,comdat
	.align 2
	.weak	_ZNSt12_Vector_baseIlSaIlEE12_Vector_implD2Ev
	.type	_ZNSt12_Vector_baseIlSaIlEE12_Vector_implD2Ev, @function
_ZNSt12_Vector_baseIlSaIlEE12_Vector_implD2Ev:
.LFB9056:
	.cfi_startproc
	pushq	%rbp
	.cfi_def_cfa_offset 16
	.cfi_offset 6, -16
	movq	%rsp, %rbp
	.cfi_def_cfa_register 6
	subq	$32, %rsp
	movq	%rdi, -24(%rbp)
	movq	-24(%rbp), %rax
	movq	%rax, -8(%rbp)
	movq	-8(%rbp), %rax
	movq	%rax, %rdi
	call	_ZNSt15__new_allocatorIlED2Ev
	nop
	nop
	leave
	.cfi_def_cfa 7, 8
	ret
	.cfi_endproc
.LFE9056:
	.size	_ZNSt12_Vector_baseIlSaIlEE12_Vector_implD2Ev, .-_ZNSt12_Vector_baseIlSaIlEE12_Vector_implD2Ev
	.weak	_ZNSt12_Vector_baseIlSaIlEE12_Vector_implD1Ev
	.set	_ZNSt12_Vector_baseIlSaIlEE12_Vector_implD1Ev,_ZNSt12_Vector_baseIlSaIlEE12_Vector_implD2Ev
	.section	.text._ZNSt12_Vector_baseIlSaIlEEC2ERKS0_,"axG",@progbits,_ZNSt12_Vector_baseIlSaIlEEC5ERKS0_,comdat
	.align 2
	.weak	_ZNSt12_Vector_baseIlSaIlEEC2ERKS0_
	.type	_ZNSt12_Vector_baseIlSaIlEEC2ERKS0_, @function
_ZNSt12_Vector_baseIlSaIlEEC2ERKS0_:
.LFB9058:
	.cfi_startproc
	pushq	%rbp
	.cfi_def_cfa_offset 16
	.cfi_offset 6, -16
	movq	%rsp, %rbp
	.cfi_def_cfa_register 6
	subq	$16, %rsp
	movq	%rdi, -8(%rbp)
	movq	%rsi, -16(%rbp)
	movq	-8(%rbp), %rax
	movq	-16(%rbp), %rdx
	movq	%rdx, %rsi
	movq	%rax, %rdi
	call	_ZNSt12_Vector_baseIlSaIlEE12_Vector_implC1ERKS0_
	nop
	leave
	.cfi_def_cfa 7, 8
	ret
	.cfi_endproc
.LFE9058:
	.size	_ZNSt12_Vector_baseIlSaIlEEC2ERKS0_, .-_ZNSt12_Vector_baseIlSaIlEEC2ERKS0_
	.weak	_ZNSt12_Vector_baseIlSaIlEEC1ERKS0_
	.set	_ZNSt12_Vector_baseIlSaIlEEC1ERKS0_,_ZNSt12_Vector_baseIlSaIlEEC2ERKS0_
	.section	.text._ZNSt12_Vector_baseIlSaIlEED2Ev,"axG",@progbits,_ZNSt12_Vector_baseIlSaIlEED5Ev,comdat
	.align 2
	.weak	_ZNSt12_Vector_baseIlSaIlEED2Ev
	.type	_ZNSt12_Vector_baseIlSaIlEED2Ev, @function
_ZNSt12_Vector_baseIlSaIlEED2Ev:
.LFB9061:
	.cfi_startproc
	.cfi_personality 0x9b,DW.ref.__gxx_personality_v0
	.cfi_lsda 0x1b,.LLSDA9061
	pushq	%rbp
	.cfi_def_cfa_offset 16
	.cfi_offset 6, -16
	movq	%rsp, %rbp
	.cfi_def_cfa_register 6
	subq	$16, %rsp
	movq	%rdi, -8(%rbp)
	movq	-8(%rbp), %rax
	movq	16(%rax), %rdx
	movq	-8(%rbp), %rax
	movq	(%rax), %rax
	subq	%rax, %rdx
	movq	%rdx, %rax
	sarq	$3, %rax
	movq	%rax, %rdx
	movq	-8(%rbp), %rax
	movq	(%rax), %rcx
	movq	-8(%rbp), %rax
	movq	%rcx, %rsi
	movq	%rax, %rdi
	call	_ZNSt12_Vector_baseIlSaIlEE13_M_deallocateEPlm
	movq	-8(%rbp), %rax
	movq	%rax, %rdi
	call	_ZNSt12_Vector_baseIlSaIlEE12_Vector_implD1Ev
	nop
	leave
	.cfi_def_cfa 7, 8
	ret
	.cfi_endproc
.LFE9061:
	.section	.gcc_except_table
.LLSDA9061:
	.byte	0xff
	.byte	0xff
	.byte	0x1
	.uleb128 .LLSDACSE9061-.LLSDACSB9061
.LLSDACSB9061:
.LLSDACSE9061:
	.section	.text._ZNSt12_Vector_baseIlSaIlEED2Ev,"axG",@progbits,_ZNSt12_Vector_baseIlSaIlEED5Ev,comdat
	.size	_ZNSt12_Vector_baseIlSaIlEED2Ev, .-_ZNSt12_Vector_baseIlSaIlEED2Ev
	.weak	_ZNSt12_Vector_baseIlSaIlEED1Ev
	.set	_ZNSt12_Vector_baseIlSaIlEED1Ev,_ZNSt12_Vector_baseIlSaIlEED2Ev
	.section	.text._ZNKSt16initializer_listIlE5beginEv,"axG",@progbits,_ZNKSt16initializer_listIlE5beginEv,comdat
	.align 2
	.weak	_ZNKSt16initializer_listIlE5beginEv
	.type	_ZNKSt16initializer_listIlE5beginEv, @function
_ZNKSt16initializer_listIlE5beginEv:
.LFB9063:
	.cfi_startproc
	pushq	%rbp
	.cfi_def_cfa_offset 16
	.cfi_offset 6, -16
	movq	%rsp, %rbp
	.cfi_def_cfa_register 6
	movq	%rdi, -8(%rbp)
	movq	-8(%rbp), %rax
	movq	(%rax), %rax
	popq	%rbp
	.cfi_def_cfa 7, 8
	ret
	.cfi_endproc
.LFE9063:
	.size	_ZNKSt16initializer_listIlE5beginEv, .-_ZNKSt16initializer_listIlE5beginEv
	.section	.text._ZNKSt16initializer_listIlE3endEv,"axG",@progbits,_ZNKSt16initializer_listIlE3endEv,comdat
	.align 2
	.weak	_ZNKSt16initializer_listIlE3endEv
	.type	_ZNKSt16initializer_listIlE3endEv, @function
_ZNKSt16initializer_listIlE3endEv:
.LFB9064:
	.cfi_startproc
	pushq	%rbp
	.cfi_def_cfa_offset 16
	.cfi_offset 6, -16
	movq	%rsp, %rbp
	.cfi_def_cfa_register 6
	pushq	%rbx
	subq	$24, %rsp
	.cfi_offset 3, -24
	movq	%rdi, -24(%rbp)
	movq	-24(%rbp), %rax
	movq	%rax, %rdi
	call	_ZNKSt16initializer_listIlE5beginEv
	movq	%rax, %rbx
	movq	-24(%rbp), %rax
	movq	%rax, %rdi
	call	_ZNKSt16initializer_listIlE4sizeEv
	salq	$3, %rax
	addq	%rbx, %rax
	movq	-8(%rbp), %rbx
	leave
	.cfi_def_cfa 7, 8
	ret
	.cfi_endproc
.LFE9064:
	.size	_ZNKSt16initializer_listIlE3endEv, .-_ZNKSt16initializer_listIlE3endEv
	.section	.text._ZNKSt16initializer_listIlE4sizeEv,"axG",@progbits,_ZNKSt16initializer_listIlE4sizeEv,comdat
	.align 2
	.weak	_ZNKSt16initializer_listIlE4sizeEv
	.type	_ZNKSt16initializer_listIlE4sizeEv, @function
_ZNKSt16initializer_listIlE4sizeEv:
.LFB9065:
	.cfi_startproc
	pushq	%rbp
	.cfi_def_cfa_offset 16
	.cfi_offset 6, -16
	movq	%rsp, %rbp
	.cfi_def_cfa_register 6
	movq	%rdi, -8(%rbp)
	movq	-8(%rbp), %rax
	movq	8(%rax), %rax
	popq	%rbp
	.cfi_def_cfa 7, 8
	ret
	.cfi_endproc
.LFE9065:
	.size	_ZNKSt16initializer_listIlE4sizeEv, .-_ZNKSt16initializer_listIlE4sizeEv
	.section	.text._ZNSt6vectorIlSaIlEE21_M_range_initialize_nIPKlS4_EEvT_T0_m,"axG",@progbits,_ZNSt6vectorIlSaIlEE21_M_range_initialize_nIPKlS4_EEvT_T0_m,comdat
	.align 2
	.weak	_ZNSt6vectorIlSaIlEE21_M_range_initialize_nIPKlS4_EEvT_T0_m
	.type	_ZNSt6vectorIlSaIlEE21_M_range_initialize_nIPKlS4_EEvT_T0_m, @function
_ZNSt6vectorIlSaIlEE21_M_range_initialize_nIPKlS4_EEvT_T0_m:
.LFB9066:
	.cfi_startproc
	pushq	%rbp
	.cfi_def_cfa_offset 16
	.cfi_offset 6, -16
	movq	%rsp, %rbp
	.cfi_def_cfa_register 6
	pushq	%rbx
	subq	$56, %rsp
	.cfi_offset 3, -24
	movq	%rdi, -40(%rbp)
	movq	%rsi, -48(%rbp)
	movq	%rdx, -56(%rbp)
	movq	%rcx, -64(%rbp)
	movq	-40(%rbp), %rbx
	movq	-40(%rbp), %rax
	movq	%rax, %rdi
	call	_ZNSt12_Vector_baseIlSaIlEE19_M_get_Tp_allocatorEv
	movq	%rax, %rdx
	movq	-64(%rbp), %rax
	movq	%rdx, %rsi
	movq	%rax, %rdi
	call	_ZNSt6vectorIlSaIlEE17_S_check_init_lenEmRKS0_
	movq	%rax, %rsi
	movq	%rbx, %rdi
	call	_ZNSt12_Vector_baseIlSaIlEE11_M_allocateEm
	movq	%rax, -24(%rbp)
	movq	-40(%rbp), %rax
	movq	-24(%rbp), %rdx
	movq	%rdx, 8(%rax)
	movq	-40(%rbp), %rax
	movq	8(%rax), %rdx
	movq	-40(%rbp), %rax
	movq	%rdx, (%rax)
	movq	-64(%rbp), %rax
	leaq	0(,%rax,8), %rdx
	movq	-24(%rbp), %rax
	addq	%rax, %rdx
	movq	-40(%rbp), %rax
	movq	%rdx, 16(%rax)
	movq	-40(%rbp), %rax
	movq	%rax, %rdi
	call	_ZNSt12_Vector_baseIlSaIlEE19_M_get_Tp_allocatorEv
	movq	%rax, %rcx
	leaq	-48(%rbp), %rax
	movq	(%rax), %rax
	movq	-24(%rbp), %rdx
	movq	-56(%rbp), %rsi
	movq	%rax, %rdi
	call	_ZSt22__uninitialized_copy_aIPKlS1_PllET1_T_T0_S3_RSaIT2_E
	movq	-40(%rbp), %rdx
	movq	%rax, 8(%rdx)
	nop
	movq	-8(%rbp), %rbx
	leave
	.cfi_def_cfa 7, 8
	ret
	.cfi_endproc
.LFE9066:
	.size	_ZNSt6vectorIlSaIlEE21_M_range_initialize_nIPKlS4_EEvT_T0_m, .-_ZNSt6vectorIlSaIlEE21_M_range_initialize_nIPKlS4_EEvT_T0_m
	.section	.text._ZNSt12_Vector_baseIlSaIlEE19_M_get_Tp_allocatorEv,"axG",@progbits,_ZNSt12_Vector_baseIlSaIlEE19_M_get_Tp_allocatorEv,comdat
	.align 2
	.weak	_ZNSt12_Vector_baseIlSaIlEE19_M_get_Tp_allocatorEv
	.type	_ZNSt12_Vector_baseIlSaIlEE19_M_get_Tp_allocatorEv, @function
_ZNSt12_Vector_baseIlSaIlEE19_M_get_Tp_allocatorEv:
.LFB9067:
	.cfi_startproc
	pushq	%rbp
	.cfi_def_cfa_offset 16
	.cfi_offset 6, -16
	movq	%rsp, %rbp
	.cfi_def_cfa_register 6
	movq	%rdi, -8(%rbp)
	movq	-8(%rbp), %rax
	popq	%rbp
	.cfi_def_cfa 7, 8
	ret
	.cfi_endproc
.LFE9067:
	.size	_ZNSt12_Vector_baseIlSaIlEE19_M_get_Tp_allocatorEv, .-_ZNSt12_Vector_baseIlSaIlEE19_M_get_Tp_allocatorEv
	.section	.text._ZNSt6chronomiINS_3_V212system_clockENS_8durationIlSt5ratioILl1ELl1000000000EEEES6_EENSt11common_typeIJT0_T1_EE4typeERKNS_10time_pointIT_S8_EERKNSC_ISD_S9_EE,"axG",@progbits,_ZNSt6chronomiINS_3_V212system_clockENS_8durationIlSt5ratioILl1ELl1000000000EEEES6_EENSt11common_typeIJT0_T1_EE4typeERKNS_10time_pointIT_S8_EERKNSC_ISD_S9_EE,comdat
	.weak	_ZNSt6chronomiINS_3_V212system_clockENS_8durationIlSt5ratioILl1ELl1000000000EEEES6_EENSt11common_typeIJT0_T1_EE4typeERKNS_10time_pointIT_S8_EERKNSC_ISD_S9_EE
	.type	_ZNSt6chronomiINS_3_V212system_clockENS_8durationIlSt5ratioILl1ELl1000000000EEEES6_EENSt11common_typeIJT0_T1_EE4typeERKNS_10time_pointIT_S8_EERKNSC_ISD_S9_EE, @function
_ZNSt6chronomiINS_3_V212system_clockENS_8durationIlSt5ratioILl1ELl1000000000EEEES6_EENSt11common_typeIJT0_T1_EE4typeERKNS_10time_pointIT_S8_EERKNSC_ISD_S9_EE:
.LFB9073:
	.cfi_startproc
	pushq	%rbp
	.cfi_def_cfa_offset 16
	.cfi_offset 6, -16
	movq	%rsp, %rbp
	.cfi_def_cfa_register 6
	subq	$48, %rsp
	movq	%rdi, -40(%rbp)
	movq	%rsi, -48(%rbp)
	movq	%fs:40, %rax
	movq	%rax, -8(%rbp)
	xorl	%eax, %eax
	movq	-48(%rbp), %rax
	movq	%rax, %rdi
	call	_ZNKSt6chrono10time_pointINS_3_V212system_clockENS_8durationIlSt5ratioILl1ELl1000000000EEEEE16time_since_epochEv
	movq	%rax, -16(%rbp)
	movq	-40(%rbp), %rax
	movq	%rax, %rdi
	call	_ZNKSt6chrono10time_pointINS_3_V212system_clockENS_8durationIlSt5ratioILl1ELl1000000000EEEEE16time_since_epochEv
	movq	%rax, -24(%rbp)
	leaq	-16(%rbp), %rdx
	leaq	-24(%rbp), %rax
	movq	%rdx, %rsi
	movq	%rax, %rdi
	call	_ZNSt6chronomiIlSt5ratioILl1ELl1000000000EElS2_EENSt11common_typeIJNS_8durationIT_T0_EENS4_IT1_T2_EEEE4typeERKS7_RKSA_
	movq	-8(%rbp), %rdx
	subq	%fs:40, %rdx
	je	.L119
	call	__stack_chk_fail@PLT
.L119:
	leave
	.cfi_def_cfa 7, 8
	ret
	.cfi_endproc
.LFE9073:
	.size	_ZNSt6chronomiINS_3_V212system_clockENS_8durationIlSt5ratioILl1ELl1000000000EEEES6_EENSt11common_typeIJT0_T1_EE4typeERKNS_10time_pointIT_S8_EERKNSC_ISD_S9_EE, .-_ZNSt6chronomiINS_3_V212system_clockENS_8durationIlSt5ratioILl1ELl1000000000EEEES6_EENSt11common_typeIJT0_T1_EE4typeERKNS_10time_pointIT_S8_EERKNSC_ISD_S9_EE
	.section	.text._ZNSt6chrono8durationIdSt5ratioILl1ELl1EEEC2IlS1_ILl1ELl1000000000EEvEERKNS0_IT_T0_EE,"axG",@progbits,_ZNSt6chrono8durationIdSt5ratioILl1ELl1EEEC5IlS1_ILl1ELl1000000000EEvEERKNS0_IT_T0_EE,comdat
	.align 2
	.weak	_ZNSt6chrono8durationIdSt5ratioILl1ELl1EEEC2IlS1_ILl1ELl1000000000EEvEERKNS0_IT_T0_EE
	.type	_ZNSt6chrono8durationIdSt5ratioILl1ELl1EEEC2IlS1_ILl1ELl1000000000EEvEERKNS0_IT_T0_EE, @function
_ZNSt6chrono8durationIdSt5ratioILl1ELl1EEEC2IlS1_ILl1ELl1000000000EEvEERKNS0_IT_T0_EE:
.LFB9075:
	.cfi_startproc
	pushq	%rbp
	.cfi_def_cfa_offset 16
	.cfi_offset 6, -16
	movq	%rsp, %rbp
	.cfi_def_cfa_register 6
	subq	$32, %rsp
	movq	%rdi, -24(%rbp)
	movq	%rsi, -32(%rbp)
	movq	%fs:40, %rax
	movq	%rax, -8(%rbp)
	xorl	%eax, %eax
	movq	-32(%rbp), %rax
	movq	%rax, %rdi
	call	_ZNSt6chrono13duration_castINS_8durationIdSt5ratioILl1ELl1EEEElS2_ILl1ELl1000000000EEEENSt9enable_ifIXsrNS_13__is_durationIT_EE5valueES8_E4typeERKNS1_IT0_T1_EE
	movsd	%xmm0, -16(%rbp)
	leaq	-16(%rbp), %rax
	movq	%rax, %rdi
	call	_ZNKSt6chrono8durationIdSt5ratioILl1ELl1EEE5countEv
	movq	%xmm0, %rax
	movq	-24(%rbp), %rdx
	movq	%rax, (%rdx)
	nop
	movq	-8(%rbp), %rax
	subq	%fs:40, %rax
	je	.L121
	call	__stack_chk_fail@PLT
.L121:
	leave
	.cfi_def_cfa 7, 8
	ret
	.cfi_endproc
.LFE9075:
	.size	_ZNSt6chrono8durationIdSt5ratioILl1ELl1EEEC2IlS1_ILl1ELl1000000000EEvEERKNS0_IT_T0_EE, .-_ZNSt6chrono8durationIdSt5ratioILl1ELl1EEEC2IlS1_ILl1ELl1000000000EEvEERKNS0_IT_T0_EE
	.weak	_ZNSt6chrono8durationIdSt5ratioILl1ELl1EEEC1IlS1_ILl1ELl1000000000EEvEERKNS0_IT_T0_EE
	.set	_ZNSt6chrono8durationIdSt5ratioILl1ELl1EEEC1IlS1_ILl1ELl1000000000EEvEERKNS0_IT_T0_EE,_ZNSt6chrono8durationIdSt5ratioILl1ELl1EEEC2IlS1_ILl1ELl1000000000EEvEERKNS0_IT_T0_EE
	.section	.text._ZNKSt6chrono8durationIdSt5ratioILl1ELl1EEE5countEv,"axG",@progbits,_ZNKSt6chrono8durationIdSt5ratioILl1ELl1EEE5countEv,comdat
	.align 2
	.weak	_ZNKSt6chrono8durationIdSt5ratioILl1ELl1EEE5countEv
	.type	_ZNKSt6chrono8durationIdSt5ratioILl1ELl1EEE5countEv, @function
_ZNKSt6chrono8durationIdSt5ratioILl1ELl1EEE5countEv:
.LFB9077:
	.cfi_startproc
	pushq	%rbp
	.cfi_def_cfa_offset 16
	.cfi_offset 6, -16
	movq	%rsp, %rbp
	.cfi_def_cfa_register 6
	movq	%rdi, -8(%rbp)
	movq	-8(%rbp), %rax
	movsd	(%rax), %xmm0
	popq	%rbp
	.cfi_def_cfa 7, 8
	ret
	.cfi_endproc
.LFE9077:
	.size	_ZNKSt6chrono8durationIdSt5ratioILl1ELl1EEE5countEv, .-_ZNKSt6chrono8durationIdSt5ratioILl1ELl1EEE5countEv
	.section	.text._ZSt3minImERKT_S2_S2_,"axG",@progbits,_ZSt3minImERKT_S2_S2_,comdat
	.weak	_ZSt3minImERKT_S2_S2_
	.type	_ZSt3minImERKT_S2_S2_, @function
_ZSt3minImERKT_S2_S2_:
.LFB9110:
	.cfi_startproc
	pushq	%rbp
	.cfi_def_cfa_offset 16
	.cfi_offset 6, -16
	movq	%rsp, %rbp
	.cfi_def_cfa_register 6
	movq	%rdi, -8(%rbp)
	movq	%rsi, -16(%rbp)
	movq	-16(%rbp), %rax
	movq	(%rax), %rdx
	movq	-8(%rbp), %rax
	movq	(%rax), %rax
	cmpq	%rax, %rdx
	jnb	.L125
	movq	-16(%rbp), %rax
	jmp	.L126
.L125:
	movq	-8(%rbp), %rax
.L126:
	popq	%rbp
	.cfi_def_cfa 7, 8
	ret
	.cfi_endproc
.LFE9110:
	.size	_ZSt3minImERKT_S2_S2_, .-_ZSt3minImERKT_S2_S2_
	.section	.text._ZNSt12_Vector_baseIlSaIlEE12_Vector_implC2ERKS0_,"axG",@progbits,_ZNSt12_Vector_baseIlSaIlEE12_Vector_implC5ERKS0_,comdat
	.align 2
	.weak	_ZNSt12_Vector_baseIlSaIlEE12_Vector_implC2ERKS0_
	.type	_ZNSt12_Vector_baseIlSaIlEE12_Vector_implC2ERKS0_, @function
_ZNSt12_Vector_baseIlSaIlEE12_Vector_implC2ERKS0_:
.LFB9150:
	.cfi_startproc
	pushq	%rbp
	.cfi_def_cfa_offset 16
	.cfi_offset 6, -16
	movq	%rsp, %rbp
	.cfi_def_cfa_register 6
	subq	$48, %rsp
	movq	%rdi, -40(%rbp)
	movq	%rsi, -48(%rbp)
	movq	-40(%rbp), %rax
	movq	%rax, -32(%rbp)
	movq	-48(%rbp), %rax
	movq	%rax, -24(%rbp)
	movq	-32(%rbp), %rax
	movq	%rax, -16(%rbp)
	movq	-24(%rbp), %rax
	movq	%rax, -8(%rbp)
	nop
	nop
	movq	-40(%rbp), %rax
	movq	%rax, %rdi
	call	_ZNSt12_Vector_baseIlSaIlEE17_Vector_impl_dataC2Ev
	nop
	leave
	.cfi_def_cfa 7, 8
	ret
	.cfi_endproc
.LFE9150:
	.size	_ZNSt12_Vector_baseIlSaIlEE12_Vector_implC2ERKS0_, .-_ZNSt12_Vector_baseIlSaIlEE12_Vector_implC2ERKS0_
	.weak	_ZNSt12_Vector_baseIlSaIlEE12_Vector_implC1ERKS0_
	.set	_ZNSt12_Vector_baseIlSaIlEE12_Vector_implC1ERKS0_,_ZNSt12_Vector_baseIlSaIlEE12_Vector_implC2ERKS0_
	.section	.text._ZNSt12_Vector_baseIlSaIlEE13_M_deallocateEPlm,"axG",@progbits,_ZNSt12_Vector_baseIlSaIlEE13_M_deallocateEPlm,comdat
	.align 2
	.weak	_ZNSt12_Vector_baseIlSaIlEE13_M_deallocateEPlm
	.type	_ZNSt12_Vector_baseIlSaIlEE13_M_deallocateEPlm, @function
_ZNSt12_Vector_baseIlSaIlEE13_M_deallocateEPlm:
.LFB9152:
	.cfi_startproc
	pushq	%rbp
	.cfi_def_cfa_offset 16
	.cfi_offset 6, -16
	movq	%rsp, %rbp
	.cfi_def_cfa_register 6
	subq	$64, %rsp
	movq	%rdi, -40(%rbp)
	movq	%rsi, -48(%rbp)
	movq	%rdx, -56(%rbp)
	cmpq	$0, -48(%rbp)
	je	.L130
	movq	-40(%rbp), %rax
	movq	%rax, -24(%rbp)
	movq	-48(%rbp), %rax
	movq	%rax, -16(%rbp)
	movq	-56(%rbp), %rax
	movq	%rax, -8(%rbp)
	movq	-8(%rbp), %rdx
	movq	-16(%rbp), %rcx
	movq	-24(%rbp), %rax
	movq	%rcx, %rsi
	movq	%rax, %rdi
	call	_ZNSt15__new_allocatorIlE10deallocateEPlm
	nop
.L130:
	nop
	leave
	.cfi_def_cfa 7, 8
	ret
	.cfi_endproc
.LFE9152:
	.size	_ZNSt12_Vector_baseIlSaIlEE13_M_deallocateEPlm, .-_ZNSt12_Vector_baseIlSaIlEE13_M_deallocateEPlm
	.section	.rodata
	.align 8
.LC20:
	.string	"cannot create std::vector larger than max_size()"
	.section	.text._ZNSt6vectorIlSaIlEE17_S_check_init_lenEmRKS0_,"axG",@progbits,_ZNSt6vectorIlSaIlEE17_S_check_init_lenEmRKS0_,comdat
	.weak	_ZNSt6vectorIlSaIlEE17_S_check_init_lenEmRKS0_
	.type	_ZNSt6vectorIlSaIlEE17_S_check_init_lenEmRKS0_, @function
_ZNSt6vectorIlSaIlEE17_S_check_init_lenEmRKS0_:
.LFB9153:
	.cfi_startproc
	pushq	%rbp
	.cfi_def_cfa_offset 16
	.cfi_offset 6, -16
	movq	%rsp, %rbp
	.cfi_def_cfa_register 6
	pushq	%rbx
	subq	$72, %rsp
	.cfi_offset 3, -24
	movq	%rdi, -72(%rbp)
	movq	%rsi, -80(%rbp)
	movq	%fs:40, %rax
	movq	%rax, -24(%rbp)
	xorl	%eax, %eax
	movq	-80(%rbp), %rax
	movq	%rax, -48(%rbp)
	leaq	-49(%rbp), %rax
	movq	%rax, -40(%rbp)
	movq	-48(%rbp), %rax
	movq	%rax, -32(%rbp)
	nop
	nop
	leaq	-49(%rbp), %rax
	movq	%rax, %rdi
	call	_ZNSt6vectorIlSaIlEE11_S_max_sizeERKS0_
	cmpq	-72(%rbp), %rax
	setb	%bl
	leaq	-49(%rbp), %rax
	movq	%rax, %rdi
	call	_ZNSt15__new_allocatorIlED2Ev
	nop
	testb	%bl, %bl
	je	.L132
	movq	-24(%rbp), %rax
	subq	%fs:40, %rax
	je	.L133
	call	__stack_chk_fail@PLT
.L133:
	leaq	.LC20(%rip), %rax
	movq	%rax, %rdi
	call	_ZSt20__throw_length_errorPKc@PLT
.L132:
	movq	-72(%rbp), %rax
	movq	-24(%rbp), %rdx
	subq	%fs:40, %rdx
	je	.L135
	call	__stack_chk_fail@PLT
.L135:
	movq	-8(%rbp), %rbx
	leave
	.cfi_def_cfa 7, 8
	ret
	.cfi_endproc
.LFE9153:
	.size	_ZNSt6vectorIlSaIlEE17_S_check_init_lenEmRKS0_, .-_ZNSt6vectorIlSaIlEE17_S_check_init_lenEmRKS0_
	.section	.text._ZNSt12_Vector_baseIlSaIlEE11_M_allocateEm,"axG",@progbits,_ZNSt12_Vector_baseIlSaIlEE11_M_allocateEm,comdat
	.align 2
	.weak	_ZNSt12_Vector_baseIlSaIlEE11_M_allocateEm
	.type	_ZNSt12_Vector_baseIlSaIlEE11_M_allocateEm, @function
_ZNSt12_Vector_baseIlSaIlEE11_M_allocateEm:
.LFB9154:
	.cfi_startproc
	pushq	%rbp
	.cfi_def_cfa_offset 16
	.cfi_offset 6, -16
	movq	%rsp, %rbp
	.cfi_def_cfa_register 6
	subq	$32, %rsp
	movq	%rdi, -24(%rbp)
	movq	%rsi, -32(%rbp)
	cmpq	$0, -32(%rbp)
	je	.L137
	movq	-24(%rbp), %rax
	movq	%rax, -16(%rbp)
	movq	-32(%rbp), %rax
	movq	%rax, -8(%rbp)
	movq	-8(%rbp), %rcx
	movq	-16(%rbp), %rax
	movl	$0, %edx
	movq	%rcx, %rsi
	movq	%rax, %rdi
	call	_ZNSt15__new_allocatorIlE8allocateEmPKv
	nop
	jmp	.L139
.L137:
	movl	$0, %eax
.L139:
	leave
	.cfi_def_cfa 7, 8
	ret
	.cfi_endproc
.LFE9154:
	.size	_ZNSt12_Vector_baseIlSaIlEE11_M_allocateEm, .-_ZNSt12_Vector_baseIlSaIlEE11_M_allocateEm
	.section	.text._ZSt22__uninitialized_copy_aIPKlS1_PllET1_T_T0_S3_RSaIT2_E,"axG",@progbits,_ZSt22__uninitialized_copy_aIPKlS1_PllET1_T_T0_S3_RSaIT2_E,comdat
	.weak	_ZSt22__uninitialized_copy_aIPKlS1_PllET1_T_T0_S3_RSaIT2_E
	.type	_ZSt22__uninitialized_copy_aIPKlS1_PllET1_T_T0_S3_RSaIT2_E, @function
_ZSt22__uninitialized_copy_aIPKlS1_PllET1_T_T0_S3_RSaIT2_E:
.LFB9156:
	.cfi_startproc
	pushq	%rbp
	.cfi_def_cfa_offset 16
	.cfi_offset 6, -16
	movq	%rsp, %rbp
	.cfi_def_cfa_register 6
	subq	$32, %rsp
	movq	%rdi, -8(%rbp)
	movq	%rsi, -16(%rbp)
	movq	%rdx, -24(%rbp)
	movq	%rcx, -32(%rbp)
	movq	-24(%rbp), %rdx
	movq	-16(%rbp), %rcx
	movq	-8(%rbp), %rax
	movq	%rcx, %rsi
	movq	%rax, %rdi
	call	_ZSt18uninitialized_copyIPKlPlET0_T_S4_S3_
	leave
	.cfi_def_cfa 7, 8
	ret
	.cfi_endproc
.LFE9156:
	.size	_ZSt22__uninitialized_copy_aIPKlS1_PllET1_T_T0_S3_RSaIT2_E, .-_ZSt22__uninitialized_copy_aIPKlS1_PllET1_T_T0_S3_RSaIT2_E
	.section	.text._ZSt8_DestroyIPlEvT_S1_,"axG",@progbits,_ZSt8_DestroyIPlEvT_S1_,comdat
	.weak	_ZSt8_DestroyIPlEvT_S1_
	.type	_ZSt8_DestroyIPlEvT_S1_, @function
_ZSt8_DestroyIPlEvT_S1_:
.LFB9157:
	.cfi_startproc
	pushq	%rbp
	.cfi_def_cfa_offset 16
	.cfi_offset 6, -16
	movq	%rsp, %rbp
	.cfi_def_cfa_register 6
	movq	%rdi, -8(%rbp)
	movq	%rsi, -16(%rbp)
	nop
	popq	%rbp
	.cfi_def_cfa 7, 8
	ret
	.cfi_endproc
.LFE9157:
	.size	_ZSt8_DestroyIPlEvT_S1_, .-_ZSt8_DestroyIPlEvT_S1_
	.section	.text._ZNSt6chronomiIlSt5ratioILl1ELl1000000000EElS2_EENSt11common_typeIJNS_8durationIT_T0_EENS4_IT1_T2_EEEE4typeERKS7_RKSA_,"axG",@progbits,_ZNSt6chronomiIlSt5ratioILl1ELl1000000000EElS2_EENSt11common_typeIJNS_8durationIT_T0_EENS4_IT1_T2_EEEE4typeERKS7_RKSA_,comdat
	.weak	_ZNSt6chronomiIlSt5ratioILl1ELl1000000000EElS2_EENSt11common_typeIJNS_8durationIT_T0_EENS4_IT1_T2_EEEE4typeERKS7_RKSA_
	.type	_ZNSt6chronomiIlSt5ratioILl1ELl1000000000EElS2_EENSt11common_typeIJNS_8durationIT_T0_EENS4_IT1_T2_EEEE4typeERKS7_RKSA_, @function
_ZNSt6chronomiIlSt5ratioILl1ELl1000000000EElS2_EENSt11common_typeIJNS_8durationIT_T0_EENS4_IT1_T2_EEEE4typeERKS7_RKSA_:
.LFB9159:
	.cfi_startproc
	pushq	%rbp
	.cfi_def_cfa_offset 16
	.cfi_offset 6, -16
	movq	%rsp, %rbp
	.cfi_def_cfa_register 6
	pushq	%rbx
	subq	$72, %rsp
	.cfi_offset 3, -24
	movq	%rdi, -72(%rbp)
	movq	%rsi, -80(%rbp)
	movq	%fs:40, %rax
	movq	%rax, -24(%rbp)
	xorl	%eax, %eax
	movq	-72(%rbp), %rax
	movq	(%rax), %rax
	movq	%rax, -56(%rbp)
	leaq	-56(%rbp), %rax
	movq	%rax, %rdi
	call	_ZNKSt6chrono8durationIlSt5ratioILl1ELl1000000000EEE5countEv
	movq	%rax, %rbx
	movq	-80(%rbp), %rax
	movq	(%rax), %rax
	movq	%rax, -48(%rbp)
	leaq	-48(%rbp), %rax
	movq	%rax, %rdi
	call	_ZNKSt6chrono8durationIlSt5ratioILl1ELl1000000000EEE5countEv
	subq	%rax, %rbx
	movq	%rbx, %rdx
	movq	%rdx, -40(%rbp)
	leaq	-40(%rbp), %rdx
	leaq	-32(%rbp), %rax
	movq	%rdx, %rsi
	movq	%rax, %rdi
	call	_ZNSt6chrono8durationIlSt5ratioILl1ELl1000000000EEEC1IlvEERKT_
	movq	-32(%rbp), %rax
	movq	-24(%rbp), %rdx
	subq	%fs:40, %rdx
	je	.L146
	call	__stack_chk_fail@PLT
.L146:
	movq	-8(%rbp), %rbx
	leave
	.cfi_def_cfa 7, 8
	ret
	.cfi_endproc
.LFE9159:
	.size	_ZNSt6chronomiIlSt5ratioILl1ELl1000000000EElS2_EENSt11common_typeIJNS_8durationIT_T0_EENS4_IT1_T2_EEEE4typeERKS7_RKSA_, .-_ZNSt6chronomiIlSt5ratioILl1ELl1000000000EElS2_EENSt11common_typeIJNS_8durationIT_T0_EENS4_IT1_T2_EEEE4typeERKS7_RKSA_
	.section	.text._ZNSt6chrono13duration_castINS_8durationIdSt5ratioILl1ELl1EEEElS2_ILl1ELl1000000000EEEENSt9enable_ifIXsrNS_13__is_durationIT_EE5valueES8_E4typeERKNS1_IT0_T1_EE,"axG",@progbits,_ZNSt6chrono13duration_castINS_8durationIdSt5ratioILl1ELl1EEEElS2_ILl1ELl1000000000EEEENSt9enable_ifIXsrNS_13__is_durationIT_EE5valueES8_E4typeERKNS1_IT0_T1_EE,comdat
	.weak	_ZNSt6chrono13duration_castINS_8durationIdSt5ratioILl1ELl1EEEElS2_ILl1ELl1000000000EEEENSt9enable_ifIXsrNS_13__is_durationIT_EE5valueES8_E4typeERKNS1_IT0_T1_EE
	.type	_ZNSt6chrono13duration_castINS_8durationIdSt5ratioILl1ELl1EEEElS2_ILl1ELl1000000000EEEENSt9enable_ifIXsrNS_13__is_durationIT_EE5valueES8_E4typeERKNS1_IT0_T1_EE, @function
_ZNSt6chrono13duration_castINS_8durationIdSt5ratioILl1ELl1EEEElS2_ILl1ELl1000000000EEEENSt9enable_ifIXsrNS_13__is_durationIT_EE5valueES8_E4typeERKNS1_IT0_T1_EE:
.LFB9160:
	.cfi_startproc
	pushq	%rbp
	.cfi_def_cfa_offset 16
	.cfi_offset 6, -16
	movq	%rsp, %rbp
	.cfi_def_cfa_register 6
	subq	$16, %rsp
	movq	%rdi, -8(%rbp)
	movq	-8(%rbp), %rax
	movq	%rax, %rdi
	call	_ZNSt6chrono20__duration_cast_implINS_8durationIdSt5ratioILl1ELl1EEEES2_ILl1ELl1000000000EEdLb1ELb0EE6__castIlS5_EES4_RKNS1_IT_T0_EE
	leave
	.cfi_def_cfa 7, 8
	ret
	.cfi_endproc
.LFE9160:
	.size	_ZNSt6chrono13duration_castINS_8durationIdSt5ratioILl1ELl1EEEElS2_ILl1ELl1000000000EEEENSt9enable_ifIXsrNS_13__is_durationIT_EE5valueES8_E4typeERKNS1_IT0_T1_EE, .-_ZNSt6chrono13duration_castINS_8durationIdSt5ratioILl1ELl1EEEElS2_ILl1ELl1000000000EEEENSt9enable_ifIXsrNS_13__is_durationIT_EE5valueES8_E4typeERKNS1_IT0_T1_EE
	.section	.text._ZNSt12_Vector_baseIlSaIlEE17_Vector_impl_dataC2Ev,"axG",@progbits,_ZNSt12_Vector_baseIlSaIlEE17_Vector_impl_dataC5Ev,comdat
	.align 2
	.weak	_ZNSt12_Vector_baseIlSaIlEE17_Vector_impl_dataC2Ev
	.type	_ZNSt12_Vector_baseIlSaIlEE17_Vector_impl_dataC2Ev, @function
_ZNSt12_Vector_baseIlSaIlEE17_Vector_impl_dataC2Ev:
.LFB9227:
	.cfi_startproc
	pushq	%rbp
	.cfi_def_cfa_offset 16
	.cfi_offset 6, -16
	movq	%rsp, %rbp
	.cfi_def_cfa_register 6
	movq	%rdi, -8(%rbp)
	movq	-8(%rbp), %rax
	movq	$0, (%rax)
	movq	-8(%rbp), %rax
	movq	$0, 8(%rax)
	movq	-8(%rbp), %rax
	movq	$0, 16(%rax)
	nop
	popq	%rbp
	.cfi_def_cfa 7, 8
	ret
	.cfi_endproc
.LFE9227:
	.size	_ZNSt12_Vector_baseIlSaIlEE17_Vector_impl_dataC2Ev, .-_ZNSt12_Vector_baseIlSaIlEE17_Vector_impl_dataC2Ev
	.weak	_ZNSt12_Vector_baseIlSaIlEE17_Vector_impl_dataC1Ev
	.set	_ZNSt12_Vector_baseIlSaIlEE17_Vector_impl_dataC1Ev,_ZNSt12_Vector_baseIlSaIlEE17_Vector_impl_dataC2Ev
	.section	.text._ZNSt6vectorIlSaIlEE11_S_max_sizeERKS0_,"axG",@progbits,_ZNSt6vectorIlSaIlEE11_S_max_sizeERKS0_,comdat
	.weak	_ZNSt6vectorIlSaIlEE11_S_max_sizeERKS0_
	.type	_ZNSt6vectorIlSaIlEE11_S_max_sizeERKS0_, @function
_ZNSt6vectorIlSaIlEE11_S_max_sizeERKS0_:
.LFB9230:
	.cfi_startproc
	pushq	%rbp
	.cfi_def_cfa_offset 16
	.cfi_offset 6, -16
	movq	%rsp, %rbp
	.cfi_def_cfa_register 6
	subq	$64, %rsp
	movq	%rdi, -56(%rbp)
	movq	%fs:40, %rax
	movq	%rax, -8(%rbp)
	xorl	%eax, %eax
	movabsq	$1152921504606846975, %rax
	movq	%rax, -48(%rbp)
	movq	-56(%rbp), %rax
	movq	%rax, -32(%rbp)
	movq	-32(%rbp), %rax
	movq	%rax, -24(%rbp)
	movq	-24(%rbp), %rax
	movq	%rax, -16(%rbp)
	movabsq	$1152921504606846975, %rax
	nop
	nop
	movq	%rax, -40(%rbp)
	leaq	-40(%rbp), %rdx
	leaq	-48(%rbp), %rax
	movq	%rdx, %rsi
	movq	%rax, %rdi
	call	_ZSt3minImERKT_S2_S2_
	movq	(%rax), %rax
	movq	-8(%rbp), %rdx
	subq	%fs:40, %rdx
	je	.L155
	call	__stack_chk_fail@PLT
.L155:
	leave
	.cfi_def_cfa 7, 8
	ret
	.cfi_endproc
.LFE9230:
	.size	_ZNSt6vectorIlSaIlEE11_S_max_sizeERKS0_, .-_ZNSt6vectorIlSaIlEE11_S_max_sizeERKS0_
	.section	.text._ZSt18uninitialized_copyIPKlPlET0_T_S4_S3_,"axG",@progbits,_ZSt18uninitialized_copyIPKlPlET0_T_S4_S3_,comdat
	.weak	_ZSt18uninitialized_copyIPKlPlET0_T_S4_S3_
	.type	_ZSt18uninitialized_copyIPKlPlET0_T_S4_S3_, @function
_ZSt18uninitialized_copyIPKlPlET0_T_S4_S3_:
.LFB9232:
	.cfi_startproc
	pushq	%rbp
	.cfi_def_cfa_offset 16
	.cfi_offset 6, -16
	movq	%rsp, %rbp
	.cfi_def_cfa_register 6
	subq	$64, %rsp
	movq	%rdi, -40(%rbp)
	movq	%rsi, -48(%rbp)
	movq	%rdx, -56(%rbp)
	movq	-48(%rbp), %rax
	subq	-40(%rbp), %rax
	sarq	$3, %rax
	movq	%rax, -24(%rbp)
	cmpq	$0, -24(%rbp)
	jle	.L157
	movq	-24(%rbp), %rax
	leaq	0(,%rax,8), %rsi
	movq	-40(%rbp), %rax
	movq	%rax, -8(%rbp)
	movq	-8(%rbp), %rdx
	movq	-56(%rbp), %rax
	movq	%rax, -16(%rbp)
	movq	-16(%rbp), %rax
	movq	%rdx, %rcx
	movq	%rsi, %rdx
	movq	%rcx, %rsi
	movq	%rax, %rdi
	call	memcpy@PLT
	movq	-24(%rbp), %rax
	salq	$3, %rax
	addq	%rax, -56(%rbp)
.L157:
	movq	-56(%rbp), %rax
	leave
	.cfi_def_cfa 7, 8
	ret
	.cfi_endproc
.LFE9232:
	.size	_ZSt18uninitialized_copyIPKlPlET0_T_S4_S3_, .-_ZSt18uninitialized_copyIPKlPlET0_T_S4_S3_
	.section	.text._ZNSt6chrono20__duration_cast_implINS_8durationIdSt5ratioILl1ELl1EEEES2_ILl1ELl1000000000EEdLb1ELb0EE6__castIlS5_EES4_RKNS1_IT_T0_EE,"axG",@progbits,_ZNSt6chrono20__duration_cast_implINS_8durationIdSt5ratioILl1ELl1EEEES2_ILl1ELl1000000000EEdLb1ELb0EE6__castIlS5_EES4_RKNS1_IT_T0_EE,comdat
	.weak	_ZNSt6chrono20__duration_cast_implINS_8durationIdSt5ratioILl1ELl1EEEES2_ILl1ELl1000000000EEdLb1ELb0EE6__castIlS5_EES4_RKNS1_IT_T0_EE
	.type	_ZNSt6chrono20__duration_cast_implINS_8durationIdSt5ratioILl1ELl1EEEES2_ILl1ELl1000000000EEdLb1ELb0EE6__castIlS5_EES4_RKNS1_IT_T0_EE, @function
_ZNSt6chrono20__duration_cast_implINS_8durationIdSt5ratioILl1ELl1EEEES2_ILl1ELl1000000000EEdLb1ELb0EE6__castIlS5_EES4_RKNS1_IT_T0_EE:
.LFB9235:
	.cfi_startproc
	pushq	%rbp
	.cfi_def_cfa_offset 16
	.cfi_offset 6, -16
	movq	%rsp, %rbp
	.cfi_def_cfa_register 6
	subq	$48, %rsp
	movq	%rdi, -40(%rbp)
	movq	%fs:40, %rax
	movq	%rax, -8(%rbp)
	xorl	%eax, %eax
	movq	-40(%rbp), %rax
	movq	%rax, %rdi
	call	_ZNKSt6chrono8durationIlSt5ratioILl1ELl1000000000EEE5countEv
	pxor	%xmm0, %xmm0
	cvtsi2sdq	%rax, %xmm0
	movsd	.LC21(%rip), %xmm1
	divsd	%xmm1, %xmm0
	movsd	%xmm0, -24(%rbp)
	leaq	-24(%rbp), %rdx
	leaq	-16(%rbp), %rax
	movq	%rdx, %rsi
	movq	%rax, %rdi
	call	_ZNSt6chrono8durationIdSt5ratioILl1ELl1EEEC1IdvEERKT_
	movsd	-16(%rbp), %xmm0
	movq	-8(%rbp), %rax
	subq	%fs:40, %rax
	je	.L163
	call	__stack_chk_fail@PLT
.L163:
	leave
	.cfi_def_cfa 7, 8
	ret
	.cfi_endproc
.LFE9235:
	.size	_ZNSt6chrono20__duration_cast_implINS_8durationIdSt5ratioILl1ELl1EEEES2_ILl1ELl1000000000EEdLb1ELb0EE6__castIlS5_EES4_RKNS1_IT_T0_EE, .-_ZNSt6chrono20__duration_cast_implINS_8durationIdSt5ratioILl1ELl1EEEES2_ILl1ELl1000000000EEdLb1ELb0EE6__castIlS5_EES4_RKNS1_IT_T0_EE
	.section	.text._ZNSt15__new_allocatorIlE10deallocateEPlm,"axG",@progbits,_ZNSt15__new_allocatorIlE10deallocateEPlm,comdat
	.align 2
	.weak	_ZNSt15__new_allocatorIlE10deallocateEPlm
	.type	_ZNSt15__new_allocatorIlE10deallocateEPlm, @function
_ZNSt15__new_allocatorIlE10deallocateEPlm:
.LFB9269:
	.cfi_startproc
	pushq	%rbp
	.cfi_def_cfa_offset 16
	.cfi_offset 6, -16
	movq	%rsp, %rbp
	.cfi_def_cfa_register 6
	subq	$32, %rsp
	movq	%rdi, -8(%rbp)
	movq	%rsi, -16(%rbp)
	movq	%rdx, -24(%rbp)
	movq	-24(%rbp), %rax
	leaq	0(,%rax,8), %rdx
	movq	-16(%rbp), %rax
	movq	%rdx, %rsi
	movq	%rax, %rdi
	call	_ZdlPvm@PLT
	leave
	.cfi_def_cfa 7, 8
	ret
	.cfi_endproc
.LFE9269:
	.size	_ZNSt15__new_allocatorIlE10deallocateEPlm, .-_ZNSt15__new_allocatorIlE10deallocateEPlm
	.section	.text._ZNSt15__new_allocatorIlE8allocateEmPKv,"axG",@progbits,_ZNSt15__new_allocatorIlE8allocateEmPKv,comdat
	.align 2
	.weak	_ZNSt15__new_allocatorIlE8allocateEmPKv
	.type	_ZNSt15__new_allocatorIlE8allocateEmPKv, @function
_ZNSt15__new_allocatorIlE8allocateEmPKv:
.LFB9271:
	.cfi_startproc
	pushq	%rbp
	.cfi_def_cfa_offset 16
	.cfi_offset 6, -16
	movq	%rsp, %rbp
	.cfi_def_cfa_register 6
	subq	$48, %rsp
	movq	%rdi, -24(%rbp)
	movq	%rsi, -32(%rbp)
	movq	%rdx, -40(%rbp)
	movq	-24(%rbp), %rax
	movq	%rax, -8(%rbp)
	movabsq	$1152921504606846975, %rax
	cmpq	-32(%rbp), %rax
	setb	%al
	movzbl	%al, %eax
	testq	%rax, %rax
	setne	%al
	testb	%al, %al
	je	.L168
	movabsq	$2305843009213693951, %rax
	cmpq	-32(%rbp), %rax
	jnb	.L169
	call	_ZSt28__throw_bad_array_new_lengthv@PLT
.L169:
	call	_ZSt17__throw_bad_allocv@PLT
.L168:
	movq	-32(%rbp), %rax
	salq	$3, %rax
	movq	%rax, %rdi
	call	_Znwm@PLT
	nop
	leave
	.cfi_def_cfa 7, 8
	ret
	.cfi_endproc
.LFE9271:
	.size	_ZNSt15__new_allocatorIlE8allocateEmPKv, .-_ZNSt15__new_allocatorIlE8allocateEmPKv
	.section	.text._ZNSt6chrono8durationIdSt5ratioILl1ELl1EEEC2IdvEERKT_,"axG",@progbits,_ZNSt6chrono8durationIdSt5ratioILl1ELl1EEEC5IdvEERKT_,comdat
	.align 2
	.weak	_ZNSt6chrono8durationIdSt5ratioILl1ELl1EEEC2IdvEERKT_
	.type	_ZNSt6chrono8durationIdSt5ratioILl1ELl1EEEC2IdvEERKT_, @function
_ZNSt6chrono8durationIdSt5ratioILl1ELl1EEEC2IdvEERKT_:
.LFB9275:
	.cfi_startproc
	pushq	%rbp
	.cfi_def_cfa_offset 16
	.cfi_offset 6, -16
	movq	%rsp, %rbp
	.cfi_def_cfa_register 6
	movq	%rdi, -8(%rbp)
	movq	%rsi, -16(%rbp)
	movq	-16(%rbp), %rax
	movsd	(%rax), %xmm0
	movq	-8(%rbp), %rax
	movsd	%xmm0, (%rax)
	nop
	popq	%rbp
	.cfi_def_cfa 7, 8
	ret
	.cfi_endproc
.LFE9275:
	.size	_ZNSt6chrono8durationIdSt5ratioILl1ELl1EEEC2IdvEERKT_, .-_ZNSt6chrono8durationIdSt5ratioILl1ELl1EEEC2IdvEERKT_
	.weak	_ZNSt6chrono8durationIdSt5ratioILl1ELl1EEEC1IdvEERKT_
	.set	_ZNSt6chrono8durationIdSt5ratioILl1ELl1EEEC1IdvEERKT_,_ZNSt6chrono8durationIdSt5ratioILl1ELl1EEEC2IdvEERKT_
	.section	.rodata
	.align 32
	.type	C.0.0, @object
	.size	C.0.0, 40
C.0.0:
	.quad	257
	.quad	65537
	.quad	1000003
	.quad	10000019
	.quad	1000000007
	.align 8
.LC0:
	.long	0
	.long	1072693248
	.align 8
.LC1:
	.long	0
	.long	1138753536
	.align 8
.LC21:
	.long	0
	.long	1104006501
	.hidden	DW.ref.__gxx_personality_v0
	.weak	DW.ref.__gxx_personality_v0
	.section	.data.rel.local.DW.ref.__gxx_personality_v0,"awG",@progbits,DW.ref.__gxx_personality_v0,comdat
	.align 8
	.type	DW.ref.__gxx_personality_v0, @object
	.size	DW.ref.__gxx_personality_v0, 8
DW.ref.__gxx_personality_v0:
	.quad	__gxx_personality_v0
	.globl	__gxx_personality_v0
	.ident	"GCC: (GNU) 15.2.1 20251112"
	.section	.note.GNU-stack,"",@progbits
