	.file	"bench_modadd_suite.cpp"
	.text
	.section	.text._ZnwmPv,"axG",@progbits,_ZnwmPv,comdat
	.weak	_ZnwmPv
	.type	_ZnwmPv, @function
_ZnwmPv:
.LFB40:
	.cfi_startproc
	pushq	%rbp
	.cfi_def_cfa_offset 16
	.cfi_offset 6, -16
	movq	%rsp, %rbp
	.cfi_def_cfa_register 6
	movq	%rdi, -8(%rbp)
	movq	%rsi, -16(%rbp)
	movq	-16(%rbp), %rax
	popq	%rbp
	.cfi_def_cfa 7, 8
	ret
	.cfi_endproc
.LFE40:
	.size	_ZnwmPv, .-_ZnwmPv
	.section	.text._ZdlPvS_,"axG",@progbits,_ZdlPvS_,comdat
	.weak	_ZdlPvS_
	.type	_ZdlPvS_, @function
_ZdlPvS_:
.LFB42:
	.cfi_startproc
	pushq	%rbp
	.cfi_def_cfa_offset 16
	.cfi_offset 6, -16
	movq	%rsp, %rbp
	.cfi_def_cfa_register 6
	movq	%rdi, -8(%rbp)
	movq	%rsi, -16(%rbp)
	nop
	popq	%rbp
	.cfi_def_cfa 7, 8
	ret
	.cfi_endproc
.LFE42:
	.size	_ZdlPvS_, .-_ZdlPvS_
	.section	.text._ZNSt11char_traitsIcE6assignERcRKc,"axG",@progbits,_ZNSt11char_traitsIcE6assignERcRKc,comdat
	.weak	_ZNSt11char_traitsIcE6assignERcRKc
	.type	_ZNSt11char_traitsIcE6assignERcRKc, @function
_ZNSt11char_traitsIcE6assignERcRKc:
.LFB112:
	.cfi_startproc
	pushq	%rbp
	.cfi_def_cfa_offset 16
	.cfi_offset 6, -16
	movq	%rsp, %rbp
	.cfi_def_cfa_register 6
	movq	%rdi, -8(%rbp)
	movq	%rsi, -16(%rbp)
	movq	-16(%rbp), %rax
	movzbl	(%rax), %edx
	movq	-8(%rbp), %rax
	movb	%dl, (%rax)
	nop
	popq	%rbp
	.cfi_def_cfa 7, 8
	ret
	.cfi_endproc
.LFE112:
	.size	_ZNSt11char_traitsIcE6assignERcRKc, .-_ZNSt11char_traitsIcE6assignERcRKc
	.section	.text._ZNSt11char_traitsIcE2ltERKcS2_,"axG",@progbits,_ZNSt11char_traitsIcE2ltERKcS2_,comdat
	.weak	_ZNSt11char_traitsIcE2ltERKcS2_
	.type	_ZNSt11char_traitsIcE2ltERKcS2_, @function
_ZNSt11char_traitsIcE2ltERKcS2_:
.LFB114:
	.cfi_startproc
	pushq	%rbp
	.cfi_def_cfa_offset 16
	.cfi_offset 6, -16
	movq	%rsp, %rbp
	.cfi_def_cfa_register 6
	movq	%rdi, -8(%rbp)
	movq	%rsi, -16(%rbp)
	movq	-8(%rbp), %rax
	movzbl	(%rax), %eax
	movl	%eax, %edx
	movq	-16(%rbp), %rax
	movzbl	(%rax), %eax
	cmpb	%al, %dl
	setb	%al
	popq	%rbp
	.cfi_def_cfa 7, 8
	ret
	.cfi_endproc
.LFE114:
	.size	_ZNSt11char_traitsIcE2ltERKcS2_, .-_ZNSt11char_traitsIcE2ltERKcS2_
	.section	.text._ZNSt11char_traitsIcE7compareEPKcS2_m,"axG",@progbits,_ZNSt11char_traitsIcE7compareEPKcS2_m,comdat
	.weak	_ZNSt11char_traitsIcE7compareEPKcS2_m
	.type	_ZNSt11char_traitsIcE7compareEPKcS2_m, @function
_ZNSt11char_traitsIcE7compareEPKcS2_m:
.LFB115:
	.cfi_startproc
	pushq	%rbp
	.cfi_def_cfa_offset 16
	.cfi_offset 6, -16
	movq	%rsp, %rbp
	.cfi_def_cfa_register 6
	subq	$48, %rsp
	movq	%rdi, -24(%rbp)
	movq	%rsi, -32(%rbp)
	movq	%rdx, -40(%rbp)
	cmpq	$0, -40(%rbp)
	jne	.L8
	movl	$0, %eax
	jmp	.L9
.L8:
	movl	$0, %eax
	testb	%al, %al
	je	.L11
	movq	$0, -8(%rbp)
	jmp	.L12
.L15:
	movq	-32(%rbp), %rdx
	movq	-8(%rbp), %rax
	addq	%rax, %rdx
	movq	-24(%rbp), %rcx
	movq	-8(%rbp), %rax
	addq	%rcx, %rax
	movq	%rdx, %rsi
	movq	%rax, %rdi
	call	_ZNSt11char_traitsIcE2ltERKcS2_
	testb	%al, %al
	je	.L13
	movl	$-1, %eax
	jmp	.L9
.L13:
	movq	-24(%rbp), %rdx
	movq	-8(%rbp), %rax
	addq	%rax, %rdx
	movq	-32(%rbp), %rcx
	movq	-8(%rbp), %rax
	addq	%rcx, %rax
	movq	%rdx, %rsi
	movq	%rax, %rdi
	call	_ZNSt11char_traitsIcE2ltERKcS2_
	testb	%al, %al
	je	.L14
	movl	$1, %eax
	jmp	.L9
.L14:
	addq	$1, -8(%rbp)
.L12:
	movq	-8(%rbp), %rax
	cmpq	-40(%rbp), %rax
	jb	.L15
	movl	$0, %eax
	jmp	.L9
.L11:
	movq	-40(%rbp), %rdx
	movq	-32(%rbp), %rcx
	movq	-24(%rbp), %rax
	movq	%rcx, %rsi
	movq	%rax, %rdi
	call	memcmp@PLT
	nop
.L9:
	leave
	.cfi_def_cfa 7, 8
	ret
	.cfi_endproc
.LFE115:
	.size	_ZNSt11char_traitsIcE7compareEPKcS2_m, .-_ZNSt11char_traitsIcE7compareEPKcS2_m
	.section	.text._ZNSt11char_traitsIcE6lengthEPKc,"axG",@progbits,_ZNSt11char_traitsIcE6lengthEPKc,comdat
	.weak	_ZNSt11char_traitsIcE6lengthEPKc
	.type	_ZNSt11char_traitsIcE6lengthEPKc, @function
_ZNSt11char_traitsIcE6lengthEPKc:
.LFB116:
	.cfi_startproc
	pushq	%rbp
	.cfi_def_cfa_offset 16
	.cfi_offset 6, -16
	movq	%rsp, %rbp
	.cfi_def_cfa_register 6
	subq	$16, %rsp
	movq	%rdi, -8(%rbp)
	movl	$0, %eax
	testb	%al, %al
	je	.L18
	movq	-8(%rbp), %rax
	movq	%rax, %rdi
	call	_ZN9__gnu_cxx11char_traitsIcE6lengthEPKc
	jmp	.L19
.L18:
	movq	-8(%rbp), %rax
	movq	%rax, %rdi
	call	strlen@PLT
	nop
.L19:
	leave
	.cfi_def_cfa 7, 8
	ret
	.cfi_endproc
.LFE116:
	.size	_ZNSt11char_traitsIcE6lengthEPKc, .-_ZNSt11char_traitsIcE6lengthEPKc
	.section	.text._ZNSt11char_traitsIcE4findEPKcmRS1_,"axG",@progbits,_ZNSt11char_traitsIcE4findEPKcmRS1_,comdat
	.weak	_ZNSt11char_traitsIcE4findEPKcmRS1_
	.type	_ZNSt11char_traitsIcE4findEPKcmRS1_, @function
_ZNSt11char_traitsIcE4findEPKcmRS1_:
.LFB117:
	.cfi_startproc
	pushq	%rbp
	.cfi_def_cfa_offset 16
	.cfi_offset 6, -16
	movq	%rsp, %rbp
	.cfi_def_cfa_register 6
	subq	$32, %rsp
	movq	%rdi, -8(%rbp)
	movq	%rsi, -16(%rbp)
	movq	%rdx, -24(%rbp)
	cmpq	$0, -16(%rbp)
	jne	.L21
	movl	$0, %eax
	jmp	.L22
.L21:
	movl	$0, %eax
	testb	%al, %al
	je	.L24
	movq	-24(%rbp), %rdx
	movq	-16(%rbp), %rcx
	movq	-8(%rbp), %rax
	movq	%rcx, %rsi
	movq	%rax, %rdi
	call	_ZN9__gnu_cxx11char_traitsIcE4findEPKcmRS2_
	jmp	.L22
.L24:
	movq	-24(%rbp), %rax
	movzbl	(%rax), %eax
	movsbl	%al, %ecx
	movq	-16(%rbp), %rdx
	movq	-8(%rbp), %rax
	movl	%ecx, %esi
	movq	%rax, %rdi
	call	memchr@PLT
	nop
.L22:
	leave
	.cfi_def_cfa 7, 8
	ret
	.cfi_endproc
.LFE117:
	.size	_ZNSt11char_traitsIcE4findEPKcmRS1_, .-_ZNSt11char_traitsIcE4findEPKcmRS1_
	.section	.text._ZNSt11char_traitsIcE4moveEPcPKcm,"axG",@progbits,_ZNSt11char_traitsIcE4moveEPcPKcm,comdat
	.weak	_ZNSt11char_traitsIcE4moveEPcPKcm
	.type	_ZNSt11char_traitsIcE4moveEPcPKcm, @function
_ZNSt11char_traitsIcE4moveEPcPKcm:
.LFB118:
	.cfi_startproc
	pushq	%rbp
	.cfi_def_cfa_offset 16
	.cfi_offset 6, -16
	movq	%rsp, %rbp
	.cfi_def_cfa_register 6
	subq	$32, %rsp
	movq	%rdi, -8(%rbp)
	movq	%rsi, -16(%rbp)
	movq	%rdx, -24(%rbp)
	cmpq	$0, -24(%rbp)
	jne	.L26
	movq	-8(%rbp), %rax
	jmp	.L27
.L26:
	movq	-24(%rbp), %rdx
	movq	-16(%rbp), %rcx
	movq	-8(%rbp), %rax
	movq	%rcx, %rsi
	movq	%rax, %rdi
	call	memmove@PLT
	nop
.L27:
	leave
	.cfi_def_cfa 7, 8
	ret
	.cfi_endproc
.LFE118:
	.size	_ZNSt11char_traitsIcE4moveEPcPKcm, .-_ZNSt11char_traitsIcE4moveEPcPKcm
	.section	.text._ZNSt11char_traitsIcE4copyEPcPKcm,"axG",@progbits,_ZNSt11char_traitsIcE4copyEPcPKcm,comdat
	.weak	_ZNSt11char_traitsIcE4copyEPcPKcm
	.type	_ZNSt11char_traitsIcE4copyEPcPKcm, @function
_ZNSt11char_traitsIcE4copyEPcPKcm:
.LFB119:
	.cfi_startproc
	pushq	%rbp
	.cfi_def_cfa_offset 16
	.cfi_offset 6, -16
	movq	%rsp, %rbp
	.cfi_def_cfa_register 6
	subq	$32, %rsp
	movq	%rdi, -8(%rbp)
	movq	%rsi, -16(%rbp)
	movq	%rdx, -24(%rbp)
	cmpq	$0, -24(%rbp)
	jne	.L29
	movq	-8(%rbp), %rax
	jmp	.L30
.L29:
	movq	-8(%rbp), %rdx
	movq	-16(%rbp), %rax
	movq	%rdx, %rcx
	movq	%rax, %rsi
	movq	-24(%rbp), %rax
	movq	%rax, %rdx
	movq	%rcx, %rdi
	call	memcpy@PLT
	nop
.L30:
	leave
	.cfi_def_cfa 7, 8
	ret
	.cfi_endproc
.LFE119:
	.size	_ZNSt11char_traitsIcE4copyEPcPKcm, .-_ZNSt11char_traitsIcE4copyEPcPKcm
	.section	.rodata
.LC0:
	.string	"stoll"
	.section	.text._ZNSt7__cxx115stollERKNS_12basic_stringIcSt11char_traitsIcESaIcEEEPmi,"axG",@progbits,_ZNSt7__cxx115stollERKNS_12basic_stringIcSt11char_traitsIcESaIcEEEPmi,comdat
	.weak	_ZNSt7__cxx115stollERKNS_12basic_stringIcSt11char_traitsIcESaIcEEEPmi
	.type	_ZNSt7__cxx115stollERKNS_12basic_stringIcSt11char_traitsIcESaIcEEEPmi, @function
_ZNSt7__cxx115stollERKNS_12basic_stringIcSt11char_traitsIcESaIcEEEPmi:
.LFB1146:
	.cfi_startproc
	pushq	%rbp
	.cfi_def_cfa_offset 16
	.cfi_offset 6, -16
	movq	%rsp, %rbp
	.cfi_def_cfa_register 6
	subq	$32, %rsp
	movq	%rdi, -8(%rbp)
	movq	%rsi, -16(%rbp)
	movl	%edx, -20(%rbp)
	movq	-8(%rbp), %rax
	movq	%rax, %rdi
	call	_ZNKSt7__cxx1112basic_stringIcSt11char_traitsIcESaIcEE5c_strEv
	movq	%rax, %rdx
	movl	-20(%rbp), %ecx
	movq	-16(%rbp), %rax
	leaq	.LC0(%rip), %rsi
	movq	__isoc23_strtoll@GOTPCREL(%rip), %rdi
	movl	%ecx, %r8d
	movq	%rax, %rcx
	call	_ZN9__gnu_cxx6__stoaIxxcJiEEET0_PFT_PKT1_PPS3_DpT2_EPKcS5_PmS9_
	leave
	.cfi_def_cfa 7, 8
	ret
	.cfi_endproc
.LFE1146:
	.size	_ZNSt7__cxx115stollERKNS_12basic_stringIcSt11char_traitsIcESaIcEEEPmi, .-_ZNSt7__cxx115stollERKNS_12basic_stringIcSt11char_traitsIcESaIcEEEPmi
	.section	.text._ZStanSt13_Ios_FmtflagsS_,"axG",@progbits,_ZStanSt13_Ios_FmtflagsS_,comdat
	.weak	_ZStanSt13_Ios_FmtflagsS_
	.type	_ZStanSt13_Ios_FmtflagsS_, @function
_ZStanSt13_Ios_FmtflagsS_:
.LFB1567:
	.cfi_startproc
	pushq	%rbp
	.cfi_def_cfa_offset 16
	.cfi_offset 6, -16
	movq	%rsp, %rbp
	.cfi_def_cfa_register 6
	movl	%edi, -4(%rbp)
	movl	%esi, -8(%rbp)
	movl	-4(%rbp), %eax
	andl	-8(%rbp), %eax
	popq	%rbp
	.cfi_def_cfa 7, 8
	ret
	.cfi_endproc
.LFE1567:
	.size	_ZStanSt13_Ios_FmtflagsS_, .-_ZStanSt13_Ios_FmtflagsS_
	.section	.text._ZStorSt13_Ios_FmtflagsS_,"axG",@progbits,_ZStorSt13_Ios_FmtflagsS_,comdat
	.weak	_ZStorSt13_Ios_FmtflagsS_
	.type	_ZStorSt13_Ios_FmtflagsS_, @function
_ZStorSt13_Ios_FmtflagsS_:
.LFB1568:
	.cfi_startproc
	pushq	%rbp
	.cfi_def_cfa_offset 16
	.cfi_offset 6, -16
	movq	%rsp, %rbp
	.cfi_def_cfa_register 6
	movl	%edi, -4(%rbp)
	movl	%esi, -8(%rbp)
	movl	-4(%rbp), %eax
	orl	-8(%rbp), %eax
	popq	%rbp
	.cfi_def_cfa 7, 8
	ret
	.cfi_endproc
.LFE1568:
	.size	_ZStorSt13_Ios_FmtflagsS_, .-_ZStorSt13_Ios_FmtflagsS_
	.section	.text._ZStcoSt13_Ios_Fmtflags,"axG",@progbits,_ZStcoSt13_Ios_Fmtflags,comdat
	.weak	_ZStcoSt13_Ios_Fmtflags
	.type	_ZStcoSt13_Ios_Fmtflags, @function
_ZStcoSt13_Ios_Fmtflags:
.LFB1570:
	.cfi_startproc
	pushq	%rbp
	.cfi_def_cfa_offset 16
	.cfi_offset 6, -16
	movq	%rsp, %rbp
	.cfi_def_cfa_register 6
	movl	%edi, -4(%rbp)
	movl	-4(%rbp), %eax
	notl	%eax
	popq	%rbp
	.cfi_def_cfa 7, 8
	ret
	.cfi_endproc
.LFE1570:
	.size	_ZStcoSt13_Ios_Fmtflags, .-_ZStcoSt13_Ios_Fmtflags
	.section	.text._ZStoRRSt13_Ios_FmtflagsS_,"axG",@progbits,_ZStoRRSt13_Ios_FmtflagsS_,comdat
	.weak	_ZStoRRSt13_Ios_FmtflagsS_
	.type	_ZStoRRSt13_Ios_FmtflagsS_, @function
_ZStoRRSt13_Ios_FmtflagsS_:
.LFB1571:
	.cfi_startproc
	pushq	%rbp
	.cfi_def_cfa_offset 16
	.cfi_offset 6, -16
	movq	%rsp, %rbp
	.cfi_def_cfa_register 6
	subq	$16, %rsp
	movq	%rdi, -8(%rbp)
	movl	%esi, -12(%rbp)
	movq	-8(%rbp), %rax
	movl	(%rax), %eax
	movl	-12(%rbp), %edx
	movl	%edx, %esi
	movl	%eax, %edi
	call	_ZStorSt13_Ios_FmtflagsS_
	movq	-8(%rbp), %rdx
	movl	%eax, (%rdx)
	movq	-8(%rbp), %rax
	leave
	.cfi_def_cfa 7, 8
	ret
	.cfi_endproc
.LFE1571:
	.size	_ZStoRRSt13_Ios_FmtflagsS_, .-_ZStoRRSt13_Ios_FmtflagsS_
	.section	.text._ZStaNRSt13_Ios_FmtflagsS_,"axG",@progbits,_ZStaNRSt13_Ios_FmtflagsS_,comdat
	.weak	_ZStaNRSt13_Ios_FmtflagsS_
	.type	_ZStaNRSt13_Ios_FmtflagsS_, @function
_ZStaNRSt13_Ios_FmtflagsS_:
.LFB1572:
	.cfi_startproc
	pushq	%rbp
	.cfi_def_cfa_offset 16
	.cfi_offset 6, -16
	movq	%rsp, %rbp
	.cfi_def_cfa_register 6
	subq	$16, %rsp
	movq	%rdi, -8(%rbp)
	movl	%esi, -12(%rbp)
	movq	-8(%rbp), %rax
	movl	(%rax), %eax
	movl	-12(%rbp), %edx
	movl	%edx, %esi
	movl	%eax, %edi
	call	_ZStanSt13_Ios_FmtflagsS_
	movq	-8(%rbp), %rdx
	movl	%eax, (%rdx)
	movq	-8(%rbp), %rax
	leave
	.cfi_def_cfa 7, 8
	ret
	.cfi_endproc
.LFE1572:
	.size	_ZStaNRSt13_Ios_FmtflagsS_, .-_ZStaNRSt13_Ios_FmtflagsS_
	.section	.text._ZNSt8ios_base4setfESt13_Ios_FmtflagsS0_,"axG",@progbits,_ZNSt8ios_base4setfESt13_Ios_FmtflagsS0_,comdat
	.align 2
	.weak	_ZNSt8ios_base4setfESt13_Ios_FmtflagsS0_
	.type	_ZNSt8ios_base4setfESt13_Ios_FmtflagsS0_, @function
_ZNSt8ios_base4setfESt13_Ios_FmtflagsS0_:
.LFB1601:
	.cfi_startproc
	pushq	%rbp
	.cfi_def_cfa_offset 16
	.cfi_offset 6, -16
	movq	%rsp, %rbp
	.cfi_def_cfa_register 6
	subq	$32, %rsp
	movq	%rdi, -24(%rbp)
	movl	%esi, -28(%rbp)
	movl	%edx, -32(%rbp)
	movq	-24(%rbp), %rax
	movl	24(%rax), %eax
	movl	%eax, -4(%rbp)
	movl	-32(%rbp), %eax
	movl	%eax, %edi
	call	_ZStcoSt13_Ios_Fmtflags
	movl	%eax, %edx
	movq	-24(%rbp), %rax
	addq	$24, %rax
	movl	%edx, %esi
	movq	%rax, %rdi
	call	_ZStaNRSt13_Ios_FmtflagsS_
	movl	-32(%rbp), %edx
	movl	-28(%rbp), %eax
	movl	%edx, %esi
	movl	%eax, %edi
	call	_ZStanSt13_Ios_FmtflagsS_
	movl	%eax, %edx
	movq	-24(%rbp), %rax
	addq	$24, %rax
	movl	%edx, %esi
	movq	%rax, %rdi
	call	_ZStoRRSt13_Ios_FmtflagsS_
	movl	-4(%rbp), %eax
	leave
	.cfi_def_cfa 7, 8
	ret
	.cfi_endproc
.LFE1601:
	.size	_ZNSt8ios_base4setfESt13_Ios_FmtflagsS0_, .-_ZNSt8ios_base4setfESt13_Ios_FmtflagsS0_
	.section	.text._ZSt5fixedRSt8ios_base,"axG",@progbits,_ZSt5fixedRSt8ios_base,comdat
	.weak	_ZSt5fixedRSt8ios_base
	.type	_ZSt5fixedRSt8ios_base, @function
_ZSt5fixedRSt8ios_base:
.LFB1631:
	.cfi_startproc
	pushq	%rbp
	.cfi_def_cfa_offset 16
	.cfi_offset 6, -16
	movq	%rsp, %rbp
	.cfi_def_cfa_register 6
	subq	$16, %rsp
	movq	%rdi, -8(%rbp)
	movq	-8(%rbp), %rax
	movl	$260, %edx
	movl	$4, %esi
	movq	%rax, %rdi
	call	_ZNSt8ios_base4setfESt13_Ios_FmtflagsS0_
	movq	-8(%rbp), %rax
	leave
	.cfi_def_cfa 7, 8
	ret
	.cfi_endproc
.LFE1631:
	.size	_ZSt5fixedRSt8ios_base, .-_ZSt5fixedRSt8ios_base
#APP
	.globl _ZSt21ios_base_library_initv
#NO_APP
	.section	.text._ZNSt6chrono8durationIlSt5ratioILl1ELl1000000000EEEC2IlvEERKT_,"axG",@progbits,_ZNSt6chrono8durationIlSt5ratioILl1ELl1000000000EEEC5IlvEERKT_,comdat
	.align 2
	.weak	_ZNSt6chrono8durationIlSt5ratioILl1ELl1000000000EEEC2IlvEERKT_
	.type	_ZNSt6chrono8durationIlSt5ratioILl1ELl1000000000EEEC2IlvEERKT_, @function
_ZNSt6chrono8durationIlSt5ratioILl1ELl1000000000EEEC2IlvEERKT_:
.LFB2282:
	.cfi_startproc
	pushq	%rbp
	.cfi_def_cfa_offset 16
	.cfi_offset 6, -16
	movq	%rsp, %rbp
	.cfi_def_cfa_register 6
	movq	%rdi, -8(%rbp)
	movq	%rsi, -16(%rbp)
	movq	-16(%rbp), %rax
	movq	(%rax), %rdx
	movq	-8(%rbp), %rax
	movq	%rdx, (%rax)
	nop
	popq	%rbp
	.cfi_def_cfa 7, 8
	ret
	.cfi_endproc
.LFE2282:
	.size	_ZNSt6chrono8durationIlSt5ratioILl1ELl1000000000EEEC2IlvEERKT_, .-_ZNSt6chrono8durationIlSt5ratioILl1ELl1000000000EEEC2IlvEERKT_
	.weak	_ZNSt6chrono8durationIlSt5ratioILl1ELl1000000000EEEC1IlvEERKT_
	.set	_ZNSt6chrono8durationIlSt5ratioILl1ELl1000000000EEEC1IlvEERKT_,_ZNSt6chrono8durationIlSt5ratioILl1ELl1000000000EEEC2IlvEERKT_
	.section	.text._ZNKSt6chrono8durationIlSt5ratioILl1ELl1000000000EEE5countEv,"axG",@progbits,_ZNKSt6chrono8durationIlSt5ratioILl1ELl1000000000EEE5countEv,comdat
	.align 2
	.weak	_ZNKSt6chrono8durationIlSt5ratioILl1ELl1000000000EEE5countEv
	.type	_ZNKSt6chrono8durationIlSt5ratioILl1ELl1000000000EEE5countEv, @function
_ZNKSt6chrono8durationIlSt5ratioILl1ELl1000000000EEE5countEv:
.LFB2285:
	.cfi_startproc
	pushq	%rbp
	.cfi_def_cfa_offset 16
	.cfi_offset 6, -16
	movq	%rsp, %rbp
	.cfi_def_cfa_register 6
	movq	%rdi, -8(%rbp)
	movq	-8(%rbp), %rax
	movq	(%rax), %rax
	popq	%rbp
	.cfi_def_cfa 7, 8
	ret
	.cfi_endproc
.LFE2285:
	.size	_ZNKSt6chrono8durationIlSt5ratioILl1ELl1000000000EEE5countEv, .-_ZNKSt6chrono8durationIlSt5ratioILl1ELl1000000000EEE5countEv
	.section	.text._ZSt12setprecisioni,"axG",@progbits,_ZSt12setprecisioni,comdat
	.weak	_ZSt12setprecisioni
	.type	_ZSt12setprecisioni, @function
_ZSt12setprecisioni:
.LFB2943:
	.cfi_startproc
	pushq	%rbp
	.cfi_def_cfa_offset 16
	.cfi_offset 6, -16
	movq	%rsp, %rbp
	.cfi_def_cfa_register 6
	movl	%edi, -4(%rbp)
	movl	-4(%rbp), %eax
	popq	%rbp
	.cfi_def_cfa 7, 8
	ret
	.cfi_endproc
.LFE2943:
	.size	_ZSt12setprecisioni, .-_ZSt12setprecisioni
	.text
	.type	_ZL17bench_classic_modlll, @function
_ZL17bench_classic_modlll:
.LFB3052:
	.cfi_startproc
	pushq	%rbp
	.cfi_def_cfa_offset 16
	.cfi_offset 6, -16
	movq	%rsp, %rbp
	.cfi_def_cfa_register 6
	movq	%rdi, -24(%rbp)
	movq	%rsi, -32(%rbp)
	movq	%rdx, -40(%rbp)
	movq	$0, -16(%rbp)
	movq	$0, -8(%rbp)
	jmp	.L53
.L54:
	movq	-16(%rbp), %rdx
	movq	-40(%rbp), %rax
	addq	%rdx, %rax
	cqto
	idivq	-24(%rbp)
	movq	%rdx, -16(%rbp)
	addq	$1, -8(%rbp)
.L53:
	movq	-8(%rbp), %rax
	cmpq	-32(%rbp), %rax
	jl	.L54
	movq	-16(%rbp), %rax
	popq	%rbp
	.cfi_def_cfa 7, 8
	ret
	.cfi_endproc
.LFE3052:
	.size	_ZL17bench_classic_modlll, .-_ZL17bench_classic_modlll
	.type	_ZL15bench_reist_symlll, @function
_ZL15bench_reist_symlll:
.LFB3053:
	.cfi_startproc
	pushq	%rbp
	.cfi_def_cfa_offset 16
	.cfi_offset 6, -16
	movq	%rsp, %rbp
	.cfi_def_cfa_register 6
	movq	%rdi, -40(%rbp)
	movq	%rsi, -48(%rbp)
	movq	%rdx, -56(%rbp)
	movq	-40(%rbp), %rax
	movq	%rax, %rdx
	shrq	$63, %rdx
	addq	%rdx, %rax
	sarq	%rax
	movq	%rax, -8(%rbp)
	movq	$0, -24(%rbp)
	movq	$0, -16(%rbp)
	jmp	.L57
.L60:
	movq	-56(%rbp), %rax
	addq	%rax, -24(%rbp)
	movq	-24(%rbp), %rax
	cmpq	-8(%rbp), %rax
	jle	.L58
	movq	-40(%rbp), %rax
	subq	%rax, -24(%rbp)
	jmp	.L59
.L58:
	movq	-8(%rbp), %rax
	negq	%rax
	cmpq	%rax, -24(%rbp)
	jg	.L59
	movq	-40(%rbp), %rax
	addq	%rax, -24(%rbp)
.L59:
	addq	$1, -16(%rbp)
.L57:
	movq	-16(%rbp), %rax
	cmpq	-48(%rbp), %rax
	jl	.L60
	movq	-24(%rbp), %rax
	popq	%rbp
	.cfi_def_cfa 7, 8
	ret
	.cfi_endproc
.LFE3053:
	.size	_ZL15bench_reist_symlll, .-_ZL15bench_reist_symlll
	.section	.text._ZNSt12_Vector_baseIlSaIlEE12_Vector_implD2Ev,"axG",@progbits,_ZNSt12_Vector_baseIlSaIlEE12_Vector_implD5Ev,comdat
	.align 2
	.weak	_ZNSt12_Vector_baseIlSaIlEE12_Vector_implD2Ev
	.type	_ZNSt12_Vector_baseIlSaIlEE12_Vector_implD2Ev, @function
_ZNSt12_Vector_baseIlSaIlEE12_Vector_implD2Ev:
.LFB3059:
	.cfi_startproc
	pushq	%rbp
	.cfi_def_cfa_offset 16
	.cfi_offset 6, -16
	movq	%rsp, %rbp
	.cfi_def_cfa_register 6
	subq	$32, %rsp
	movq	%rdi, -24(%rbp)
	movq	-24(%rbp), %rax
	movq	%rax, -8(%rbp)
	movq	-8(%rbp), %rax
	movq	%rax, %rdi
	call	_ZNSt15__new_allocatorIlED2Ev
	nop
	nop
	leave
	.cfi_def_cfa 7, 8
	ret
	.cfi_endproc
.LFE3059:
	.size	_ZNSt12_Vector_baseIlSaIlEE12_Vector_implD2Ev, .-_ZNSt12_Vector_baseIlSaIlEE12_Vector_implD2Ev
	.weak	_ZNSt12_Vector_baseIlSaIlEE12_Vector_implD1Ev
	.set	_ZNSt12_Vector_baseIlSaIlEE12_Vector_implD1Ev,_ZNSt12_Vector_baseIlSaIlEE12_Vector_implD2Ev
	.section	.text._ZNSt12_Vector_baseIlSaIlEEC2Ev,"axG",@progbits,_ZNSt12_Vector_baseIlSaIlEEC5Ev,comdat
	.align 2
	.weak	_ZNSt12_Vector_baseIlSaIlEEC2Ev
	.type	_ZNSt12_Vector_baseIlSaIlEEC2Ev, @function
_ZNSt12_Vector_baseIlSaIlEEC2Ev:
.LFB3061:
	.cfi_startproc
	pushq	%rbp
	.cfi_def_cfa_offset 16
	.cfi_offset 6, -16
	movq	%rsp, %rbp
	.cfi_def_cfa_register 6
	subq	$16, %rsp
	movq	%rdi, -8(%rbp)
	movq	-8(%rbp), %rax
	movq	%rax, %rdi
	call	_ZNSt12_Vector_baseIlSaIlEE12_Vector_implC1Ev
	nop
	leave
	.cfi_def_cfa 7, 8
	ret
	.cfi_endproc
.LFE3061:
	.size	_ZNSt12_Vector_baseIlSaIlEEC2Ev, .-_ZNSt12_Vector_baseIlSaIlEEC2Ev
	.weak	_ZNSt12_Vector_baseIlSaIlEEC1Ev
	.set	_ZNSt12_Vector_baseIlSaIlEEC1Ev,_ZNSt12_Vector_baseIlSaIlEEC2Ev
	.section	.text._ZNSt6vectorIlSaIlEEC2Ev,"axG",@progbits,_ZNSt6vectorIlSaIlEEC5Ev,comdat
	.align 2
	.weak	_ZNSt6vectorIlSaIlEEC2Ev
	.type	_ZNSt6vectorIlSaIlEEC2Ev, @function
_ZNSt6vectorIlSaIlEEC2Ev:
.LFB3063:
	.cfi_startproc
	pushq	%rbp
	.cfi_def_cfa_offset 16
	.cfi_offset 6, -16
	movq	%rsp, %rbp
	.cfi_def_cfa_register 6
	subq	$16, %rsp
	movq	%rdi, -8(%rbp)
	movq	-8(%rbp), %rax
	movq	%rax, %rdi
	call	_ZNSt12_Vector_baseIlSaIlEEC2Ev
	nop
	leave
	.cfi_def_cfa 7, 8
	ret
	.cfi_endproc
.LFE3063:
	.size	_ZNSt6vectorIlSaIlEEC2Ev, .-_ZNSt6vectorIlSaIlEEC2Ev
	.weak	_ZNSt6vectorIlSaIlEEC1Ev
	.set	_ZNSt6vectorIlSaIlEEC1Ev,_ZNSt6vectorIlSaIlEEC2Ev
	.section	.text._ZNSt12_Vector_baseI6ResultSaIS0_EE12_Vector_implD2Ev,"axG",@progbits,_ZNSt12_Vector_baseI6ResultSaIS0_EE12_Vector_implD5Ev,comdat
	.align 2
	.weak	_ZNSt12_Vector_baseI6ResultSaIS0_EE12_Vector_implD2Ev
	.type	_ZNSt12_Vector_baseI6ResultSaIS0_EE12_Vector_implD2Ev, @function
_ZNSt12_Vector_baseI6ResultSaIS0_EE12_Vector_implD2Ev:
.LFB3069:
	.cfi_startproc
	pushq	%rbp
	.cfi_def_cfa_offset 16
	.cfi_offset 6, -16
	movq	%rsp, %rbp
	.cfi_def_cfa_register 6
	subq	$32, %rsp
	movq	%rdi, -24(%rbp)
	movq	-24(%rbp), %rax
	movq	%rax, -8(%rbp)
	movq	-8(%rbp), %rax
	movq	%rax, %rdi
	call	_ZNSt15__new_allocatorI6ResultED2Ev
	nop
	nop
	leave
	.cfi_def_cfa 7, 8
	ret
	.cfi_endproc
.LFE3069:
	.size	_ZNSt12_Vector_baseI6ResultSaIS0_EE12_Vector_implD2Ev, .-_ZNSt12_Vector_baseI6ResultSaIS0_EE12_Vector_implD2Ev
	.weak	_ZNSt12_Vector_baseI6ResultSaIS0_EE12_Vector_implD1Ev
	.set	_ZNSt12_Vector_baseI6ResultSaIS0_EE12_Vector_implD1Ev,_ZNSt12_Vector_baseI6ResultSaIS0_EE12_Vector_implD2Ev
	.section	.text._ZNSt12_Vector_baseI6ResultSaIS0_EEC2Ev,"axG",@progbits,_ZNSt12_Vector_baseI6ResultSaIS0_EEC5Ev,comdat
	.align 2
	.weak	_ZNSt12_Vector_baseI6ResultSaIS0_EEC2Ev
	.type	_ZNSt12_Vector_baseI6ResultSaIS0_EEC2Ev, @function
_ZNSt12_Vector_baseI6ResultSaIS0_EEC2Ev:
.LFB3071:
	.cfi_startproc
	pushq	%rbp
	.cfi_def_cfa_offset 16
	.cfi_offset 6, -16
	movq	%rsp, %rbp
	.cfi_def_cfa_register 6
	subq	$16, %rsp
	movq	%rdi, -8(%rbp)
	movq	-8(%rbp), %rax
	movq	%rax, %rdi
	call	_ZNSt12_Vector_baseI6ResultSaIS0_EE12_Vector_implC1Ev
	nop
	leave
	.cfi_def_cfa 7, 8
	ret
	.cfi_endproc
.LFE3071:
	.size	_ZNSt12_Vector_baseI6ResultSaIS0_EEC2Ev, .-_ZNSt12_Vector_baseI6ResultSaIS0_EEC2Ev
	.weak	_ZNSt12_Vector_baseI6ResultSaIS0_EEC1Ev
	.set	_ZNSt12_Vector_baseI6ResultSaIS0_EEC1Ev,_ZNSt12_Vector_baseI6ResultSaIS0_EEC2Ev
	.section	.text._ZNSt6vectorI6ResultSaIS0_EEC2Ev,"axG",@progbits,_ZNSt6vectorI6ResultSaIS0_EEC5Ev,comdat
	.align 2
	.weak	_ZNSt6vectorI6ResultSaIS0_EEC2Ev
	.type	_ZNSt6vectorI6ResultSaIS0_EEC2Ev, @function
_ZNSt6vectorI6ResultSaIS0_EEC2Ev:
.LFB3073:
	.cfi_startproc
	pushq	%rbp
	.cfi_def_cfa_offset 16
	.cfi_offset 6, -16
	movq	%rsp, %rbp
	.cfi_def_cfa_register 6
	subq	$16, %rsp
	movq	%rdi, -8(%rbp)
	movq	-8(%rbp), %rax
	movq	%rax, %rdi
	call	_ZNSt12_Vector_baseI6ResultSaIS0_EEC2Ev
	nop
	leave
	.cfi_def_cfa 7, 8
	ret
	.cfi_endproc
.LFE3073:
	.size	_ZNSt6vectorI6ResultSaIS0_EEC2Ev, .-_ZNSt6vectorI6ResultSaIS0_EEC2Ev
	.weak	_ZNSt6vectorI6ResultSaIS0_EEC1Ev
	.set	_ZNSt6vectorI6ResultSaIS0_EEC1Ev,_ZNSt6vectorI6ResultSaIS0_EEC2Ev
	.text
	.align 2
	.type	_ZZ4mainENKUllE_clEl, @function
_ZZ4mainENKUllE_clEl:
.LFB3081:
	.cfi_startproc
	pushq	%rbp
	.cfi_def_cfa_offset 16
	.cfi_offset 6, -16
	movq	%rsp, %rbp
	.cfi_def_cfa_register 6
	pushq	%rbx
	subq	$16, %rsp
	.cfi_offset 3, -24
	movq	%rdi, -16(%rbp)
	movq	%rsi, -24(%rbp)
	movq	-16(%rbp), %rax
	movq	16(%rax), %rax
	movq	(%rax), %rdx
	movq	-16(%rbp), %rax
	movq	8(%rax), %rax
	movq	(%rax), %rax
	movq	-16(%rbp), %rcx
	movq	(%rcx), %rbx
	movq	-24(%rbp), %rcx
	movq	%rcx, %rsi
	movq	%rax, %rdi
	call	_ZL17bench_classic_modlll
	movq	%rax, (%rbx)
	nop
	movq	-8(%rbp), %rbx
	leave
	.cfi_def_cfa 7, 8
	ret
	.cfi_endproc
.LFE3081:
	.size	_ZZ4mainENKUllE_clEl, .-_ZZ4mainENKUllE_clEl
	.align 2
	.type	_ZZ4mainENKUllE0_clEl, @function
_ZZ4mainENKUllE0_clEl:
.LFB3082:
	.cfi_startproc
	pushq	%rbp
	.cfi_def_cfa_offset 16
	.cfi_offset 6, -16
	movq	%rsp, %rbp
	.cfi_def_cfa_register 6
	pushq	%rbx
	subq	$16, %rsp
	.cfi_offset 3, -24
	movq	%rdi, -16(%rbp)
	movq	%rsi, -24(%rbp)
	movq	-16(%rbp), %rax
	movq	16(%rax), %rax
	movq	(%rax), %rdx
	movq	-16(%rbp), %rax
	movq	8(%rax), %rax
	movq	(%rax), %rax
	movq	-16(%rbp), %rcx
	movq	(%rcx), %rbx
	movq	-24(%rbp), %rcx
	movq	%rcx, %rsi
	movq	%rax, %rdi
	call	_ZL15bench_reist_symlll
	movq	%rax, (%rbx)
	nop
	movq	-8(%rbp), %rbx
	leave
	.cfi_def_cfa 7, 8
	ret
	.cfi_endproc
.LFE3082:
	.size	_ZZ4mainENKUllE0_clEl, .-_ZZ4mainENKUllE0_clEl
	.section	.rodata
.LC1:
	.string	"N must be > 0\n"
.LC2:
	.string	"/proc/cpuinfo"
.LC3:
	.string	"model name"
.LC4:
	.string	":"
.LC5:
	.string	"cpu MHz"
.LC6:
	.string	"/proc/meminfo"
.LC7:
	.string	"MemTotal"
.LC8:
	.string	"r"
.LC9:
	.string	"uname -o"
	.align 8
.LC10:
	.string	"========================================\n"
	.align 8
.LC11:
	.string	"REIST modular-add benchmark suite\n"
.LC12:
	.string	"System Information:\n"
.LC13:
	.string	"  Hostname: "
.LC14:
	.string	"\n"
.LC15:
	.string	"  OS: "
.LC16:
	.string	"  CPU Model: "
.LC17:
	.string	"  CPU MHz: "
.LC18:
	.string	"  Memory: "
	.align 8
.LC19:
	.string	"========================================\n\n"
	.align 8
.LC20:
	.string	"Total iterations per modulus N = "
.LC21:
	.string	"step = "
.LC22:
	.string	"\n\n"
.LC23:
	.string	"Running benchmarks...\n\n"
.LC24:
	.string	"Modulus B = "
.LC25:
	.string	"classic_mod"
.LC26:
	.string	"reist_sym"
.LC27:
	.string	"  classic_mod: "
.LC28:
	.string	" s\n"
.LC29:
	.string	"  reist_sym  : "
.LC31:
	.string	"  speedup    : "
.LC32:
	.string	"x (classic / REIST)\n"
.LC33:
	.string	"  sinks: "
.LC34:
	.string	" / "
.LC35:
	.string	"results_modadd_suite.csv"
	.align 8
.LC36:
	.string	"modulus,N,scenario,seconds,ops_per_sec\n"
.LC37:
	.string	","
.LC38:
	.string	"CSV written to "
	.align 8
.LC39:
	.string	"WARNING: could not write CSV file "
	.text
	.globl	main
	.type	main, @function
main:
.LFB3054:
	.cfi_startproc
	.cfi_personality 0x9b,DW.ref.__gxx_personality_v0
	.cfi_lsda 0x1b,.LLSDA3054
	pushq	%rbp
	.cfi_def_cfa_offset 16
	.cfi_offset 6, -16
	movq	%rsp, %rbp
	.cfi_def_cfa_register 6
	pushq	%r13
	pushq	%r12
	pushq	%rbx
	subq	$1448, %rsp
	.cfi_offset 13, -24
	.cfi_offset 12, -32
	.cfi_offset 3, -40
	movl	%edi, -1460(%rbp)
	movq	%rsi, -1472(%rbp)
	movq	%fs:40, %rax
	movq	%rax, -40(%rbp)
	xorl	%eax, %eax
	movq	$50000000, -1408(%rbp)
	cmpl	$1, -1460(%rbp)
	jle	.L71
	leaq	-1216(%rbp), %rax
	movq	%rax, -1336(%rbp)
	nop
	nop
	movq	-1472(%rbp), %rax
	addq	$8, %rax
	movq	(%rax), %rcx
	leaq	-1216(%rbp), %rdx
	leaq	-960(%rbp), %rax
	movq	%rcx, %rsi
	movq	%rax, %rdi
.LEHB0:
	call	_ZNSt7__cxx1112basic_stringIcSt11char_traitsIcESaIcEEC1IS3_EEPKcRKS3_
.LEHE0:
	leaq	-960(%rbp), %rax
	movl	$10, %edx
	movl	$0, %esi
	movq	%rax, %rdi
.LEHB1:
	call	_ZNSt7__cxx115stollERKNS_12basic_stringIcSt11char_traitsIcESaIcEEEPmi
.LEHE1:
	movq	%rax, -1408(%rbp)
	leaq	-960(%rbp), %rax
	movq	%rax, %rdi
	call	_ZNSt7__cxx1112basic_stringIcSt11char_traitsIcESaIcEED1Ev
	leaq	-1216(%rbp), %rax
	movq	%rax, %rdi
	call	_ZNSt15__new_allocatorIcED2Ev
	nop
.L71:
	cmpq	$0, -1408(%rbp)
	jg	.L72
	leaq	.LC1(%rip), %rdx
	leaq	_ZSt4cerr(%rip), %rax
	movq	%rdx, %rsi
	movq	%rax, %rdi
.LEHB2:
	call	_ZStlsISt11char_traitsIcEERSt13basic_ostreamIcT_ES5_PKc@PLT
.LEHE2:
	movl	$1, %ebx
	jmp	.L106
.L72:
	leaq	-1280(%rbp), %rax
	movq	%rax, %rdi
	call	_ZNSt6vectorIlSaIlEEC1Ev
	cmpl	$2, -1460(%rbp)
	jle	.L74
	leaq	-1248(%rbp), %rax
	movq	%rax, -1328(%rbp)
	nop
	nop
	movq	-1472(%rbp), %rax
	addq	$16, %rax
	movq	(%rax), %rcx
	leaq	-1248(%rbp), %rdx
	leaq	-960(%rbp), %rax
	movq	%rcx, %rsi
	movq	%rax, %rdi
.LEHB3:
	call	_ZNSt7__cxx1112basic_stringIcSt11char_traitsIcESaIcEEC1IS3_EEPKcRKS3_
.LEHE3:
	leaq	-960(%rbp), %rax
	movl	$10, %edx
	movl	$0, %esi
	movq	%rax, %rdi
.LEHB4:
	call	_ZNSt7__cxx115stollERKNS_12basic_stringIcSt11char_traitsIcESaIcEEEPmi
	movq	%rax, -1216(%rbp)
	leaq	-1216(%rbp), %rdx
	leaq	-1280(%rbp), %rax
	movq	%rdx, %rsi
	movq	%rax, %rdi
	call	_ZNSt6vectorIlSaIlEE9push_backEOl
.LEHE4:
	leaq	-960(%rbp), %rax
	movq	%rax, %rdi
	call	_ZNSt7__cxx1112basic_stringIcSt11char_traitsIcESaIcEED1Ev
	leaq	-1248(%rbp), %rax
	movq	%rax, %rdi
	call	_ZNSt15__new_allocatorIcED2Ev
	jmp	.L75
.L74:
	leaq	C.0.0(%rip), %r12
	movl	$6, %r13d
	movq	%r12, %rcx
	movq	%r13, %rdx
	leaq	-1280(%rbp), %rax
	movq	%rcx, %rsi
	movq	%rax, %rdi
.LEHB5:
	call	_ZNSt6vectorIlSaIlEEaSESt16initializer_listIlE
.LEHE5:
.L75:
	movq	$3, -1456(%rbp)
	leaq	-1248(%rbp), %rax
	movq	%rax, %rdi
	call	_ZNSt6vectorI6ResultSaIS0_EEC1Ev
	leaq	-1280(%rbp), %rax
	movq	%rax, %rdi
	call	_ZNKSt6vectorIlSaIlEE4sizeEv
	leaq	(%rax,%rax), %rdx
	leaq	-1248(%rbp), %rax
	movq	%rdx, %rsi
	movq	%rax, %rdi
.LEHB6:
	call	_ZNSt6vectorI6ResultSaIS0_EE7reserveEm
.LEHE6:
	leaq	-1184(%rbp), %rax
	movq	%rax, %rdi
	call	_ZNSt7__cxx1112basic_stringIcSt11char_traitsIcESaIcEEC1Ev
	leaq	-1152(%rbp), %rax
	movq	%rax, %rdi
	call	_ZNSt7__cxx1112basic_stringIcSt11char_traitsIcESaIcEEC1Ev
	leaq	-1120(%rbp), %rax
	movq	%rax, %rdi
	call	_ZNSt7__cxx1112basic_stringIcSt11char_traitsIcESaIcEEC1Ev
	leaq	-1088(%rbp), %rax
	movq	%rax, %rdi
	call	_ZNSt7__cxx1112basic_stringIcSt11char_traitsIcESaIcEEC1Ev
	leaq	-1056(%rbp), %rax
	movq	%rax, %rdi
	call	_ZNSt7__cxx1112basic_stringIcSt11char_traitsIcESaIcEEC1Ev
	leaq	.LC2(%rip), %rcx
	leaq	-960(%rbp), %rax
	movl	$8, %edx
	movq	%rcx, %rsi
	movq	%rax, %rdi
.LEHB7:
	call	_ZNSt14basic_ifstreamIcSt11char_traitsIcEEC1EPKcSt13_Ios_Openmode@PLT
.LEHE7:
	leaq	-1024(%rbp), %rax
	movq	%rax, %rdi
	call	_ZNSt7__cxx1112basic_stringIcSt11char_traitsIcESaIcEEC1Ev
	jmp	.L76
.L78:
	leaq	.LC3(%rip), %rcx
	leaq	-1024(%rbp), %rax
	movl	$0, %edx
	movq	%rcx, %rsi
	movq	%rax, %rdi
	call	_ZNKSt7__cxx1112basic_stringIcSt11char_traitsIcESaIcEE4findEPKcm
	cmpq	$-1, %rax
	setne	%al
	testb	%al, %al
	je	.L77
	leaq	.LC4(%rip), %rcx
	leaq	-1024(%rbp), %rax
	movl	$0, %edx
	movq	%rcx, %rsi
	movq	%rax, %rdi
	call	_ZNKSt7__cxx1112basic_stringIcSt11char_traitsIcESaIcEE4findEPKcm
	leaq	2(%rax), %rdx
	leaq	-992(%rbp), %rax
	leaq	-1024(%rbp), %rsi
	movq	$-1, %rcx
	movq	%rax, %rdi
.LEHB8:
	call	_ZNKSt7__cxx1112basic_stringIcSt11char_traitsIcESaIcEE6substrEmm
	leaq	-992(%rbp), %rdx
	leaq	-1184(%rbp), %rax
	movq	%rdx, %rsi
	movq	%rax, %rdi
	call	_ZNSt7__cxx1112basic_stringIcSt11char_traitsIcESaIcEEaSEOS4_
	leaq	-992(%rbp), %rax
	movq	%rax, %rdi
	call	_ZNSt7__cxx1112basic_stringIcSt11char_traitsIcESaIcEED1Ev
.L77:
	leaq	.LC5(%rip), %rcx
	leaq	-1024(%rbp), %rax
	movl	$0, %edx
	movq	%rcx, %rsi
	movq	%rax, %rdi
	call	_ZNKSt7__cxx1112basic_stringIcSt11char_traitsIcESaIcEE4findEPKcm
	cmpq	$-1, %rax
	setne	%al
	testb	%al, %al
	je	.L76
	leaq	.LC4(%rip), %rcx
	leaq	-1024(%rbp), %rax
	movl	$0, %edx
	movq	%rcx, %rsi
	movq	%rax, %rdi
	call	_ZNKSt7__cxx1112basic_stringIcSt11char_traitsIcESaIcEE4findEPKcm
	leaq	2(%rax), %rdx
	leaq	-992(%rbp), %rax
	leaq	-1024(%rbp), %rsi
	movq	$-1, %rcx
	movq	%rax, %rdi
	call	_ZNKSt7__cxx1112basic_stringIcSt11char_traitsIcESaIcEE6substrEmm
	leaq	-992(%rbp), %rdx
	leaq	-1152(%rbp), %rax
	movq	%rdx, %rsi
	movq	%rax, %rdi
	call	_ZNSt7__cxx1112basic_stringIcSt11char_traitsIcESaIcEEaSEOS4_
	leaq	-992(%rbp), %rax
	movq	%rax, %rdi
	call	_ZNSt7__cxx1112basic_stringIcSt11char_traitsIcESaIcEED1Ev
.L76:
	leaq	-1024(%rbp), %rdx
	leaq	-960(%rbp), %rax
	movq	%rdx, %rsi
	movq	%rax, %rdi
	call	_ZSt7getlineIcSt11char_traitsIcESaIcEERSt13basic_istreamIT_T0_ES7_RNSt7__cxx1112basic_stringIS4_S5_T1_EE@PLT
	movq	(%rax), %rdx
	subq	$24, %rdx
	movq	(%rdx), %rdx
	addq	%rdx, %rax
	movq	%rax, %rdi
	call	_ZNKSt9basic_iosIcSt11char_traitsIcEEcvbEv@PLT
.LEHE8:
	testb	%al, %al
	jne	.L78
	leaq	-1024(%rbp), %rax
	movq	%rax, %rdi
	call	_ZNSt7__cxx1112basic_stringIcSt11char_traitsIcESaIcEED1Ev
	leaq	-960(%rbp), %rax
	movq	%rax, %rdi
	call	_ZNSt14basic_ifstreamIcSt11char_traitsIcEED1Ev@PLT
	leaq	.LC6(%rip), %rcx
	leaq	-960(%rbp), %rax
	movl	$8, %edx
	movq	%rcx, %rsi
	movq	%rax, %rdi
.LEHB9:
	call	_ZNSt14basic_ifstreamIcSt11char_traitsIcEEC1EPKcSt13_Ios_Openmode@PLT
.LEHE9:
	leaq	-1024(%rbp), %rax
	movq	%rax, %rdi
	call	_ZNSt7__cxx1112basic_stringIcSt11char_traitsIcESaIcEEC1Ev
	leaq	-1024(%rbp), %rdx
	leaq	-960(%rbp), %rax
	movq	%rdx, %rsi
	movq	%rax, %rdi
.LEHB10:
	call	_ZSt7getlineIcSt11char_traitsIcESaIcEERSt13basic_istreamIT_T0_ES7_RNSt7__cxx1112basic_stringIS4_S5_T1_EE@PLT
	movq	(%rax), %rdx
	subq	$24, %rdx
	movq	(%rdx), %rdx
	addq	%rdx, %rax
	movq	%rax, %rdi
	call	_ZNKSt9basic_iosIcSt11char_traitsIcEEcvbEv@PLT
	testb	%al, %al
	je	.L79
	leaq	.LC7(%rip), %rcx
	leaq	-1024(%rbp), %rax
	movl	$0, %edx
	movq	%rcx, %rsi
	movq	%rax, %rdi
	call	_ZNKSt7__cxx1112basic_stringIcSt11char_traitsIcESaIcEE4findEPKcm
	cmpq	$-1, %rax
	setne	%al
	testb	%al, %al
	je	.L79
	leaq	.LC4(%rip), %rcx
	leaq	-1024(%rbp), %rax
	movl	$0, %edx
	movq	%rcx, %rsi
	movq	%rax, %rdi
	call	_ZNKSt7__cxx1112basic_stringIcSt11char_traitsIcESaIcEE4findEPKcm
	leaq	2(%rax), %rdx
	leaq	-992(%rbp), %rax
	leaq	-1024(%rbp), %rsi
	movq	$-1, %rcx
	movq	%rax, %rdi
	call	_ZNKSt7__cxx1112basic_stringIcSt11char_traitsIcESaIcEE6substrEmm
.LEHE10:
	leaq	-992(%rbp), %rdx
	leaq	-1120(%rbp), %rax
	movq	%rdx, %rsi
	movq	%rax, %rdi
	call	_ZNSt7__cxx1112basic_stringIcSt11char_traitsIcESaIcEEaSEOS4_
	leaq	-992(%rbp), %rax
	movq	%rax, %rdi
	call	_ZNSt7__cxx1112basic_stringIcSt11char_traitsIcESaIcEED1Ev
.L79:
	leaq	-1024(%rbp), %rax
	movq	%rax, %rdi
	call	_ZNSt7__cxx1112basic_stringIcSt11char_traitsIcESaIcEED1Ev
	leaq	-960(%rbp), %rax
	movq	%rax, %rdi
	call	_ZNSt14basic_ifstreamIcSt11char_traitsIcEED1Ev@PLT
	leaq	-304(%rbp), %rax
	movl	$256, %esi
	movq	%rax, %rdi
	call	gethostname@PLT
	testl	%eax, %eax
	sete	%al
	testb	%al, %al
	je	.L80
	leaq	-304(%rbp), %rdx
	leaq	-1088(%rbp), %rax
	movq	%rdx, %rsi
	movq	%rax, %rdi
.LEHB11:
	call	_ZNSt7__cxx1112basic_stringIcSt11char_traitsIcESaIcEEaSEPKc
.L80:
	leaq	.LC8(%rip), %rdx
	leaq	.LC9(%rip), %rax
	movq	%rdx, %rsi
	movq	%rax, %rdi
	call	popen@PLT
	movq	%rax, -1392(%rbp)
	cmpq	$0, -1392(%rbp)
	je	.L81
	movq	-1392(%rbp), %rdx
	leaq	-432(%rbp), %rax
	movl	$128, %esi
	movq	%rax, %rdi
	call	fgets@PLT
.LEHE11:
	testq	%rax, %rax
	setne	%al
	testb	%al, %al
	je	.L82
	leaq	-1216(%rbp), %rax
	movq	%rax, -1320(%rbp)
	nop
	nop
	leaq	-1216(%rbp), %rdx
	leaq	-432(%rbp), %rcx
	leaq	-960(%rbp), %rax
	movq	%rcx, %rsi
	movq	%rax, %rdi
.LEHB12:
	call	_ZNSt7__cxx1112basic_stringIcSt11char_traitsIcESaIcEEC1IS3_EEPKcRKS3_
.LEHE12:
	leaq	-960(%rbp), %rdx
	leaq	-1056(%rbp), %rax
	movq	%rdx, %rsi
	movq	%rax, %rdi
	call	_ZNSt7__cxx1112basic_stringIcSt11char_traitsIcESaIcEEaSEOS4_
	leaq	-960(%rbp), %rax
	movq	%rax, %rdi
	call	_ZNSt7__cxx1112basic_stringIcSt11char_traitsIcESaIcEED1Ev
	leaq	-1216(%rbp), %rax
	movq	%rax, %rdi
	call	_ZNSt15__new_allocatorIcED2Ev
	nop
	leaq	-1056(%rbp), %rax
	movq	%rax, %rdi
	call	_ZNKSt7__cxx1112basic_stringIcSt11char_traitsIcESaIcEE5emptyEv
	xorl	$1, %eax
	testb	%al, %al
	je	.L83
	leaq	-1056(%rbp), %rax
	movq	%rax, %rdi
	call	_ZNSt7__cxx1112basic_stringIcSt11char_traitsIcESaIcEE4backEv
	movzbl	(%rax), %eax
	cmpb	$10, %al
	jne	.L83
	movl	$1, %eax
	jmp	.L84
.L83:
	movl	$0, %eax
.L84:
	testb	%al, %al
	je	.L82
	leaq	-1056(%rbp), %rax
	movq	%rax, %rdi
	call	_ZNSt7__cxx1112basic_stringIcSt11char_traitsIcESaIcEE8pop_backEv
.L82:
	movq	-1392(%rbp), %rax
	movq	%rax, %rdi
.LEHB13:
	call	pclose@PLT
.L81:
	leaq	_ZSt5fixedRSt8ios_base(%rip), %rdx
	leaq	_ZSt4cout(%rip), %rax
	movq	%rdx, %rsi
	movq	%rax, %rdi
	call	_ZNSolsEPFRSt8ios_baseS0_E@PLT
	movq	%rax, %rbx
	movl	$6, %edi
	call	_ZSt12setprecisioni
	movl	%eax, %esi
	movq	%rbx, %rdi
	call	_ZStlsIcSt11char_traitsIcEERSt13basic_ostreamIT_T0_ES6_St13_Setprecision@PLT
	leaq	.LC10(%rip), %rdx
	leaq	_ZSt4cout(%rip), %rax
	movq	%rdx, %rsi
	movq	%rax, %rdi
	call	_ZStlsISt11char_traitsIcEERSt13basic_ostreamIcT_ES5_PKc@PLT
	leaq	.LC11(%rip), %rdx
	leaq	_ZSt4cout(%rip), %rax
	movq	%rdx, %rsi
	movq	%rax, %rdi
	call	_ZStlsISt11char_traitsIcEERSt13basic_ostreamIcT_ES5_PKc@PLT
	leaq	.LC10(%rip), %rdx
	leaq	_ZSt4cout(%rip), %rax
	movq	%rdx, %rsi
	movq	%rax, %rdi
	call	_ZStlsISt11char_traitsIcEERSt13basic_ostreamIcT_ES5_PKc@PLT
	leaq	.LC12(%rip), %rdx
	leaq	_ZSt4cout(%rip), %rax
	movq	%rdx, %rsi
	movq	%rax, %rdi
	call	_ZStlsISt11char_traitsIcEERSt13basic_ostreamIcT_ES5_PKc@PLT
	leaq	.LC13(%rip), %rdx
	leaq	_ZSt4cout(%rip), %rax
	movq	%rdx, %rsi
	movq	%rax, %rdi
	call	_ZStlsISt11char_traitsIcEERSt13basic_ostreamIcT_ES5_PKc@PLT
	movq	%rax, %rdx
	leaq	-1088(%rbp), %rax
	movq	%rax, %rsi
	movq	%rdx, %rdi
	call	_ZStlsIcSt11char_traitsIcESaIcEERSt13basic_ostreamIT_T0_ES7_RKNSt7__cxx1112basic_stringIS4_S5_T1_EE@PLT
	movq	%rax, %rdx
	leaq	.LC14(%rip), %rax
	movq	%rax, %rsi
	movq	%rdx, %rdi
	call	_ZStlsISt11char_traitsIcEERSt13basic_ostreamIcT_ES5_PKc@PLT
	leaq	.LC15(%rip), %rdx
	leaq	_ZSt4cout(%rip), %rax
	movq	%rdx, %rsi
	movq	%rax, %rdi
	call	_ZStlsISt11char_traitsIcEERSt13basic_ostreamIcT_ES5_PKc@PLT
	movq	%rax, %rdx
	leaq	-1056(%rbp), %rax
	movq	%rax, %rsi
	movq	%rdx, %rdi
	call	_ZStlsIcSt11char_traitsIcESaIcEERSt13basic_ostreamIT_T0_ES7_RKNSt7__cxx1112basic_stringIS4_S5_T1_EE@PLT
	movq	%rax, %rdx
	leaq	.LC14(%rip), %rax
	movq	%rax, %rsi
	movq	%rdx, %rdi
	call	_ZStlsISt11char_traitsIcEERSt13basic_ostreamIcT_ES5_PKc@PLT
	leaq	.LC16(%rip), %rdx
	leaq	_ZSt4cout(%rip), %rax
	movq	%rdx, %rsi
	movq	%rax, %rdi
	call	_ZStlsISt11char_traitsIcEERSt13basic_ostreamIcT_ES5_PKc@PLT
	movq	%rax, %rdx
	leaq	-1184(%rbp), %rax
	movq	%rax, %rsi
	movq	%rdx, %rdi
	call	_ZStlsIcSt11char_traitsIcESaIcEERSt13basic_ostreamIT_T0_ES7_RKNSt7__cxx1112basic_stringIS4_S5_T1_EE@PLT
	movq	%rax, %rdx
	leaq	.LC14(%rip), %rax
	movq	%rax, %rsi
	movq	%rdx, %rdi
	call	_ZStlsISt11char_traitsIcEERSt13basic_ostreamIcT_ES5_PKc@PLT
	leaq	.LC17(%rip), %rdx
	leaq	_ZSt4cout(%rip), %rax
	movq	%rdx, %rsi
	movq	%rax, %rdi
	call	_ZStlsISt11char_traitsIcEERSt13basic_ostreamIcT_ES5_PKc@PLT
	movq	%rax, %rdx
	leaq	-1152(%rbp), %rax
	movq	%rax, %rsi
	movq	%rdx, %rdi
	call	_ZStlsIcSt11char_traitsIcESaIcEERSt13basic_ostreamIT_T0_ES7_RKNSt7__cxx1112basic_stringIS4_S5_T1_EE@PLT
	movq	%rax, %rdx
	leaq	.LC14(%rip), %rax
	movq	%rax, %rsi
	movq	%rdx, %rdi
	call	_ZStlsISt11char_traitsIcEERSt13basic_ostreamIcT_ES5_PKc@PLT
	leaq	.LC18(%rip), %rdx
	leaq	_ZSt4cout(%rip), %rax
	movq	%rdx, %rsi
	movq	%rax, %rdi
	call	_ZStlsISt11char_traitsIcEERSt13basic_ostreamIcT_ES5_PKc@PLT
	movq	%rax, %rdx
	leaq	-1120(%rbp), %rax
	movq	%rax, %rsi
	movq	%rdx, %rdi
	call	_ZStlsIcSt11char_traitsIcESaIcEERSt13basic_ostreamIT_T0_ES7_RKNSt7__cxx1112basic_stringIS4_S5_T1_EE@PLT
	movq	%rax, %rdx
	leaq	.LC14(%rip), %rax
	movq	%rax, %rsi
	movq	%rdx, %rdi
	call	_ZStlsISt11char_traitsIcEERSt13basic_ostreamIcT_ES5_PKc@PLT
	leaq	.LC19(%rip), %rdx
	leaq	_ZSt4cout(%rip), %rax
	movq	%rdx, %rsi
	movq	%rax, %rdi
	call	_ZStlsISt11char_traitsIcEERSt13basic_ostreamIcT_ES5_PKc@PLT
	leaq	.LC20(%rip), %rdx
	leaq	_ZSt4cout(%rip), %rax
	movq	%rdx, %rsi
	movq	%rax, %rdi
	call	_ZStlsISt11char_traitsIcEERSt13basic_ostreamIcT_ES5_PKc@PLT
	movq	%rax, %rdx
	movq	-1408(%rbp), %rax
	movq	%rax, %rsi
	movq	%rdx, %rdi
	call	_ZNSolsEl@PLT
	movq	%rax, %rdx
	leaq	.LC14(%rip), %rax
	movq	%rax, %rsi
	movq	%rdx, %rdi
	call	_ZStlsISt11char_traitsIcEERSt13basic_ostreamIcT_ES5_PKc@PLT
	leaq	.LC21(%rip), %rdx
	leaq	_ZSt4cout(%rip), %rax
	movq	%rdx, %rsi
	movq	%rax, %rdi
	call	_ZStlsISt11char_traitsIcEERSt13basic_ostreamIcT_ES5_PKc@PLT
	movq	%rax, %rdx
	movq	-1456(%rbp), %rax
	movq	%rax, %rsi
	movq	%rdx, %rdi
	call	_ZNSolsEl@PLT
	movq	%rax, %rdx
	leaq	.LC22(%rip), %rax
	movq	%rax, %rsi
	movq	%rdx, %rdi
	call	_ZStlsISt11char_traitsIcEERSt13basic_ostreamIcT_ES5_PKc@PLT
	leaq	.LC23(%rip), %rdx
	leaq	_ZSt4cout(%rip), %rax
	movq	%rdx, %rsi
	movq	%rax, %rdi
	call	_ZStlsISt11char_traitsIcEERSt13basic_ostreamIcT_ES5_PKc@PLT
	leaq	-1280(%rbp), %rax
	movq	%rax, -1384(%rbp)
	movq	-1384(%rbp), %rax
	movq	%rax, %rdi
	call	_ZNSt6vectorIlSaIlEE5beginEv
	movq	%rax, -1440(%rbp)
	movq	-1384(%rbp), %rax
	movq	%rax, %rdi
	call	_ZNSt6vectorIlSaIlEE3endEv
	movq	%rax, -1432(%rbp)
	jmp	.L85
.L93:
	movq	-1440(%rbp), %rax
	movq	(%rax), %rax
	movq	%rax, -1448(%rbp)
	leaq	.LC24(%rip), %rdx
	leaq	_ZSt4cout(%rip), %rax
	movq	%rdx, %rsi
	movq	%rax, %rdi
	call	_ZStlsISt11char_traitsIcEERSt13basic_ostreamIcT_ES5_PKc@PLT
	movq	%rax, %rdx
	movq	-1448(%rbp), %rax
	movq	%rax, %rsi
	movq	%rdx, %rdi
	call	_ZNSolsEl@PLT
	movq	%rax, %rdx
	leaq	.LC14(%rip), %rax
	movq	%rax, %rsi
	movq	%rdx, %rdi
	call	_ZStlsISt11char_traitsIcEERSt13basic_ostreamIcT_ES5_PKc@PLT
	movq	$0, -1424(%rbp)
	leaq	-1424(%rbp), %rax
	movq	%rax, -1216(%rbp)
	leaq	-1448(%rbp), %rax
	movq	%rax, -1208(%rbp)
	leaq	-1456(%rbp), %rax
	movq	%rax, -1200(%rbp)
	movq	-1408(%rbp), %rdx
	leaq	-1216(%rbp), %rax
	movq	%rdx, %rsi
	movq	%rax, %rdi
	call	_Z9time_loopIZ4mainEUllE_EdOT_l
	movq	%xmm0, %rax
	movq	%rax, -1352(%rbp)
	movq	-1448(%rbp), %rax
	movq	%rax, -1216(%rbp)
	movq	-1408(%rbp), %rax
	movq	%rax, -1208(%rbp)
	leaq	.LC25(%rip), %rax
	movq	%rax, -1200(%rbp)
	movsd	-1352(%rbp), %xmm0
	movsd	%xmm0, -1192(%rbp)
	leaq	-1216(%rbp), %rdx
	leaq	-1248(%rbp), %rax
	movq	%rdx, %rsi
	movq	%rax, %rdi
	call	_ZNSt6vectorI6ResultSaIS0_EE9push_backEOS0_
	movq	$0, -1416(%rbp)
	leaq	-1416(%rbp), %rax
	movq	%rax, -1216(%rbp)
	leaq	-1448(%rbp), %rax
	movq	%rax, -1208(%rbp)
	leaq	-1456(%rbp), %rax
	movq	%rax, -1200(%rbp)
	movq	-1408(%rbp), %rdx
	leaq	-1216(%rbp), %rax
	movq	%rdx, %rsi
	movq	%rax, %rdi
	call	_Z9time_loopIZ4mainEUllE0_EdOT_l
	movq	%xmm0, %rax
	movq	%rax, -1344(%rbp)
	movq	-1448(%rbp), %rax
	movq	%rax, -1216(%rbp)
	movq	-1408(%rbp), %rax
	movq	%rax, -1208(%rbp)
	leaq	.LC26(%rip), %rax
	movq	%rax, -1200(%rbp)
	movsd	-1344(%rbp), %xmm0
	movsd	%xmm0, -1192(%rbp)
	leaq	-1216(%rbp), %rdx
	leaq	-1248(%rbp), %rax
	movq	%rdx, %rsi
	movq	%rax, %rdi
	call	_ZNSt6vectorI6ResultSaIS0_EE9push_backEOS0_
	leaq	.LC27(%rip), %rdx
	leaq	_ZSt4cout(%rip), %rax
	movq	%rdx, %rsi
	movq	%rax, %rdi
	call	_ZStlsISt11char_traitsIcEERSt13basic_ostreamIcT_ES5_PKc@PLT
	movq	%rax, %rdx
	movq	-1352(%rbp), %rax
	movq	%rax, %xmm0
	movq	%rdx, %rdi
	call	_ZNSolsEd@PLT
	movq	%rax, %rdx
	leaq	.LC28(%rip), %rax
	movq	%rax, %rsi
	movq	%rdx, %rdi
	call	_ZStlsISt11char_traitsIcEERSt13basic_ostreamIcT_ES5_PKc@PLT
	leaq	.LC29(%rip), %rdx
	leaq	_ZSt4cout(%rip), %rax
	movq	%rdx, %rsi
	movq	%rax, %rdi
	call	_ZStlsISt11char_traitsIcEERSt13basic_ostreamIcT_ES5_PKc@PLT
	movq	%rax, %rdx
	movq	-1344(%rbp), %rax
	movq	%rax, %xmm0
	movq	%rdx, %rdi
	call	_ZNSolsEd@PLT
	movq	%rax, %rdx
	leaq	.LC28(%rip), %rax
	movq	%rax, %rsi
	movq	%rdx, %rdi
	call	_ZStlsISt11char_traitsIcEERSt13basic_ostreamIcT_ES5_PKc@PLT
	movsd	-1344(%rbp), %xmm0
	pxor	%xmm1, %xmm1
	comisd	%xmm1, %xmm0
	jbe	.L87
	leaq	.LC31(%rip), %rdx
	leaq	_ZSt4cout(%rip), %rax
	movq	%rdx, %rsi
	movq	%rax, %rdi
	call	_ZStlsISt11char_traitsIcEERSt13basic_ostreamIcT_ES5_PKc@PLT
	movq	%rax, %rdx
	movsd	-1352(%rbp), %xmm0
	divsd	-1344(%rbp), %xmm0
	movq	%xmm0, %rax
	movq	%rax, %xmm0
	movq	%rdx, %rdi
	call	_ZNSolsEd@PLT
	movq	%rax, %rdx
	leaq	.LC32(%rip), %rax
	movq	%rax, %rsi
	movq	%rdx, %rdi
	call	_ZStlsISt11char_traitsIcEERSt13basic_ostreamIcT_ES5_PKc@PLT
.L87:
	leaq	.LC33(%rip), %rdx
	leaq	_ZSt4cout(%rip), %rax
	movq	%rdx, %rsi
	movq	%rax, %rdi
	call	_ZStlsISt11char_traitsIcEERSt13basic_ostreamIcT_ES5_PKc@PLT
	movq	%rax, %rdx
	movq	-1424(%rbp), %rax
	movq	%rax, %rsi
	movq	%rdx, %rdi
	call	_ZNSolsEm@PLT
	movq	%rax, %rdx
	leaq	.LC34(%rip), %rax
	movq	%rax, %rsi
	movq	%rdx, %rdi
	call	_ZStlsISt11char_traitsIcEERSt13basic_ostreamIcT_ES5_PKc@PLT
	movq	%rax, %rdx
	movq	-1416(%rbp), %rax
	movq	%rax, %rsi
	movq	%rdx, %rdi
	call	_ZNSolsEl@PLT
	movq	%rax, %rdx
	leaq	.LC22(%rip), %rax
	movq	%rax, %rsi
	movq	%rdx, %rdi
	call	_ZStlsISt11char_traitsIcEERSt13basic_ostreamIcT_ES5_PKc@PLT
	movq	-1440(%rbp), %rax
	addq	$8, %rax
	movq	%rax, -1440(%rbp)
	nop
.L85:
	leaq	-1440(%rbp), %rax
	movq	%rax, -1312(%rbp)
	movq	-1312(%rbp), %rax
	movq	(%rax), %rdx
	leaq	-1432(%rbp), %rax
	movq	%rax, -1304(%rbp)
	movq	-1304(%rbp), %rax
	movq	(%rax), %rax
	cmpq	%rax, %rdx
	setne	%al
	testb	%al, %al
	jne	.L93
	leaq	.LC35(%rip), %rax
	movq	%rax, -1376(%rbp)
	movq	-1376(%rbp), %rcx
	leaq	-960(%rbp), %rax
	movl	$16, %edx
	movq	%rcx, %rsi
	movq	%rax, %rdi
	call	_ZNSt14basic_ofstreamIcSt11char_traitsIcEEC1EPKcSt13_Ios_Openmode@PLT
.LEHE13:
	leaq	-960(%rbp), %rax
	addq	$248, %rax
	movq	%rax, %rdi
.LEHB14:
	call	_ZNKSt9basic_iosIcSt11char_traitsIcEEcvbEv@PLT
	testb	%al, %al
	je	.L94
	leaq	.LC36(%rip), %rdx
	leaq	-960(%rbp), %rax
	movq	%rdx, %rsi
	movq	%rax, %rdi
	call	_ZStlsISt11char_traitsIcEERSt13basic_ostreamIcT_ES5_PKc@PLT
	leaq	-1248(%rbp), %rax
	movq	%rax, -1368(%rbp)
	movq	-1368(%rbp), %rax
	movq	%rax, %rdi
	call	_ZNSt6vectorI6ResultSaIS0_EE5beginEv
	movq	%rax, -1416(%rbp)
	movq	-1368(%rbp), %rax
	movq	%rax, %rdi
	call	_ZNSt6vectorI6ResultSaIS0_EE3endEv
	movq	%rax, -1216(%rbp)
	jmp	.L95
.L104:
	movq	-1416(%rbp), %rax
	movq	%rax, -1360(%rbp)
	movq	-1360(%rbp), %rax
	movsd	24(%rax), %xmm0
	pxor	%xmm1, %xmm1
	comisd	%xmm1, %xmm0
	jbe	.L134
	movq	-1360(%rbp), %rax
	movq	8(%rax), %rax
	pxor	%xmm0, %xmm0
	cvtsi2sdq	%rax, %xmm0
	movq	-1360(%rbp), %rax
	movsd	24(%rax), %xmm1
	divsd	%xmm1, %xmm0
	movsd	%xmm0, -1400(%rbp)
	jmp	.L99
.L134:
	pxor	%xmm0, %xmm0
	movsd	%xmm0, -1400(%rbp)
.L99:
	movq	-1360(%rbp), %rax
	movq	(%rax), %rdx
	leaq	-960(%rbp), %rax
	movq	%rdx, %rsi
	movq	%rax, %rdi
	call	_ZNSolsEl@PLT
	movq	%rax, %rdx
	leaq	.LC37(%rip), %rax
	movq	%rax, %rsi
	movq	%rdx, %rdi
	call	_ZStlsISt11char_traitsIcEERSt13basic_ostreamIcT_ES5_PKc@PLT
	movq	%rax, %rdx
	movq	-1360(%rbp), %rax
	movq	8(%rax), %rax
	movq	%rax, %rsi
	movq	%rdx, %rdi
	call	_ZNSolsEl@PLT
	movq	%rax, %rdx
	leaq	.LC37(%rip), %rax
	movq	%rax, %rsi
	movq	%rdx, %rdi
	call	_ZStlsISt11char_traitsIcEERSt13basic_ostreamIcT_ES5_PKc@PLT
	movq	%rax, %rdx
	movq	-1360(%rbp), %rax
	movq	16(%rax), %rax
	movq	%rax, %rsi
	movq	%rdx, %rdi
	call	_ZStlsISt11char_traitsIcEERSt13basic_ostreamIcT_ES5_PKc@PLT
	movq	%rax, %rdx
	leaq	.LC37(%rip), %rax
	movq	%rax, %rsi
	movq	%rdx, %rdi
	call	_ZStlsISt11char_traitsIcEERSt13basic_ostreamIcT_ES5_PKc@PLT
	movq	%rax, %rdx
	movq	-1360(%rbp), %rax
	movq	24(%rax), %rax
	movq	%rax, %xmm0
	movq	%rdx, %rdi
	call	_ZNSolsEd@PLT
	movq	%rax, %rdx
	leaq	.LC37(%rip), %rax
	movq	%rax, %rsi
	movq	%rdx, %rdi
	call	_ZStlsISt11char_traitsIcEERSt13basic_ostreamIcT_ES5_PKc@PLT
	movq	%rax, %rdx
	movq	-1400(%rbp), %rax
	movq	%rax, %xmm0
	movq	%rdx, %rdi
	call	_ZNSolsEd@PLT
	movq	%rax, %rdx
	leaq	.LC14(%rip), %rax
	movq	%rax, %rsi
	movq	%rdx, %rdi
	call	_ZStlsISt11char_traitsIcEERSt13basic_ostreamIcT_ES5_PKc@PLT
	movq	-1416(%rbp), %rax
	addq	$32, %rax
	movq	%rax, -1416(%rbp)
	nop
.L95:
	leaq	-1416(%rbp), %rax
	movq	%rax, -1296(%rbp)
	movq	-1296(%rbp), %rax
	movq	(%rax), %rdx
	leaq	-1216(%rbp), %rax
	movq	%rax, -1288(%rbp)
	movq	-1288(%rbp), %rax
	movq	(%rax), %rax
	cmpq	%rax, %rdx
	setne	%al
	testb	%al, %al
	jne	.L104
	leaq	-960(%rbp), %rax
	movq	%rax, %rdi
	call	_ZNSt14basic_ofstreamIcSt11char_traitsIcEE5closeEv@PLT
	leaq	.LC38(%rip), %rdx
	leaq	_ZSt4cout(%rip), %rax
	movq	%rdx, %rsi
	movq	%rax, %rdi
	call	_ZStlsISt11char_traitsIcEERSt13basic_ostreamIcT_ES5_PKc@PLT
	movq	%rax, %rdx
	movq	-1376(%rbp), %rax
	movq	%rax, %rsi
	movq	%rdx, %rdi
	call	_ZStlsISt11char_traitsIcEERSt13basic_ostreamIcT_ES5_PKc@PLT
	movq	%rax, %rdx
	leaq	.LC14(%rip), %rax
	movq	%rax, %rsi
	movq	%rdx, %rdi
	call	_ZStlsISt11char_traitsIcEERSt13basic_ostreamIcT_ES5_PKc@PLT
	jmp	.L105
.L94:
	leaq	.LC39(%rip), %rdx
	leaq	_ZSt4cerr(%rip), %rax
	movq	%rdx, %rsi
	movq	%rax, %rdi
	call	_ZStlsISt11char_traitsIcEERSt13basic_ostreamIcT_ES5_PKc@PLT
	movq	%rax, %rdx
	movq	-1376(%rbp), %rax
	movq	%rax, %rsi
	movq	%rdx, %rdi
	call	_ZStlsISt11char_traitsIcEERSt13basic_ostreamIcT_ES5_PKc@PLT
	movq	%rax, %rdx
	leaq	.LC14(%rip), %rax
	movq	%rax, %rsi
	movq	%rdx, %rdi
	call	_ZStlsISt11char_traitsIcEERSt13basic_ostreamIcT_ES5_PKc@PLT
.LEHE14:
.L105:
	movl	$0, %ebx
	leaq	-960(%rbp), %rax
	movq	%rax, %rdi
	call	_ZNSt14basic_ofstreamIcSt11char_traitsIcEED1Ev@PLT
	leaq	-1056(%rbp), %rax
	movq	%rax, %rdi
	call	_ZNSt7__cxx1112basic_stringIcSt11char_traitsIcESaIcEED1Ev
	leaq	-1088(%rbp), %rax
	movq	%rax, %rdi
	call	_ZNSt7__cxx1112basic_stringIcSt11char_traitsIcESaIcEED1Ev
	leaq	-1120(%rbp), %rax
	movq	%rax, %rdi
	call	_ZNSt7__cxx1112basic_stringIcSt11char_traitsIcESaIcEED1Ev
	leaq	-1152(%rbp), %rax
	movq	%rax, %rdi
	call	_ZNSt7__cxx1112basic_stringIcSt11char_traitsIcESaIcEED1Ev
	leaq	-1184(%rbp), %rax
	movq	%rax, %rdi
	call	_ZNSt7__cxx1112basic_stringIcSt11char_traitsIcESaIcEED1Ev
	leaq	-1248(%rbp), %rax
	movq	%rax, %rdi
	call	_ZNSt6vectorI6ResultSaIS0_EED1Ev
	leaq	-1280(%rbp), %rax
	movq	%rax, %rdi
	call	_ZNSt6vectorIlSaIlEED1Ev
.L106:
	movl	%ebx, %eax
	movq	-40(%rbp), %rdx
	subq	%fs:40, %rdx
	je	.L120
	jmp	.L135
.L122:
	movq	%rax, %rbx
	leaq	-960(%rbp), %rax
	movq	%rax, %rdi
	call	_ZNSt7__cxx1112basic_stringIcSt11char_traitsIcESaIcEED1Ev
	jmp	.L108
.L121:
	movq	%rax, %rbx
.L108:
	leaq	-1216(%rbp), %rax
	movq	%rax, %rdi
	call	_ZNSt15__new_allocatorIcED2Ev
	nop
	movq	%rbx, %rax
	movq	-40(%rbp), %rdx
	subq	%fs:40, %rdx
	je	.L109
	call	__stack_chk_fail@PLT
.L109:
	movq	%rax, %rdi
.LEHB15:
	call	_Unwind_Resume@PLT
.L124:
	movq	%rax, %rbx
	leaq	-960(%rbp), %rax
	movq	%rax, %rdi
	call	_ZNSt7__cxx1112basic_stringIcSt11char_traitsIcESaIcEED1Ev
	jmp	.L111
.L123:
	movq	%rax, %rbx
.L111:
	leaq	-1248(%rbp), %rax
	movq	%rax, %rdi
	call	_ZNSt15__new_allocatorIcED2Ev
	nop
	jmp	.L112
.L127:
	movq	%rax, %rbx
	leaq	-1024(%rbp), %rax
	movq	%rax, %rdi
	call	_ZNSt7__cxx1112basic_stringIcSt11char_traitsIcESaIcEED1Ev
	leaq	-960(%rbp), %rax
	movq	%rax, %rdi
	call	_ZNSt14basic_ifstreamIcSt11char_traitsIcEED1Ev@PLT
	jmp	.L114
.L129:
	movq	%rax, %rbx
	leaq	-1024(%rbp), %rax
	movq	%rax, %rdi
	call	_ZNSt7__cxx1112basic_stringIcSt11char_traitsIcESaIcEED1Ev
	leaq	-960(%rbp), %rax
	movq	%rax, %rdi
	call	_ZNSt14basic_ifstreamIcSt11char_traitsIcEED1Ev@PLT
	jmp	.L114
.L130:
	movq	%rax, %rbx
	leaq	-1216(%rbp), %rax
	movq	%rax, %rdi
	call	_ZNSt15__new_allocatorIcED2Ev
	nop
	jmp	.L114
.L131:
	movq	%rax, %rbx
	leaq	-960(%rbp), %rax
	movq	%rax, %rdi
	call	_ZNSt14basic_ofstreamIcSt11char_traitsIcEED1Ev@PLT
	jmp	.L114
.L128:
	movq	%rax, %rbx
.L114:
	leaq	-1056(%rbp), %rax
	movq	%rax, %rdi
	call	_ZNSt7__cxx1112basic_stringIcSt11char_traitsIcESaIcEED1Ev
	leaq	-1088(%rbp), %rax
	movq	%rax, %rdi
	call	_ZNSt7__cxx1112basic_stringIcSt11char_traitsIcESaIcEED1Ev
	leaq	-1120(%rbp), %rax
	movq	%rax, %rdi
	call	_ZNSt7__cxx1112basic_stringIcSt11char_traitsIcESaIcEED1Ev
	leaq	-1152(%rbp), %rax
	movq	%rax, %rdi
	call	_ZNSt7__cxx1112basic_stringIcSt11char_traitsIcESaIcEED1Ev
	leaq	-1184(%rbp), %rax
	movq	%rax, %rdi
	call	_ZNSt7__cxx1112basic_stringIcSt11char_traitsIcESaIcEED1Ev
	jmp	.L118
.L126:
	movq	%rax, %rbx
.L118:
	leaq	-1248(%rbp), %rax
	movq	%rax, %rdi
	call	_ZNSt6vectorI6ResultSaIS0_EED1Ev
	jmp	.L112
.L125:
	movq	%rax, %rbx
.L112:
	leaq	-1280(%rbp), %rax
	movq	%rax, %rdi
	call	_ZNSt6vectorIlSaIlEED1Ev
	movq	%rbx, %rax
	movq	-40(%rbp), %rdx
	subq	%fs:40, %rdx
	je	.L119
	call	__stack_chk_fail@PLT
.L119:
	movq	%rax, %rdi
	call	_Unwind_Resume@PLT
.LEHE15:
.L135:
	call	__stack_chk_fail@PLT
.L120:
	addq	$1448, %rsp
	popq	%rbx
	popq	%r12
	popq	%r13
	popq	%rbp
	.cfi_def_cfa 7, 8
	ret
	.cfi_endproc
.LFE3054:
	.section	.gcc_except_table,"a",@progbits
.LLSDA3054:
	.byte	0xff
	.byte	0xff
	.byte	0x1
	.uleb128 .LLSDACSE3054-.LLSDACSB3054
.LLSDACSB3054:
	.uleb128 .LEHB0-.LFB3054
	.uleb128 .LEHE0-.LEHB0
	.uleb128 .L121-.LFB3054
	.uleb128 0
	.uleb128 .LEHB1-.LFB3054
	.uleb128 .LEHE1-.LEHB1
	.uleb128 .L122-.LFB3054
	.uleb128 0
	.uleb128 .LEHB2-.LFB3054
	.uleb128 .LEHE2-.LEHB2
	.uleb128 0
	.uleb128 0
	.uleb128 .LEHB3-.LFB3054
	.uleb128 .LEHE3-.LEHB3
	.uleb128 .L123-.LFB3054
	.uleb128 0
	.uleb128 .LEHB4-.LFB3054
	.uleb128 .LEHE4-.LEHB4
	.uleb128 .L124-.LFB3054
	.uleb128 0
	.uleb128 .LEHB5-.LFB3054
	.uleb128 .LEHE5-.LEHB5
	.uleb128 .L125-.LFB3054
	.uleb128 0
	.uleb128 .LEHB6-.LFB3054
	.uleb128 .LEHE6-.LEHB6
	.uleb128 .L126-.LFB3054
	.uleb128 0
	.uleb128 .LEHB7-.LFB3054
	.uleb128 .LEHE7-.LEHB7
	.uleb128 .L128-.LFB3054
	.uleb128 0
	.uleb128 .LEHB8-.LFB3054
	.uleb128 .LEHE8-.LEHB8
	.uleb128 .L127-.LFB3054
	.uleb128 0
	.uleb128 .LEHB9-.LFB3054
	.uleb128 .LEHE9-.LEHB9
	.uleb128 .L128-.LFB3054
	.uleb128 0
	.uleb128 .LEHB10-.LFB3054
	.uleb128 .LEHE10-.LEHB10
	.uleb128 .L129-.LFB3054
	.uleb128 0
	.uleb128 .LEHB11-.LFB3054
	.uleb128 .LEHE11-.LEHB11
	.uleb128 .L128-.LFB3054
	.uleb128 0
	.uleb128 .LEHB12-.LFB3054
	.uleb128 .LEHE12-.LEHB12
	.uleb128 .L130-.LFB3054
	.uleb128 0
	.uleb128 .LEHB13-.LFB3054
	.uleb128 .LEHE13-.LEHB13
	.uleb128 .L128-.LFB3054
	.uleb128 0
	.uleb128 .LEHB14-.LFB3054
	.uleb128 .LEHE14-.LEHB14
	.uleb128 .L131-.LFB3054
	.uleb128 0
	.uleb128 .LEHB15-.LFB3054
	.uleb128 .LEHE15-.LEHB15
	.uleb128 0
	.uleb128 0
.LLSDACSE3054:
	.text
	.size	main, .-main
	.section	.text._ZN9__gnu_cxx11char_traitsIcE6lengthEPKc,"axG",@progbits,_ZN9__gnu_cxx11char_traitsIcE6lengthEPKc,comdat
	.align 2
	.weak	_ZN9__gnu_cxx11char_traitsIcE6lengthEPKc
	.type	_ZN9__gnu_cxx11char_traitsIcE6lengthEPKc, @function
_ZN9__gnu_cxx11char_traitsIcE6lengthEPKc:
.LFB3086:
	.cfi_startproc
	pushq	%rbp
	.cfi_def_cfa_offset 16
	.cfi_offset 6, -16
	movq	%rsp, %rbp
	.cfi_def_cfa_register 6
	subq	$48, %rsp
	movq	%rdi, -40(%rbp)
	movq	%fs:40, %rax
	movq	%rax, -8(%rbp)
	xorl	%eax, %eax
	movq	$0, -16(%rbp)
	jmp	.L137
.L138:
	addq	$1, -16(%rbp)
.L137:
	movb	$0, -17(%rbp)
	movq	-40(%rbp), %rdx
	movq	-16(%rbp), %rax
	addq	%rax, %rdx
	leaq	-17(%rbp), %rax
	movq	%rax, %rsi
	movq	%rdx, %rdi
	call	_ZN9__gnu_cxx11char_traitsIcE2eqERKcS3_
	xorl	$1, %eax
	testb	%al, %al
	jne	.L138
	movq	-16(%rbp), %rax
	movq	-8(%rbp), %rdx
	subq	%fs:40, %rdx
	je	.L140
	call	__stack_chk_fail@PLT
.L140:
	leave
	.cfi_def_cfa 7, 8
	ret
	.cfi_endproc
.LFE3086:
	.size	_ZN9__gnu_cxx11char_traitsIcE6lengthEPKc, .-_ZN9__gnu_cxx11char_traitsIcE6lengthEPKc
	.section	.text._ZN9__gnu_cxx11char_traitsIcE4findEPKcmRS2_,"axG",@progbits,_ZN9__gnu_cxx11char_traitsIcE4findEPKcmRS2_,comdat
	.align 2
	.weak	_ZN9__gnu_cxx11char_traitsIcE4findEPKcmRS2_
	.type	_ZN9__gnu_cxx11char_traitsIcE4findEPKcmRS2_, @function
_ZN9__gnu_cxx11char_traitsIcE4findEPKcmRS2_:
.LFB3087:
	.cfi_startproc
	pushq	%rbp
	.cfi_def_cfa_offset 16
	.cfi_offset 6, -16
	movq	%rsp, %rbp
	.cfi_def_cfa_register 6
	subq	$48, %rsp
	movq	%rdi, -24(%rbp)
	movq	%rsi, -32(%rbp)
	movq	%rdx, -40(%rbp)
	movq	$0, -8(%rbp)
	jmp	.L142
.L145:
	movq	-24(%rbp), %rdx
	movq	-8(%rbp), %rax
	addq	%rax, %rdx
	movq	-40(%rbp), %rax
	movq	%rax, %rsi
	movq	%rdx, %rdi
	call	_ZN9__gnu_cxx11char_traitsIcE2eqERKcS3_
	testb	%al, %al
	je	.L143
	movq	-24(%rbp), %rdx
	movq	-8(%rbp), %rax
	addq	%rdx, %rax
	jmp	.L144
.L143:
	addq	$1, -8(%rbp)
.L142:
	movq	-8(%rbp), %rax
	cmpq	-32(%rbp), %rax
	jb	.L145
	movl	$0, %eax
.L144:
	leave
	.cfi_def_cfa 7, 8
	ret
	.cfi_endproc
.LFE3087:
	.size	_ZN9__gnu_cxx11char_traitsIcE4findEPKcmRS2_, .-_ZN9__gnu_cxx11char_traitsIcE4findEPKcmRS2_
	.section	.text._ZNKSt7__cxx1112basic_stringIcSt11char_traitsIcESaIcEE5c_strEv,"axG",@progbits,_ZNKSt7__cxx1112basic_stringIcSt11char_traitsIcESaIcEE5c_strEv,comdat
	.align 2
	.weak	_ZNKSt7__cxx1112basic_stringIcSt11char_traitsIcESaIcEE5c_strEv
	.type	_ZNKSt7__cxx1112basic_stringIcSt11char_traitsIcESaIcEE5c_strEv, @function
_ZNKSt7__cxx1112basic_stringIcSt11char_traitsIcESaIcEE5c_strEv:
.LFB3112:
	.cfi_startproc
	pushq	%rbp
	.cfi_def_cfa_offset 16
	.cfi_offset 6, -16
	movq	%rsp, %rbp
	.cfi_def_cfa_register 6
	subq	$16, %rsp
	movq	%rdi, -8(%rbp)
	movq	-8(%rbp), %rax
	movq	%rax, %rdi
	call	_ZNKSt7__cxx1112basic_stringIcSt11char_traitsIcESaIcEE7_M_dataEv
	leave
	.cfi_def_cfa 7, 8
	ret
	.cfi_endproc
.LFE3112:
	.size	_ZNKSt7__cxx1112basic_stringIcSt11char_traitsIcESaIcEE5c_strEv, .-_ZNKSt7__cxx1112basic_stringIcSt11char_traitsIcESaIcEE5c_strEv
	.section	.text._ZZN9__gnu_cxx6__stoaIxxcJiEEET0_PFT_PKT1_PPS3_DpT2_EPKcS5_PmS9_EN11_Save_errnoC2Ev,"axG",@progbits,_ZZN9__gnu_cxx6__stoaIxxcJiEEET0_PFT_PKT1_PPS3_DpT2_EPKcS5_PmS9_EN11_Save_errnoC5Ev,comdat
	.align 2
	.weak	_ZZN9__gnu_cxx6__stoaIxxcJiEEET0_PFT_PKT1_PPS3_DpT2_EPKcS5_PmS9_EN11_Save_errnoC2Ev
	.type	_ZZN9__gnu_cxx6__stoaIxxcJiEEET0_PFT_PKT1_PPS3_DpT2_EPKcS5_PmS9_EN11_Save_errnoC2Ev, @function
_ZZN9__gnu_cxx6__stoaIxxcJiEEET0_PFT_PKT1_PPS3_DpT2_EPKcS5_PmS9_EN11_Save_errnoC2Ev:
.LFB3142:
	.cfi_startproc
	pushq	%rbp
	.cfi_def_cfa_offset 16
	.cfi_offset 6, -16
	movq	%rsp, %rbp
	.cfi_def_cfa_register 6
	subq	$16, %rsp
	movq	%rdi, -8(%rbp)
	call	__errno_location@PLT
	movl	(%rax), %edx
	movq	-8(%rbp), %rax
	movl	%edx, (%rax)
	call	__errno_location@PLT
	movl	$0, (%rax)
	nop
	leave
	.cfi_def_cfa 7, 8
	ret
	.cfi_endproc
.LFE3142:
	.size	_ZZN9__gnu_cxx6__stoaIxxcJiEEET0_PFT_PKT1_PPS3_DpT2_EPKcS5_PmS9_EN11_Save_errnoC2Ev, .-_ZZN9__gnu_cxx6__stoaIxxcJiEEET0_PFT_PKT1_PPS3_DpT2_EPKcS5_PmS9_EN11_Save_errnoC2Ev
	.weak	_ZZN9__gnu_cxx6__stoaIxxcJiEEET0_PFT_PKT1_PPS3_DpT2_EPKcS5_PmS9_EN11_Save_errnoC1Ev
	.set	_ZZN9__gnu_cxx6__stoaIxxcJiEEET0_PFT_PKT1_PPS3_DpT2_EPKcS5_PmS9_EN11_Save_errnoC1Ev,_ZZN9__gnu_cxx6__stoaIxxcJiEEET0_PFT_PKT1_PPS3_DpT2_EPKcS5_PmS9_EN11_Save_errnoC2Ev
	.section	.text._ZZN9__gnu_cxx6__stoaIxxcJiEEET0_PFT_PKT1_PPS3_DpT2_EPKcS5_PmS9_EN11_Save_errnoD2Ev,"axG",@progbits,_ZZN9__gnu_cxx6__stoaIxxcJiEEET0_PFT_PKT1_PPS3_DpT2_EPKcS5_PmS9_EN11_Save_errnoD5Ev,comdat
	.align 2
	.weak	_ZZN9__gnu_cxx6__stoaIxxcJiEEET0_PFT_PKT1_PPS3_DpT2_EPKcS5_PmS9_EN11_Save_errnoD2Ev
	.type	_ZZN9__gnu_cxx6__stoaIxxcJiEEET0_PFT_PKT1_PPS3_DpT2_EPKcS5_PmS9_EN11_Save_errnoD2Ev, @function
_ZZN9__gnu_cxx6__stoaIxxcJiEEET0_PFT_PKT1_PPS3_DpT2_EPKcS5_PmS9_EN11_Save_errnoD2Ev:
.LFB3145:
	.cfi_startproc
	pushq	%rbp
	.cfi_def_cfa_offset 16
	.cfi_offset 6, -16
	movq	%rsp, %rbp
	.cfi_def_cfa_register 6
	subq	$16, %rsp
	movq	%rdi, -8(%rbp)
	call	__errno_location@PLT
	movl	(%rax), %eax
	testl	%eax, %eax
	jne	.L151
	call	__errno_location@PLT
	movq	-8(%rbp), %rdx
	movl	(%rdx), %edx
	movl	%edx, (%rax)
.L151:
	nop
	leave
	.cfi_def_cfa 7, 8
	ret
	.cfi_endproc
.LFE3145:
	.size	_ZZN9__gnu_cxx6__stoaIxxcJiEEET0_PFT_PKT1_PPS3_DpT2_EPKcS5_PmS9_EN11_Save_errnoD2Ev, .-_ZZN9__gnu_cxx6__stoaIxxcJiEEET0_PFT_PKT1_PPS3_DpT2_EPKcS5_PmS9_EN11_Save_errnoD2Ev
	.weak	_ZZN9__gnu_cxx6__stoaIxxcJiEEET0_PFT_PKT1_PPS3_DpT2_EPKcS5_PmS9_EN11_Save_errnoD1Ev
	.set	_ZZN9__gnu_cxx6__stoaIxxcJiEEET0_PFT_PKT1_PPS3_DpT2_EPKcS5_PmS9_EN11_Save_errnoD1Ev,_ZZN9__gnu_cxx6__stoaIxxcJiEEET0_PFT_PKT1_PPS3_DpT2_EPKcS5_PmS9_EN11_Save_errnoD2Ev
	.section	.text._ZZN9__gnu_cxx6__stoaIxxcJiEEET0_PFT_PKT1_PPS3_DpT2_EPKcS5_PmS9_EN10_Range_chk6_S_chkExSt17integral_constantIbLb0EE,"axG",@progbits,_ZZN9__gnu_cxx6__stoaIxxcJiEEET0_PFT_PKT1_PPS3_DpT2_EPKcS5_PmS9_EN10_Range_chk6_S_chkExSt17integral_constantIbLb0EE,comdat
	.weak	_ZZN9__gnu_cxx6__stoaIxxcJiEEET0_PFT_PKT1_PPS3_DpT2_EPKcS5_PmS9_EN10_Range_chk6_S_chkExSt17integral_constantIbLb0EE
	.type	_ZZN9__gnu_cxx6__stoaIxxcJiEEET0_PFT_PKT1_PPS3_DpT2_EPKcS5_PmS9_EN10_Range_chk6_S_chkExSt17integral_constantIbLb0EE, @function
_ZZN9__gnu_cxx6__stoaIxxcJiEEET0_PFT_PKT1_PPS3_DpT2_EPKcS5_PmS9_EN10_Range_chk6_S_chkExSt17integral_constantIbLb0EE:
.LFB3147:
	.cfi_startproc
	pushq	%rbp
	.cfi_def_cfa_offset 16
	.cfi_offset 6, -16
	movq	%rsp, %rbp
	.cfi_def_cfa_register 6
	movq	%rdi, -8(%rbp)
	movl	$0, %eax
	popq	%rbp
	.cfi_def_cfa 7, 8
	ret
	.cfi_endproc
.LFE3147:
	.size	_ZZN9__gnu_cxx6__stoaIxxcJiEEET0_PFT_PKT1_PPS3_DpT2_EPKcS5_PmS9_EN10_Range_chk6_S_chkExSt17integral_constantIbLb0EE, .-_ZZN9__gnu_cxx6__stoaIxxcJiEEET0_PFT_PKT1_PPS3_DpT2_EPKcS5_PmS9_EN10_Range_chk6_S_chkExSt17integral_constantIbLb0EE
	.section	.text._ZN9__gnu_cxx6__stoaIxxcJiEEET0_PFT_PKT1_PPS3_DpT2_EPKcS5_PmS9_,"axG",@progbits,_ZN9__gnu_cxx6__stoaIxxcJiEEET0_PFT_PKT1_PPS3_DpT2_EPKcS5_PmS9_,comdat
	.weak	_ZN9__gnu_cxx6__stoaIxxcJiEEET0_PFT_PKT1_PPS3_DpT2_EPKcS5_PmS9_
	.type	_ZN9__gnu_cxx6__stoaIxxcJiEEET0_PFT_PKT1_PPS3_DpT2_EPKcS5_PmS9_, @function
_ZN9__gnu_cxx6__stoaIxxcJiEEET0_PFT_PKT1_PPS3_DpT2_EPKcS5_PmS9_:
.LFB3140:
	.cfi_startproc
	.cfi_personality 0x9b,DW.ref.__gxx_personality_v0
	.cfi_lsda 0x1b,.LLSDA3140
	pushq	%rbp
	.cfi_def_cfa_offset 16
	.cfi_offset 6, -16
	movq	%rsp, %rbp
	.cfi_def_cfa_register 6
	pushq	%rbx
	subq	$104, %rsp
	.cfi_offset 3, -24
	movq	%rdi, -72(%rbp)
	movq	%rsi, -80(%rbp)
	movq	%rdx, -88(%rbp)
	movq	%rcx, -96(%rbp)
	movl	%r8d, -100(%rbp)
	movq	%fs:40, %rax
	movq	%rax, -24(%rbp)
	xorl	%eax, %eax
	leaq	-52(%rbp), %rax
	movq	%rax, %rdi
	call	_ZZN9__gnu_cxx6__stoaIxxcJiEEET0_PFT_PKT1_PPS3_DpT2_EPKcS5_PmS9_EN11_Save_errnoC1Ev
	movq	-72(%rbp), %r8
	movl	-100(%rbp), %edx
	leaq	-48(%rbp), %rcx
	movq	-88(%rbp), %rax
	movq	%rcx, %rsi
	movq	%rax, %rdi
.LEHB16:
	call	*%r8
	movq	%rax, -40(%rbp)
	movq	-48(%rbp), %rax
	cmpq	%rax, -88(%rbp)
	jne	.L155
	movq	-24(%rbp), %rax
	subq	%fs:40, %rax
	je	.L156
	call	__stack_chk_fail@PLT
.L156:
	movq	-80(%rbp), %rax
	movq	%rax, %rdi
	call	_ZSt24__throw_invalid_argumentPKc@PLT
.L155:
	call	__errno_location@PLT
	movl	(%rax), %eax
	cmpl	$34, %eax
	je	.L157
	movq	-40(%rbp), %rax
	movq	%rax, %rdi
	call	_ZZN9__gnu_cxx6__stoaIxxcJiEEET0_PFT_PKT1_PPS3_DpT2_EPKcS5_PmS9_EN10_Range_chk6_S_chkExSt17integral_constantIbLb0EE
	testb	%al, %al
	je	.L158
.L157:
	movl	$1, %eax
	jmp	.L159
.L158:
	movl	$0, %eax
.L159:
	testb	%al, %al
	je	.L160
	movq	-24(%rbp), %rax
	subq	%fs:40, %rax
	je	.L161
	call	__stack_chk_fail@PLT
.L161:
	movq	-80(%rbp), %rax
	movq	%rax, %rdi
	call	_ZSt20__throw_out_of_rangePKc@PLT
.LEHE16:
.L160:
	movq	-40(%rbp), %rax
	movq	%rax, -32(%rbp)
	cmpq	$0, -96(%rbp)
	je	.L162
	movq	-48(%rbp), %rax
	subq	-88(%rbp), %rax
	movq	%rax, %rdx
	movq	-96(%rbp), %rax
	movq	%rdx, (%rax)
.L162:
	movq	-32(%rbp), %rbx
	leaq	-52(%rbp), %rax
	movq	%rax, %rdi
	call	_ZZN9__gnu_cxx6__stoaIxxcJiEEET0_PFT_PKT1_PPS3_DpT2_EPKcS5_PmS9_EN11_Save_errnoD1Ev
	movq	%rbx, %rax
	movq	-24(%rbp), %rdx
	subq	%fs:40, %rdx
	je	.L166
	jmp	.L168
.L167:
	movq	%rax, %rbx
	leaq	-52(%rbp), %rax
	movq	%rax, %rdi
	call	_ZZN9__gnu_cxx6__stoaIxxcJiEEET0_PFT_PKT1_PPS3_DpT2_EPKcS5_PmS9_EN11_Save_errnoD1Ev
	movq	%rbx, %rax
	movq	-24(%rbp), %rdx
	subq	%fs:40, %rdx
	je	.L165
	call	__stack_chk_fail@PLT
.L165:
	movq	%rax, %rdi
.LEHB17:
	call	_Unwind_Resume@PLT
.LEHE17:
.L168:
	call	__stack_chk_fail@PLT
.L166:
	movq	-8(%rbp), %rbx
	leave
	.cfi_def_cfa 7, 8
	ret
	.cfi_endproc
.LFE3140:
	.section	.gcc_except_table
.LLSDA3140:
	.byte	0xff
	.byte	0xff
	.byte	0x1
	.uleb128 .LLSDACSE3140-.LLSDACSB3140
.LLSDACSB3140:
	.uleb128 .LEHB16-.LFB3140
	.uleb128 .LEHE16-.LEHB16
	.uleb128 .L167-.LFB3140
	.uleb128 0
	.uleb128 .LEHB17-.LFB3140
	.uleb128 .LEHE17-.LEHB17
	.uleb128 0
	.uleb128 0
.LLSDACSE3140:
	.section	.text._ZN9__gnu_cxx6__stoaIxxcJiEEET0_PFT_PKT1_PPS3_DpT2_EPKcS5_PmS9_,"axG",@progbits,_ZN9__gnu_cxx6__stoaIxxcJiEEET0_PFT_PKT1_PPS3_DpT2_EPKcS5_PmS9_,comdat
	.size	_ZN9__gnu_cxx6__stoaIxxcJiEEET0_PFT_PKT1_PPS3_DpT2_EPKcS5_PmS9_, .-_ZN9__gnu_cxx6__stoaIxxcJiEEET0_PFT_PKT1_PPS3_DpT2_EPKcS5_PmS9_
	.section	.text._ZNSt7__cxx1112basic_stringIcSt11char_traitsIcESaIcEE12_Alloc_hiderD2Ev,"axG",@progbits,_ZNSt7__cxx1112basic_stringIcSt11char_traitsIcESaIcEE12_Alloc_hiderD5Ev,comdat
	.align 2
	.weak	_ZNSt7__cxx1112basic_stringIcSt11char_traitsIcESaIcEE12_Alloc_hiderD2Ev
	.type	_ZNSt7__cxx1112basic_stringIcSt11char_traitsIcESaIcEE12_Alloc_hiderD2Ev, @function
_ZNSt7__cxx1112basic_stringIcSt11char_traitsIcESaIcEE12_Alloc_hiderD2Ev:
.LFB3187:
	.cfi_startproc
	pushq	%rbp
	.cfi_def_cfa_offset 16
	.cfi_offset 6, -16
	movq	%rsp, %rbp
	.cfi_def_cfa_register 6
	subq	$32, %rsp
	movq	%rdi, -24(%rbp)
	movq	-24(%rbp), %rax
	movq	%rax, -8(%rbp)
	movq	-8(%rbp), %rax
	movq	%rax, %rdi
	call	_ZNSt15__new_allocatorIcED2Ev
	nop
	nop
	leave
	.cfi_def_cfa 7, 8
	ret
	.cfi_endproc
.LFE3187:
	.size	_ZNSt7__cxx1112basic_stringIcSt11char_traitsIcESaIcEE12_Alloc_hiderD2Ev, .-_ZNSt7__cxx1112basic_stringIcSt11char_traitsIcESaIcEE12_Alloc_hiderD2Ev
	.weak	_ZNSt7__cxx1112basic_stringIcSt11char_traitsIcESaIcEE12_Alloc_hiderD1Ev
	.set	_ZNSt7__cxx1112basic_stringIcSt11char_traitsIcESaIcEE12_Alloc_hiderD1Ev,_ZNSt7__cxx1112basic_stringIcSt11char_traitsIcESaIcEE12_Alloc_hiderD2Ev
	.section	.text._ZNSt7__cxx1112basic_stringIcSt11char_traitsIcESaIcEEC2Ev,"axG",@progbits,_ZNSt7__cxx1112basic_stringIcSt11char_traitsIcESaIcEEC5Ev,comdat
	.align 2
	.weak	_ZNSt7__cxx1112basic_stringIcSt11char_traitsIcESaIcEEC2Ev
	.type	_ZNSt7__cxx1112basic_stringIcSt11char_traitsIcESaIcEEC2Ev, @function
_ZNSt7__cxx1112basic_stringIcSt11char_traitsIcESaIcEEC2Ev:
.LFB3189:
	.cfi_startproc
	.cfi_personality 0x9b,DW.ref.__gxx_personality_v0
	.cfi_lsda 0x1b,.LLSDA3189
	pushq	%rbp
	.cfi_def_cfa_offset 16
	.cfi_offset 6, -16
	movq	%rsp, %rbp
	.cfi_def_cfa_register 6
	pushq	%rbx
	subq	$56, %rsp
	.cfi_offset 3, -24
	movq	%rdi, -56(%rbp)
	movq	%fs:40, %rax
	movq	%rax, -24(%rbp)
	xorl	%eax, %eax
	movq	-56(%rbp), %rbx
	leaq	-41(%rbp), %rax
	movq	%rax, -32(%rbp)
	nop
	nop
	movq	-56(%rbp), %rax
	movq	%rax, %rdi
	call	_ZNSt7__cxx1112basic_stringIcSt11char_traitsIcESaIcEE13_M_local_dataEv
	movq	%rax, %rcx
	leaq	-41(%rbp), %rax
	movq	%rax, %rdx
	movq	%rcx, %rsi
	movq	%rbx, %rdi
	call	_ZNSt7__cxx1112basic_stringIcSt11char_traitsIcESaIcEE12_Alloc_hiderC1EPcOS3_
	leaq	-41(%rbp), %rax
	movq	%rax, %rdi
	call	_ZNSt15__new_allocatorIcED2Ev
	nop
	movq	-56(%rbp), %rax
	movq	%rax, -40(%rbp)
	nop
	movq	-56(%rbp), %rax
	movl	$0, %esi
	movq	%rax, %rdi
	call	_ZNSt7__cxx1112basic_stringIcSt11char_traitsIcESaIcEE13_M_set_lengthEm
	nop
	movq	-24(%rbp), %rax
	subq	%fs:40, %rax
	je	.L171
	call	__stack_chk_fail@PLT
.L171:
	movq	-8(%rbp), %rbx
	leave
	.cfi_def_cfa 7, 8
	ret
	.cfi_endproc
.LFE3189:
	.section	.gcc_except_table
.LLSDA3189:
	.byte	0xff
	.byte	0xff
	.byte	0x1
	.uleb128 .LLSDACSE3189-.LLSDACSB3189
.LLSDACSB3189:
.LLSDACSE3189:
	.section	.text._ZNSt7__cxx1112basic_stringIcSt11char_traitsIcESaIcEEC2Ev,"axG",@progbits,_ZNSt7__cxx1112basic_stringIcSt11char_traitsIcESaIcEEC5Ev,comdat
	.size	_ZNSt7__cxx1112basic_stringIcSt11char_traitsIcESaIcEEC2Ev, .-_ZNSt7__cxx1112basic_stringIcSt11char_traitsIcESaIcEEC2Ev
	.weak	_ZNSt7__cxx1112basic_stringIcSt11char_traitsIcESaIcEEC1Ev
	.set	_ZNSt7__cxx1112basic_stringIcSt11char_traitsIcESaIcEEC1Ev,_ZNSt7__cxx1112basic_stringIcSt11char_traitsIcESaIcEEC2Ev
	.section	.text._ZNSt7__cxx1112basic_stringIcSt11char_traitsIcESaIcEED2Ev,"axG",@progbits,_ZNSt7__cxx1112basic_stringIcSt11char_traitsIcESaIcEED5Ev,comdat
	.align 2
	.weak	_ZNSt7__cxx1112basic_stringIcSt11char_traitsIcESaIcEED2Ev
	.type	_ZNSt7__cxx1112basic_stringIcSt11char_traitsIcESaIcEED2Ev, @function
_ZNSt7__cxx1112basic_stringIcSt11char_traitsIcESaIcEED2Ev:
.LFB3192:
	.cfi_startproc
	.cfi_personality 0x9b,DW.ref.__gxx_personality_v0
	.cfi_lsda 0x1b,.LLSDA3192
	pushq	%rbp
	.cfi_def_cfa_offset 16
	.cfi_offset 6, -16
	movq	%rsp, %rbp
	.cfi_def_cfa_register 6
	subq	$16, %rsp
	movq	%rdi, -8(%rbp)
	movq	-8(%rbp), %rax
	movq	%rax, %rdi
	call	_ZNSt7__cxx1112basic_stringIcSt11char_traitsIcESaIcEE10_M_disposeEv
	movq	-8(%rbp), %rax
	movq	%rax, %rdi
	call	_ZNSt7__cxx1112basic_stringIcSt11char_traitsIcESaIcEE12_Alloc_hiderD1Ev
	nop
	leave
	.cfi_def_cfa 7, 8
	ret
	.cfi_endproc
.LFE3192:
	.section	.gcc_except_table
.LLSDA3192:
	.byte	0xff
	.byte	0xff
	.byte	0x1
	.uleb128 .LLSDACSE3192-.LLSDACSB3192
.LLSDACSB3192:
.LLSDACSE3192:
	.section	.text._ZNSt7__cxx1112basic_stringIcSt11char_traitsIcESaIcEED2Ev,"axG",@progbits,_ZNSt7__cxx1112basic_stringIcSt11char_traitsIcESaIcEED5Ev,comdat
	.size	_ZNSt7__cxx1112basic_stringIcSt11char_traitsIcESaIcEED2Ev, .-_ZNSt7__cxx1112basic_stringIcSt11char_traitsIcESaIcEED2Ev
	.weak	_ZNSt7__cxx1112basic_stringIcSt11char_traitsIcESaIcEED1Ev
	.set	_ZNSt7__cxx1112basic_stringIcSt11char_traitsIcESaIcEED1Ev,_ZNSt7__cxx1112basic_stringIcSt11char_traitsIcESaIcEED2Ev
	.section	.text._ZNKSt6chrono10time_pointINS_3_V212system_clockENS_8durationIlSt5ratioILl1ELl1000000000EEEEE16time_since_epochEv,"axG",@progbits,_ZNKSt6chrono10time_pointINS_3_V212system_clockENS_8durationIlSt5ratioILl1ELl1000000000EEEEE16time_since_epochEv,comdat
	.align 2
	.weak	_ZNKSt6chrono10time_pointINS_3_V212system_clockENS_8durationIlSt5ratioILl1ELl1000000000EEEEE16time_since_epochEv
	.type	_ZNKSt6chrono10time_pointINS_3_V212system_clockENS_8durationIlSt5ratioILl1ELl1000000000EEEEE16time_since_epochEv, @function
_ZNKSt6chrono10time_pointINS_3_V212system_clockENS_8durationIlSt5ratioILl1ELl1000000000EEEEE16time_since_epochEv:
.LFB3362:
	.cfi_startproc
	pushq	%rbp
	.cfi_def_cfa_offset 16
	.cfi_offset 6, -16
	movq	%rsp, %rbp
	.cfi_def_cfa_register 6
	movq	%rdi, -8(%rbp)
	movq	-8(%rbp), %rax
	movq	(%rax), %rax
	popq	%rbp
	.cfi_def_cfa 7, 8
	ret
	.cfi_endproc
.LFE3362:
	.size	_ZNKSt6chrono10time_pointINS_3_V212system_clockENS_8durationIlSt5ratioILl1ELl1000000000EEEEE16time_since_epochEv, .-_ZNKSt6chrono10time_pointINS_3_V212system_clockENS_8durationIlSt5ratioILl1ELl1000000000EEEEE16time_since_epochEv
	.section	.rodata
	.align 8
.LC40:
	.string	"basic_string: construction from null is not valid"
	.section	.text._ZNSt7__cxx1112basic_stringIcSt11char_traitsIcESaIcEEC2IS3_EEPKcRKS3_,"axG",@progbits,_ZNSt7__cxx1112basic_stringIcSt11char_traitsIcESaIcEEC5IS3_EEPKcRKS3_,comdat
	.align 2
	.weak	_ZNSt7__cxx1112basic_stringIcSt11char_traitsIcESaIcEEC2IS3_EEPKcRKS3_
	.type	_ZNSt7__cxx1112basic_stringIcSt11char_traitsIcESaIcEEC2IS3_EEPKcRKS3_, @function
_ZNSt7__cxx1112basic_stringIcSt11char_traitsIcESaIcEEC2IS3_EEPKcRKS3_:
.LFB3407:
	.cfi_startproc
	.cfi_personality 0x9b,DW.ref.__gxx_personality_v0
	.cfi_lsda 0x1b,.LLSDA3407
	pushq	%rbp
	.cfi_def_cfa_offset 16
	.cfi_offset 6, -16
	movq	%rsp, %rbp
	.cfi_def_cfa_register 6
	pushq	%rbx
	subq	$56, %rsp
	.cfi_offset 3, -24
	movq	%rdi, -40(%rbp)
	movq	%rsi, -48(%rbp)
	movq	%rdx, -56(%rbp)
	movq	-40(%rbp), %rbx
	movq	-40(%rbp), %rax
	movq	%rax, %rdi
	call	_ZNSt7__cxx1112basic_stringIcSt11char_traitsIcESaIcEE13_M_local_dataEv
	movq	%rax, %rcx
	movq	-56(%rbp), %rax
	movq	%rax, %rdx
	movq	%rcx, %rsi
	movq	%rbx, %rdi
	call	_ZNSt7__cxx1112basic_stringIcSt11char_traitsIcESaIcEE12_Alloc_hiderC1EPcRKS3_
	cmpq	$0, -48(%rbp)
	jne	.L176
	leaq	.LC40(%rip), %rax
	movq	%rax, %rdi
.LEHB18:
	call	_ZSt19__throw_logic_errorPKc@PLT
.L176:
	movq	-48(%rbp), %rax
	movq	%rax, %rdi
	call	_ZNSt11char_traitsIcE6lengthEPKc
	movq	-48(%rbp), %rdx
	addq	%rdx, %rax
	movq	%rax, -24(%rbp)
	movq	-24(%rbp), %rdx
	movq	-48(%rbp), %rcx
	movq	-40(%rbp), %rax
	movq	%rcx, %rsi
	movq	%rax, %rdi
	call	_ZNSt7__cxx1112basic_stringIcSt11char_traitsIcESaIcEE12_M_constructIPKcEEvT_S8_St20forward_iterator_tag
.LEHE18:
	jmp	.L179
.L178:
	movq	%rax, %rbx
	movq	-40(%rbp), %rax
	movq	%rax, %rdi
	call	_ZNSt7__cxx1112basic_stringIcSt11char_traitsIcESaIcEE12_Alloc_hiderD1Ev
	movq	%rbx, %rax
	movq	%rax, %rdi
.LEHB19:
	call	_Unwind_Resume@PLT
.LEHE19:
.L179:
	movq	-8(%rbp), %rbx
	leave
	.cfi_def_cfa 7, 8
	ret
	.cfi_endproc
.LFE3407:
	.section	.gcc_except_table
.LLSDA3407:
	.byte	0xff
	.byte	0xff
	.byte	0x1
	.uleb128 .LLSDACSE3407-.LLSDACSB3407
.LLSDACSB3407:
	.uleb128 .LEHB18-.LFB3407
	.uleb128 .LEHE18-.LEHB18
	.uleb128 .L178-.LFB3407
	.uleb128 0
	.uleb128 .LEHB19-.LFB3407
	.uleb128 .LEHE19-.LEHB19
	.uleb128 0
	.uleb128 0
.LLSDACSE3407:
	.section	.text._ZNSt7__cxx1112basic_stringIcSt11char_traitsIcESaIcEEC2IS3_EEPKcRKS3_,"axG",@progbits,_ZNSt7__cxx1112basic_stringIcSt11char_traitsIcESaIcEEC5IS3_EEPKcRKS3_,comdat
	.size	_ZNSt7__cxx1112basic_stringIcSt11char_traitsIcESaIcEEC2IS3_EEPKcRKS3_, .-_ZNSt7__cxx1112basic_stringIcSt11char_traitsIcESaIcEEC2IS3_EEPKcRKS3_
	.weak	_ZNSt7__cxx1112basic_stringIcSt11char_traitsIcESaIcEEC1IS3_EEPKcRKS3_
	.set	_ZNSt7__cxx1112basic_stringIcSt11char_traitsIcESaIcEEC1IS3_EEPKcRKS3_,_ZNSt7__cxx1112basic_stringIcSt11char_traitsIcESaIcEEC2IS3_EEPKcRKS3_
	.section	.text._ZNSt12_Vector_baseIlSaIlEE12_Vector_implC2Ev,"axG",@progbits,_ZNSt12_Vector_baseIlSaIlEE12_Vector_implC5Ev,comdat
	.align 2
	.weak	_ZNSt12_Vector_baseIlSaIlEE12_Vector_implC2Ev
	.type	_ZNSt12_Vector_baseIlSaIlEE12_Vector_implC2Ev, @function
_ZNSt12_Vector_baseIlSaIlEE12_Vector_implC2Ev:
.LFB3411:
	.cfi_startproc
	pushq	%rbp
	.cfi_def_cfa_offset 16
	.cfi_offset 6, -16
	movq	%rsp, %rbp
	.cfi_def_cfa_register 6
	subq	$32, %rsp
	movq	%rdi, -24(%rbp)
	movq	-24(%rbp), %rax
	movq	%rax, -16(%rbp)
	movq	-16(%rbp), %rax
	movq	%rax, -8(%rbp)
	nop
	nop
	movq	-24(%rbp), %rax
	movq	%rax, %rdi
	call	_ZNSt12_Vector_baseIlSaIlEE17_Vector_impl_dataC2Ev
	nop
	leave
	.cfi_def_cfa 7, 8
	ret
	.cfi_endproc
.LFE3411:
	.size	_ZNSt12_Vector_baseIlSaIlEE12_Vector_implC2Ev, .-_ZNSt12_Vector_baseIlSaIlEE12_Vector_implC2Ev
	.weak	_ZNSt12_Vector_baseIlSaIlEE12_Vector_implC1Ev
	.set	_ZNSt12_Vector_baseIlSaIlEE12_Vector_implC1Ev,_ZNSt12_Vector_baseIlSaIlEE12_Vector_implC2Ev
	.section	.text._ZNSt12_Vector_baseIlSaIlEED2Ev,"axG",@progbits,_ZNSt12_Vector_baseIlSaIlEED5Ev,comdat
	.align 2
	.weak	_ZNSt12_Vector_baseIlSaIlEED2Ev
	.type	_ZNSt12_Vector_baseIlSaIlEED2Ev, @function
_ZNSt12_Vector_baseIlSaIlEED2Ev:
.LFB3417:
	.cfi_startproc
	.cfi_personality 0x9b,DW.ref.__gxx_personality_v0
	.cfi_lsda 0x1b,.LLSDA3417
	pushq	%rbp
	.cfi_def_cfa_offset 16
	.cfi_offset 6, -16
	movq	%rsp, %rbp
	.cfi_def_cfa_register 6
	subq	$16, %rsp
	movq	%rdi, -8(%rbp)
	movq	-8(%rbp), %rax
	movq	16(%rax), %rdx
	movq	-8(%rbp), %rax
	movq	(%rax), %rax
	subq	%rax, %rdx
	movq	%rdx, %rax
	sarq	$3, %rax
	movq	%rax, %rdx
	movq	-8(%rbp), %rax
	movq	(%rax), %rcx
	movq	-8(%rbp), %rax
	movq	%rcx, %rsi
	movq	%rax, %rdi
	call	_ZNSt12_Vector_baseIlSaIlEE13_M_deallocateEPlm
	movq	-8(%rbp), %rax
	movq	%rax, %rdi
	call	_ZNSt12_Vector_baseIlSaIlEE12_Vector_implD1Ev
	nop
	leave
	.cfi_def_cfa 7, 8
	ret
	.cfi_endproc
.LFE3417:
	.section	.gcc_except_table
.LLSDA3417:
	.byte	0xff
	.byte	0xff
	.byte	0x1
	.uleb128 .LLSDACSE3417-.LLSDACSB3417
.LLSDACSB3417:
.LLSDACSE3417:
	.section	.text._ZNSt12_Vector_baseIlSaIlEED2Ev,"axG",@progbits,_ZNSt12_Vector_baseIlSaIlEED5Ev,comdat
	.size	_ZNSt12_Vector_baseIlSaIlEED2Ev, .-_ZNSt12_Vector_baseIlSaIlEED2Ev
	.weak	_ZNSt12_Vector_baseIlSaIlEED1Ev
	.set	_ZNSt12_Vector_baseIlSaIlEED1Ev,_ZNSt12_Vector_baseIlSaIlEED2Ev
	.section	.text._ZNSt6vectorIlSaIlEED2Ev,"axG",@progbits,_ZNSt6vectorIlSaIlEED5Ev,comdat
	.align 2
	.weak	_ZNSt6vectorIlSaIlEED2Ev
	.type	_ZNSt6vectorIlSaIlEED2Ev, @function
_ZNSt6vectorIlSaIlEED2Ev:
.LFB3420:
	.cfi_startproc
	pushq	%rbp
	.cfi_def_cfa_offset 16
	.cfi_offset 6, -16
	movq	%rsp, %rbp
	.cfi_def_cfa_register 6
	subq	$48, %rsp
	movq	%rdi, -40(%rbp)
	movq	-40(%rbp), %rax
	movq	%rax, %rdi
	call	_ZNSt12_Vector_baseIlSaIlEE19_M_get_Tp_allocatorEv
	movq	-40(%rbp), %rdx
	movq	8(%rdx), %rdx
	movq	-40(%rbp), %rcx
	movq	(%rcx), %rcx
	movq	%rcx, -24(%rbp)
	movq	%rdx, -16(%rbp)
	movq	%rax, -8(%rbp)
	movq	-16(%rbp), %rdx
	movq	-24(%rbp), %rax
	movq	%rdx, %rsi
	movq	%rax, %rdi
	call	_ZSt8_DestroyIPlEvT_S1_
	nop
	movq	-40(%rbp), %rax
	movq	%rax, %rdi
	call	_ZNSt12_Vector_baseIlSaIlEED2Ev
	nop
	leave
	.cfi_def_cfa 7, 8
	ret
	.cfi_endproc
.LFE3420:
	.size	_ZNSt6vectorIlSaIlEED2Ev, .-_ZNSt6vectorIlSaIlEED2Ev
	.weak	_ZNSt6vectorIlSaIlEED1Ev
	.set	_ZNSt6vectorIlSaIlEED1Ev,_ZNSt6vectorIlSaIlEED2Ev
	.section	.text._ZNSt6vectorIlSaIlEE9push_backEOl,"axG",@progbits,_ZNSt6vectorIlSaIlEE9push_backEOl,comdat
	.align 2
	.weak	_ZNSt6vectorIlSaIlEE9push_backEOl
	.type	_ZNSt6vectorIlSaIlEE9push_backEOl, @function
_ZNSt6vectorIlSaIlEE9push_backEOl:
.LFB3422:
	.cfi_startproc
	pushq	%rbp
	.cfi_def_cfa_offset 16
	.cfi_offset 6, -16
	movq	%rsp, %rbp
	.cfi_def_cfa_register 6
	subq	$32, %rsp
	movq	%rdi, -24(%rbp)
	movq	%rsi, -32(%rbp)
	movq	-32(%rbp), %rax
	movq	%rax, -8(%rbp)
	movq	-8(%rbp), %rdx
	movq	-24(%rbp), %rax
	movq	%rdx, %rsi
	movq	%rax, %rdi
	call	_ZNSt6vectorIlSaIlEE12emplace_backIJlEEERlDpOT_
	nop
	leave
	.cfi_def_cfa 7, 8
	ret
	.cfi_endproc
.LFE3422:
	.size	_ZNSt6vectorIlSaIlEE9push_backEOl, .-_ZNSt6vectorIlSaIlEE9push_backEOl
	.section	.text._ZNSt6vectorIlSaIlEEaSESt16initializer_listIlE,"axG",@progbits,_ZNSt6vectorIlSaIlEEaSESt16initializer_listIlE,comdat
	.align 2
	.weak	_ZNSt6vectorIlSaIlEEaSESt16initializer_listIlE
	.type	_ZNSt6vectorIlSaIlEEaSESt16initializer_listIlE, @function
_ZNSt6vectorIlSaIlEEaSESt16initializer_listIlE:
.LFB3423:
	.cfi_startproc
	pushq	%rbp
	.cfi_def_cfa_offset 16
	.cfi_offset 6, -16
	movq	%rsp, %rbp
	.cfi_def_cfa_register 6
	pushq	%rbx
	subq	$56, %rsp
	.cfi_offset 3, -24
	movq	%rdi, -40(%rbp)
	movq	%rsi, %rax
	movq	%rdx, %rcx
	movq	%rax, %rax
	movl	$0, %edx
	movq	%rcx, %rdx
	movq	%rax, -64(%rbp)
	movq	%rdx, -56(%rbp)
	movq	%fs:40, %rax
	movq	%rax, -24(%rbp)
	xorl	%eax, %eax
	leaq	-64(%rbp), %rax
	movq	%rax, %rdi
	call	_ZNKSt16initializer_listIlE3endEv
	movq	%rax, %rbx
	leaq	-64(%rbp), %rax
	movq	%rax, %rdi
	call	_ZNKSt16initializer_listIlE5beginEv
	movq	%rax, %rcx
	movq	-40(%rbp), %rax
	movq	%rbx, %rdx
	movq	%rcx, %rsi
	movq	%rax, %rdi
	call	_ZNSt6vectorIlSaIlEE13_M_assign_auxIPKlEEvT_S5_St20forward_iterator_tag
	movq	-40(%rbp), %rax
	movq	-24(%rbp), %rdx
	subq	%fs:40, %rdx
	je	.L187
	call	__stack_chk_fail@PLT
.L187:
	movq	-8(%rbp), %rbx
	leave
	.cfi_def_cfa 7, 8
	ret
	.cfi_endproc
.LFE3423:
	.size	_ZNSt6vectorIlSaIlEEaSESt16initializer_listIlE, .-_ZNSt6vectorIlSaIlEEaSESt16initializer_listIlE
	.section	.text._ZNSt12_Vector_baseI6ResultSaIS0_EE12_Vector_implC2Ev,"axG",@progbits,_ZNSt12_Vector_baseI6ResultSaIS0_EE12_Vector_implC5Ev,comdat
	.align 2
	.weak	_ZNSt12_Vector_baseI6ResultSaIS0_EE12_Vector_implC2Ev
	.type	_ZNSt12_Vector_baseI6ResultSaIS0_EE12_Vector_implC2Ev, @function
_ZNSt12_Vector_baseI6ResultSaIS0_EE12_Vector_implC2Ev:
.LFB3425:
	.cfi_startproc
	pushq	%rbp
	.cfi_def_cfa_offset 16
	.cfi_offset 6, -16
	movq	%rsp, %rbp
	.cfi_def_cfa_register 6
	subq	$32, %rsp
	movq	%rdi, -24(%rbp)
	movq	-24(%rbp), %rax
	movq	%rax, -16(%rbp)
	movq	-16(%rbp), %rax
	movq	%rax, -8(%rbp)
	nop
	nop
	movq	-24(%rbp), %rax
	movq	%rax, %rdi
	call	_ZNSt12_Vector_baseI6ResultSaIS0_EE17_Vector_impl_dataC2Ev
	nop
	leave
	.cfi_def_cfa 7, 8
	ret
	.cfi_endproc
.LFE3425:
	.size	_ZNSt12_Vector_baseI6ResultSaIS0_EE12_Vector_implC2Ev, .-_ZNSt12_Vector_baseI6ResultSaIS0_EE12_Vector_implC2Ev
	.weak	_ZNSt12_Vector_baseI6ResultSaIS0_EE12_Vector_implC1Ev
	.set	_ZNSt12_Vector_baseI6ResultSaIS0_EE12_Vector_implC1Ev,_ZNSt12_Vector_baseI6ResultSaIS0_EE12_Vector_implC2Ev
	.section	.text._ZNSt12_Vector_baseI6ResultSaIS0_EED2Ev,"axG",@progbits,_ZNSt12_Vector_baseI6ResultSaIS0_EED5Ev,comdat
	.align 2
	.weak	_ZNSt12_Vector_baseI6ResultSaIS0_EED2Ev
	.type	_ZNSt12_Vector_baseI6ResultSaIS0_EED2Ev, @function
_ZNSt12_Vector_baseI6ResultSaIS0_EED2Ev:
.LFB3431:
	.cfi_startproc
	.cfi_personality 0x9b,DW.ref.__gxx_personality_v0
	.cfi_lsda 0x1b,.LLSDA3431
	pushq	%rbp
	.cfi_def_cfa_offset 16
	.cfi_offset 6, -16
	movq	%rsp, %rbp
	.cfi_def_cfa_register 6
	subq	$16, %rsp
	movq	%rdi, -8(%rbp)
	movq	-8(%rbp), %rax
	movq	16(%rax), %rdx
	movq	-8(%rbp), %rax
	movq	(%rax), %rax
	subq	%rax, %rdx
	movq	%rdx, %rax
	sarq	$5, %rax
	movq	%rax, %rdx
	movq	-8(%rbp), %rax
	movq	(%rax), %rcx
	movq	-8(%rbp), %rax
	movq	%rcx, %rsi
	movq	%rax, %rdi
	call	_ZNSt12_Vector_baseI6ResultSaIS0_EE13_M_deallocateEPS0_m
	movq	-8(%rbp), %rax
	movq	%rax, %rdi
	call	_ZNSt12_Vector_baseI6ResultSaIS0_EE12_Vector_implD1Ev
	nop
	leave
	.cfi_def_cfa 7, 8
	ret
	.cfi_endproc
.LFE3431:
	.section	.gcc_except_table
.LLSDA3431:
	.byte	0xff
	.byte	0xff
	.byte	0x1
	.uleb128 .LLSDACSE3431-.LLSDACSB3431
.LLSDACSB3431:
.LLSDACSE3431:
	.section	.text._ZNSt12_Vector_baseI6ResultSaIS0_EED2Ev,"axG",@progbits,_ZNSt12_Vector_baseI6ResultSaIS0_EED5Ev,comdat
	.size	_ZNSt12_Vector_baseI6ResultSaIS0_EED2Ev, .-_ZNSt12_Vector_baseI6ResultSaIS0_EED2Ev
	.weak	_ZNSt12_Vector_baseI6ResultSaIS0_EED1Ev
	.set	_ZNSt12_Vector_baseI6ResultSaIS0_EED1Ev,_ZNSt12_Vector_baseI6ResultSaIS0_EED2Ev
	.section	.text._ZNSt6vectorI6ResultSaIS0_EED2Ev,"axG",@progbits,_ZNSt6vectorI6ResultSaIS0_EED5Ev,comdat
	.align 2
	.weak	_ZNSt6vectorI6ResultSaIS0_EED2Ev
	.type	_ZNSt6vectorI6ResultSaIS0_EED2Ev, @function
_ZNSt6vectorI6ResultSaIS0_EED2Ev:
.LFB3434:
	.cfi_startproc
	pushq	%rbp
	.cfi_def_cfa_offset 16
	.cfi_offset 6, -16
	movq	%rsp, %rbp
	.cfi_def_cfa_register 6
	subq	$48, %rsp
	movq	%rdi, -40(%rbp)
	movq	-40(%rbp), %rax
	movq	%rax, %rdi
	call	_ZNSt12_Vector_baseI6ResultSaIS0_EE19_M_get_Tp_allocatorEv
	movq	-40(%rbp), %rdx
	movq	8(%rdx), %rdx
	movq	-40(%rbp), %rcx
	movq	(%rcx), %rcx
	movq	%rcx, -24(%rbp)
	movq	%rdx, -16(%rbp)
	movq	%rax, -8(%rbp)
	movq	-16(%rbp), %rdx
	movq	-24(%rbp), %rax
	movq	%rdx, %rsi
	movq	%rax, %rdi
	call	_ZSt8_DestroyIP6ResultEvT_S2_
	nop
	movq	-40(%rbp), %rax
	movq	%rax, %rdi
	call	_ZNSt12_Vector_baseI6ResultSaIS0_EED2Ev
	nop
	leave
	.cfi_def_cfa 7, 8
	ret
	.cfi_endproc
.LFE3434:
	.size	_ZNSt6vectorI6ResultSaIS0_EED2Ev, .-_ZNSt6vectorI6ResultSaIS0_EED2Ev
	.weak	_ZNSt6vectorI6ResultSaIS0_EED1Ev
	.set	_ZNSt6vectorI6ResultSaIS0_EED1Ev,_ZNSt6vectorI6ResultSaIS0_EED2Ev
	.section	.text._ZNKSt6vectorIlSaIlEE4sizeEv,"axG",@progbits,_ZNKSt6vectorIlSaIlEE4sizeEv,comdat
	.align 2
	.weak	_ZNKSt6vectorIlSaIlEE4sizeEv
	.type	_ZNKSt6vectorIlSaIlEE4sizeEv, @function
_ZNKSt6vectorIlSaIlEE4sizeEv:
.LFB3436:
	.cfi_startproc
	pushq	%rbp
	.cfi_def_cfa_offset 16
	.cfi_offset 6, -16
	movq	%rsp, %rbp
	.cfi_def_cfa_register 6
	movq	%rdi, -24(%rbp)
	movq	-24(%rbp), %rax
	movq	8(%rax), %rdx
	movq	-24(%rbp), %rax
	movq	(%rax), %rax
	subq	%rax, %rdx
	movq	%rdx, %rax
	sarq	$3, %rax
	movq	%rax, -8(%rbp)
	cmpq	$0, -8(%rbp)
	movq	-8(%rbp), %rax
	popq	%rbp
	.cfi_def_cfa 7, 8
	ret
	.cfi_endproc
.LFE3436:
	.size	_ZNKSt6vectorIlSaIlEE4sizeEv, .-_ZNKSt6vectorIlSaIlEE4sizeEv
	.section	.rodata
.LC41:
	.string	"vector::reserve"
	.section	.text._ZNSt6vectorI6ResultSaIS0_EE7reserveEm,"axG",@progbits,_ZNSt6vectorI6ResultSaIS0_EE7reserveEm,comdat
	.align 2
	.weak	_ZNSt6vectorI6ResultSaIS0_EE7reserveEm
	.type	_ZNSt6vectorI6ResultSaIS0_EE7reserveEm, @function
_ZNSt6vectorI6ResultSaIS0_EE7reserveEm:
.LFB3437:
	.cfi_startproc
	pushq	%rbp
	.cfi_def_cfa_offset 16
	.cfi_offset 6, -16
	movq	%rsp, %rbp
	.cfi_def_cfa_register 6
	subq	$32, %rsp
	movq	%rdi, -24(%rbp)
	movq	%rsi, -32(%rbp)
	movq	-24(%rbp), %rax
	movq	%rax, %rdi
	call	_ZNKSt6vectorI6ResultSaIS0_EE8max_sizeEv
	cmpq	-32(%rbp), %rax
	setb	%al
	testb	%al, %al
	je	.L195
	leaq	.LC41(%rip), %rax
	movq	%rax, %rdi
	call	_ZSt20__throw_length_errorPKc@PLT
.L195:
	movq	-24(%rbp), %rax
	movq	%rax, %rdi
	call	_ZNKSt6vectorI6ResultSaIS0_EE8capacityEv
	cmpq	-32(%rbp), %rax
	setb	%al
	testb	%al, %al
	je	.L197
	movq	-24(%rbp), %rax
	movq	%rax, %rdi
	call	_ZNKSt6vectorI6ResultSaIS0_EE4sizeEv
	movq	%rax, -16(%rbp)
	movq	-24(%rbp), %rax
	movq	-32(%rbp), %rdx
	movq	%rdx, %rsi
	movq	%rax, %rdi
	call	_ZNSt12_Vector_baseI6ResultSaIS0_EE11_M_allocateEm
	movq	%rax, -8(%rbp)
	movq	-24(%rbp), %rax
	movq	%rax, %rdi
	call	_ZNSt12_Vector_baseI6ResultSaIS0_EE19_M_get_Tp_allocatorEv
	movq	%rax, %rcx
	movq	-24(%rbp), %rax
	movq	8(%rax), %rsi
	movq	-24(%rbp), %rax
	movq	(%rax), %rax
	movq	-8(%rbp), %rdx
	movq	%rax, %rdi
	call	_ZNSt6vectorI6ResultSaIS0_EE11_S_relocateEPS0_S3_S3_RS1_
	movq	-24(%rbp), %rax
	movq	-24(%rbp), %rdx
	movq	16(%rdx), %rcx
	movq	-24(%rbp), %rdx
	movq	(%rdx), %rdx
	subq	%rdx, %rcx
	sarq	$5, %rcx
	movq	%rcx, %rdx
	movq	%rdx, %rsi
	movq	-24(%rbp), %rdx
	movq	(%rdx), %rcx
	movq	%rsi, %rdx
	movq	%rcx, %rsi
	movq	%rax, %rdi
	call	_ZNSt12_Vector_baseI6ResultSaIS0_EE13_M_deallocateEPS0_m
	movq	-24(%rbp), %rax
	movq	-8(%rbp), %rdx
	movq	%rdx, (%rax)
	movq	-16(%rbp), %rax
	salq	$5, %rax
	movq	%rax, %rdx
	movq	-8(%rbp), %rax
	addq	%rax, %rdx
	movq	-24(%rbp), %rax
	movq	%rdx, 8(%rax)
	movq	-24(%rbp), %rax
	movq	(%rax), %rax
	movq	-32(%rbp), %rdx
	salq	$5, %rdx
	addq	%rax, %rdx
	movq	-24(%rbp), %rax
	movq	%rdx, 16(%rax)
.L197:
	nop
	leave
	.cfi_def_cfa 7, 8
	ret
	.cfi_endproc
.LFE3437:
	.size	_ZNSt6vectorI6ResultSaIS0_EE7reserveEm, .-_ZNSt6vectorI6ResultSaIS0_EE7reserveEm
	.section	.text._ZNKSt7__cxx1112basic_stringIcSt11char_traitsIcESaIcEE4findEPKcm,"axG",@progbits,_ZNKSt7__cxx1112basic_stringIcSt11char_traitsIcESaIcEE4findEPKcm,comdat
	.align 2
	.weak	_ZNKSt7__cxx1112basic_stringIcSt11char_traitsIcESaIcEE4findEPKcm
	.type	_ZNKSt7__cxx1112basic_stringIcSt11char_traitsIcESaIcEE4findEPKcm, @function
_ZNKSt7__cxx1112basic_stringIcSt11char_traitsIcESaIcEE4findEPKcm:
.LFB3451:
	.cfi_startproc
	.cfi_personality 0x9b,DW.ref.__gxx_personality_v0
	.cfi_lsda 0x1b,.LLSDA3451
	pushq	%rbp
	.cfi_def_cfa_offset 16
	.cfi_offset 6, -16
	movq	%rsp, %rbp
	.cfi_def_cfa_register 6
	subq	$32, %rsp
	movq	%rdi, -8(%rbp)
	movq	%rsi, -16(%rbp)
	movq	%rdx, -24(%rbp)
	movq	-16(%rbp), %rax
	movq	%rax, %rdi
	call	_ZNSt11char_traitsIcE6lengthEPKc
	movq	%rax, %rcx
	movq	-24(%rbp), %rdx
	movq	-16(%rbp), %rsi
	movq	-8(%rbp), %rax
	movq	%rax, %rdi
	call	_ZNKSt7__cxx1112basic_stringIcSt11char_traitsIcESaIcEE4findEPKcmm
	leave
	.cfi_def_cfa 7, 8
	ret
	.cfi_endproc
.LFE3451:
	.section	.gcc_except_table
.LLSDA3451:
	.byte	0xff
	.byte	0xff
	.byte	0x1
	.uleb128 .LLSDACSE3451-.LLSDACSB3451
.LLSDACSB3451:
.LLSDACSE3451:
	.section	.text._ZNKSt7__cxx1112basic_stringIcSt11char_traitsIcESaIcEE4findEPKcm,"axG",@progbits,_ZNKSt7__cxx1112basic_stringIcSt11char_traitsIcESaIcEE4findEPKcm,comdat
	.size	_ZNKSt7__cxx1112basic_stringIcSt11char_traitsIcESaIcEE4findEPKcm, .-_ZNKSt7__cxx1112basic_stringIcSt11char_traitsIcESaIcEE4findEPKcm
	.section	.rodata
.LC42:
	.string	"basic_string::substr"
	.section	.text._ZNKSt7__cxx1112basic_stringIcSt11char_traitsIcESaIcEE6substrEmm,"axG",@progbits,_ZNKSt7__cxx1112basic_stringIcSt11char_traitsIcESaIcEE6substrEmm,comdat
	.align 2
	.weak	_ZNKSt7__cxx1112basic_stringIcSt11char_traitsIcESaIcEE6substrEmm
	.type	_ZNKSt7__cxx1112basic_stringIcSt11char_traitsIcESaIcEE6substrEmm, @function
_ZNKSt7__cxx1112basic_stringIcSt11char_traitsIcESaIcEE6substrEmm:
.LFB3452:
	.cfi_startproc
	pushq	%rbp
	.cfi_def_cfa_offset 16
	.cfi_offset 6, -16
	movq	%rsp, %rbp
	.cfi_def_cfa_register 6
	subq	$32, %rsp
	movq	%rdi, -8(%rbp)
	movq	%rsi, -16(%rbp)
	movq	%rdx, -24(%rbp)
	movq	%rcx, -32(%rbp)
	leaq	.LC42(%rip), %rdx
	movq	-24(%rbp), %rcx
	movq	-16(%rbp), %rax
	movq	%rcx, %rsi
	movq	%rax, %rdi
	call	_ZNKSt7__cxx1112basic_stringIcSt11char_traitsIcESaIcEE8_M_checkEmPKc
	movq	%rax, %rdi
	movq	-32(%rbp), %rdx
	movq	-16(%rbp), %rsi
	movq	-8(%rbp), %rax
	movq	%rdx, %rcx
	movq	%rdi, %rdx
	movq	%rax, %rdi
	call	_ZNSt7__cxx1112basic_stringIcSt11char_traitsIcESaIcEEC1ERKS4_mm
	movq	-8(%rbp), %rax
	leave
	.cfi_def_cfa 7, 8
	ret
	.cfi_endproc
.LFE3452:
	.size	_ZNKSt7__cxx1112basic_stringIcSt11char_traitsIcESaIcEE6substrEmm, .-_ZNKSt7__cxx1112basic_stringIcSt11char_traitsIcESaIcEE6substrEmm
	.section	.text._ZNSt7__cxx1112basic_stringIcSt11char_traitsIcESaIcEEaSEOS4_,"axG",@progbits,_ZNSt7__cxx1112basic_stringIcSt11char_traitsIcESaIcEEaSEOS4_,comdat
	.align 2
	.weak	_ZNSt7__cxx1112basic_stringIcSt11char_traitsIcESaIcEEaSEOS4_
	.type	_ZNSt7__cxx1112basic_stringIcSt11char_traitsIcESaIcEEaSEOS4_, @function
_ZNSt7__cxx1112basic_stringIcSt11char_traitsIcESaIcEEaSEOS4_:
.LFB3453:
	.cfi_startproc
	.cfi_personality 0x9b,DW.ref.__gxx_personality_v0
	.cfi_lsda 0x1b,.LLSDA3453
	pushq	%rbp
	.cfi_def_cfa_offset 16
	.cfi_offset 6, -16
	movq	%rsp, %rbp
	.cfi_def_cfa_register 6
	pushq	%r12
	pushq	%rbx
	subq	$80, %rsp
	.cfi_offset 12, -24
	.cfi_offset 3, -32
	movq	%rdi, -88(%rbp)
	movq	%rsi, -96(%rbp)
	movb	$1, -73(%rbp)
	movq	-88(%rbp), %rax
	movq	%rax, %rdi
	call	_ZNKSt7__cxx1112basic_stringIcSt11char_traitsIcESaIcEE11_M_is_localEv
	xorl	$1, %eax
	testb	%al, %al
	je	.L205
	movl	$1, %eax
	testb	%al, %al
.L205:
	movl	$0, %eax
	testb	%al, %al
	je	.L206
	movq	-88(%rbp), %rax
	movq	16(%rax), %rdx
	movq	-88(%rbp), %rax
	movq	%rdx, %rsi
	movq	%rax, %rdi
	call	_ZNSt7__cxx1112basic_stringIcSt11char_traitsIcESaIcEE10_M_destroyEm
	movq	-88(%rbp), %rax
	movq	%rax, %rdi
	call	_ZNSt7__cxx1112basic_stringIcSt11char_traitsIcESaIcEE13_M_local_dataEv
	movq	%rax, %rdx
	movq	-88(%rbp), %rax
	movq	%rdx, %rsi
	movq	%rax, %rdi
	call	_ZNSt7__cxx1112basic_stringIcSt11char_traitsIcESaIcEE7_M_dataEPc
	movq	-88(%rbp), %rax
	movl	$0, %esi
	movq	%rax, %rdi
	call	_ZNSt7__cxx1112basic_stringIcSt11char_traitsIcESaIcEE13_M_set_lengthEm
.L206:
	movq	-96(%rbp), %rax
	movq	%rax, %rdi
	call	_ZNSt7__cxx1112basic_stringIcSt11char_traitsIcESaIcEE16_M_get_allocatorEv
	movq	%rax, %rbx
	movq	-88(%rbp), %rax
	movq	%rax, %rdi
	call	_ZNSt7__cxx1112basic_stringIcSt11char_traitsIcESaIcEE16_M_get_allocatorEv
	movq	%rbx, -56(%rbp)
	movq	%rax, -48(%rbp)
	movq	-56(%rbp), %rax
	movq	%rax, -40(%rbp)
	nop
	movq	-96(%rbp), %rax
	movq	%rax, %rdi
	call	_ZNKSt7__cxx1112basic_stringIcSt11char_traitsIcESaIcEE11_M_is_localEv
	testb	%al, %al
	je	.L208
	movq	-96(%rbp), %rax
	movq	%rax, -32(%rbp)
	movq	-32(%rbp), %rax
	cmpq	%rax, -88(%rbp)
	setne	%al
	movzbl	%al, %eax
	testq	%rax, %rax
	setne	%al
	testb	%al, %al
	je	.L210
	movq	-96(%rbp), %rax
	movq	%rax, %rdi
	call	_ZNKSt7__cxx1112basic_stringIcSt11char_traitsIcESaIcEE4sizeEv
	testq	%rax, %rax
	setne	%al
	testb	%al, %al
	je	.L211
	movq	-96(%rbp), %rax
	movq	%rax, %rdi
	call	_ZNKSt7__cxx1112basic_stringIcSt11char_traitsIcESaIcEE4sizeEv
	movq	%rax, %r12
	movq	-96(%rbp), %rax
	movq	%rax, %rdi
	call	_ZNKSt7__cxx1112basic_stringIcSt11char_traitsIcESaIcEE7_M_dataEv
	movq	%rax, %rbx
	movq	-88(%rbp), %rax
	movq	%rax, %rdi
	call	_ZNKSt7__cxx1112basic_stringIcSt11char_traitsIcESaIcEE7_M_dataEv
	movq	%r12, %rdx
	movq	%rbx, %rsi
	movq	%rax, %rdi
	call	_ZNSt7__cxx1112basic_stringIcSt11char_traitsIcESaIcEE7_S_copyEPcPKcm
.L211:
	movq	-96(%rbp), %rax
	movq	%rax, %rdi
	call	_ZNKSt7__cxx1112basic_stringIcSt11char_traitsIcESaIcEE4sizeEv
	movq	%rax, %rdx
	movq	-88(%rbp), %rax
	movq	%rdx, %rsi
	movq	%rax, %rdi
	call	_ZNSt7__cxx1112basic_stringIcSt11char_traitsIcESaIcEE13_M_set_lengthEm
	jmp	.L210
.L208:
	movl	$1, %eax
	testb	%al, %al
	je	.L213
	movq	$0, -72(%rbp)
	movq	-88(%rbp), %rax
	movq	%rax, %rdi
	call	_ZNKSt7__cxx1112basic_stringIcSt11char_traitsIcESaIcEE11_M_is_localEv
	xorl	$1, %eax
	testb	%al, %al
	je	.L214
	movq	-88(%rbp), %rax
	movq	%rax, %rdi
	call	_ZNKSt7__cxx1112basic_stringIcSt11char_traitsIcESaIcEE7_M_dataEv
	movq	%rax, -72(%rbp)
	movq	-88(%rbp), %rax
	movq	16(%rax), %rax
	movq	%rax, -64(%rbp)
.L214:
	movq	-96(%rbp), %rax
	movq	%rax, %rdi
	call	_ZNKSt7__cxx1112basic_stringIcSt11char_traitsIcESaIcEE7_M_dataEv
	movq	%rax, %rdx
	movq	-88(%rbp), %rax
	movq	%rdx, %rsi
	movq	%rax, %rdi
	call	_ZNSt7__cxx1112basic_stringIcSt11char_traitsIcESaIcEE7_M_dataEPc
	movq	-96(%rbp), %rax
	movq	%rax, %rdi
	call	_ZNKSt7__cxx1112basic_stringIcSt11char_traitsIcESaIcEE6lengthEv
	movq	%rax, %rdx
	movq	-88(%rbp), %rax
	movq	%rdx, %rsi
	movq	%rax, %rdi
	call	_ZNSt7__cxx1112basic_stringIcSt11char_traitsIcESaIcEE9_M_lengthEm
	movq	-96(%rbp), %rax
	movq	16(%rax), %rdx
	movq	-88(%rbp), %rax
	movq	%rdx, %rsi
	movq	%rax, %rdi
	call	_ZNSt7__cxx1112basic_stringIcSt11char_traitsIcESaIcEE11_M_capacityEm
	cmpq	$0, -72(%rbp)
	je	.L215
	movq	-72(%rbp), %rdx
	movq	-96(%rbp), %rax
	movq	%rdx, %rsi
	movq	%rax, %rdi
	call	_ZNSt7__cxx1112basic_stringIcSt11char_traitsIcESaIcEE7_M_dataEPc
	movq	-64(%rbp), %rdx
	movq	-96(%rbp), %rax
	movq	%rdx, %rsi
	movq	%rax, %rdi
	call	_ZNSt7__cxx1112basic_stringIcSt11char_traitsIcESaIcEE11_M_capacityEm
	jmp	.L210
.L215:
	movq	-96(%rbp), %rax
	movq	%rax, -24(%rbp)
	movq	-24(%rbp), %rax
	movq	%rax, %rdi
	call	_ZNSt7__cxx1112basic_stringIcSt11char_traitsIcESaIcEE13_M_local_dataEv
	movq	%rax, %rdx
	nop
	movq	-96(%rbp), %rax
	movq	%rdx, %rsi
	movq	%rax, %rdi
	call	_ZNSt7__cxx1112basic_stringIcSt11char_traitsIcESaIcEE7_M_dataEPc
	jmp	.L210
.L213:
	movq	-96(%rbp), %rdx
	movq	-88(%rbp), %rax
	movq	%rdx, %rsi
	movq	%rax, %rdi
	call	_ZNSt7__cxx1112basic_stringIcSt11char_traitsIcESaIcEE9_M_assignERKS4_
.L210:
	movq	-96(%rbp), %rax
	movq	%rax, %rdi
	call	_ZNSt7__cxx1112basic_stringIcSt11char_traitsIcESaIcEE5clearEv
	movq	-88(%rbp), %rax
	addq	$80, %rsp
	popq	%rbx
	popq	%r12
	popq	%rbp
	.cfi_def_cfa 7, 8
	ret
	.cfi_endproc
.LFE3453:
	.section	.gcc_except_table
.LLSDA3453:
	.byte	0xff
	.byte	0xff
	.byte	0x1
	.uleb128 .LLSDACSE3453-.LLSDACSB3453
.LLSDACSB3453:
.LLSDACSE3453:
	.section	.text._ZNSt7__cxx1112basic_stringIcSt11char_traitsIcESaIcEEaSEOS4_,"axG",@progbits,_ZNSt7__cxx1112basic_stringIcSt11char_traitsIcESaIcEEaSEOS4_,comdat
	.size	_ZNSt7__cxx1112basic_stringIcSt11char_traitsIcESaIcEEaSEOS4_, .-_ZNSt7__cxx1112basic_stringIcSt11char_traitsIcESaIcEEaSEOS4_
	.section	.text._ZNSt7__cxx1112basic_stringIcSt11char_traitsIcESaIcEEaSEPKc,"axG",@progbits,_ZNSt7__cxx1112basic_stringIcSt11char_traitsIcESaIcEEaSEPKc,comdat
	.align 2
	.weak	_ZNSt7__cxx1112basic_stringIcSt11char_traitsIcESaIcEEaSEPKc
	.type	_ZNSt7__cxx1112basic_stringIcSt11char_traitsIcESaIcEEaSEPKc, @function
_ZNSt7__cxx1112basic_stringIcSt11char_traitsIcESaIcEEaSEPKc:
.LFB3454:
	.cfi_startproc
	pushq	%rbp
	.cfi_def_cfa_offset 16
	.cfi_offset 6, -16
	movq	%rsp, %rbp
	.cfi_def_cfa_register 6
	subq	$16, %rsp
	movq	%rdi, -8(%rbp)
	movq	%rsi, -16(%rbp)
	movq	-16(%rbp), %rdx
	movq	-8(%rbp), %rax
	movq	%rdx, %rsi
	movq	%rax, %rdi
	call	_ZNSt7__cxx1112basic_stringIcSt11char_traitsIcESaIcEE6assignEPKc
	leave
	.cfi_def_cfa 7, 8
	ret
	.cfi_endproc
.LFE3454:
	.size	_ZNSt7__cxx1112basic_stringIcSt11char_traitsIcESaIcEEaSEPKc, .-_ZNSt7__cxx1112basic_stringIcSt11char_traitsIcESaIcEEaSEPKc
	.section	.text._ZNKSt7__cxx1112basic_stringIcSt11char_traitsIcESaIcEE5emptyEv,"axG",@progbits,_ZNKSt7__cxx1112basic_stringIcSt11char_traitsIcESaIcEE5emptyEv,comdat
	.align 2
	.weak	_ZNKSt7__cxx1112basic_stringIcSt11char_traitsIcESaIcEE5emptyEv
	.type	_ZNKSt7__cxx1112basic_stringIcSt11char_traitsIcESaIcEE5emptyEv, @function
_ZNKSt7__cxx1112basic_stringIcSt11char_traitsIcESaIcEE5emptyEv:
.LFB3455:
	.cfi_startproc
	pushq	%rbp
	.cfi_def_cfa_offset 16
	.cfi_offset 6, -16
	movq	%rsp, %rbp
	.cfi_def_cfa_register 6
	movq	%rdi, -8(%rbp)
	movq	-8(%rbp), %rax
	movq	8(%rax), %rax
	testq	%rax, %rax
	sete	%al
	popq	%rbp
	.cfi_def_cfa 7, 8
	ret
	.cfi_endproc
.LFE3455:
	.size	_ZNKSt7__cxx1112basic_stringIcSt11char_traitsIcESaIcEE5emptyEv, .-_ZNKSt7__cxx1112basic_stringIcSt11char_traitsIcESaIcEE5emptyEv
	.section	.rodata
.LC43:
	.string	"!empty()"
	.align 8
.LC44:
	.string	"std::__cxx11::basic_string<_CharT, _Traits, _Alloc>::reference std::__cxx11::basic_string<_CharT, _Traits, _Alloc>::back() [with _CharT = char; _Traits = std::char_traits<char>; _Alloc = std::allocator<char>; reference = char&]"
	.align 8
.LC45:
	.string	"/usr/include/c++/15.2.1/bits/basic_string.h"
	.section	.text._ZNSt7__cxx1112basic_stringIcSt11char_traitsIcESaIcEE4backEv,"axG",@progbits,_ZNSt7__cxx1112basic_stringIcSt11char_traitsIcESaIcEE4backEv,comdat
	.align 2
	.weak	_ZNSt7__cxx1112basic_stringIcSt11char_traitsIcESaIcEE4backEv
	.type	_ZNSt7__cxx1112basic_stringIcSt11char_traitsIcESaIcEE4backEv, @function
_ZNSt7__cxx1112basic_stringIcSt11char_traitsIcESaIcEE4backEv:
.LFB3456:
	.cfi_startproc
	pushq	%rbp
	.cfi_def_cfa_offset 16
	.cfi_offset 6, -16
	movq	%rsp, %rbp
	.cfi_def_cfa_register 6
	subq	$16, %rsp
	movq	%rdi, -8(%rbp)
	movq	-8(%rbp), %rax
	movq	%rax, %rdi
	call	_ZNKSt7__cxx1112basic_stringIcSt11char_traitsIcESaIcEE5emptyEv
	movzbl	%al, %eax
	testq	%rax, %rax
	setne	%al
	testb	%al, %al
	je	.L223
	leaq	.LC43(%rip), %rcx
	leaq	.LC44(%rip), %rdx
	leaq	.LC45(%rip), %rax
	movl	$1452, %esi
	movq	%rax, %rdi
	call	_ZSt21__glibcxx_assert_failPKciS0_S0_@PLT
.L223:
	movq	-8(%rbp), %rax
	movq	%rax, %rdi
	call	_ZNKSt7__cxx1112basic_stringIcSt11char_traitsIcESaIcEE4sizeEv
	leaq	-1(%rax), %rdx
	movq	-8(%rbp), %rax
	movq	%rdx, %rsi
	movq	%rax, %rdi
	call	_ZNSt7__cxx1112basic_stringIcSt11char_traitsIcESaIcEEixEm
	leave
	.cfi_def_cfa 7, 8
	ret
	.cfi_endproc
.LFE3456:
	.size	_ZNSt7__cxx1112basic_stringIcSt11char_traitsIcESaIcEE4backEv, .-_ZNSt7__cxx1112basic_stringIcSt11char_traitsIcESaIcEE4backEv
	.section	.rodata
	.align 8
.LC46:
	.string	"void std::__cxx11::basic_string<_CharT, _Traits, _Alloc>::pop_back() [with _CharT = char; _Traits = std::char_traits<char>; _Alloc = std::allocator<char>]"
	.section	.text._ZNSt7__cxx1112basic_stringIcSt11char_traitsIcESaIcEE8pop_backEv,"axG",@progbits,_ZNSt7__cxx1112basic_stringIcSt11char_traitsIcESaIcEE8pop_backEv,comdat
	.align 2
	.weak	_ZNSt7__cxx1112basic_stringIcSt11char_traitsIcESaIcEE8pop_backEv
	.type	_ZNSt7__cxx1112basic_stringIcSt11char_traitsIcESaIcEE8pop_backEv, @function
_ZNSt7__cxx1112basic_stringIcSt11char_traitsIcESaIcEE8pop_backEv:
.LFB3457:
	.cfi_startproc
	.cfi_personality 0x9b,DW.ref.__gxx_personality_v0
	.cfi_lsda 0x1b,.LLSDA3457
	pushq	%rbp
	.cfi_def_cfa_offset 16
	.cfi_offset 6, -16
	movq	%rsp, %rbp
	.cfi_def_cfa_register 6
	subq	$16, %rsp
	movq	%rdi, -8(%rbp)
	movq	-8(%rbp), %rax
	movq	%rax, %rdi
	call	_ZNKSt7__cxx1112basic_stringIcSt11char_traitsIcESaIcEE5emptyEv
	movzbl	%al, %eax
	testq	%rax, %rax
	setne	%al
	testb	%al, %al
	je	.L226
	leaq	.LC43(%rip), %rcx
	leaq	.LC46(%rip), %rdx
	leaq	.LC45(%rip), %rax
	movl	$2385, %esi
	movq	%rax, %rdi
	call	_ZSt21__glibcxx_assert_failPKciS0_S0_@PLT
.L226:
	movq	-8(%rbp), %rax
	movq	%rax, %rdi
	call	_ZNKSt7__cxx1112basic_stringIcSt11char_traitsIcESaIcEE4sizeEv
	leaq	-1(%rax), %rcx
	movq	-8(%rbp), %rax
	movl	$1, %edx
	movq	%rcx, %rsi
	movq	%rax, %rdi
	call	_ZNSt7__cxx1112basic_stringIcSt11char_traitsIcESaIcEE8_M_eraseEmm
	nop
	leave
	.cfi_def_cfa 7, 8
	ret
	.cfi_endproc
.LFE3457:
	.section	.gcc_except_table
.LLSDA3457:
	.byte	0xff
	.byte	0xff
	.byte	0x1
	.uleb128 .LLSDACSE3457-.LLSDACSB3457
.LLSDACSB3457:
.LLSDACSE3457:
	.section	.text._ZNSt7__cxx1112basic_stringIcSt11char_traitsIcESaIcEE8pop_backEv,"axG",@progbits,_ZNSt7__cxx1112basic_stringIcSt11char_traitsIcESaIcEE8pop_backEv,comdat
	.size	_ZNSt7__cxx1112basic_stringIcSt11char_traitsIcESaIcEE8pop_backEv, .-_ZNSt7__cxx1112basic_stringIcSt11char_traitsIcESaIcEE8pop_backEv
	.section	.text._ZNSt6vectorIlSaIlEE5beginEv,"axG",@progbits,_ZNSt6vectorIlSaIlEE5beginEv,comdat
	.align 2
	.weak	_ZNSt6vectorIlSaIlEE5beginEv
	.type	_ZNSt6vectorIlSaIlEE5beginEv, @function
_ZNSt6vectorIlSaIlEE5beginEv:
.LFB3462:
	.cfi_startproc
	pushq	%rbp
	.cfi_def_cfa_offset 16
	.cfi_offset 6, -16
	movq	%rsp, %rbp
	.cfi_def_cfa_register 6
	subq	$48, %rsp
	movq	%rdi, -40(%rbp)
	movq	%fs:40, %rax
	movq	%rax, -8(%rbp)
	xorl	%eax, %eax
	movq	-40(%rbp), %rax
	movq	%rax, -16(%rbp)
	movq	-16(%rbp), %rax
	movq	(%rax), %rax
	movq	%rax, -24(%rbp)
	nop
	movq	-24(%rbp), %rax
	movq	-8(%rbp), %rdx
	subq	%fs:40, %rdx
	je	.L229
	call	__stack_chk_fail@PLT
.L229:
	leave
	.cfi_def_cfa 7, 8
	ret
	.cfi_endproc
.LFE3462:
	.size	_ZNSt6vectorIlSaIlEE5beginEv, .-_ZNSt6vectorIlSaIlEE5beginEv
	.section	.text._ZNSt6vectorIlSaIlEE3endEv,"axG",@progbits,_ZNSt6vectorIlSaIlEE3endEv,comdat
	.align 2
	.weak	_ZNSt6vectorIlSaIlEE3endEv
	.type	_ZNSt6vectorIlSaIlEE3endEv, @function
_ZNSt6vectorIlSaIlEE3endEv:
.LFB3463:
	.cfi_startproc
	pushq	%rbp
	.cfi_def_cfa_offset 16
	.cfi_offset 6, -16
	movq	%rsp, %rbp
	.cfi_def_cfa_register 6
	subq	$48, %rsp
	movq	%rdi, -40(%rbp)
	movq	%fs:40, %rax
	movq	%rax, -8(%rbp)
	xorl	%eax, %eax
	movq	-40(%rbp), %rax
	addq	$8, %rax
	movq	%rax, -16(%rbp)
	movq	-16(%rbp), %rax
	movq	(%rax), %rax
	movq	%rax, -24(%rbp)
	nop
	movq	-24(%rbp), %rax
	movq	-8(%rbp), %rdx
	subq	%fs:40, %rdx
	je	.L232
	call	__stack_chk_fail@PLT
.L232:
	leave
	.cfi_def_cfa 7, 8
	ret
	.cfi_endproc
.LFE3463:
	.size	_ZNSt6vectorIlSaIlEE3endEv, .-_ZNSt6vectorIlSaIlEE3endEv
	.section	.text._ZNSt6chronomiINS_3_V212system_clockENS_8durationIlSt5ratioILl1ELl1000000000EEEES6_EENSt11common_typeIJT0_T1_EE4typeERKNS_10time_pointIT_S8_EERKNSC_ISD_S9_EE,"axG",@progbits,_ZNSt6chronomiINS_3_V212system_clockENS_8durationIlSt5ratioILl1ELl1000000000EEEES6_EENSt11common_typeIJT0_T1_EE4typeERKNS_10time_pointIT_S8_EERKNSC_ISD_S9_EE,comdat
	.weak	_ZNSt6chronomiINS_3_V212system_clockENS_8durationIlSt5ratioILl1ELl1000000000EEEES6_EENSt11common_typeIJT0_T1_EE4typeERKNS_10time_pointIT_S8_EERKNSC_ISD_S9_EE
	.type	_ZNSt6chronomiINS_3_V212system_clockENS_8durationIlSt5ratioILl1ELl1000000000EEEES6_EENSt11common_typeIJT0_T1_EE4typeERKNS_10time_pointIT_S8_EERKNSC_ISD_S9_EE, @function
_ZNSt6chronomiINS_3_V212system_clockENS_8durationIlSt5ratioILl1ELl1000000000EEEES6_EENSt11common_typeIJT0_T1_EE4typeERKNS_10time_pointIT_S8_EERKNSC_ISD_S9_EE:
.LFB3467:
	.cfi_startproc
	pushq	%rbp
	.cfi_def_cfa_offset 16
	.cfi_offset 6, -16
	movq	%rsp, %rbp
	.cfi_def_cfa_register 6
	subq	$48, %rsp
	movq	%rdi, -40(%rbp)
	movq	%rsi, -48(%rbp)
	movq	%fs:40, %rax
	movq	%rax, -8(%rbp)
	xorl	%eax, %eax
	movq	-48(%rbp), %rax
	movq	%rax, %rdi
	call	_ZNKSt6chrono10time_pointINS_3_V212system_clockENS_8durationIlSt5ratioILl1ELl1000000000EEEEE16time_since_epochEv
	movq	%rax, -16(%rbp)
	movq	-40(%rbp), %rax
	movq	%rax, %rdi
	call	_ZNKSt6chrono10time_pointINS_3_V212system_clockENS_8durationIlSt5ratioILl1ELl1000000000EEEEE16time_since_epochEv
	movq	%rax, -24(%rbp)
	leaq	-16(%rbp), %rdx
	leaq	-24(%rbp), %rax
	movq	%rdx, %rsi
	movq	%rax, %rdi
	call	_ZNSt6chronomiIlSt5ratioILl1ELl1000000000EElS2_EENSt11common_typeIJNS_8durationIT_T0_EENS4_IT1_T2_EEEE4typeERKS7_RKSA_
	movq	-8(%rbp), %rdx
	subq	%fs:40, %rdx
	je	.L235
	call	__stack_chk_fail@PLT
.L235:
	leave
	.cfi_def_cfa 7, 8
	ret
	.cfi_endproc
.LFE3467:
	.size	_ZNSt6chronomiINS_3_V212system_clockENS_8durationIlSt5ratioILl1ELl1000000000EEEES6_EENSt11common_typeIJT0_T1_EE4typeERKNS_10time_pointIT_S8_EERKNSC_ISD_S9_EE, .-_ZNSt6chronomiINS_3_V212system_clockENS_8durationIlSt5ratioILl1ELl1000000000EEEES6_EENSt11common_typeIJT0_T1_EE4typeERKNS_10time_pointIT_S8_EERKNSC_ISD_S9_EE
	.text
	.type	_Z9time_loopIZ4mainEUllE_EdOT_l, @function
_Z9time_loopIZ4mainEUllE_EdOT_l:
.LFB3465:
	.cfi_startproc
	pushq	%rbp
	.cfi_def_cfa_offset 16
	.cfi_offset 6, -16
	movq	%rsp, %rbp
	.cfi_def_cfa_register 6
	subq	$64, %rsp
	movq	%rdi, -56(%rbp)
	movq	%rsi, -64(%rbp)
	movq	%fs:40, %rax
	movq	%rax, -8(%rbp)
	xorl	%eax, %eax
	call	_ZNSt6chrono3_V212system_clock3nowEv@PLT
	movq	%rax, -40(%rbp)
	movq	-64(%rbp), %rdx
	movq	-56(%rbp), %rax
	movq	%rdx, %rsi
	movq	%rax, %rdi
	call	_ZZ4mainENKUllE_clEl
	call	_ZNSt6chrono3_V212system_clock3nowEv@PLT
	movq	%rax, -32(%rbp)
	leaq	-40(%rbp), %rdx
	leaq	-32(%rbp), %rax
	movq	%rdx, %rsi
	movq	%rax, %rdi
	call	_ZNSt6chronomiINS_3_V212system_clockENS_8durationIlSt5ratioILl1ELl1000000000EEEES6_EENSt11common_typeIJT0_T1_EE4typeERKNS_10time_pointIT_S8_EERKNSC_ISD_S9_EE
	movq	%rax, -16(%rbp)
	leaq	-16(%rbp), %rdx
	leaq	-24(%rbp), %rax
	movq	%rdx, %rsi
	movq	%rax, %rdi
	call	_ZNSt6chrono8durationIdSt5ratioILl1ELl1EEEC1IlS1_ILl1ELl1000000000EEvEERKNS0_IT_T0_EE
	leaq	-24(%rbp), %rax
	movq	%rax, %rdi
	call	_ZNKSt6chrono8durationIdSt5ratioILl1ELl1EEE5countEv
	movq	-8(%rbp), %rax
	subq	%fs:40, %rax
	je	.L238
	call	__stack_chk_fail@PLT
.L238:
	leave
	.cfi_def_cfa 7, 8
	ret
	.cfi_endproc
.LFE3465:
	.size	_Z9time_loopIZ4mainEUllE_EdOT_l, .-_Z9time_loopIZ4mainEUllE_EdOT_l
	.section	.text._ZNSt6vectorI6ResultSaIS0_EE9push_backEOS0_,"axG",@progbits,_ZNSt6vectorI6ResultSaIS0_EE9push_backEOS0_,comdat
	.align 2
	.weak	_ZNSt6vectorI6ResultSaIS0_EE9push_backEOS0_
	.type	_ZNSt6vectorI6ResultSaIS0_EE9push_backEOS0_, @function
_ZNSt6vectorI6ResultSaIS0_EE9push_backEOS0_:
.LFB3468:
	.cfi_startproc
	pushq	%rbp
	.cfi_def_cfa_offset 16
	.cfi_offset 6, -16
	movq	%rsp, %rbp
	.cfi_def_cfa_register 6
	subq	$32, %rsp
	movq	%rdi, -24(%rbp)
	movq	%rsi, -32(%rbp)
	movq	-32(%rbp), %rax
	movq	%rax, -8(%rbp)
	movq	-8(%rbp), %rdx
	movq	-24(%rbp), %rax
	movq	%rdx, %rsi
	movq	%rax, %rdi
	call	_ZNSt6vectorI6ResultSaIS0_EE12emplace_backIJS0_EEERS0_DpOT_
	nop
	leave
	.cfi_def_cfa 7, 8
	ret
	.cfi_endproc
.LFE3468:
	.size	_ZNSt6vectorI6ResultSaIS0_EE9push_backEOS0_, .-_ZNSt6vectorI6ResultSaIS0_EE9push_backEOS0_
	.text
	.type	_Z9time_loopIZ4mainEUllE0_EdOT_l, @function
_Z9time_loopIZ4mainEUllE0_EdOT_l:
.LFB3469:
	.cfi_startproc
	pushq	%rbp
	.cfi_def_cfa_offset 16
	.cfi_offset 6, -16
	movq	%rsp, %rbp
	.cfi_def_cfa_register 6
	subq	$64, %rsp
	movq	%rdi, -56(%rbp)
	movq	%rsi, -64(%rbp)
	movq	%fs:40, %rax
	movq	%rax, -8(%rbp)
	xorl	%eax, %eax
	call	_ZNSt6chrono3_V212system_clock3nowEv@PLT
	movq	%rax, -40(%rbp)
	movq	-64(%rbp), %rdx
	movq	-56(%rbp), %rax
	movq	%rdx, %rsi
	movq	%rax, %rdi
	call	_ZZ4mainENKUllE0_clEl
	call	_ZNSt6chrono3_V212system_clock3nowEv@PLT
	movq	%rax, -32(%rbp)
	leaq	-40(%rbp), %rdx
	leaq	-32(%rbp), %rax
	movq	%rdx, %rsi
	movq	%rax, %rdi
	call	_ZNSt6chronomiINS_3_V212system_clockENS_8durationIlSt5ratioILl1ELl1000000000EEEES6_EENSt11common_typeIJT0_T1_EE4typeERKNS_10time_pointIT_S8_EERKNSC_ISD_S9_EE
	movq	%rax, -16(%rbp)
	leaq	-16(%rbp), %rdx
	leaq	-24(%rbp), %rax
	movq	%rdx, %rsi
	movq	%rax, %rdi
	call	_ZNSt6chrono8durationIdSt5ratioILl1ELl1EEEC1IlS1_ILl1ELl1000000000EEvEERKNS0_IT_T0_EE
	leaq	-24(%rbp), %rax
	movq	%rax, %rdi
	call	_ZNKSt6chrono8durationIdSt5ratioILl1ELl1EEE5countEv
	movq	-8(%rbp), %rax
	subq	%fs:40, %rax
	je	.L243
	call	__stack_chk_fail@PLT
.L243:
	leave
	.cfi_def_cfa 7, 8
	ret
	.cfi_endproc
.LFE3469:
	.size	_Z9time_loopIZ4mainEUllE0_EdOT_l, .-_Z9time_loopIZ4mainEUllE0_EdOT_l
	.section	.text._ZNSt6vectorI6ResultSaIS0_EE5beginEv,"axG",@progbits,_ZNSt6vectorI6ResultSaIS0_EE5beginEv,comdat
	.align 2
	.weak	_ZNSt6vectorI6ResultSaIS0_EE5beginEv
	.type	_ZNSt6vectorI6ResultSaIS0_EE5beginEv, @function
_ZNSt6vectorI6ResultSaIS0_EE5beginEv:
.LFB3479:
	.cfi_startproc
	pushq	%rbp
	.cfi_def_cfa_offset 16
	.cfi_offset 6, -16
	movq	%rsp, %rbp
	.cfi_def_cfa_register 6
	subq	$48, %rsp
	movq	%rdi, -40(%rbp)
	movq	%fs:40, %rax
	movq	%rax, -8(%rbp)
	xorl	%eax, %eax
	movq	-40(%rbp), %rax
	movq	%rax, -16(%rbp)
	movq	-16(%rbp), %rax
	movq	(%rax), %rax
	movq	%rax, -24(%rbp)
	nop
	movq	-24(%rbp), %rax
	movq	-8(%rbp), %rdx
	subq	%fs:40, %rdx
	je	.L246
	call	__stack_chk_fail@PLT
.L246:
	leave
	.cfi_def_cfa 7, 8
	ret
	.cfi_endproc
.LFE3479:
	.size	_ZNSt6vectorI6ResultSaIS0_EE5beginEv, .-_ZNSt6vectorI6ResultSaIS0_EE5beginEv
	.section	.text._ZNSt6vectorI6ResultSaIS0_EE3endEv,"axG",@progbits,_ZNSt6vectorI6ResultSaIS0_EE3endEv,comdat
	.align 2
	.weak	_ZNSt6vectorI6ResultSaIS0_EE3endEv
	.type	_ZNSt6vectorI6ResultSaIS0_EE3endEv, @function
_ZNSt6vectorI6ResultSaIS0_EE3endEv:
.LFB3480:
	.cfi_startproc
	pushq	%rbp
	.cfi_def_cfa_offset 16
	.cfi_offset 6, -16
	movq	%rsp, %rbp
	.cfi_def_cfa_register 6
	subq	$48, %rsp
	movq	%rdi, -40(%rbp)
	movq	%fs:40, %rax
	movq	%rax, -8(%rbp)
	xorl	%eax, %eax
	movq	-40(%rbp), %rax
	addq	$8, %rax
	movq	%rax, -16(%rbp)
	movq	-16(%rbp), %rax
	movq	(%rax), %rax
	movq	%rax, -24(%rbp)
	nop
	movq	-24(%rbp), %rax
	movq	-8(%rbp), %rdx
	subq	%fs:40, %rdx
	je	.L249
	call	__stack_chk_fail@PLT
.L249:
	leave
	.cfi_def_cfa 7, 8
	ret
	.cfi_endproc
.LFE3480:
	.size	_ZNSt6vectorI6ResultSaIS0_EE3endEv, .-_ZNSt6vectorI6ResultSaIS0_EE3endEv
	.section	.text._ZN9__gnu_cxx11char_traitsIcE2eqERKcS3_,"axG",@progbits,_ZN9__gnu_cxx11char_traitsIcE2eqERKcS3_,comdat
	.weak	_ZN9__gnu_cxx11char_traitsIcE2eqERKcS3_
	.type	_ZN9__gnu_cxx11char_traitsIcE2eqERKcS3_, @function
_ZN9__gnu_cxx11char_traitsIcE2eqERKcS3_:
.LFB3483:
	.cfi_startproc
	pushq	%rbp
	.cfi_def_cfa_offset 16
	.cfi_offset 6, -16
	movq	%rsp, %rbp
	.cfi_def_cfa_register 6
	movq	%rdi, -8(%rbp)
	movq	%rsi, -16(%rbp)
	movq	-8(%rbp), %rax
	movzbl	(%rax), %edx
	movq	-16(%rbp), %rax
	movzbl	(%rax), %eax
	cmpb	%al, %dl
	sete	%al
	popq	%rbp
	.cfi_def_cfa 7, 8
	ret
	.cfi_endproc
.LFE3483:
	.size	_ZN9__gnu_cxx11char_traitsIcE2eqERKcS3_, .-_ZN9__gnu_cxx11char_traitsIcE2eqERKcS3_
	.section	.text._ZNKSt7__cxx1112basic_stringIcSt11char_traitsIcESaIcEE7_M_dataEv,"axG",@progbits,_ZNKSt7__cxx1112basic_stringIcSt11char_traitsIcESaIcEE7_M_dataEv,comdat
	.align 2
	.weak	_ZNKSt7__cxx1112basic_stringIcSt11char_traitsIcESaIcEE7_M_dataEv
	.type	_ZNKSt7__cxx1112basic_stringIcSt11char_traitsIcESaIcEE7_M_dataEv, @function
_ZNKSt7__cxx1112basic_stringIcSt11char_traitsIcESaIcEE7_M_dataEv:
.LFB3486:
	.cfi_startproc
	pushq	%rbp
	.cfi_def_cfa_offset 16
	.cfi_offset 6, -16
	movq	%rsp, %rbp
	.cfi_def_cfa_register 6
	movq	%rdi, -8(%rbp)
	movq	-8(%rbp), %rax
	movq	(%rax), %rax
	popq	%rbp
	.cfi_def_cfa 7, 8
	ret
	.cfi_endproc
.LFE3486:
	.size	_ZNKSt7__cxx1112basic_stringIcSt11char_traitsIcESaIcEE7_M_dataEv, .-_ZNKSt7__cxx1112basic_stringIcSt11char_traitsIcESaIcEE7_M_dataEv
	.section	.text._ZNSt7__cxx1112basic_stringIcSt11char_traitsIcESaIcEE13_M_local_dataEv,"axG",@progbits,_ZNSt7__cxx1112basic_stringIcSt11char_traitsIcESaIcEE13_M_local_dataEv,comdat
	.align 2
	.weak	_ZNSt7__cxx1112basic_stringIcSt11char_traitsIcESaIcEE13_M_local_dataEv
	.type	_ZNSt7__cxx1112basic_stringIcSt11char_traitsIcESaIcEE13_M_local_dataEv, @function
_ZNSt7__cxx1112basic_stringIcSt11char_traitsIcESaIcEE13_M_local_dataEv:
.LFB3487:
	.cfi_startproc
	pushq	%rbp
	.cfi_def_cfa_offset 16
	.cfi_offset 6, -16
	movq	%rsp, %rbp
	.cfi_def_cfa_register 6
	subq	$16, %rsp
	movq	%rdi, -8(%rbp)
	movq	-8(%rbp), %rax
	addq	$16, %rax
	movq	%rax, %rdi
	call	_ZNSt19__ptr_traits_ptr_toIPccLb0EE10pointer_toERc
	leave
	.cfi_def_cfa 7, 8
	ret
	.cfi_endproc
.LFE3487:
	.size	_ZNSt7__cxx1112basic_stringIcSt11char_traitsIcESaIcEE13_M_local_dataEv, .-_ZNSt7__cxx1112basic_stringIcSt11char_traitsIcESaIcEE13_M_local_dataEv
	.section	.text._ZNSt7__cxx1112basic_stringIcSt11char_traitsIcESaIcEE12_Alloc_hiderC2EPcOS3_,"axG",@progbits,_ZNSt7__cxx1112basic_stringIcSt11char_traitsIcESaIcEE12_Alloc_hiderC5EPcOS3_,comdat
	.align 2
	.weak	_ZNSt7__cxx1112basic_stringIcSt11char_traitsIcESaIcEE12_Alloc_hiderC2EPcOS3_
	.type	_ZNSt7__cxx1112basic_stringIcSt11char_traitsIcESaIcEE12_Alloc_hiderC2EPcOS3_, @function
_ZNSt7__cxx1112basic_stringIcSt11char_traitsIcESaIcEE12_Alloc_hiderC2EPcOS3_:
.LFB3489:
	.cfi_startproc
	pushq	%rbp
	.cfi_def_cfa_offset 16
	.cfi_offset 6, -16
	movq	%rsp, %rbp
	.cfi_def_cfa_register 6
	movq	%rdi, -56(%rbp)
	movq	%rsi, -64(%rbp)
	movq	%rdx, -72(%rbp)
	movq	-72(%rbp), %rax
	movq	%rax, -8(%rbp)
	movq	-8(%rbp), %rax
	movq	-56(%rbp), %rdx
	movq	%rdx, -40(%rbp)
	movq	%rax, -32(%rbp)
	movq	-40(%rbp), %rax
	movq	%rax, -24(%rbp)
	movq	-32(%rbp), %rax
	movq	%rax, -16(%rbp)
	nop
	nop
	movq	-56(%rbp), %rax
	movq	-64(%rbp), %rdx
	movq	%rdx, (%rax)
	nop
	popq	%rbp
	.cfi_def_cfa 7, 8
	ret
	.cfi_endproc
.LFE3489:
	.size	_ZNSt7__cxx1112basic_stringIcSt11char_traitsIcESaIcEE12_Alloc_hiderC2EPcOS3_, .-_ZNSt7__cxx1112basic_stringIcSt11char_traitsIcESaIcEE12_Alloc_hiderC2EPcOS3_
	.weak	_ZNSt7__cxx1112basic_stringIcSt11char_traitsIcESaIcEE12_Alloc_hiderC1EPcOS3_
	.set	_ZNSt7__cxx1112basic_stringIcSt11char_traitsIcESaIcEE12_Alloc_hiderC1EPcOS3_,_ZNSt7__cxx1112basic_stringIcSt11char_traitsIcESaIcEE12_Alloc_hiderC2EPcOS3_
	.section	.text._ZNSt7__cxx1112basic_stringIcSt11char_traitsIcESaIcEE13_M_set_lengthEm,"axG",@progbits,_ZNSt7__cxx1112basic_stringIcSt11char_traitsIcESaIcEE13_M_set_lengthEm,comdat
	.align 2
	.weak	_ZNSt7__cxx1112basic_stringIcSt11char_traitsIcESaIcEE13_M_set_lengthEm
	.type	_ZNSt7__cxx1112basic_stringIcSt11char_traitsIcESaIcEE13_M_set_lengthEm, @function
_ZNSt7__cxx1112basic_stringIcSt11char_traitsIcESaIcEE13_M_set_lengthEm:
.LFB3492:
	.cfi_startproc
	pushq	%rbp
	.cfi_def_cfa_offset 16
	.cfi_offset 6, -16
	movq	%rsp, %rbp
	.cfi_def_cfa_register 6
	subq	$32, %rsp
	movq	%rdi, -24(%rbp)
	movq	%rsi, -32(%rbp)
	movq	%fs:40, %rax
	movq	%rax, -8(%rbp)
	xorl	%eax, %eax
	movq	-32(%rbp), %rdx
	movq	-24(%rbp), %rax
	movq	%rdx, %rsi
	movq	%rax, %rdi
	call	_ZNSt7__cxx1112basic_stringIcSt11char_traitsIcESaIcEE9_M_lengthEm
	movb	$0, -9(%rbp)
	movq	-24(%rbp), %rax
	movq	%rax, %rdi
	call	_ZNKSt7__cxx1112basic_stringIcSt11char_traitsIcESaIcEE7_M_dataEv
	movq	-32(%rbp), %rdx
	addq	%rax, %rdx
	leaq	-9(%rbp), %rax
	movq	%rax, %rsi
	movq	%rdx, %rdi
	call	_ZNSt11char_traitsIcE6assignERcRKc
	nop
	movq	-8(%rbp), %rax
	subq	%fs:40, %rax
	je	.L259
	call	__stack_chk_fail@PLT
.L259:
	leave
	.cfi_def_cfa 7, 8
	ret
	.cfi_endproc
.LFE3492:
	.size	_ZNSt7__cxx1112basic_stringIcSt11char_traitsIcESaIcEE13_M_set_lengthEm, .-_ZNSt7__cxx1112basic_stringIcSt11char_traitsIcESaIcEE13_M_set_lengthEm
	.section	.text._ZNSt7__cxx1112basic_stringIcSt11char_traitsIcESaIcEE10_M_disposeEv,"axG",@progbits,_ZNSt7__cxx1112basic_stringIcSt11char_traitsIcESaIcEE10_M_disposeEv,comdat
	.align 2
	.weak	_ZNSt7__cxx1112basic_stringIcSt11char_traitsIcESaIcEE10_M_disposeEv
	.type	_ZNSt7__cxx1112basic_stringIcSt11char_traitsIcESaIcEE10_M_disposeEv, @function
_ZNSt7__cxx1112basic_stringIcSt11char_traitsIcESaIcEE10_M_disposeEv:
.LFB3493:
	.cfi_startproc
	pushq	%rbp
	.cfi_def_cfa_offset 16
	.cfi_offset 6, -16
	movq	%rsp, %rbp
	.cfi_def_cfa_register 6
	subq	$16, %rsp
	movq	%rdi, -8(%rbp)
	movq	-8(%rbp), %rax
	movq	%rax, %rdi
	call	_ZNKSt7__cxx1112basic_stringIcSt11char_traitsIcESaIcEE11_M_is_localEv
	xorl	$1, %eax
	testb	%al, %al
	je	.L262
	movq	-8(%rbp), %rax
	movq	16(%rax), %rdx
	movq	-8(%rbp), %rax
	movq	%rdx, %rsi
	movq	%rax, %rdi
	call	_ZNSt7__cxx1112basic_stringIcSt11char_traitsIcESaIcEE10_M_destroyEm
.L262:
	nop
	leave
	.cfi_def_cfa 7, 8
	ret
	.cfi_endproc
.LFE3493:
	.size	_ZNSt7__cxx1112basic_stringIcSt11char_traitsIcESaIcEE10_M_disposeEv, .-_ZNSt7__cxx1112basic_stringIcSt11char_traitsIcESaIcEE10_M_disposeEv
	.section	.text._ZNSt7__cxx1112basic_stringIcSt11char_traitsIcESaIcEE16_M_get_allocatorEv,"axG",@progbits,_ZNSt7__cxx1112basic_stringIcSt11char_traitsIcESaIcEE16_M_get_allocatorEv,comdat
	.align 2
	.weak	_ZNSt7__cxx1112basic_stringIcSt11char_traitsIcESaIcEE16_M_get_allocatorEv
	.type	_ZNSt7__cxx1112basic_stringIcSt11char_traitsIcESaIcEE16_M_get_allocatorEv, @function
_ZNSt7__cxx1112basic_stringIcSt11char_traitsIcESaIcEE16_M_get_allocatorEv:
.LFB3496:
	.cfi_startproc
	pushq	%rbp
	.cfi_def_cfa_offset 16
	.cfi_offset 6, -16
	movq	%rsp, %rbp
	.cfi_def_cfa_register 6
	movq	%rdi, -8(%rbp)
	movq	-8(%rbp), %rax
	popq	%rbp
	.cfi_def_cfa 7, 8
	ret
	.cfi_endproc
.LFE3496:
	.size	_ZNSt7__cxx1112basic_stringIcSt11char_traitsIcESaIcEE16_M_get_allocatorEv, .-_ZNSt7__cxx1112basic_stringIcSt11char_traitsIcESaIcEE16_M_get_allocatorEv
	.section	.text._ZNKSt7__cxx1112basic_stringIcSt11char_traitsIcESaIcEE11_M_is_localEv,"axG",@progbits,_ZNKSt7__cxx1112basic_stringIcSt11char_traitsIcESaIcEE11_M_is_localEv,comdat
	.align 2
	.weak	_ZNKSt7__cxx1112basic_stringIcSt11char_traitsIcESaIcEE11_M_is_localEv
	.type	_ZNKSt7__cxx1112basic_stringIcSt11char_traitsIcESaIcEE11_M_is_localEv, @function
_ZNKSt7__cxx1112basic_stringIcSt11char_traitsIcESaIcEE11_M_is_localEv:
.LFB3498:
	.cfi_startproc
	pushq	%rbp
	.cfi_def_cfa_offset 16
	.cfi_offset 6, -16
	movq	%rsp, %rbp
	.cfi_def_cfa_register 6
	pushq	%rbx
	subq	$24, %rsp
	.cfi_offset 3, -24
	movq	%rdi, -24(%rbp)
	movq	-24(%rbp), %rax
	movq	%rax, %rdi
	call	_ZNKSt7__cxx1112basic_stringIcSt11char_traitsIcESaIcEE7_M_dataEv
	movq	%rax, %rbx
	movq	-24(%rbp), %rax
	movq	%rax, %rdi
	call	_ZNKSt7__cxx1112basic_stringIcSt11char_traitsIcESaIcEE13_M_local_dataEv
	cmpq	%rax, %rbx
	sete	%al
	testb	%al, %al
	je	.L266
	movq	-24(%rbp), %rax
	movq	8(%rax), %rax
	cmpq	$15, %rax
	movl	$1, %eax
	jmp	.L268
.L266:
	movl	$0, %eax
.L268:
	movq	-8(%rbp), %rbx
	leave
	.cfi_def_cfa 7, 8
	ret
	.cfi_endproc
.LFE3498:
	.size	_ZNKSt7__cxx1112basic_stringIcSt11char_traitsIcESaIcEE11_M_is_localEv, .-_ZNKSt7__cxx1112basic_stringIcSt11char_traitsIcESaIcEE11_M_is_localEv
	.section	.text._ZNKSt7__cxx1112basic_stringIcSt11char_traitsIcESaIcEE6lengthEv,"axG",@progbits,_ZNKSt7__cxx1112basic_stringIcSt11char_traitsIcESaIcEE6lengthEv,comdat
	.align 2
	.weak	_ZNKSt7__cxx1112basic_stringIcSt11char_traitsIcESaIcEE6lengthEv
	.type	_ZNKSt7__cxx1112basic_stringIcSt11char_traitsIcESaIcEE6lengthEv, @function
_ZNKSt7__cxx1112basic_stringIcSt11char_traitsIcESaIcEE6lengthEv:
.LFB3499:
	.cfi_startproc
	pushq	%rbp
	.cfi_def_cfa_offset 16
	.cfi_offset 6, -16
	movq	%rsp, %rbp
	.cfi_def_cfa_register 6
	subq	$16, %rsp
	movq	%rdi, -8(%rbp)
	movq	-8(%rbp), %rax
	movq	%rax, %rdi
	call	_ZNKSt7__cxx1112basic_stringIcSt11char_traitsIcESaIcEE4sizeEv
	leave
	.cfi_def_cfa 7, 8
	ret
	.cfi_endproc
.LFE3499:
	.size	_ZNKSt7__cxx1112basic_stringIcSt11char_traitsIcESaIcEE6lengthEv, .-_ZNKSt7__cxx1112basic_stringIcSt11char_traitsIcESaIcEE6lengthEv
	.section	.text._ZNSt7__cxx1112basic_stringIcSt11char_traitsIcESaIcEE7_M_dataEPc,"axG",@progbits,_ZNSt7__cxx1112basic_stringIcSt11char_traitsIcESaIcEE7_M_dataEPc,comdat
	.align 2
	.weak	_ZNSt7__cxx1112basic_stringIcSt11char_traitsIcESaIcEE7_M_dataEPc
	.type	_ZNSt7__cxx1112basic_stringIcSt11char_traitsIcESaIcEE7_M_dataEPc, @function
_ZNSt7__cxx1112basic_stringIcSt11char_traitsIcESaIcEE7_M_dataEPc:
.LFB3500:
	.cfi_startproc
	pushq	%rbp
	.cfi_def_cfa_offset 16
	.cfi_offset 6, -16
	movq	%rsp, %rbp
	.cfi_def_cfa_register 6
	movq	%rdi, -8(%rbp)
	movq	%rsi, -16(%rbp)
	movq	-8(%rbp), %rax
	movq	-16(%rbp), %rdx
	movq	%rdx, (%rax)
	nop
	popq	%rbp
	.cfi_def_cfa 7, 8
	ret
	.cfi_endproc
.LFE3500:
	.size	_ZNSt7__cxx1112basic_stringIcSt11char_traitsIcESaIcEE7_M_dataEPc, .-_ZNSt7__cxx1112basic_stringIcSt11char_traitsIcESaIcEE7_M_dataEPc
	.section	.text._ZNSt7__cxx1112basic_stringIcSt11char_traitsIcESaIcEE11_M_capacityEm,"axG",@progbits,_ZNSt7__cxx1112basic_stringIcSt11char_traitsIcESaIcEE11_M_capacityEm,comdat
	.align 2
	.weak	_ZNSt7__cxx1112basic_stringIcSt11char_traitsIcESaIcEE11_M_capacityEm
	.type	_ZNSt7__cxx1112basic_stringIcSt11char_traitsIcESaIcEE11_M_capacityEm, @function
_ZNSt7__cxx1112basic_stringIcSt11char_traitsIcESaIcEE11_M_capacityEm:
.LFB3501:
	.cfi_startproc
	pushq	%rbp
	.cfi_def_cfa_offset 16
	.cfi_offset 6, -16
	movq	%rsp, %rbp
	.cfi_def_cfa_register 6
	movq	%rdi, -8(%rbp)
	movq	%rsi, -16(%rbp)
	movq	-8(%rbp), %rax
	movq	-16(%rbp), %rdx
	movq	%rdx, 16(%rax)
	nop
	popq	%rbp
	.cfi_def_cfa 7, 8
	ret
	.cfi_endproc
.LFE3501:
	.size	_ZNSt7__cxx1112basic_stringIcSt11char_traitsIcESaIcEE11_M_capacityEm, .-_ZNSt7__cxx1112basic_stringIcSt11char_traitsIcESaIcEE11_M_capacityEm
	.section	.text._ZNSt7__cxx1112basic_stringIcSt11char_traitsIcESaIcEE9_M_lengthEm,"axG",@progbits,_ZNSt7__cxx1112basic_stringIcSt11char_traitsIcESaIcEE9_M_lengthEm,comdat
	.align 2
	.weak	_ZNSt7__cxx1112basic_stringIcSt11char_traitsIcESaIcEE9_M_lengthEm
	.type	_ZNSt7__cxx1112basic_stringIcSt11char_traitsIcESaIcEE9_M_lengthEm, @function
_ZNSt7__cxx1112basic_stringIcSt11char_traitsIcESaIcEE9_M_lengthEm:
.LFB3502:
	.cfi_startproc
	pushq	%rbp
	.cfi_def_cfa_offset 16
	.cfi_offset 6, -16
	movq	%rsp, %rbp
	.cfi_def_cfa_register 6
	movq	%rdi, -8(%rbp)
	movq	%rsi, -16(%rbp)
	movq	-8(%rbp), %rax
	movq	-16(%rbp), %rdx
	movq	%rdx, 8(%rax)
	nop
	popq	%rbp
	.cfi_def_cfa 7, 8
	ret
	.cfi_endproc
.LFE3502:
	.size	_ZNSt7__cxx1112basic_stringIcSt11char_traitsIcESaIcEE9_M_lengthEm, .-_ZNSt7__cxx1112basic_stringIcSt11char_traitsIcESaIcEE9_M_lengthEm
	.section	.text._ZNKSt7__cxx1112basic_stringIcSt11char_traitsIcESaIcEE4dataEv,"axG",@progbits,_ZNKSt7__cxx1112basic_stringIcSt11char_traitsIcESaIcEE4dataEv,comdat
	.align 2
	.weak	_ZNKSt7__cxx1112basic_stringIcSt11char_traitsIcESaIcEE4dataEv
	.type	_ZNKSt7__cxx1112basic_stringIcSt11char_traitsIcESaIcEE4dataEv, @function
_ZNKSt7__cxx1112basic_stringIcSt11char_traitsIcESaIcEE4dataEv:
.LFB3532:
	.cfi_startproc
	pushq	%rbp
	.cfi_def_cfa_offset 16
	.cfi_offset 6, -16
	movq	%rsp, %rbp
	.cfi_def_cfa_register 6
	subq	$16, %rsp
	movq	%rdi, -8(%rbp)
	movq	-8(%rbp), %rax
	movq	%rax, %rdi
	call	_ZNKSt7__cxx1112basic_stringIcSt11char_traitsIcESaIcEE7_M_dataEv
	leave
	.cfi_def_cfa 7, 8
	ret
	.cfi_endproc
.LFE3532:
	.size	_ZNKSt7__cxx1112basic_stringIcSt11char_traitsIcESaIcEE4dataEv, .-_ZNKSt7__cxx1112basic_stringIcSt11char_traitsIcESaIcEE4dataEv
	.section	.text._ZNKSt7__cxx1112basic_stringIcSt11char_traitsIcESaIcEE4sizeEv,"axG",@progbits,_ZNKSt7__cxx1112basic_stringIcSt11char_traitsIcESaIcEE4sizeEv,comdat
	.align 2
	.weak	_ZNKSt7__cxx1112basic_stringIcSt11char_traitsIcESaIcEE4sizeEv
	.type	_ZNKSt7__cxx1112basic_stringIcSt11char_traitsIcESaIcEE4sizeEv, @function
_ZNKSt7__cxx1112basic_stringIcSt11char_traitsIcESaIcEE4sizeEv:
.LFB3533:
	.cfi_startproc
	pushq	%rbp
	.cfi_def_cfa_offset 16
	.cfi_offset 6, -16
	movq	%rsp, %rbp
	.cfi_def_cfa_register 6
	subq	$32, %rsp
	movq	%rdi, -24(%rbp)
	movq	-24(%rbp), %rax
	movq	8(%rax), %rax
	movq	%rax, -8(%rbp)
	movq	-24(%rbp), %rax
	movq	%rax, %rdi
	call	_ZNKSt7__cxx1112basic_stringIcSt11char_traitsIcESaIcEE8max_sizeEv
	cmpq	-8(%rbp), %rax
	setb	%al
	testb	%al, %al
	movq	-8(%rbp), %rax
	leave
	.cfi_def_cfa 7, 8
	ret
	.cfi_endproc
.LFE3533:
	.size	_ZNKSt7__cxx1112basic_stringIcSt11char_traitsIcESaIcEE4sizeEv, .-_ZNKSt7__cxx1112basic_stringIcSt11char_traitsIcESaIcEE4sizeEv
	.section	.text._ZNSt15__new_allocatorIcED2Ev,"axG",@progbits,_ZNSt15__new_allocatorIcED5Ev,comdat
	.align 2
	.weak	_ZNSt15__new_allocatorIcED2Ev
	.type	_ZNSt15__new_allocatorIcED2Ev, @function
_ZNSt15__new_allocatorIcED2Ev:
.LFB3538:
	.cfi_startproc
	pushq	%rbp
	.cfi_def_cfa_offset 16
	.cfi_offset 6, -16
	movq	%rsp, %rbp
	.cfi_def_cfa_register 6
	movq	%rdi, -8(%rbp)
	nop
	popq	%rbp
	.cfi_def_cfa 7, 8
	ret
	.cfi_endproc
.LFE3538:
	.size	_ZNSt15__new_allocatorIcED2Ev, .-_ZNSt15__new_allocatorIcED2Ev
	.weak	_ZNSt15__new_allocatorIcED1Ev
	.set	_ZNSt15__new_allocatorIcED1Ev,_ZNSt15__new_allocatorIcED2Ev
	.section	.text._ZNSt7__cxx1112basic_stringIcSt11char_traitsIcESaIcEE12_Alloc_hiderC2EPcRKS3_,"axG",@progbits,_ZNSt7__cxx1112basic_stringIcSt11char_traitsIcESaIcEE12_Alloc_hiderC5EPcRKS3_,comdat
	.align 2
	.weak	_ZNSt7__cxx1112basic_stringIcSt11char_traitsIcESaIcEE12_Alloc_hiderC2EPcRKS3_
	.type	_ZNSt7__cxx1112basic_stringIcSt11char_traitsIcESaIcEE12_Alloc_hiderC2EPcRKS3_, @function
_ZNSt7__cxx1112basic_stringIcSt11char_traitsIcESaIcEE12_Alloc_hiderC2EPcRKS3_:
.LFB3541:
	.cfi_startproc
	pushq	%rbp
	.cfi_def_cfa_offset 16
	.cfi_offset 6, -16
	movq	%rsp, %rbp
	.cfi_def_cfa_register 6
	movq	%rdi, -40(%rbp)
	movq	%rsi, -48(%rbp)
	movq	%rdx, -56(%rbp)
	movq	-40(%rbp), %rax
	movq	%rax, -32(%rbp)
	movq	-56(%rbp), %rax
	movq	%rax, -24(%rbp)
	movq	-32(%rbp), %rax
	movq	%rax, -16(%rbp)
	movq	-24(%rbp), %rax
	movq	%rax, -8(%rbp)
	nop
	nop
	movq	-40(%rbp), %rax
	movq	-48(%rbp), %rdx
	movq	%rdx, (%rax)
	nop
	popq	%rbp
	.cfi_def_cfa 7, 8
	ret
	.cfi_endproc
.LFE3541:
	.size	_ZNSt7__cxx1112basic_stringIcSt11char_traitsIcESaIcEE12_Alloc_hiderC2EPcRKS3_, .-_ZNSt7__cxx1112basic_stringIcSt11char_traitsIcESaIcEE12_Alloc_hiderC2EPcRKS3_
	.weak	_ZNSt7__cxx1112basic_stringIcSt11char_traitsIcESaIcEE12_Alloc_hiderC1EPcRKS3_
	.set	_ZNSt7__cxx1112basic_stringIcSt11char_traitsIcESaIcEE12_Alloc_hiderC1EPcRKS3_,_ZNSt7__cxx1112basic_stringIcSt11char_traitsIcESaIcEE12_Alloc_hiderC2EPcRKS3_
	.section	.text._ZZNSt7__cxx1112basic_stringIcSt11char_traitsIcESaIcEE12_M_constructIPKcEEvT_S8_St20forward_iterator_tagEN6_GuardC2EPS4_,"axG",@progbits,_ZZNSt7__cxx1112basic_stringIcSt11char_traitsIcESaIcEE12_M_constructIPKcEEvT_S8_St20forward_iterator_tagEN6_GuardC5EPS4_,comdat
	.align 2
	.weak	_ZZNSt7__cxx1112basic_stringIcSt11char_traitsIcESaIcEE12_M_constructIPKcEEvT_S8_St20forward_iterator_tagEN6_GuardC2EPS4_
	.type	_ZZNSt7__cxx1112basic_stringIcSt11char_traitsIcESaIcEE12_M_constructIPKcEEvT_S8_St20forward_iterator_tagEN6_GuardC2EPS4_, @function
_ZZNSt7__cxx1112basic_stringIcSt11char_traitsIcESaIcEE12_M_constructIPKcEEvT_S8_St20forward_iterator_tagEN6_GuardC2EPS4_:
.LFB3545:
	.cfi_startproc
	pushq	%rbp
	.cfi_def_cfa_offset 16
	.cfi_offset 6, -16
	movq	%rsp, %rbp
	.cfi_def_cfa_register 6
	movq	%rdi, -8(%rbp)
	movq	%rsi, -16(%rbp)
	movq	-8(%rbp), %rax
	movq	-16(%rbp), %rdx
	movq	%rdx, (%rax)
	nop
	popq	%rbp
	.cfi_def_cfa 7, 8
	ret
	.cfi_endproc
.LFE3545:
	.size	_ZZNSt7__cxx1112basic_stringIcSt11char_traitsIcESaIcEE12_M_constructIPKcEEvT_S8_St20forward_iterator_tagEN6_GuardC2EPS4_, .-_ZZNSt7__cxx1112basic_stringIcSt11char_traitsIcESaIcEE12_M_constructIPKcEEvT_S8_St20forward_iterator_tagEN6_GuardC2EPS4_
	.weak	_ZZNSt7__cxx1112basic_stringIcSt11char_traitsIcESaIcEE12_M_constructIPKcEEvT_S8_St20forward_iterator_tagEN6_GuardC1EPS4_
	.set	_ZZNSt7__cxx1112basic_stringIcSt11char_traitsIcESaIcEE12_M_constructIPKcEEvT_S8_St20forward_iterator_tagEN6_GuardC1EPS4_,_ZZNSt7__cxx1112basic_stringIcSt11char_traitsIcESaIcEE12_M_constructIPKcEEvT_S8_St20forward_iterator_tagEN6_GuardC2EPS4_
	.section	.text._ZZNSt7__cxx1112basic_stringIcSt11char_traitsIcESaIcEE12_M_constructIPKcEEvT_S8_St20forward_iterator_tagEN6_GuardD2Ev,"axG",@progbits,_ZZNSt7__cxx1112basic_stringIcSt11char_traitsIcESaIcEE12_M_constructIPKcEEvT_S8_St20forward_iterator_tagEN6_GuardD5Ev,comdat
	.align 2
	.weak	_ZZNSt7__cxx1112basic_stringIcSt11char_traitsIcESaIcEE12_M_constructIPKcEEvT_S8_St20forward_iterator_tagEN6_GuardD2Ev
	.type	_ZZNSt7__cxx1112basic_stringIcSt11char_traitsIcESaIcEE12_M_constructIPKcEEvT_S8_St20forward_iterator_tagEN6_GuardD2Ev, @function
_ZZNSt7__cxx1112basic_stringIcSt11char_traitsIcESaIcEE12_M_constructIPKcEEvT_S8_St20forward_iterator_tagEN6_GuardD2Ev:
.LFB3548:
	.cfi_startproc
	.cfi_personality 0x9b,DW.ref.__gxx_personality_v0
	.cfi_lsda 0x1b,.LLSDA3548
	pushq	%rbp
	.cfi_def_cfa_offset 16
	.cfi_offset 6, -16
	movq	%rsp, %rbp
	.cfi_def_cfa_register 6
	subq	$16, %rsp
	movq	%rdi, -8(%rbp)
	movq	-8(%rbp), %rax
	movq	(%rax), %rax
	testq	%rax, %rax
	je	.L284
	movq	-8(%rbp), %rax
	movq	(%rax), %rax
	movq	%rax, %rdi
	call	_ZNSt7__cxx1112basic_stringIcSt11char_traitsIcESaIcEE10_M_disposeEv
.L284:
	nop
	leave
	.cfi_def_cfa 7, 8
	ret
	.cfi_endproc
.LFE3548:
	.section	.gcc_except_table
.LLSDA3548:
	.byte	0xff
	.byte	0xff
	.byte	0x1
	.uleb128 .LLSDACSE3548-.LLSDACSB3548
.LLSDACSB3548:
.LLSDACSE3548:
	.section	.text._ZZNSt7__cxx1112basic_stringIcSt11char_traitsIcESaIcEE12_M_constructIPKcEEvT_S8_St20forward_iterator_tagEN6_GuardD2Ev,"axG",@progbits,_ZZNSt7__cxx1112basic_stringIcSt11char_traitsIcESaIcEE12_M_constructIPKcEEvT_S8_St20forward_iterator_tagEN6_GuardD5Ev,comdat
	.size	_ZZNSt7__cxx1112basic_stringIcSt11char_traitsIcESaIcEE12_M_constructIPKcEEvT_S8_St20forward_iterator_tagEN6_GuardD2Ev, .-_ZZNSt7__cxx1112basic_stringIcSt11char_traitsIcESaIcEE12_M_constructIPKcEEvT_S8_St20forward_iterator_tagEN6_GuardD2Ev
	.weak	_ZZNSt7__cxx1112basic_stringIcSt11char_traitsIcESaIcEE12_M_constructIPKcEEvT_S8_St20forward_iterator_tagEN6_GuardD1Ev
	.set	_ZZNSt7__cxx1112basic_stringIcSt11char_traitsIcESaIcEE12_M_constructIPKcEEvT_S8_St20forward_iterator_tagEN6_GuardD1Ev,_ZZNSt7__cxx1112basic_stringIcSt11char_traitsIcESaIcEE12_M_constructIPKcEEvT_S8_St20forward_iterator_tagEN6_GuardD2Ev
	.section	.text._ZNSt7__cxx1112basic_stringIcSt11char_traitsIcESaIcEE12_M_constructIPKcEEvT_S8_St20forward_iterator_tag,"axG",@progbits,_ZNSt7__cxx1112basic_stringIcSt11char_traitsIcESaIcEE12_M_constructIPKcEEvT_S8_St20forward_iterator_tag,comdat
	.align 2
	.weak	_ZNSt7__cxx1112basic_stringIcSt11char_traitsIcESaIcEE12_M_constructIPKcEEvT_S8_St20forward_iterator_tag
	.type	_ZNSt7__cxx1112basic_stringIcSt11char_traitsIcESaIcEE12_M_constructIPKcEEvT_S8_St20forward_iterator_tag, @function
_ZNSt7__cxx1112basic_stringIcSt11char_traitsIcESaIcEE12_M_constructIPKcEEvT_S8_St20forward_iterator_tag:
.LFB3543:
	.cfi_startproc
	pushq	%rbp
	.cfi_def_cfa_offset 16
	.cfi_offset 6, -16
	movq	%rsp, %rbp
	.cfi_def_cfa_register 6
	subq	$96, %rsp
	movq	%rdi, -72(%rbp)
	movq	%rsi, -80(%rbp)
	movq	%rdx, -88(%rbp)
	movq	%fs:40, %rax
	movq	%rax, -8(%rbp)
	xorl	%eax, %eax
	movq	-80(%rbp), %rax
	movq	%rax, -48(%rbp)
	movq	-88(%rbp), %rax
	movq	%rax, -40(%rbp)
	nop
	movq	-48(%rbp), %rax
	movq	%rax, -32(%rbp)
	movq	-40(%rbp), %rax
	movq	%rax, -24(%rbp)
	movq	-24(%rbp), %rax
	subq	-32(%rbp), %rax
	nop
	movq	%rax, -56(%rbp)
	movq	-56(%rbp), %rax
	cmpq	$15, %rax
	jbe	.L289
	leaq	-56(%rbp), %rcx
	movq	-72(%rbp), %rax
	movl	$0, %edx
	movq	%rcx, %rsi
	movq	%rax, %rdi
	call	_ZNSt7__cxx1112basic_stringIcSt11char_traitsIcESaIcEE9_M_createERmm
	movq	%rax, %rdx
	movq	-72(%rbp), %rax
	movq	%rdx, %rsi
	movq	%rax, %rdi
	call	_ZNSt7__cxx1112basic_stringIcSt11char_traitsIcESaIcEE7_M_dataEPc
	movq	-56(%rbp), %rdx
	movq	-72(%rbp), %rax
	movq	%rdx, %rsi
	movq	%rax, %rdi
	call	_ZNSt7__cxx1112basic_stringIcSt11char_traitsIcESaIcEE11_M_capacityEm
	jmp	.L290
.L289:
	movq	-72(%rbp), %rax
	movq	%rax, -16(%rbp)
	nop
.L290:
	movq	-72(%rbp), %rdx
	leaq	-48(%rbp), %rax
	movq	%rdx, %rsi
	movq	%rax, %rdi
	call	_ZZNSt7__cxx1112basic_stringIcSt11char_traitsIcESaIcEE12_M_constructIPKcEEvT_S8_St20forward_iterator_tagEN6_GuardC1EPS4_
	movq	-72(%rbp), %rax
	movq	%rax, %rdi
	call	_ZNKSt7__cxx1112basic_stringIcSt11char_traitsIcESaIcEE7_M_dataEv
	movq	%rax, %rcx
	movq	-88(%rbp), %rdx
	movq	-80(%rbp), %rax
	movq	%rax, %rsi
	movq	%rcx, %rdi
	call	_ZNSt7__cxx1112basic_stringIcSt11char_traitsIcESaIcEE13_S_copy_charsIPKcEEvPcT_S9_
	movq	$0, -48(%rbp)
	movq	-56(%rbp), %rdx
	movq	-72(%rbp), %rax
	movq	%rdx, %rsi
	movq	%rax, %rdi
	call	_ZNSt7__cxx1112basic_stringIcSt11char_traitsIcESaIcEE13_M_set_lengthEm
	leaq	-48(%rbp), %rax
	movq	%rax, %rdi
	call	_ZZNSt7__cxx1112basic_stringIcSt11char_traitsIcESaIcEE12_M_constructIPKcEEvT_S8_St20forward_iterator_tagEN6_GuardD1Ev
	movq	-8(%rbp), %rax
	subq	%fs:40, %rax
	je	.L291
	call	__stack_chk_fail@PLT
.L291:
	leave
	.cfi_def_cfa 7, 8
	ret
	.cfi_endproc
.LFE3543:
	.size	_ZNSt7__cxx1112basic_stringIcSt11char_traitsIcESaIcEE12_M_constructIPKcEEvT_S8_St20forward_iterator_tag, .-_ZNSt7__cxx1112basic_stringIcSt11char_traitsIcESaIcEE12_M_constructIPKcEEvT_S8_St20forward_iterator_tag
	.section	.text._ZNSt12_Vector_baseIlSaIlEE17_Vector_impl_dataC2Ev,"axG",@progbits,_ZNSt12_Vector_baseIlSaIlEE17_Vector_impl_dataC5Ev,comdat
	.align 2
	.weak	_ZNSt12_Vector_baseIlSaIlEE17_Vector_impl_dataC2Ev
	.type	_ZNSt12_Vector_baseIlSaIlEE17_Vector_impl_dataC2Ev, @function
_ZNSt12_Vector_baseIlSaIlEE17_Vector_impl_dataC2Ev:
.LFB3614:
	.cfi_startproc
	pushq	%rbp
	.cfi_def_cfa_offset 16
	.cfi_offset 6, -16
	movq	%rsp, %rbp
	.cfi_def_cfa_register 6
	movq	%rdi, -8(%rbp)
	movq	-8(%rbp), %rax
	movq	$0, (%rax)
	movq	-8(%rbp), %rax
	movq	$0, 8(%rax)
	movq	-8(%rbp), %rax
	movq	$0, 16(%rax)
	nop
	popq	%rbp
	.cfi_def_cfa 7, 8
	ret
	.cfi_endproc
.LFE3614:
	.size	_ZNSt12_Vector_baseIlSaIlEE17_Vector_impl_dataC2Ev, .-_ZNSt12_Vector_baseIlSaIlEE17_Vector_impl_dataC2Ev
	.weak	_ZNSt12_Vector_baseIlSaIlEE17_Vector_impl_dataC1Ev
	.set	_ZNSt12_Vector_baseIlSaIlEE17_Vector_impl_dataC1Ev,_ZNSt12_Vector_baseIlSaIlEE17_Vector_impl_dataC2Ev
	.section	.text._ZNSt15__new_allocatorIlED2Ev,"axG",@progbits,_ZNSt15__new_allocatorIlED5Ev,comdat
	.align 2
	.weak	_ZNSt15__new_allocatorIlED2Ev
	.type	_ZNSt15__new_allocatorIlED2Ev, @function
_ZNSt15__new_allocatorIlED2Ev:
.LFB3617:
	.cfi_startproc
	pushq	%rbp
	.cfi_def_cfa_offset 16
	.cfi_offset 6, -16
	movq	%rsp, %rbp
	.cfi_def_cfa_register 6
	movq	%rdi, -8(%rbp)
	nop
	popq	%rbp
	.cfi_def_cfa 7, 8
	ret
	.cfi_endproc
.LFE3617:
	.size	_ZNSt15__new_allocatorIlED2Ev, .-_ZNSt15__new_allocatorIlED2Ev
	.weak	_ZNSt15__new_allocatorIlED1Ev
	.set	_ZNSt15__new_allocatorIlED1Ev,_ZNSt15__new_allocatorIlED2Ev
	.section	.text._ZNSt12_Vector_baseIlSaIlEE13_M_deallocateEPlm,"axG",@progbits,_ZNSt12_Vector_baseIlSaIlEE13_M_deallocateEPlm,comdat
	.align 2
	.weak	_ZNSt12_Vector_baseIlSaIlEE13_M_deallocateEPlm
	.type	_ZNSt12_Vector_baseIlSaIlEE13_M_deallocateEPlm, @function
_ZNSt12_Vector_baseIlSaIlEE13_M_deallocateEPlm:
.LFB3619:
	.cfi_startproc
	pushq	%rbp
	.cfi_def_cfa_offset 16
	.cfi_offset 6, -16
	movq	%rsp, %rbp
	.cfi_def_cfa_register 6
	subq	$64, %rsp
	movq	%rdi, -40(%rbp)
	movq	%rsi, -48(%rbp)
	movq	%rdx, -56(%rbp)
	cmpq	$0, -48(%rbp)
	je	.L296
	movq	-40(%rbp), %rax
	movq	%rax, -24(%rbp)
	movq	-48(%rbp), %rax
	movq	%rax, -16(%rbp)
	movq	-56(%rbp), %rax
	movq	%rax, -8(%rbp)
	movq	-8(%rbp), %rdx
	movq	-16(%rbp), %rcx
	movq	-24(%rbp), %rax
	movq	%rcx, %rsi
	movq	%rax, %rdi
	call	_ZNSt15__new_allocatorIlE10deallocateEPlm
	nop
.L296:
	nop
	leave
	.cfi_def_cfa 7, 8
	ret
	.cfi_endproc
.LFE3619:
	.size	_ZNSt12_Vector_baseIlSaIlEE13_M_deallocateEPlm, .-_ZNSt12_Vector_baseIlSaIlEE13_M_deallocateEPlm
	.section	.text._ZNSt12_Vector_baseIlSaIlEE19_M_get_Tp_allocatorEv,"axG",@progbits,_ZNSt12_Vector_baseIlSaIlEE19_M_get_Tp_allocatorEv,comdat
	.align 2
	.weak	_ZNSt12_Vector_baseIlSaIlEE19_M_get_Tp_allocatorEv
	.type	_ZNSt12_Vector_baseIlSaIlEE19_M_get_Tp_allocatorEv, @function
_ZNSt12_Vector_baseIlSaIlEE19_M_get_Tp_allocatorEv:
.LFB3620:
	.cfi_startproc
	pushq	%rbp
	.cfi_def_cfa_offset 16
	.cfi_offset 6, -16
	movq	%rsp, %rbp
	.cfi_def_cfa_register 6
	movq	%rdi, -8(%rbp)
	movq	-8(%rbp), %rax
	popq	%rbp
	.cfi_def_cfa 7, 8
	ret
	.cfi_endproc
.LFE3620:
	.size	_ZNSt12_Vector_baseIlSaIlEE19_M_get_Tp_allocatorEv, .-_ZNSt12_Vector_baseIlSaIlEE19_M_get_Tp_allocatorEv
	.section	.text._ZNSt6vectorIlSaIlEE12emplace_backIJlEEERlDpOT_,"axG",@progbits,_ZNSt6vectorIlSaIlEE12emplace_backIJlEEERlDpOT_,comdat
	.align 2
	.weak	_ZNSt6vectorIlSaIlEE12emplace_backIJlEEERlDpOT_
	.type	_ZNSt6vectorIlSaIlEE12emplace_backIJlEEERlDpOT_, @function
_ZNSt6vectorIlSaIlEE12emplace_backIJlEEERlDpOT_:
.LFB3623:
	.cfi_startproc
	pushq	%rbp
	.cfi_def_cfa_offset 16
	.cfi_offset 6, -16
	movq	%rsp, %rbp
	.cfi_def_cfa_register 6
	pushq	%rbx
	subq	$104, %rsp
	.cfi_offset 3, -24
	movq	%rdi, -104(%rbp)
	movq	%rsi, -112(%rbp)
	movq	-104(%rbp), %rax
	movq	8(%rax), %rdx
	movq	-104(%rbp), %rax
	movq	16(%rax), %rax
	cmpq	%rax, %rdx
	je	.L300
	movq	-112(%rbp), %rax
	movq	%rax, -32(%rbp)
	movq	-32(%rbp), %rax
	movq	-104(%rbp), %rdx
	movq	8(%rdx), %rdx
	movq	-104(%rbp), %rcx
	movq	%rcx, -96(%rbp)
	movq	%rdx, -88(%rbp)
	movq	%rax, -80(%rbp)
	movq	-80(%rbp), %rax
	movq	%rax, -72(%rbp)
	movq	-72(%rbp), %rax
	movq	-88(%rbp), %rdx
	movq	%rdx, -64(%rbp)
	movq	%rax, -56(%rbp)
	movq	-96(%rbp), %rax
	movq	%rax, -48(%rbp)
	movq	-64(%rbp), %rbx
	movq	%rbx, %rsi
	movl	$8, %edi
	call	_ZnwmPv
	movq	-56(%rbp), %rdx
	movq	%rdx, -40(%rbp)
	movq	-40(%rbp), %rdx
	movq	(%rdx), %rdx
	movq	%rdx, (%rax)
	movl	$0, %edx
	testb	%dl, %dl
	je	.L304
	movq	%rbx, %rsi
	movq	%rax, %rdi
	call	_ZdlPvS_
.L304:
	nop
	nop
	movq	-104(%rbp), %rax
	movq	8(%rax), %rax
	leaq	8(%rax), %rdx
	movq	-104(%rbp), %rax
	movq	%rdx, 8(%rax)
	jmp	.L305
.L300:
	movq	-112(%rbp), %rax
	movq	%rax, -24(%rbp)
	movq	-24(%rbp), %rdx
	movq	-104(%rbp), %rax
	movq	%rdx, %rsi
	movq	%rax, %rdi
	call	_ZNSt6vectorIlSaIlEE17_M_realloc_appendIJlEEEvDpOT_
.L305:
	movq	-104(%rbp), %rax
	movq	%rax, %rdi
	call	_ZNSt6vectorIlSaIlEE4backEv
	movq	-8(%rbp), %rbx
	leave
	.cfi_def_cfa 7, 8
	ret
	.cfi_endproc
.LFE3623:
	.size	_ZNSt6vectorIlSaIlEE12emplace_backIJlEEERlDpOT_, .-_ZNSt6vectorIlSaIlEE12emplace_backIJlEEERlDpOT_
	.section	.text._ZNKSt16initializer_listIlE5beginEv,"axG",@progbits,_ZNKSt16initializer_listIlE5beginEv,comdat
	.align 2
	.weak	_ZNKSt16initializer_listIlE5beginEv
	.type	_ZNKSt16initializer_listIlE5beginEv, @function
_ZNKSt16initializer_listIlE5beginEv:
.LFB3624:
	.cfi_startproc
	pushq	%rbp
	.cfi_def_cfa_offset 16
	.cfi_offset 6, -16
	movq	%rsp, %rbp
	.cfi_def_cfa_register 6
	movq	%rdi, -8(%rbp)
	movq	-8(%rbp), %rax
	movq	(%rax), %rax
	popq	%rbp
	.cfi_def_cfa 7, 8
	ret
	.cfi_endproc
.LFE3624:
	.size	_ZNKSt16initializer_listIlE5beginEv, .-_ZNKSt16initializer_listIlE5beginEv
	.section	.text._ZNKSt16initializer_listIlE3endEv,"axG",@progbits,_ZNKSt16initializer_listIlE3endEv,comdat
	.align 2
	.weak	_ZNKSt16initializer_listIlE3endEv
	.type	_ZNKSt16initializer_listIlE3endEv, @function
_ZNKSt16initializer_listIlE3endEv:
.LFB3625:
	.cfi_startproc
	pushq	%rbp
	.cfi_def_cfa_offset 16
	.cfi_offset 6, -16
	movq	%rsp, %rbp
	.cfi_def_cfa_register 6
	pushq	%rbx
	subq	$24, %rsp
	.cfi_offset 3, -24
	movq	%rdi, -24(%rbp)
	movq	-24(%rbp), %rax
	movq	%rax, %rdi
	call	_ZNKSt16initializer_listIlE5beginEv
	movq	%rax, %rbx
	movq	-24(%rbp), %rax
	movq	%rax, %rdi
	call	_ZNKSt16initializer_listIlE4sizeEv
	salq	$3, %rax
	addq	%rbx, %rax
	movq	-8(%rbp), %rbx
	leave
	.cfi_def_cfa 7, 8
	ret
	.cfi_endproc
.LFE3625:
	.size	_ZNKSt16initializer_listIlE3endEv, .-_ZNKSt16initializer_listIlE3endEv
	.section	.text._ZNSt6vectorIlSaIlEE13_M_assign_auxIPKlEEvT_S5_St20forward_iterator_tag,"axG",@progbits,_ZNSt6vectorIlSaIlEE13_M_assign_auxIPKlEEvT_S5_St20forward_iterator_tag,comdat
	.align 2
	.weak	_ZNSt6vectorIlSaIlEE13_M_assign_auxIPKlEEvT_S5_St20forward_iterator_tag
	.type	_ZNSt6vectorIlSaIlEE13_M_assign_auxIPKlEEvT_S5_St20forward_iterator_tag, @function
_ZNSt6vectorIlSaIlEE13_M_assign_auxIPKlEEvT_S5_St20forward_iterator_tag:
.LFB3626:
	.cfi_startproc
	pushq	%rbp
	.cfi_def_cfa_offset 16
	.cfi_offset 6, -16
	movq	%rsp, %rbp
	.cfi_def_cfa_register 6
	subq	$160, %rsp
	movq	%rdi, -136(%rbp)
	movq	%rsi, -144(%rbp)
	movq	%rdx, -152(%rbp)
	movq	%fs:40, %rax
	movq	%rax, -8(%rbp)
	xorl	%eax, %eax
	movq	-136(%rbp), %rax
	movq	%rax, %rdi
	call	_ZNKSt6vectorIlSaIlEE4sizeEv
	movq	%rax, -112(%rbp)
	movq	-144(%rbp), %rax
	movq	%rax, -120(%rbp)
	movq	-152(%rbp), %rax
	movq	%rax, -80(%rbp)
	nop
	movq	-120(%rbp), %rax
	movq	%rax, -72(%rbp)
	movq	-80(%rbp), %rax
	movq	%rax, -64(%rbp)
	movq	-64(%rbp), %rax
	subq	-72(%rbp), %rax
	sarq	$3, %rax
	nop
	movq	%rax, -104(%rbp)
	movq	-136(%rbp), %rax
	movq	%rax, %rdi
	call	_ZNKSt6vectorIlSaIlEE8capacityEv
	cmpq	-104(%rbp), %rax
	setb	%al
	testb	%al, %al
	je	.L316
	movq	-104(%rbp), %rax
	cmpq	%rax, -112(%rbp)
	movq	-136(%rbp), %rax
	movq	%rax, %rdi
	call	_ZNSt12_Vector_baseIlSaIlEE19_M_get_Tp_allocatorEv
	movq	%rax, %rdx
	movq	-104(%rbp), %rax
	movq	%rdx, %rsi
	movq	%rax, %rdi
	call	_ZNSt6vectorIlSaIlEE17_S_check_init_lenEmRKS0_
	movq	-152(%rbp), %rcx
	movq	-144(%rbp), %rdx
	movq	-104(%rbp), %rsi
	movq	-136(%rbp), %rax
	movq	%rax, %rdi
	call	_ZNSt6vectorIlSaIlEE20_M_allocate_and_copyIPKlEEPlmT_S6_
	movq	%rax, -88(%rbp)
	movq	-136(%rbp), %rax
	movq	%rax, %rdi
	call	_ZNSt12_Vector_baseIlSaIlEE19_M_get_Tp_allocatorEv
	movq	-136(%rbp), %rdx
	movq	8(%rdx), %rdx
	movq	-136(%rbp), %rcx
	movq	(%rcx), %rcx
	movq	%rcx, -56(%rbp)
	movq	%rdx, -48(%rbp)
	movq	%rax, -40(%rbp)
	movq	-48(%rbp), %rdx
	movq	-56(%rbp), %rax
	movq	%rdx, %rsi
	movq	%rax, %rdi
	call	_ZSt8_DestroyIPlEvT_S1_
	nop
	movq	-136(%rbp), %rax
	movq	-136(%rbp), %rdx
	movq	16(%rdx), %rcx
	movq	-136(%rbp), %rdx
	movq	(%rdx), %rdx
	subq	%rdx, %rcx
	sarq	$3, %rcx
	movq	%rcx, %rdx
	movq	%rdx, %rsi
	movq	-136(%rbp), %rdx
	movq	(%rdx), %rcx
	movq	%rsi, %rdx
	movq	%rcx, %rsi
	movq	%rax, %rdi
	call	_ZNSt12_Vector_baseIlSaIlEE13_M_deallocateEPlm
	movq	-136(%rbp), %rax
	movq	-88(%rbp), %rdx
	movq	%rdx, (%rax)
	movq	-136(%rbp), %rax
	movq	(%rax), %rax
	movq	-104(%rbp), %rdx
	salq	$3, %rdx
	addq	%rax, %rdx
	movq	-136(%rbp), %rax
	movq	%rdx, 8(%rax)
	movq	-136(%rbp), %rax
	movq	8(%rax), %rdx
	movq	-136(%rbp), %rax
	movq	%rdx, 16(%rax)
	jmp	.L322
.L316:
	movq	-112(%rbp), %rax
	cmpq	-104(%rbp), %rax
	jb	.L319
	movq	-136(%rbp), %rax
	movq	(%rax), %rdx
	movq	-152(%rbp), %rcx
	movq	-144(%rbp), %rax
	movq	%rcx, %rsi
	movq	%rax, %rdi
	call	_ZSt4copyIPKlPlET0_T_S4_S3_
	movq	%rax, %rdx
	movq	-136(%rbp), %rax
	movq	%rdx, %rsi
	movq	%rax, %rdi
	call	_ZNSt6vectorIlSaIlEE15_M_erase_at_endEPl
	jmp	.L322
.L319:
	movq	-144(%rbp), %rax
	movq	%rax, -120(%rbp)
	movq	-112(%rbp), %rax
	movq	%rax, -32(%rbp)
	movq	-32(%rbp), %rax
	movq	%rax, -24(%rbp)
	leaq	-120(%rbp), %rax
	movq	%rax, -16(%rbp)
	nop
	movq	-24(%rbp), %rdx
	leaq	-120(%rbp), %rax
	movq	%rdx, %rsi
	movq	%rax, %rdi
	call	_ZSt9__advanceIPKllEvRT_T0_St26random_access_iterator_tag
	nop
	movq	-136(%rbp), %rax
	movq	(%rax), %rdx
	movq	-120(%rbp), %rcx
	movq	-144(%rbp), %rax
	movq	%rcx, %rsi
	movq	%rax, %rdi
	call	_ZSt4copyIPKlPlET0_T_S4_S3_
	movq	-104(%rbp), %rax
	subq	-112(%rbp), %rax
	movq	%rax, -96(%rbp)
	movq	-136(%rbp), %rax
	movq	%rax, %rdi
	call	_ZNSt12_Vector_baseIlSaIlEE19_M_get_Tp_allocatorEv
	movq	%rax, %rcx
	movq	-136(%rbp), %rax
	movq	8(%rax), %rdx
	movq	-120(%rbp), %rax
	movq	-152(%rbp), %rsi
	movq	%rax, %rdi
	call	_ZSt22__uninitialized_copy_aIPKlS1_PllET1_T_T0_S3_RSaIT2_E
	movq	-136(%rbp), %rdx
	movq	%rax, 8(%rdx)
.L322:
	nop
	movq	-8(%rbp), %rax
	subq	%fs:40, %rax
	je	.L321
	call	__stack_chk_fail@PLT
.L321:
	leave
	.cfi_def_cfa 7, 8
	ret
	.cfi_endproc
.LFE3626:
	.size	_ZNSt6vectorIlSaIlEE13_M_assign_auxIPKlEEvT_S5_St20forward_iterator_tag, .-_ZNSt6vectorIlSaIlEE13_M_assign_auxIPKlEEvT_S5_St20forward_iterator_tag
	.section	.text._ZNSt12_Vector_baseI6ResultSaIS0_EE17_Vector_impl_dataC2Ev,"axG",@progbits,_ZNSt12_Vector_baseI6ResultSaIS0_EE17_Vector_impl_dataC5Ev,comdat
	.align 2
	.weak	_ZNSt12_Vector_baseI6ResultSaIS0_EE17_Vector_impl_dataC2Ev
	.type	_ZNSt12_Vector_baseI6ResultSaIS0_EE17_Vector_impl_dataC2Ev, @function
_ZNSt12_Vector_baseI6ResultSaIS0_EE17_Vector_impl_dataC2Ev:
.LFB3632:
	.cfi_startproc
	pushq	%rbp
	.cfi_def_cfa_offset 16
	.cfi_offset 6, -16
	movq	%rsp, %rbp
	.cfi_def_cfa_register 6
	movq	%rdi, -8(%rbp)
	movq	-8(%rbp), %rax
	movq	$0, (%rax)
	movq	-8(%rbp), %rax
	movq	$0, 8(%rax)
	movq	-8(%rbp), %rax
	movq	$0, 16(%rax)
	nop
	popq	%rbp
	.cfi_def_cfa 7, 8
	ret
	.cfi_endproc
.LFE3632:
	.size	_ZNSt12_Vector_baseI6ResultSaIS0_EE17_Vector_impl_dataC2Ev, .-_ZNSt12_Vector_baseI6ResultSaIS0_EE17_Vector_impl_dataC2Ev
	.weak	_ZNSt12_Vector_baseI6ResultSaIS0_EE17_Vector_impl_dataC1Ev
	.set	_ZNSt12_Vector_baseI6ResultSaIS0_EE17_Vector_impl_dataC1Ev,_ZNSt12_Vector_baseI6ResultSaIS0_EE17_Vector_impl_dataC2Ev
	.section	.text._ZNSt15__new_allocatorI6ResultED2Ev,"axG",@progbits,_ZNSt15__new_allocatorI6ResultED5Ev,comdat
	.align 2
	.weak	_ZNSt15__new_allocatorI6ResultED2Ev
	.type	_ZNSt15__new_allocatorI6ResultED2Ev, @function
_ZNSt15__new_allocatorI6ResultED2Ev:
.LFB3635:
	.cfi_startproc
	pushq	%rbp
	.cfi_def_cfa_offset 16
	.cfi_offset 6, -16
	movq	%rsp, %rbp
	.cfi_def_cfa_register 6
	movq	%rdi, -8(%rbp)
	nop
	popq	%rbp
	.cfi_def_cfa 7, 8
	ret
	.cfi_endproc
.LFE3635:
	.size	_ZNSt15__new_allocatorI6ResultED2Ev, .-_ZNSt15__new_allocatorI6ResultED2Ev
	.weak	_ZNSt15__new_allocatorI6ResultED1Ev
	.set	_ZNSt15__new_allocatorI6ResultED1Ev,_ZNSt15__new_allocatorI6ResultED2Ev
	.section	.text._ZNSt12_Vector_baseI6ResultSaIS0_EE13_M_deallocateEPS0_m,"axG",@progbits,_ZNSt12_Vector_baseI6ResultSaIS0_EE13_M_deallocateEPS0_m,comdat
	.align 2
	.weak	_ZNSt12_Vector_baseI6ResultSaIS0_EE13_M_deallocateEPS0_m
	.type	_ZNSt12_Vector_baseI6ResultSaIS0_EE13_M_deallocateEPS0_m, @function
_ZNSt12_Vector_baseI6ResultSaIS0_EE13_M_deallocateEPS0_m:
.LFB3637:
	.cfi_startproc
	pushq	%rbp
	.cfi_def_cfa_offset 16
	.cfi_offset 6, -16
	movq	%rsp, %rbp
	.cfi_def_cfa_register 6
	subq	$64, %rsp
	movq	%rdi, -40(%rbp)
	movq	%rsi, -48(%rbp)
	movq	%rdx, -56(%rbp)
	cmpq	$0, -48(%rbp)
	je	.L327
	movq	-40(%rbp), %rax
	movq	%rax, -24(%rbp)
	movq	-48(%rbp), %rax
	movq	%rax, -16(%rbp)
	movq	-56(%rbp), %rax
	movq	%rax, -8(%rbp)
	movq	-8(%rbp), %rdx
	movq	-16(%rbp), %rcx
	movq	-24(%rbp), %rax
	movq	%rcx, %rsi
	movq	%rax, %rdi
	call	_ZNSt15__new_allocatorI6ResultE10deallocateEPS0_m
	nop
.L327:
	nop
	leave
	.cfi_def_cfa 7, 8
	ret
	.cfi_endproc
.LFE3637:
	.size	_ZNSt12_Vector_baseI6ResultSaIS0_EE13_M_deallocateEPS0_m, .-_ZNSt12_Vector_baseI6ResultSaIS0_EE13_M_deallocateEPS0_m
	.section	.text._ZNSt12_Vector_baseI6ResultSaIS0_EE19_M_get_Tp_allocatorEv,"axG",@progbits,_ZNSt12_Vector_baseI6ResultSaIS0_EE19_M_get_Tp_allocatorEv,comdat
	.align 2
	.weak	_ZNSt12_Vector_baseI6ResultSaIS0_EE19_M_get_Tp_allocatorEv
	.type	_ZNSt12_Vector_baseI6ResultSaIS0_EE19_M_get_Tp_allocatorEv, @function
_ZNSt12_Vector_baseI6ResultSaIS0_EE19_M_get_Tp_allocatorEv:
.LFB3638:
	.cfi_startproc
	pushq	%rbp
	.cfi_def_cfa_offset 16
	.cfi_offset 6, -16
	movq	%rsp, %rbp
	.cfi_def_cfa_register 6
	movq	%rdi, -8(%rbp)
	movq	-8(%rbp), %rax
	popq	%rbp
	.cfi_def_cfa 7, 8
	ret
	.cfi_endproc
.LFE3638:
	.size	_ZNSt12_Vector_baseI6ResultSaIS0_EE19_M_get_Tp_allocatorEv, .-_ZNSt12_Vector_baseI6ResultSaIS0_EE19_M_get_Tp_allocatorEv
	.section	.text._ZNKSt6vectorI6ResultSaIS0_EE8max_sizeEv,"axG",@progbits,_ZNKSt6vectorI6ResultSaIS0_EE8max_sizeEv,comdat
	.align 2
	.weak	_ZNKSt6vectorI6ResultSaIS0_EE8max_sizeEv
	.type	_ZNKSt6vectorI6ResultSaIS0_EE8max_sizeEv, @function
_ZNKSt6vectorI6ResultSaIS0_EE8max_sizeEv:
.LFB3640:
	.cfi_startproc
	pushq	%rbp
	.cfi_def_cfa_offset 16
	.cfi_offset 6, -16
	movq	%rsp, %rbp
	.cfi_def_cfa_register 6
	subq	$16, %rsp
	movq	%rdi, -8(%rbp)
	movq	-8(%rbp), %rax
	movq	%rax, %rdi
	call	_ZNKSt12_Vector_baseI6ResultSaIS0_EE19_M_get_Tp_allocatorEv
	movq	%rax, %rdi
	call	_ZNSt6vectorI6ResultSaIS0_EE11_S_max_sizeERKS1_
	leave
	.cfi_def_cfa 7, 8
	ret
	.cfi_endproc
.LFE3640:
	.size	_ZNKSt6vectorI6ResultSaIS0_EE8max_sizeEv, .-_ZNKSt6vectorI6ResultSaIS0_EE8max_sizeEv
	.section	.text._ZNKSt6vectorI6ResultSaIS0_EE8capacityEv,"axG",@progbits,_ZNKSt6vectorI6ResultSaIS0_EE8capacityEv,comdat
	.align 2
	.weak	_ZNKSt6vectorI6ResultSaIS0_EE8capacityEv
	.type	_ZNKSt6vectorI6ResultSaIS0_EE8capacityEv, @function
_ZNKSt6vectorI6ResultSaIS0_EE8capacityEv:
.LFB3641:
	.cfi_startproc
	pushq	%rbp
	.cfi_def_cfa_offset 16
	.cfi_offset 6, -16
	movq	%rsp, %rbp
	.cfi_def_cfa_register 6
	movq	%rdi, -24(%rbp)
	movq	-24(%rbp), %rax
	movq	16(%rax), %rdx
	movq	-24(%rbp), %rax
	movq	(%rax), %rax
	subq	%rax, %rdx
	movq	%rdx, %rax
	sarq	$5, %rax
	movq	%rax, -8(%rbp)
	cmpq	$0, -8(%rbp)
	movq	-8(%rbp), %rax
	popq	%rbp
	.cfi_def_cfa 7, 8
	ret
	.cfi_endproc
.LFE3641:
	.size	_ZNKSt6vectorI6ResultSaIS0_EE8capacityEv, .-_ZNKSt6vectorI6ResultSaIS0_EE8capacityEv
	.section	.text._ZNKSt6vectorI6ResultSaIS0_EE4sizeEv,"axG",@progbits,_ZNKSt6vectorI6ResultSaIS0_EE4sizeEv,comdat
	.align 2
	.weak	_ZNKSt6vectorI6ResultSaIS0_EE4sizeEv
	.type	_ZNKSt6vectorI6ResultSaIS0_EE4sizeEv, @function
_ZNKSt6vectorI6ResultSaIS0_EE4sizeEv:
.LFB3642:
	.cfi_startproc
	pushq	%rbp
	.cfi_def_cfa_offset 16
	.cfi_offset 6, -16
	movq	%rsp, %rbp
	.cfi_def_cfa_register 6
	movq	%rdi, -24(%rbp)
	movq	-24(%rbp), %rax
	movq	8(%rax), %rdx
	movq	-24(%rbp), %rax
	movq	(%rax), %rax
	subq	%rax, %rdx
	movq	%rdx, %rax
	sarq	$5, %rax
	movq	%rax, -8(%rbp)
	cmpq	$0, -8(%rbp)
	movq	-8(%rbp), %rax
	popq	%rbp
	.cfi_def_cfa 7, 8
	ret
	.cfi_endproc
.LFE3642:
	.size	_ZNKSt6vectorI6ResultSaIS0_EE4sizeEv, .-_ZNKSt6vectorI6ResultSaIS0_EE4sizeEv
	.section	.text._ZNSt12_Vector_baseI6ResultSaIS0_EE11_M_allocateEm,"axG",@progbits,_ZNSt12_Vector_baseI6ResultSaIS0_EE11_M_allocateEm,comdat
	.align 2
	.weak	_ZNSt12_Vector_baseI6ResultSaIS0_EE11_M_allocateEm
	.type	_ZNSt12_Vector_baseI6ResultSaIS0_EE11_M_allocateEm, @function
_ZNSt12_Vector_baseI6ResultSaIS0_EE11_M_allocateEm:
.LFB3643:
	.cfi_startproc
	pushq	%rbp
	.cfi_def_cfa_offset 16
	.cfi_offset 6, -16
	movq	%rsp, %rbp
	.cfi_def_cfa_register 6
	subq	$32, %rsp
	movq	%rdi, -24(%rbp)
	movq	%rsi, -32(%rbp)
	cmpq	$0, -32(%rbp)
	je	.L339
	movq	-24(%rbp), %rax
	movq	%rax, -16(%rbp)
	movq	-32(%rbp), %rax
	movq	%rax, -8(%rbp)
	movq	-8(%rbp), %rcx
	movq	-16(%rbp), %rax
	movl	$0, %edx
	movq	%rcx, %rsi
	movq	%rax, %rdi
	call	_ZNSt15__new_allocatorI6ResultE8allocateEmPKv
	nop
	jmp	.L341
.L339:
	movl	$0, %eax
.L341:
	leave
	.cfi_def_cfa 7, 8
	ret
	.cfi_endproc
.LFE3643:
	.size	_ZNSt12_Vector_baseI6ResultSaIS0_EE11_M_allocateEm, .-_ZNSt12_Vector_baseI6ResultSaIS0_EE11_M_allocateEm
	.section	.text._ZNSt6vectorI6ResultSaIS0_EE11_S_relocateEPS0_S3_S3_RS1_,"axG",@progbits,_ZNSt6vectorI6ResultSaIS0_EE11_S_relocateEPS0_S3_S3_RS1_,comdat
	.weak	_ZNSt6vectorI6ResultSaIS0_EE11_S_relocateEPS0_S3_S3_RS1_
	.type	_ZNSt6vectorI6ResultSaIS0_EE11_S_relocateEPS0_S3_S3_RS1_, @function
_ZNSt6vectorI6ResultSaIS0_EE11_S_relocateEPS0_S3_S3_RS1_:
.LFB3644:
	.cfi_startproc
	pushq	%rbp
	.cfi_def_cfa_offset 16
	.cfi_offset 6, -16
	movq	%rsp, %rbp
	.cfi_def_cfa_register 6
	subq	$32, %rsp
	movq	%rdi, -8(%rbp)
	movq	%rsi, -16(%rbp)
	movq	%rdx, -24(%rbp)
	movq	%rcx, -32(%rbp)
	movq	-32(%rbp), %rcx
	movq	-24(%rbp), %rdx
	movq	-16(%rbp), %rsi
	movq	-8(%rbp), %rax
	movq	%rax, %rdi
	call	_ZSt12__relocate_aIP6ResultS1_SaIS0_EET0_T_S4_S3_RT1_
	leave
	.cfi_def_cfa 7, 8
	ret
	.cfi_endproc
.LFE3644:
	.size	_ZNSt6vectorI6ResultSaIS0_EE11_S_relocateEPS0_S3_S3_RS1_, .-_ZNSt6vectorI6ResultSaIS0_EE11_S_relocateEPS0_S3_S3_RS1_
	.section	.text._ZNKSt7__cxx1112basic_stringIcSt11char_traitsIcESaIcEE4findEPKcmm,"axG",@progbits,_ZNKSt7__cxx1112basic_stringIcSt11char_traitsIcESaIcEE4findEPKcmm,comdat
	.align 2
	.weak	_ZNKSt7__cxx1112basic_stringIcSt11char_traitsIcESaIcEE4findEPKcmm
	.type	_ZNKSt7__cxx1112basic_stringIcSt11char_traitsIcESaIcEE4findEPKcmm, @function
_ZNKSt7__cxx1112basic_stringIcSt11char_traitsIcESaIcEE4findEPKcmm:
.LFB3666:
	.cfi_startproc
	.cfi_personality 0x9b,DW.ref.__gxx_personality_v0
	.cfi_lsda 0x1b,.LLSDA3666
	pushq	%rbp
	.cfi_def_cfa_offset 16
	.cfi_offset 6, -16
	movq	%rsp, %rbp
	.cfi_def_cfa_register 6
	subq	$96, %rsp
	movq	%rdi, -72(%rbp)
	movq	%rsi, -80(%rbp)
	movq	%rdx, -88(%rbp)
	movq	%rcx, -96(%rbp)
	movq	%fs:40, %rax
	movq	%rax, -8(%rbp)
	xorl	%eax, %eax
	movq	-72(%rbp), %rax
	movq	%rax, %rdi
	call	_ZNKSt7__cxx1112basic_stringIcSt11char_traitsIcESaIcEE4sizeEv
	movq	%rax, -32(%rbp)
	cmpq	$0, -96(%rbp)
	jne	.L346
	movq	-88(%rbp), %rax
	cmpq	%rax, -32(%rbp)
	jb	.L347
	leaq	-88(%rbp), %rax
	movq	(%rax), %rax
	jmp	.L355
.L347:
	movq	$-1, %rax
	jmp	.L355
.L346:
	movq	-88(%rbp), %rax
	cmpq	-32(%rbp), %rax
	jb	.L350
	movq	$-1, %rax
	jmp	.L355
.L350:
	movq	-80(%rbp), %rax
	movzbl	(%rax), %eax
	movb	%al, -49(%rbp)
	movq	-72(%rbp), %rax
	movq	%rax, %rdi
	call	_ZNKSt7__cxx1112basic_stringIcSt11char_traitsIcESaIcEE4dataEv
	movq	%rax, -24(%rbp)
	movq	-88(%rbp), %rdx
	movq	-24(%rbp), %rax
	addq	%rdx, %rax
	movq	%rax, -48(%rbp)
	movq	-24(%rbp), %rdx
	movq	-32(%rbp), %rax
	addq	%rdx, %rax
	movq	%rax, -16(%rbp)
	movq	-88(%rbp), %rax
	movq	-32(%rbp), %rdx
	subq	%rax, %rdx
	movq	%rdx, -40(%rbp)
	jmp	.L351
.L354:
	movq	-40(%rbp), %rax
	subq	-96(%rbp), %rax
	leaq	1(%rax), %rcx
	leaq	-49(%rbp), %rdx
	movq	-48(%rbp), %rax
	movq	%rcx, %rsi
	movq	%rax, %rdi
	call	_ZNSt11char_traitsIcE4findEPKcmRS1_
	movq	%rax, -48(%rbp)
	cmpq	$0, -48(%rbp)
	jne	.L352
	movq	$-1, %rax
	jmp	.L355
.L352:
	movq	-96(%rbp), %rdx
	movq	-80(%rbp), %rcx
	movq	-48(%rbp), %rax
	movq	%rcx, %rsi
	movq	%rax, %rdi
	call	_ZNSt11char_traitsIcE7compareEPKcS2_m
	testl	%eax, %eax
	sete	%al
	testb	%al, %al
	je	.L353
	movq	-48(%rbp), %rax
	subq	-24(%rbp), %rax
	jmp	.L355
.L353:
	addq	$1, -48(%rbp)
	movq	-16(%rbp), %rax
	subq	-48(%rbp), %rax
	movq	%rax, -40(%rbp)
.L351:
	movq	-40(%rbp), %rax
	cmpq	-96(%rbp), %rax
	jnb	.L354
	movq	$-1, %rax
.L355:
	movq	-8(%rbp), %rdx
	subq	%fs:40, %rdx
	je	.L356
	call	__stack_chk_fail@PLT
.L356:
	leave
	.cfi_def_cfa 7, 8
	ret
	.cfi_endproc
.LFE3666:
	.section	.gcc_except_table
.LLSDA3666:
	.byte	0xff
	.byte	0xff
	.byte	0x1
	.uleb128 .LLSDACSE3666-.LLSDACSB3666
.LLSDACSB3666:
.LLSDACSE3666:
	.section	.text._ZNKSt7__cxx1112basic_stringIcSt11char_traitsIcESaIcEE4findEPKcmm,"axG",@progbits,_ZNKSt7__cxx1112basic_stringIcSt11char_traitsIcESaIcEE4findEPKcmm,comdat
	.size	_ZNKSt7__cxx1112basic_stringIcSt11char_traitsIcESaIcEE4findEPKcmm, .-_ZNKSt7__cxx1112basic_stringIcSt11char_traitsIcESaIcEE4findEPKcmm
	.section	.rodata
	.align 8
.LC47:
	.string	"%s: __pos (which is %zu) > this->size() (which is %zu)"
	.section	.text._ZNKSt7__cxx1112basic_stringIcSt11char_traitsIcESaIcEE8_M_checkEmPKc,"axG",@progbits,_ZNKSt7__cxx1112basic_stringIcSt11char_traitsIcESaIcEE8_M_checkEmPKc,comdat
	.align 2
	.weak	_ZNKSt7__cxx1112basic_stringIcSt11char_traitsIcESaIcEE8_M_checkEmPKc
	.type	_ZNKSt7__cxx1112basic_stringIcSt11char_traitsIcESaIcEE8_M_checkEmPKc, @function
_ZNKSt7__cxx1112basic_stringIcSt11char_traitsIcESaIcEE8_M_checkEmPKc:
.LFB3667:
	.cfi_startproc
	pushq	%rbp
	.cfi_def_cfa_offset 16
	.cfi_offset 6, -16
	movq	%rsp, %rbp
	.cfi_def_cfa_register 6
	subq	$32, %rsp
	movq	%rdi, -8(%rbp)
	movq	%rsi, -16(%rbp)
	movq	%rdx, -24(%rbp)
	movq	-8(%rbp), %rax
	movq	%rax, %rdi
	call	_ZNKSt7__cxx1112basic_stringIcSt11char_traitsIcESaIcEE4sizeEv
	cmpq	-16(%rbp), %rax
	setb	%al
	testb	%al, %al
	je	.L358
	movq	-8(%rbp), %rax
	movq	%rax, %rdi
	call	_ZNKSt7__cxx1112basic_stringIcSt11char_traitsIcESaIcEE4sizeEv
	movq	%rax, %rcx
	movq	-16(%rbp), %rdx
	movq	-24(%rbp), %rax
	leaq	.LC47(%rip), %rdi
	movq	%rax, %rsi
	movl	$0, %eax
	call	_ZSt24__throw_out_of_range_fmtPKcz@PLT
.L358:
	movq	-16(%rbp), %rax
	leave
	.cfi_def_cfa 7, 8
	ret
	.cfi_endproc
.LFE3667:
	.size	_ZNKSt7__cxx1112basic_stringIcSt11char_traitsIcESaIcEE8_M_checkEmPKc, .-_ZNKSt7__cxx1112basic_stringIcSt11char_traitsIcESaIcEE8_M_checkEmPKc
	.section	.rodata
.LC48:
	.string	"basic_string::basic_string"
	.section	.text._ZNSt7__cxx1112basic_stringIcSt11char_traitsIcESaIcEEC2ERKS4_mm,"axG",@progbits,_ZNSt7__cxx1112basic_stringIcSt11char_traitsIcESaIcEEC5ERKS4_mm,comdat
	.align 2
	.weak	_ZNSt7__cxx1112basic_stringIcSt11char_traitsIcESaIcEEC2ERKS4_mm
	.type	_ZNSt7__cxx1112basic_stringIcSt11char_traitsIcESaIcEEC2ERKS4_mm, @function
_ZNSt7__cxx1112basic_stringIcSt11char_traitsIcESaIcEEC2ERKS4_mm:
.LFB3669:
	.cfi_startproc
	.cfi_personality 0x9b,DW.ref.__gxx_personality_v0
	.cfi_lsda 0x1b,.LLSDA3669
	pushq	%rbp
	.cfi_def_cfa_offset 16
	.cfi_offset 6, -16
	movq	%rsp, %rbp
	.cfi_def_cfa_register 6
	pushq	%rbx
	subq	$72, %rsp
	.cfi_offset 3, -24
	movq	%rdi, -56(%rbp)
	movq	%rsi, -64(%rbp)
	movq	%rdx, -72(%rbp)
	movq	%rcx, -80(%rbp)
	movq	%fs:40, %rax
	movq	%rax, -24(%rbp)
	xorl	%eax, %eax
	movq	-56(%rbp), %rbx
	leaq	-41(%rbp), %rax
	movq	%rax, -32(%rbp)
	nop
	nop
	movq	-56(%rbp), %rax
	movq	%rax, %rdi
	call	_ZNSt7__cxx1112basic_stringIcSt11char_traitsIcESaIcEE13_M_local_dataEv
	movq	%rax, %rcx
	leaq	-41(%rbp), %rax
	movq	%rax, %rdx
	movq	%rcx, %rsi
	movq	%rbx, %rdi
	call	_ZNSt7__cxx1112basic_stringIcSt11char_traitsIcESaIcEE12_Alloc_hiderC1EPcOS3_
	leaq	-41(%rbp), %rax
	movq	%rax, %rdi
	call	_ZNSt15__new_allocatorIcED2Ev
	nop
	movq	-64(%rbp), %rax
	movq	%rax, %rdi
	call	_ZNKSt7__cxx1112basic_stringIcSt11char_traitsIcESaIcEE7_M_dataEv
	movq	%rax, %rbx
	leaq	.LC48(%rip), %rdx
	movq	-72(%rbp), %rcx
	movq	-64(%rbp), %rax
	movq	%rcx, %rsi
	movq	%rax, %rdi
.LEHB20:
	call	_ZNKSt7__cxx1112basic_stringIcSt11char_traitsIcESaIcEE8_M_checkEmPKc
	addq	%rbx, %rax
	movq	%rax, -40(%rbp)
	movq	-80(%rbp), %rdx
	movq	-72(%rbp), %rcx
	movq	-64(%rbp), %rax
	movq	%rcx, %rsi
	movq	%rax, %rdi
	call	_ZNKSt7__cxx1112basic_stringIcSt11char_traitsIcESaIcEE8_M_limitEmm
	movq	-40(%rbp), %rdx
	addq	%rax, %rdx
	movq	-40(%rbp), %rcx
	movq	-56(%rbp), %rax
	movq	%rcx, %rsi
	movq	%rax, %rdi
	call	_ZNSt7__cxx1112basic_stringIcSt11char_traitsIcESaIcEE12_M_constructIPKcEEvT_S8_St20forward_iterator_tag
.LEHE20:
	jmp	.L365
.L364:
	movq	%rax, %rbx
	movq	-56(%rbp), %rax
	movq	%rax, %rdi
	call	_ZNSt7__cxx1112basic_stringIcSt11char_traitsIcESaIcEE12_Alloc_hiderD1Ev
	movq	%rbx, %rax
	movq	-24(%rbp), %rdx
	subq	%fs:40, %rdx
	je	.L362
	call	__stack_chk_fail@PLT
.L362:
	movq	%rax, %rdi
.LEHB21:
	call	_Unwind_Resume@PLT
.LEHE21:
.L365:
	movq	-24(%rbp), %rax
	subq	%fs:40, %rax
	je	.L363
	call	__stack_chk_fail@PLT
.L363:
	movq	-8(%rbp), %rbx
	leave
	.cfi_def_cfa 7, 8
	ret
	.cfi_endproc
.LFE3669:
	.section	.gcc_except_table
.LLSDA3669:
	.byte	0xff
	.byte	0xff
	.byte	0x1
	.uleb128 .LLSDACSE3669-.LLSDACSB3669
.LLSDACSB3669:
	.uleb128 .LEHB20-.LFB3669
	.uleb128 .LEHE20-.LEHB20
	.uleb128 .L364-.LFB3669
	.uleb128 0
	.uleb128 .LEHB21-.LFB3669
	.uleb128 .LEHE21-.LEHB21
	.uleb128 0
	.uleb128 0
.LLSDACSE3669:
	.section	.text._ZNSt7__cxx1112basic_stringIcSt11char_traitsIcESaIcEEC2ERKS4_mm,"axG",@progbits,_ZNSt7__cxx1112basic_stringIcSt11char_traitsIcESaIcEEC5ERKS4_mm,comdat
	.size	_ZNSt7__cxx1112basic_stringIcSt11char_traitsIcESaIcEEC2ERKS4_mm, .-_ZNSt7__cxx1112basic_stringIcSt11char_traitsIcESaIcEEC2ERKS4_mm
	.weak	_ZNSt7__cxx1112basic_stringIcSt11char_traitsIcESaIcEEC1ERKS4_mm
	.set	_ZNSt7__cxx1112basic_stringIcSt11char_traitsIcESaIcEEC1ERKS4_mm,_ZNSt7__cxx1112basic_stringIcSt11char_traitsIcESaIcEEC2ERKS4_mm
	.section	.text._ZNSt7__cxx1112basic_stringIcSt11char_traitsIcESaIcEE10_M_destroyEm,"axG",@progbits,_ZNSt7__cxx1112basic_stringIcSt11char_traitsIcESaIcEE10_M_destroyEm,comdat
	.align 2
	.weak	_ZNSt7__cxx1112basic_stringIcSt11char_traitsIcESaIcEE10_M_destroyEm
	.type	_ZNSt7__cxx1112basic_stringIcSt11char_traitsIcESaIcEE10_M_destroyEm, @function
_ZNSt7__cxx1112basic_stringIcSt11char_traitsIcESaIcEE10_M_destroyEm:
.LFB3672:
	.cfi_startproc
	pushq	%rbp
	.cfi_def_cfa_offset 16
	.cfi_offset 6, -16
	movq	%rsp, %rbp
	.cfi_def_cfa_register 6
	pushq	%r12
	pushq	%rbx
	subq	$48, %rsp
	.cfi_offset 12, -24
	.cfi_offset 3, -32
	movq	%rdi, -56(%rbp)
	movq	%rsi, -64(%rbp)
	movq	-64(%rbp), %rax
	leaq	1(%rax), %r12
	movq	-56(%rbp), %rax
	movq	%rax, %rdi
	call	_ZNKSt7__cxx1112basic_stringIcSt11char_traitsIcESaIcEE7_M_dataEv
	movq	%rax, %rbx
	movq	-56(%rbp), %rax
	movq	%rax, %rdi
	call	_ZNSt7__cxx1112basic_stringIcSt11char_traitsIcESaIcEE16_M_get_allocatorEv
	movq	%rax, -40(%rbp)
	movq	%rbx, -32(%rbp)
	movq	%r12, -24(%rbp)
	movq	-24(%rbp), %rdx
	movq	-32(%rbp), %rcx
	movq	-40(%rbp), %rax
	movq	%rcx, %rsi
	movq	%rax, %rdi
	call	_ZNSt15__new_allocatorIcE10deallocateEPcm
	nop
	nop
	addq	$48, %rsp
	popq	%rbx
	popq	%r12
	popq	%rbp
	.cfi_def_cfa 7, 8
	ret
	.cfi_endproc
.LFE3672:
	.size	_ZNSt7__cxx1112basic_stringIcSt11char_traitsIcESaIcEE10_M_destroyEm, .-_ZNSt7__cxx1112basic_stringIcSt11char_traitsIcESaIcEE10_M_destroyEm
	.section	.text._ZNSt7__cxx1112basic_stringIcSt11char_traitsIcESaIcEE7_S_copyEPcPKcm,"axG",@progbits,_ZNSt7__cxx1112basic_stringIcSt11char_traitsIcESaIcEE7_S_copyEPcPKcm,comdat
	.weak	_ZNSt7__cxx1112basic_stringIcSt11char_traitsIcESaIcEE7_S_copyEPcPKcm
	.type	_ZNSt7__cxx1112basic_stringIcSt11char_traitsIcESaIcEE7_S_copyEPcPKcm, @function
_ZNSt7__cxx1112basic_stringIcSt11char_traitsIcESaIcEE7_S_copyEPcPKcm:
.LFB3675:
	.cfi_startproc
	pushq	%rbp
	.cfi_def_cfa_offset 16
	.cfi_offset 6, -16
	movq	%rsp, %rbp
	.cfi_def_cfa_register 6
	subq	$32, %rsp
	movq	%rdi, -8(%rbp)
	movq	%rsi, -16(%rbp)
	movq	%rdx, -24(%rbp)
	cmpq	$1, -24(%rbp)
	jne	.L368
	movq	-16(%rbp), %rdx
	movq	-8(%rbp), %rax
	movq	%rdx, %rsi
	movq	%rax, %rdi
	call	_ZNSt11char_traitsIcE6assignERcRKc
	jmp	.L370
.L368:
	movq	-24(%rbp), %rdx
	movq	-16(%rbp), %rcx
	movq	-8(%rbp), %rax
	movq	%rcx, %rsi
	movq	%rax, %rdi
	call	_ZNSt11char_traitsIcE4copyEPcPKcm
.L370:
	nop
	leave
	.cfi_def_cfa 7, 8
	ret
	.cfi_endproc
.LFE3675:
	.size	_ZNSt7__cxx1112basic_stringIcSt11char_traitsIcESaIcEE7_S_copyEPcPKcm, .-_ZNSt7__cxx1112basic_stringIcSt11char_traitsIcESaIcEE7_S_copyEPcPKcm
	.section	.text._ZNSt7__cxx1112basic_stringIcSt11char_traitsIcESaIcEE9_M_assignERKS4_,"axG",@progbits,_ZNSt7__cxx1112basic_stringIcSt11char_traitsIcESaIcEE9_M_assignERKS4_,comdat
	.align 2
	.weak	_ZNSt7__cxx1112basic_stringIcSt11char_traitsIcESaIcEE9_M_assignERKS4_
	.type	_ZNSt7__cxx1112basic_stringIcSt11char_traitsIcESaIcEE9_M_assignERKS4_, @function
_ZNSt7__cxx1112basic_stringIcSt11char_traitsIcESaIcEE9_M_assignERKS4_:
.LFB3676:
	.cfi_startproc
	pushq	%rbp
	.cfi_def_cfa_offset 16
	.cfi_offset 6, -16
	movq	%rsp, %rbp
	.cfi_def_cfa_register 6
	pushq	%rbx
	subq	$72, %rsp
	.cfi_offset 3, -24
	movq	%rdi, -72(%rbp)
	movq	%rsi, -80(%rbp)
	movq	%fs:40, %rax
	movq	%rax, -24(%rbp)
	xorl	%eax, %eax
	movq	-80(%rbp), %rax
	movq	%rax, -32(%rbp)
	movq	-32(%rbp), %rax
	cmpq	%rax, -72(%rbp)
	setne	%al
	testb	%al, %al
	je	.L377
	movq	-80(%rbp), %rax
	movq	%rax, %rdi
	call	_ZNKSt7__cxx1112basic_stringIcSt11char_traitsIcESaIcEE6lengthEv
	movq	%rax, -56(%rbp)
	movq	-72(%rbp), %rax
	movq	%rax, %rdi
	call	_ZNKSt7__cxx1112basic_stringIcSt11char_traitsIcESaIcEE8capacityEv
	movq	%rax, -48(%rbp)
	movq	-56(%rbp), %rax
	cmpq	%rax, -48(%rbp)
	jnb	.L374
	movq	-56(%rbp), %rax
	movq	%rax, -64(%rbp)
	movq	-48(%rbp), %rdx
	leaq	-64(%rbp), %rcx
	movq	-72(%rbp), %rax
	movq	%rcx, %rsi
	movq	%rax, %rdi
	call	_ZNSt7__cxx1112basic_stringIcSt11char_traitsIcESaIcEE9_M_createERmm
	movq	%rax, -40(%rbp)
	movq	-72(%rbp), %rax
	movq	%rax, %rdi
	call	_ZNSt7__cxx1112basic_stringIcSt11char_traitsIcESaIcEE10_M_disposeEv
	movq	-40(%rbp), %rdx
	movq	-72(%rbp), %rax
	movq	%rdx, %rsi
	movq	%rax, %rdi
	call	_ZNSt7__cxx1112basic_stringIcSt11char_traitsIcESaIcEE7_M_dataEPc
	movq	-64(%rbp), %rdx
	movq	-72(%rbp), %rax
	movq	%rdx, %rsi
	movq	%rax, %rdi
	call	_ZNSt7__cxx1112basic_stringIcSt11char_traitsIcESaIcEE11_M_capacityEm
.L374:
	cmpq	$0, -56(%rbp)
	je	.L375
	movq	-80(%rbp), %rax
	movq	%rax, %rdi
	call	_ZNKSt7__cxx1112basic_stringIcSt11char_traitsIcESaIcEE7_M_dataEv
	movq	%rax, %rbx
	movq	-72(%rbp), %rax
	movq	%rax, %rdi
	call	_ZNKSt7__cxx1112basic_stringIcSt11char_traitsIcESaIcEE7_M_dataEv
	movq	%rax, %rcx
	movq	-56(%rbp), %rax
	movq	%rax, %rdx
	movq	%rbx, %rsi
	movq	%rcx, %rdi
	call	_ZNSt7__cxx1112basic_stringIcSt11char_traitsIcESaIcEE7_S_copyEPcPKcm
.L375:
	movq	-56(%rbp), %rdx
	movq	-72(%rbp), %rax
	movq	%rdx, %rsi
	movq	%rax, %rdi
	call	_ZNSt7__cxx1112basic_stringIcSt11char_traitsIcESaIcEE13_M_set_lengthEm
.L377:
	nop
	movq	-24(%rbp), %rax
	subq	%fs:40, %rax
	je	.L376
	call	__stack_chk_fail@PLT
.L376:
	movq	-8(%rbp), %rbx
	leave
	.cfi_def_cfa 7, 8
	ret
	.cfi_endproc
.LFE3676:
	.size	_ZNSt7__cxx1112basic_stringIcSt11char_traitsIcESaIcEE9_M_assignERKS4_, .-_ZNSt7__cxx1112basic_stringIcSt11char_traitsIcESaIcEE9_M_assignERKS4_
	.section	.text._ZNSt7__cxx1112basic_stringIcSt11char_traitsIcESaIcEE5clearEv,"axG",@progbits,_ZNSt7__cxx1112basic_stringIcSt11char_traitsIcESaIcEE5clearEv,comdat
	.align 2
	.weak	_ZNSt7__cxx1112basic_stringIcSt11char_traitsIcESaIcEE5clearEv
	.type	_ZNSt7__cxx1112basic_stringIcSt11char_traitsIcESaIcEE5clearEv, @function
_ZNSt7__cxx1112basic_stringIcSt11char_traitsIcESaIcEE5clearEv:
.LFB3677:
	.cfi_startproc
	pushq	%rbp
	.cfi_def_cfa_offset 16
	.cfi_offset 6, -16
	movq	%rsp, %rbp
	.cfi_def_cfa_register 6
	subq	$16, %rsp
	movq	%rdi, -8(%rbp)
	movq	-8(%rbp), %rax
	movl	$0, %esi
	movq	%rax, %rdi
	call	_ZNSt7__cxx1112basic_stringIcSt11char_traitsIcESaIcEE13_M_set_lengthEm
	nop
	leave
	.cfi_def_cfa 7, 8
	ret
	.cfi_endproc
.LFE3677:
	.size	_ZNSt7__cxx1112basic_stringIcSt11char_traitsIcESaIcEE5clearEv, .-_ZNSt7__cxx1112basic_stringIcSt11char_traitsIcESaIcEE5clearEv
	.section	.text._ZNSt7__cxx1112basic_stringIcSt11char_traitsIcESaIcEE6assignEPKc,"axG",@progbits,_ZNSt7__cxx1112basic_stringIcSt11char_traitsIcESaIcEE6assignEPKc,comdat
	.align 2
	.weak	_ZNSt7__cxx1112basic_stringIcSt11char_traitsIcESaIcEE6assignEPKc
	.type	_ZNSt7__cxx1112basic_stringIcSt11char_traitsIcESaIcEE6assignEPKc, @function
_ZNSt7__cxx1112basic_stringIcSt11char_traitsIcESaIcEE6assignEPKc:
.LFB3678:
	.cfi_startproc
	pushq	%rbp
	.cfi_def_cfa_offset 16
	.cfi_offset 6, -16
	movq	%rsp, %rbp
	.cfi_def_cfa_register 6
	pushq	%rbx
	subq	$24, %rsp
	.cfi_offset 3, -24
	movq	%rdi, -24(%rbp)
	movq	%rsi, -32(%rbp)
	movq	-32(%rbp), %rax
	movq	%rax, %rdi
	call	_ZNSt11char_traitsIcE6lengthEPKc
	movq	%rax, %rbx
	movq	-24(%rbp), %rax
	movq	%rax, %rdi
	call	_ZNKSt7__cxx1112basic_stringIcSt11char_traitsIcESaIcEE4sizeEv
	movq	%rax, %rsi
	movq	-32(%rbp), %rdx
	movq	-24(%rbp), %rax
	movq	%rbx, %r8
	movq	%rdx, %rcx
	movq	%rsi, %rdx
	movl	$0, %esi
	movq	%rax, %rdi
	call	_ZNSt7__cxx1112basic_stringIcSt11char_traitsIcESaIcEE10_M_replaceEmmPKcm
	movq	-8(%rbp), %rbx
	leave
	.cfi_def_cfa 7, 8
	ret
	.cfi_endproc
.LFE3678:
	.size	_ZNSt7__cxx1112basic_stringIcSt11char_traitsIcESaIcEE6assignEPKc, .-_ZNSt7__cxx1112basic_stringIcSt11char_traitsIcESaIcEE6assignEPKc
	.section	.rodata
.LC49:
	.string	"__pos <= size()"
	.align 8
.LC50:
	.ascii	"std::__cxx11::bas"
	.string	"ic_string<_CharT, _Traits, _Alloc>::reference std::__cxx11::basic_string<_CharT, _Traits, _Alloc>::operator[](size_type) [with _CharT = char; _Traits = std::char_traits<char>; _Alloc = std::allocator<char>; reference = char&; size_type = long unsigned int]"
	.section	.text._ZNSt7__cxx1112basic_stringIcSt11char_traitsIcESaIcEEixEm,"axG",@progbits,_ZNSt7__cxx1112basic_stringIcSt11char_traitsIcESaIcEEixEm,comdat
	.align 2
	.weak	_ZNSt7__cxx1112basic_stringIcSt11char_traitsIcESaIcEEixEm
	.type	_ZNSt7__cxx1112basic_stringIcSt11char_traitsIcESaIcEEixEm, @function
_ZNSt7__cxx1112basic_stringIcSt11char_traitsIcESaIcEEixEm:
.LFB3679:
	.cfi_startproc
	pushq	%rbp
	.cfi_def_cfa_offset 16
	.cfi_offset 6, -16
	movq	%rsp, %rbp
	.cfi_def_cfa_register 6
	subq	$16, %rsp
	movq	%rdi, -8(%rbp)
	movq	%rsi, -16(%rbp)
	movq	-8(%rbp), %rax
	movq	%rax, %rdi
	call	_ZNKSt7__cxx1112basic_stringIcSt11char_traitsIcESaIcEE4sizeEv
	cmpq	-16(%rbp), %rax
	setb	%al
	movzbl	%al, %eax
	testq	%rax, %rax
	setne	%al
	testb	%al, %al
	je	.L382
	leaq	.LC49(%rip), %rcx
	leaq	.LC50(%rip), %rdx
	leaq	.LC45(%rip), %rax
	movl	$1369, %esi
	movq	%rax, %rdi
	call	_ZSt21__glibcxx_assert_failPKciS0_S0_@PLT
.L382:
	movq	-8(%rbp), %rax
	movq	%rax, %rdi
	call	_ZNKSt7__cxx1112basic_stringIcSt11char_traitsIcESaIcEE7_M_dataEv
	movq	-16(%rbp), %rdx
	addq	%rdx, %rax
	leave
	.cfi_def_cfa 7, 8
	ret
	.cfi_endproc
.LFE3679:
	.size	_ZNSt7__cxx1112basic_stringIcSt11char_traitsIcESaIcEEixEm, .-_ZNSt7__cxx1112basic_stringIcSt11char_traitsIcESaIcEEixEm
	.section	.text._ZNSt7__cxx1112basic_stringIcSt11char_traitsIcESaIcEE8_M_eraseEmm,"axG",@progbits,_ZNSt7__cxx1112basic_stringIcSt11char_traitsIcESaIcEE8_M_eraseEmm,comdat
	.align 2
	.weak	_ZNSt7__cxx1112basic_stringIcSt11char_traitsIcESaIcEE8_M_eraseEmm
	.type	_ZNSt7__cxx1112basic_stringIcSt11char_traitsIcESaIcEE8_M_eraseEmm, @function
_ZNSt7__cxx1112basic_stringIcSt11char_traitsIcESaIcEE8_M_eraseEmm:
.LFB3680:
	.cfi_startproc
	pushq	%rbp
	.cfi_def_cfa_offset 16
	.cfi_offset 6, -16
	movq	%rsp, %rbp
	.cfi_def_cfa_register 6
	pushq	%rbx
	subq	$56, %rsp
	.cfi_offset 3, -24
	movq	%rdi, -40(%rbp)
	movq	%rsi, -48(%rbp)
	movq	%rdx, -56(%rbp)
	movq	-40(%rbp), %rax
	movq	%rax, %rdi
	call	_ZNKSt7__cxx1112basic_stringIcSt11char_traitsIcESaIcEE6lengthEv
	subq	-48(%rbp), %rax
	subq	-56(%rbp), %rax
	movq	%rax, -24(%rbp)
	cmpq	$0, -24(%rbp)
	je	.L385
	cmpq	$0, -56(%rbp)
	je	.L385
	movq	-40(%rbp), %rax
	movq	%rax, %rdi
	call	_ZNKSt7__cxx1112basic_stringIcSt11char_traitsIcESaIcEE7_M_dataEv
	movq	-48(%rbp), %rcx
	movq	-56(%rbp), %rdx
	addq	%rcx, %rdx
	leaq	(%rax,%rdx), %rbx
	movq	-40(%rbp), %rax
	movq	%rax, %rdi
	call	_ZNKSt7__cxx1112basic_stringIcSt11char_traitsIcESaIcEE7_M_dataEv
	movq	-48(%rbp), %rdx
	leaq	(%rax,%rdx), %rcx
	movq	-24(%rbp), %rax
	movq	%rax, %rdx
	movq	%rbx, %rsi
	movq	%rcx, %rdi
	call	_ZNSt7__cxx1112basic_stringIcSt11char_traitsIcESaIcEE7_S_moveEPcPKcm
.L385:
	movq	-40(%rbp), %rax
	movq	%rax, %rdi
	call	_ZNKSt7__cxx1112basic_stringIcSt11char_traitsIcESaIcEE6lengthEv
	subq	-56(%rbp), %rax
	movq	%rax, %rdx
	movq	-40(%rbp), %rax
	movq	%rdx, %rsi
	movq	%rax, %rdi
	call	_ZNSt7__cxx1112basic_stringIcSt11char_traitsIcESaIcEE13_M_set_lengthEm
	nop
	movq	-8(%rbp), %rbx
	leave
	.cfi_def_cfa 7, 8
	ret
	.cfi_endproc
.LFE3680:
	.size	_ZNSt7__cxx1112basic_stringIcSt11char_traitsIcESaIcEE8_M_eraseEmm, .-_ZNSt7__cxx1112basic_stringIcSt11char_traitsIcESaIcEE8_M_eraseEmm
	.section	.text._ZNSt6chrono8durationIdSt5ratioILl1ELl1EEEC2IlS1_ILl1ELl1000000000EEvEERKNS0_IT_T0_EE,"axG",@progbits,_ZNSt6chrono8durationIdSt5ratioILl1ELl1EEEC5IlS1_ILl1ELl1000000000EEvEERKNS0_IT_T0_EE,comdat
	.align 2
	.weak	_ZNSt6chrono8durationIdSt5ratioILl1ELl1EEEC2IlS1_ILl1ELl1000000000EEvEERKNS0_IT_T0_EE
	.type	_ZNSt6chrono8durationIdSt5ratioILl1ELl1EEEC2IlS1_ILl1ELl1000000000EEvEERKNS0_IT_T0_EE, @function
_ZNSt6chrono8durationIdSt5ratioILl1ELl1EEEC2IlS1_ILl1ELl1000000000EEvEERKNS0_IT_T0_EE:
.LFB3685:
	.cfi_startproc
	pushq	%rbp
	.cfi_def_cfa_offset 16
	.cfi_offset 6, -16
	movq	%rsp, %rbp
	.cfi_def_cfa_register 6
	subq	$32, %rsp
	movq	%rdi, -24(%rbp)
	movq	%rsi, -32(%rbp)
	movq	%fs:40, %rax
	movq	%rax, -8(%rbp)
	xorl	%eax, %eax
	movq	-32(%rbp), %rax
	movq	%rax, %rdi
	call	_ZNSt6chrono13duration_castINS_8durationIdSt5ratioILl1ELl1EEEElS2_ILl1ELl1000000000EEEENSt9enable_ifIXsrNS_13__is_durationIT_EE5valueES8_E4typeERKNS1_IT0_T1_EE
	movsd	%xmm0, -16(%rbp)
	leaq	-16(%rbp), %rax
	movq	%rax, %rdi
	call	_ZNKSt6chrono8durationIdSt5ratioILl1ELl1EEE5countEv
	movq	%xmm0, %rax
	movq	-24(%rbp), %rdx
	movq	%rax, (%rdx)
	nop
	movq	-8(%rbp), %rax
	subq	%fs:40, %rax
	je	.L387
	call	__stack_chk_fail@PLT
.L387:
	leave
	.cfi_def_cfa 7, 8
	ret
	.cfi_endproc
.LFE3685:
	.size	_ZNSt6chrono8durationIdSt5ratioILl1ELl1EEEC2IlS1_ILl1ELl1000000000EEvEERKNS0_IT_T0_EE, .-_ZNSt6chrono8durationIdSt5ratioILl1ELl1EEEC2IlS1_ILl1ELl1000000000EEvEERKNS0_IT_T0_EE
	.weak	_ZNSt6chrono8durationIdSt5ratioILl1ELl1EEEC1IlS1_ILl1ELl1000000000EEvEERKNS0_IT_T0_EE
	.set	_ZNSt6chrono8durationIdSt5ratioILl1ELl1EEEC1IlS1_ILl1ELl1000000000EEvEERKNS0_IT_T0_EE,_ZNSt6chrono8durationIdSt5ratioILl1ELl1EEEC2IlS1_ILl1ELl1000000000EEvEERKNS0_IT_T0_EE
	.section	.text._ZNSt6chronomiIlSt5ratioILl1ELl1000000000EElS2_EENSt11common_typeIJNS_8durationIT_T0_EENS4_IT1_T2_EEEE4typeERKS7_RKSA_,"axG",@progbits,_ZNSt6chronomiIlSt5ratioILl1ELl1000000000EElS2_EENSt11common_typeIJNS_8durationIT_T0_EENS4_IT1_T2_EEEE4typeERKS7_RKSA_,comdat
	.weak	_ZNSt6chronomiIlSt5ratioILl1ELl1000000000EElS2_EENSt11common_typeIJNS_8durationIT_T0_EENS4_IT1_T2_EEEE4typeERKS7_RKSA_
	.type	_ZNSt6chronomiIlSt5ratioILl1ELl1000000000EElS2_EENSt11common_typeIJNS_8durationIT_T0_EENS4_IT1_T2_EEEE4typeERKS7_RKSA_, @function
_ZNSt6chronomiIlSt5ratioILl1ELl1000000000EElS2_EENSt11common_typeIJNS_8durationIT_T0_EENS4_IT1_T2_EEEE4typeERKS7_RKSA_:
.LFB3687:
	.cfi_startproc
	pushq	%rbp
	.cfi_def_cfa_offset 16
	.cfi_offset 6, -16
	movq	%rsp, %rbp
	.cfi_def_cfa_register 6
	pushq	%rbx
	subq	$72, %rsp
	.cfi_offset 3, -24
	movq	%rdi, -72(%rbp)
	movq	%rsi, -80(%rbp)
	movq	%fs:40, %rax
	movq	%rax, -24(%rbp)
	xorl	%eax, %eax
	movq	-72(%rbp), %rax
	movq	(%rax), %rax
	movq	%rax, -56(%rbp)
	leaq	-56(%rbp), %rax
	movq	%rax, %rdi
	call	_ZNKSt6chrono8durationIlSt5ratioILl1ELl1000000000EEE5countEv
	movq	%rax, %rbx
	movq	-80(%rbp), %rax
	movq	(%rax), %rax
	movq	%rax, -48(%rbp)
	leaq	-48(%rbp), %rax
	movq	%rax, %rdi
	call	_ZNKSt6chrono8durationIlSt5ratioILl1ELl1000000000EEE5countEv
	subq	%rax, %rbx
	movq	%rbx, %rdx
	movq	%rdx, -40(%rbp)
	leaq	-40(%rbp), %rdx
	leaq	-32(%rbp), %rax
	movq	%rdx, %rsi
	movq	%rax, %rdi
	call	_ZNSt6chrono8durationIlSt5ratioILl1ELl1000000000EEEC1IlvEERKT_
	movq	-32(%rbp), %rax
	movq	-24(%rbp), %rdx
	subq	%fs:40, %rdx
	je	.L390
	call	__stack_chk_fail@PLT
.L390:
	movq	-8(%rbp), %rbx
	leave
	.cfi_def_cfa 7, 8
	ret
	.cfi_endproc
.LFE3687:
	.size	_ZNSt6chronomiIlSt5ratioILl1ELl1000000000EElS2_EENSt11common_typeIJNS_8durationIT_T0_EENS4_IT1_T2_EEEE4typeERKS7_RKSA_, .-_ZNSt6chronomiIlSt5ratioILl1ELl1000000000EElS2_EENSt11common_typeIJNS_8durationIT_T0_EENS4_IT1_T2_EEEE4typeERKS7_RKSA_
	.section	.text._ZNKSt6chrono8durationIdSt5ratioILl1ELl1EEE5countEv,"axG",@progbits,_ZNKSt6chrono8durationIdSt5ratioILl1ELl1EEE5countEv,comdat
	.align 2
	.weak	_ZNKSt6chrono8durationIdSt5ratioILl1ELl1EEE5countEv
	.type	_ZNKSt6chrono8durationIdSt5ratioILl1ELl1EEE5countEv, @function
_ZNKSt6chrono8durationIdSt5ratioILl1ELl1EEE5countEv:
.LFB3688:
	.cfi_startproc
	pushq	%rbp
	.cfi_def_cfa_offset 16
	.cfi_offset 6, -16
	movq	%rsp, %rbp
	.cfi_def_cfa_register 6
	movq	%rdi, -8(%rbp)
	movq	-8(%rbp), %rax
	movsd	(%rax), %xmm0
	popq	%rbp
	.cfi_def_cfa 7, 8
	ret
	.cfi_endproc
.LFE3688:
	.size	_ZNKSt6chrono8durationIdSt5ratioILl1ELl1EEE5countEv, .-_ZNKSt6chrono8durationIdSt5ratioILl1ELl1EEE5countEv
	.section	.text._ZNSt6vectorI6ResultSaIS0_EE12emplace_backIJS0_EEERS0_DpOT_,"axG",@progbits,_ZNSt6vectorI6ResultSaIS0_EE12emplace_backIJS0_EEERS0_DpOT_,comdat
	.align 2
	.weak	_ZNSt6vectorI6ResultSaIS0_EE12emplace_backIJS0_EEERS0_DpOT_
	.type	_ZNSt6vectorI6ResultSaIS0_EE12emplace_backIJS0_EEERS0_DpOT_, @function
_ZNSt6vectorI6ResultSaIS0_EE12emplace_backIJS0_EEERS0_DpOT_:
.LFB3690:
	.cfi_startproc
	pushq	%rbp
	.cfi_def_cfa_offset 16
	.cfi_offset 6, -16
	movq	%rsp, %rbp
	.cfi_def_cfa_register 6
	pushq	%r12
	pushq	%rbx
	subq	$96, %rsp
	.cfi_offset 12, -24
	.cfi_offset 3, -32
	movq	%rdi, -104(%rbp)
	movq	%rsi, -112(%rbp)
	movq	-104(%rbp), %rax
	movq	8(%rax), %rdx
	movq	-104(%rbp), %rax
	movq	16(%rax), %rax
	cmpq	%rax, %rdx
	je	.L394
	movq	-112(%rbp), %rax
	movq	%rax, -32(%rbp)
	movq	-32(%rbp), %rax
	movq	-104(%rbp), %rdx
	movq	8(%rdx), %rdx
	movq	-104(%rbp), %rcx
	movq	%rcx, -96(%rbp)
	movq	%rdx, -88(%rbp)
	movq	%rax, -80(%rbp)
	movq	-80(%rbp), %rax
	movq	%rax, -72(%rbp)
	movq	-72(%rbp), %rax
	movq	-88(%rbp), %rdx
	movq	%rdx, -64(%rbp)
	movq	%rax, -56(%rbp)
	movq	-96(%rbp), %rax
	movq	%rax, -48(%rbp)
	movq	-64(%rbp), %r12
	movq	%r12, %rsi
	movl	$32, %edi
	call	_ZnwmPv
	movq	-56(%rbp), %rdx
	movq	%rdx, -40(%rbp)
	movq	-40(%rbp), %rdx
	movq	(%rdx), %rcx
	movq	8(%rdx), %rbx
	movq	%rcx, (%rax)
	movq	%rbx, 8(%rax)
	movq	16(%rdx), %rcx
	movq	24(%rdx), %rbx
	movq	%rcx, 16(%rax)
	movq	%rbx, 24(%rax)
	movl	$0, %edx
	testb	%dl, %dl
	je	.L398
	movq	%r12, %rsi
	movq	%rax, %rdi
	call	_ZdlPvS_
.L398:
	nop
	nop
	movq	-104(%rbp), %rax
	movq	8(%rax), %rax
	leaq	32(%rax), %rdx
	movq	-104(%rbp), %rax
	movq	%rdx, 8(%rax)
	jmp	.L399
.L394:
	movq	-112(%rbp), %rax
	movq	%rax, -24(%rbp)
	movq	-24(%rbp), %rdx
	movq	-104(%rbp), %rax
	movq	%rdx, %rsi
	movq	%rax, %rdi
	call	_ZNSt6vectorI6ResultSaIS0_EE17_M_realloc_appendIJS0_EEEvDpOT_
.L399:
	movq	-104(%rbp), %rax
	movq	%rax, %rdi
	call	_ZNSt6vectorI6ResultSaIS0_EE4backEv
	addq	$96, %rsp
	popq	%rbx
	popq	%r12
	popq	%rbp
	.cfi_def_cfa 7, 8
	ret
	.cfi_endproc
.LFE3690:
	.size	_ZNSt6vectorI6ResultSaIS0_EE12emplace_backIJS0_EEERS0_DpOT_, .-_ZNSt6vectorI6ResultSaIS0_EE12emplace_backIJS0_EEERS0_DpOT_
	.section	.text._ZNSt19__ptr_traits_ptr_toIPccLb0EE10pointer_toERc,"axG",@progbits,_ZNSt19__ptr_traits_ptr_toIPccLb0EE10pointer_toERc,comdat
	.weak	_ZNSt19__ptr_traits_ptr_toIPccLb0EE10pointer_toERc
	.type	_ZNSt19__ptr_traits_ptr_toIPccLb0EE10pointer_toERc, @function
_ZNSt19__ptr_traits_ptr_toIPccLb0EE10pointer_toERc:
.LFB3702:
	.cfi_startproc
	pushq	%rbp
	.cfi_def_cfa_offset 16
	.cfi_offset 6, -16
	movq	%rsp, %rbp
	.cfi_def_cfa_register 6
	movq	%rdi, -24(%rbp)
	movq	-24(%rbp), %rax
	movq	%rax, -16(%rbp)
	movq	-16(%rbp), %rax
	movq	%rax, -8(%rbp)
	movq	-8(%rbp), %rax
	nop
	popq	%rbp
	.cfi_def_cfa 7, 8
	ret
	.cfi_endproc
.LFE3702:
	.size	_ZNSt19__ptr_traits_ptr_toIPccLb0EE10pointer_toERc, .-_ZNSt19__ptr_traits_ptr_toIPccLb0EE10pointer_toERc
	.section	.text._ZNKSt7__cxx1112basic_stringIcSt11char_traitsIcESaIcEE8capacityEv,"axG",@progbits,_ZNKSt7__cxx1112basic_stringIcSt11char_traitsIcESaIcEE8capacityEv,comdat
	.align 2
	.weak	_ZNKSt7__cxx1112basic_stringIcSt11char_traitsIcESaIcEE8capacityEv
	.type	_ZNKSt7__cxx1112basic_stringIcSt11char_traitsIcESaIcEE8capacityEv, @function
_ZNKSt7__cxx1112basic_stringIcSt11char_traitsIcESaIcEE8capacityEv:
.LFB3706:
	.cfi_startproc
	pushq	%rbp
	.cfi_def_cfa_offset 16
	.cfi_offset 6, -16
	movq	%rsp, %rbp
	.cfi_def_cfa_register 6
	subq	$32, %rsp
	movq	%rdi, -24(%rbp)
	movq	-24(%rbp), %rax
	movq	%rax, %rdi
	call	_ZNKSt7__cxx1112basic_stringIcSt11char_traitsIcESaIcEE11_M_is_localEv
	testb	%al, %al
	je	.L407
	movq	$15, -8(%rbp)
	jmp	.L408
.L407:
	movq	-24(%rbp), %rax
	movq	16(%rax), %rax
	movq	%rax, -8(%rbp)
.L408:
	cmpq	$14, -8(%rbp)
	jbe	.L409
	movq	-24(%rbp), %rax
	movq	%rax, %rdi
	call	_ZNKSt7__cxx1112basic_stringIcSt11char_traitsIcESaIcEE8max_sizeEv
	cmpq	-8(%rbp), %rax
	jnb	.L410
.L409:
	movl	$1, %eax
	jmp	.L411
.L410:
	movl	$0, %eax
.L411:
	testb	%al, %al
	movq	-8(%rbp), %rax
	leave
	.cfi_def_cfa 7, 8
	ret
	.cfi_endproc
.LFE3706:
	.size	_ZNKSt7__cxx1112basic_stringIcSt11char_traitsIcESaIcEE8capacityEv, .-_ZNKSt7__cxx1112basic_stringIcSt11char_traitsIcESaIcEE8capacityEv
	.section	.rodata
.LC51:
	.string	"basic_string::_M_create"
	.section	.text._ZNSt7__cxx1112basic_stringIcSt11char_traitsIcESaIcEE9_M_createERmm,"axG",@progbits,_ZNSt7__cxx1112basic_stringIcSt11char_traitsIcESaIcEE9_M_createERmm,comdat
	.align 2
	.weak	_ZNSt7__cxx1112basic_stringIcSt11char_traitsIcESaIcEE9_M_createERmm
	.type	_ZNSt7__cxx1112basic_stringIcSt11char_traitsIcESaIcEE9_M_createERmm, @function
_ZNSt7__cxx1112basic_stringIcSt11char_traitsIcESaIcEE9_M_createERmm:
.LFB3707:
	.cfi_startproc
	pushq	%rbp
	.cfi_def_cfa_offset 16
	.cfi_offset 6, -16
	movq	%rsp, %rbp
	.cfi_def_cfa_register 6
	pushq	%rbx
	subq	$40, %rsp
	.cfi_offset 3, -24
	movq	%rdi, -24(%rbp)
	movq	%rsi, -32(%rbp)
	movq	%rdx, -40(%rbp)
	movq	-32(%rbp), %rax
	movq	(%rax), %rbx
	movq	-24(%rbp), %rax
	movq	%rax, %rdi
	call	_ZNKSt7__cxx1112basic_stringIcSt11char_traitsIcESaIcEE8max_sizeEv
	cmpq	%rbx, %rax
	setb	%al
	testb	%al, %al
	je	.L415
	leaq	.LC51(%rip), %rax
	movq	%rax, %rdi
	call	_ZSt20__throw_length_errorPKc@PLT
.L415:
	movq	-32(%rbp), %rax
	movq	(%rax), %rax
	cmpq	%rax, -40(%rbp)
	jnb	.L416
	movq	-32(%rbp), %rax
	movq	(%rax), %rdx
	movq	-40(%rbp), %rax
	addq	%rax, %rax
	cmpq	%rax, %rdx
	jnb	.L416
	movq	-40(%rbp), %rax
	leaq	(%rax,%rax), %rdx
	movq	-32(%rbp), %rax
	movq	%rdx, (%rax)
	movq	-32(%rbp), %rax
	movq	(%rax), %rbx
	movq	-24(%rbp), %rax
	movq	%rax, %rdi
	call	_ZNKSt7__cxx1112basic_stringIcSt11char_traitsIcESaIcEE8max_sizeEv
	cmpq	%rbx, %rax
	setb	%al
	testb	%al, %al
	je	.L416
	movq	-24(%rbp), %rax
	movq	%rax, %rdi
	call	_ZNKSt7__cxx1112basic_stringIcSt11char_traitsIcESaIcEE8max_sizeEv
	movq	-32(%rbp), %rdx
	movq	%rax, (%rdx)
.L416:
	movq	-32(%rbp), %rax
	movq	(%rax), %rax
	leaq	1(%rax), %rbx
	movq	-24(%rbp), %rax
	movq	%rax, %rdi
	call	_ZNSt7__cxx1112basic_stringIcSt11char_traitsIcESaIcEE16_M_get_allocatorEv
	movq	%rbx, %rsi
	movq	%rax, %rdi
	call	_ZNSt7__cxx1112basic_stringIcSt11char_traitsIcESaIcEE11_S_allocateERS3_m
	movq	-8(%rbp), %rbx
	leave
	.cfi_def_cfa 7, 8
	ret
	.cfi_endproc
.LFE3707:
	.size	_ZNSt7__cxx1112basic_stringIcSt11char_traitsIcESaIcEE9_M_createERmm, .-_ZNSt7__cxx1112basic_stringIcSt11char_traitsIcESaIcEE9_M_createERmm
	.section	.text._ZNKSt7__cxx1112basic_stringIcSt11char_traitsIcESaIcEE13_M_local_dataEv,"axG",@progbits,_ZNKSt7__cxx1112basic_stringIcSt11char_traitsIcESaIcEE13_M_local_dataEv,comdat
	.align 2
	.weak	_ZNKSt7__cxx1112basic_stringIcSt11char_traitsIcESaIcEE13_M_local_dataEv
	.type	_ZNKSt7__cxx1112basic_stringIcSt11char_traitsIcESaIcEE13_M_local_dataEv, @function
_ZNKSt7__cxx1112basic_stringIcSt11char_traitsIcESaIcEE13_M_local_dataEv:
.LFB3708:
	.cfi_startproc
	pushq	%rbp
	.cfi_def_cfa_offset 16
	.cfi_offset 6, -16
	movq	%rsp, %rbp
	.cfi_def_cfa_register 6
	subq	$16, %rsp
	movq	%rdi, -8(%rbp)
	movq	-8(%rbp), %rax
	addq	$16, %rax
	movq	%rax, %rdi
	call	_ZNSt19__ptr_traits_ptr_toIPKcS0_Lb0EE10pointer_toERS0_
	leave
	.cfi_def_cfa 7, 8
	ret
	.cfi_endproc
.LFE3708:
	.size	_ZNKSt7__cxx1112basic_stringIcSt11char_traitsIcESaIcEE13_M_local_dataEv, .-_ZNKSt7__cxx1112basic_stringIcSt11char_traitsIcESaIcEE13_M_local_dataEv
	.section	.text._ZSt3minImERKT_S2_S2_,"axG",@progbits,_ZSt3minImERKT_S2_S2_,comdat
	.weak	_ZSt3minImERKT_S2_S2_
	.type	_ZSt3minImERKT_S2_S2_, @function
_ZSt3minImERKT_S2_S2_:
.LFB3731:
	.cfi_startproc
	pushq	%rbp
	.cfi_def_cfa_offset 16
	.cfi_offset 6, -16
	movq	%rsp, %rbp
	.cfi_def_cfa_register 6
	movq	%rdi, -8(%rbp)
	movq	%rsi, -16(%rbp)
	movq	-16(%rbp), %rax
	movq	(%rax), %rdx
	movq	-8(%rbp), %rax
	movq	(%rax), %rax
	cmpq	%rax, %rdx
	jnb	.L421
	movq	-16(%rbp), %rax
	jmp	.L422
.L421:
	movq	-8(%rbp), %rax
.L422:
	popq	%rbp
	.cfi_def_cfa 7, 8
	ret
	.cfi_endproc
.LFE3731:
	.size	_ZSt3minImERKT_S2_S2_, .-_ZSt3minImERKT_S2_S2_
	.section	.text._ZNKSt7__cxx1112basic_stringIcSt11char_traitsIcESaIcEE8max_sizeEv,"axG",@progbits,_ZNKSt7__cxx1112basic_stringIcSt11char_traitsIcESaIcEE8max_sizeEv,comdat
	.align 2
	.weak	_ZNKSt7__cxx1112basic_stringIcSt11char_traitsIcESaIcEE8max_sizeEv
	.type	_ZNKSt7__cxx1112basic_stringIcSt11char_traitsIcESaIcEE8max_sizeEv, @function
_ZNKSt7__cxx1112basic_stringIcSt11char_traitsIcESaIcEE8max_sizeEv:
.LFB3730:
	.cfi_startproc
	pushq	%rbp
	.cfi_def_cfa_offset 16
	.cfi_offset 6, -16
	movq	%rsp, %rbp
	.cfi_def_cfa_register 6
	subq	$64, %rsp
	movq	%rdi, -56(%rbp)
	movq	%fs:40, %rax
	movq	%rax, -8(%rbp)
	xorl	%eax, %eax
	movabsq	$9223372036854775807, %rax
	movq	%rax, -48(%rbp)
	movq	-56(%rbp), %rax
	movq	%rax, %rdi
	call	_ZNKSt7__cxx1112basic_stringIcSt11char_traitsIcESaIcEE16_M_get_allocatorEv
	movq	%rax, -32(%rbp)
	movq	-32(%rbp), %rax
	movq	%rax, -24(%rbp)
	movq	-24(%rbp), %rax
	movq	%rax, -16(%rbp)
	movabsq	$9223372036854775807, %rax
	nop
	nop
	movq	%rax, -40(%rbp)
	leaq	-40(%rbp), %rdx
	leaq	-48(%rbp), %rax
	movq	%rdx, %rsi
	movq	%rax, %rdi
	call	_ZSt3minImERKT_S2_S2_
	movq	(%rax), %rax
	subq	$1, %rax
	movq	-8(%rbp), %rdx
	subq	%fs:40, %rdx
	je	.L428
	call	__stack_chk_fail@PLT
.L428:
	leave
	.cfi_def_cfa 7, 8
	ret
	.cfi_endproc
.LFE3730:
	.size	_ZNKSt7__cxx1112basic_stringIcSt11char_traitsIcESaIcEE8max_sizeEv, .-_ZNKSt7__cxx1112basic_stringIcSt11char_traitsIcESaIcEE8max_sizeEv
	.section	.text._ZNSt7__cxx1112basic_stringIcSt11char_traitsIcESaIcEE13_S_copy_charsIPKcEEvPcT_S9_,"axG",@progbits,_ZNSt7__cxx1112basic_stringIcSt11char_traitsIcESaIcEE13_S_copy_charsIPKcEEvPcT_S9_,comdat
	.weak	_ZNSt7__cxx1112basic_stringIcSt11char_traitsIcESaIcEE13_S_copy_charsIPKcEEvPcT_S9_
	.type	_ZNSt7__cxx1112basic_stringIcSt11char_traitsIcESaIcEE13_S_copy_charsIPKcEEvPcT_S9_, @function
_ZNSt7__cxx1112basic_stringIcSt11char_traitsIcESaIcEE13_S_copy_charsIPKcEEvPcT_S9_:
.LFB3732:
	.cfi_startproc
	pushq	%rbp
	.cfi_def_cfa_offset 16
	.cfi_offset 6, -16
	movq	%rsp, %rbp
	.cfi_def_cfa_register 6
	subq	$48, %rsp
	movq	%rdi, -24(%rbp)
	movq	%rsi, -32(%rbp)
	movq	%rdx, -40(%rbp)
	movq	-40(%rbp), %rax
	subq	-32(%rbp), %rax
	movq	%rax, %rdx
	movq	-32(%rbp), %rax
	movq	%rax, -8(%rbp)
	movq	-8(%rbp), %rcx
	movq	-24(%rbp), %rax
	movq	%rcx, %rsi
	movq	%rax, %rdi
	call	_ZNSt7__cxx1112basic_stringIcSt11char_traitsIcESaIcEE7_S_copyEPcPKcm
	nop
	leave
	.cfi_def_cfa 7, 8
	ret
	.cfi_endproc
.LFE3732:
	.size	_ZNSt7__cxx1112basic_stringIcSt11char_traitsIcESaIcEE13_S_copy_charsIPKcEEvPcT_S9_, .-_ZNSt7__cxx1112basic_stringIcSt11char_traitsIcESaIcEE13_S_copy_charsIPKcEEvPcT_S9_
	.section	.text._ZSt8_DestroyIPlEvT_S1_,"axG",@progbits,_ZSt8_DestroyIPlEvT_S1_,comdat
	.weak	_ZSt8_DestroyIPlEvT_S1_
	.type	_ZSt8_DestroyIPlEvT_S1_, @function
_ZSt8_DestroyIPlEvT_S1_:
.LFB3775:
	.cfi_startproc
	pushq	%rbp
	.cfi_def_cfa_offset 16
	.cfi_offset 6, -16
	movq	%rsp, %rbp
	.cfi_def_cfa_register 6
	movq	%rdi, -8(%rbp)
	movq	%rsi, -16(%rbp)
	nop
	popq	%rbp
	.cfi_def_cfa 7, 8
	ret
	.cfi_endproc
.LFE3775:
	.size	_ZSt8_DestroyIPlEvT_S1_, .-_ZSt8_DestroyIPlEvT_S1_
	.section	.rodata
.LC52:
	.string	"vector::_M_realloc_append"
	.section	.text._ZNSt6vectorIlSaIlEE17_M_realloc_appendIJlEEEvDpOT_,"axG",@progbits,_ZNSt6vectorIlSaIlEE17_M_realloc_appendIJlEEEvDpOT_,comdat
	.align 2
	.weak	_ZNSt6vectorIlSaIlEE17_M_realloc_appendIJlEEEvDpOT_
	.type	_ZNSt6vectorIlSaIlEE17_M_realloc_appendIJlEEEvDpOT_, @function
_ZNSt6vectorIlSaIlEE17_M_realloc_appendIJlEEEvDpOT_:
.LFB3778:
	.cfi_startproc
	pushq	%rbp
	.cfi_def_cfa_offset 16
	.cfi_offset 6, -16
	movq	%rsp, %rbp
	.cfi_def_cfa_register 6
	pushq	%rbx
	subq	$216, %rsp
	.cfi_offset 3, -24
	movq	%rdi, -216(%rbp)
	movq	%rsi, -224(%rbp)
	movq	%fs:40, %rax
	movq	%rax, -24(%rbp)
	xorl	%eax, %eax
	leaq	.LC52(%rip), %rdx
	movq	-216(%rbp), %rax
	movl	$1, %esi
	movq	%rax, %rdi
	call	_ZNKSt6vectorIlSaIlEE12_M_check_lenEmPKc
	movq	%rax, -192(%rbp)
	cmpq	$0, -192(%rbp)
	movq	-216(%rbp), %rax
	movq	(%rax), %rax
	movq	%rax, -184(%rbp)
	movq	-216(%rbp), %rax
	movq	8(%rax), %rax
	movq	%rax, -176(%rbp)
	movq	-216(%rbp), %rax
	movq	%rax, %rdi
	call	_ZNSt6vectorIlSaIlEE5beginEv
	movq	%rax, -48(%rbp)
	movq	-216(%rbp), %rax
	movq	%rax, %rdi
	call	_ZNSt6vectorIlSaIlEE3endEv
	movq	%rax, -200(%rbp)
	leaq	-200(%rbp), %rax
	movq	%rax, -64(%rbp)
	movq	-64(%rbp), %rax
	movq	(%rax), %rdx
	leaq	-48(%rbp), %rax
	movq	%rax, -56(%rbp)
	movq	-56(%rbp), %rax
	movq	(%rax), %rax
	subq	%rax, %rdx
	movq	%rdx, %rax
	sarq	$3, %rax
	movq	%rax, -168(%rbp)
	movq	-216(%rbp), %rax
	movq	-192(%rbp), %rdx
	movq	%rdx, %rsi
	movq	%rax, %rdi
	call	_ZNSt12_Vector_baseIlSaIlEE11_M_allocateEm
	movq	%rax, -160(%rbp)
	movq	-160(%rbp), %rax
	movq	%rax, -152(%rbp)
	movq	-216(%rbp), %rcx
	movq	-192(%rbp), %rdx
	movq	-160(%rbp), %rsi
	leaq	-48(%rbp), %rax
	movq	%rax, %rdi
	call	_ZNSt6vectorIlSaIlEE12_Guard_allocC1EPlmRSt12_Vector_baseIlS0_E
	movq	-224(%rbp), %rax
	movq	%rax, -72(%rbp)
	movq	-72(%rbp), %rax
	movq	-168(%rbp), %rdx
	leaq	0(,%rdx,8), %rcx
	movq	-160(%rbp), %rdx
	addq	%rcx, %rdx
	movq	%rdx, -80(%rbp)
	movq	-80(%rbp), %rdx
	movq	-216(%rbp), %rcx
	movq	%rcx, -144(%rbp)
	movq	%rdx, -136(%rbp)
	movq	%rax, -128(%rbp)
	movq	-128(%rbp), %rax
	movq	%rax, -120(%rbp)
	movq	-120(%rbp), %rax
	movq	-136(%rbp), %rdx
	movq	%rdx, -112(%rbp)
	movq	%rax, -104(%rbp)
	movq	-144(%rbp), %rax
	movq	%rax, -96(%rbp)
	movq	-112(%rbp), %rbx
	movq	%rbx, %rsi
	movl	$8, %edi
	call	_ZnwmPv
	movq	-104(%rbp), %rdx
	movq	%rdx, -88(%rbp)
	movq	-88(%rbp), %rdx
	movq	(%rdx), %rdx
	movq	%rdx, (%rax)
	movl	$0, %edx
	testb	%dl, %dl
	je	.L441
	movq	%rbx, %rsi
	movq	%rax, %rdi
	call	_ZdlPvS_
.L441:
	nop
	nop
	movq	-216(%rbp), %rax
	movq	%rax, %rdi
	call	_ZNSt12_Vector_baseIlSaIlEE19_M_get_Tp_allocatorEv
	movq	%rax, %rcx
	movq	-160(%rbp), %rdx
	movq	-176(%rbp), %rsi
	movq	-184(%rbp), %rax
	movq	%rax, %rdi
	call	_ZNSt6vectorIlSaIlEE11_S_relocateEPlS2_S2_RS0_
	movq	%rax, -152(%rbp)
	addq	$8, -152(%rbp)
	movq	-184(%rbp), %rax
	movq	%rax, -48(%rbp)
	movq	-216(%rbp), %rax
	movq	16(%rax), %rax
	subq	-184(%rbp), %rax
	sarq	$3, %rax
	movq	%rax, -40(%rbp)
	leaq	-48(%rbp), %rax
	movq	%rax, %rdi
	call	_ZNSt6vectorIlSaIlEE12_Guard_allocD1Ev
	movq	-216(%rbp), %rax
	movq	-160(%rbp), %rdx
	movq	%rdx, (%rax)
	movq	-216(%rbp), %rax
	movq	-152(%rbp), %rdx
	movq	%rdx, 8(%rax)
	movq	-192(%rbp), %rax
	leaq	0(,%rax,8), %rdx
	movq	-160(%rbp), %rax
	addq	%rax, %rdx
	movq	-216(%rbp), %rax
	movq	%rdx, 16(%rax)
	nop
	movq	-24(%rbp), %rax
	subq	%fs:40, %rax
	je	.L442
	call	__stack_chk_fail@PLT
.L442:
	movq	-8(%rbp), %rbx
	leave
	.cfi_def_cfa 7, 8
	ret
	.cfi_endproc
.LFE3778:
	.size	_ZNSt6vectorIlSaIlEE17_M_realloc_appendIJlEEEvDpOT_, .-_ZNSt6vectorIlSaIlEE17_M_realloc_appendIJlEEEvDpOT_
	.section	.rodata
.LC53:
	.string	"!this->empty()"
	.align 8
.LC54:
	.string	"std::vector<_Tp, _Alloc>::reference std::vector<_Tp, _Alloc>::back() [with _Tp = long int; _Alloc = std::allocator<long int>; reference = long int&]"
	.align 8
.LC55:
	.string	"/usr/include/c++/15.2.1/bits/stl_vector.h"
	.section	.text._ZNSt6vectorIlSaIlEE4backEv,"axG",@progbits,_ZNSt6vectorIlSaIlEE4backEv,comdat
	.align 2
	.weak	_ZNSt6vectorIlSaIlEE4backEv
	.type	_ZNSt6vectorIlSaIlEE4backEv, @function
_ZNSt6vectorIlSaIlEE4backEv:
.LFB3782:
	.cfi_startproc
	pushq	%rbp
	.cfi_def_cfa_offset 16
	.cfi_offset 6, -16
	movq	%rsp, %rbp
	.cfi_def_cfa_register 6
	subq	$64, %rsp
	movq	%rdi, -56(%rbp)
	movq	%fs:40, %rax
	movq	%rax, -8(%rbp)
	xorl	%eax, %eax
	movq	-56(%rbp), %rax
	movq	%rax, %rdi
	call	_ZNKSt6vectorIlSaIlEE5emptyEv
	movzbl	%al, %eax
	testq	%rax, %rax
	setne	%al
	testb	%al, %al
	je	.L444
	leaq	.LC53(%rip), %rcx
	leaq	.LC54(%rip), %rdx
	leaq	.LC55(%rip), %rax
	movl	$1370, %esi
	movq	%rax, %rdi
	call	_ZSt21__glibcxx_assert_failPKciS0_S0_@PLT
.L444:
	movq	-56(%rbp), %rax
	movq	%rax, %rdi
	call	_ZNSt6vectorIlSaIlEE3endEv
	movq	%rax, -40(%rbp)
	movq	$1, -16(%rbp)
	movq	-40(%rbp), %rax
	movq	-16(%rbp), %rdx
	salq	$3, %rdx
	negq	%rdx
	addq	%rdx, %rax
	movq	%rax, -32(%rbp)
	movq	-32(%rbp), %rax
	movq	%rax, -24(%rbp)
	nop
	movq	-24(%rbp), %rax
	movq	%rax, -24(%rbp)
	movq	-24(%rbp), %rax
	movq	-8(%rbp), %rdx
	subq	%fs:40, %rdx
	je	.L448
	call	__stack_chk_fail@PLT
.L448:
	leave
	.cfi_def_cfa 7, 8
	ret
	.cfi_endproc
.LFE3782:
	.size	_ZNSt6vectorIlSaIlEE4backEv, .-_ZNSt6vectorIlSaIlEE4backEv
	.section	.text._ZNKSt16initializer_listIlE4sizeEv,"axG",@progbits,_ZNKSt16initializer_listIlE4sizeEv,comdat
	.align 2
	.weak	_ZNKSt16initializer_listIlE4sizeEv
	.type	_ZNKSt16initializer_listIlE4sizeEv, @function
_ZNKSt16initializer_listIlE4sizeEv:
.LFB3783:
	.cfi_startproc
	pushq	%rbp
	.cfi_def_cfa_offset 16
	.cfi_offset 6, -16
	movq	%rsp, %rbp
	.cfi_def_cfa_register 6
	movq	%rdi, -8(%rbp)
	movq	-8(%rbp), %rax
	movq	8(%rax), %rax
	popq	%rbp
	.cfi_def_cfa 7, 8
	ret
	.cfi_endproc
.LFE3783:
	.size	_ZNKSt16initializer_listIlE4sizeEv, .-_ZNKSt16initializer_listIlE4sizeEv
	.section	.text._ZNKSt6vectorIlSaIlEE8capacityEv,"axG",@progbits,_ZNKSt6vectorIlSaIlEE8capacityEv,comdat
	.align 2
	.weak	_ZNKSt6vectorIlSaIlEE8capacityEv
	.type	_ZNKSt6vectorIlSaIlEE8capacityEv, @function
_ZNKSt6vectorIlSaIlEE8capacityEv:
.LFB3786:
	.cfi_startproc
	pushq	%rbp
	.cfi_def_cfa_offset 16
	.cfi_offset 6, -16
	movq	%rsp, %rbp
	.cfi_def_cfa_register 6
	movq	%rdi, -24(%rbp)
	movq	-24(%rbp), %rax
	movq	16(%rax), %rdx
	movq	-24(%rbp), %rax
	movq	(%rax), %rax
	subq	%rax, %rdx
	movq	%rdx, %rax
	sarq	$3, %rax
	movq	%rax, -8(%rbp)
	cmpq	$0, -8(%rbp)
	movq	-8(%rbp), %rax
	popq	%rbp
	.cfi_def_cfa 7, 8
	ret
	.cfi_endproc
.LFE3786:
	.size	_ZNKSt6vectorIlSaIlEE8capacityEv, .-_ZNKSt6vectorIlSaIlEE8capacityEv
	.section	.rodata
	.align 8
.LC56:
	.string	"cannot create std::vector larger than max_size()"
	.section	.text._ZNSt6vectorIlSaIlEE17_S_check_init_lenEmRKS0_,"axG",@progbits,_ZNSt6vectorIlSaIlEE17_S_check_init_lenEmRKS0_,comdat
	.weak	_ZNSt6vectorIlSaIlEE17_S_check_init_lenEmRKS0_
	.type	_ZNSt6vectorIlSaIlEE17_S_check_init_lenEmRKS0_, @function
_ZNSt6vectorIlSaIlEE17_S_check_init_lenEmRKS0_:
.LFB3787:
	.cfi_startproc
	pushq	%rbp
	.cfi_def_cfa_offset 16
	.cfi_offset 6, -16
	movq	%rsp, %rbp
	.cfi_def_cfa_register 6
	pushq	%rbx
	subq	$72, %rsp
	.cfi_offset 3, -24
	movq	%rdi, -72(%rbp)
	movq	%rsi, -80(%rbp)
	movq	%fs:40, %rax
	movq	%rax, -24(%rbp)
	xorl	%eax, %eax
	movq	-80(%rbp), %rax
	movq	%rax, -48(%rbp)
	leaq	-49(%rbp), %rax
	movq	%rax, -40(%rbp)
	movq	-48(%rbp), %rax
	movq	%rax, -32(%rbp)
	nop
	nop
	leaq	-49(%rbp), %rax
	movq	%rax, %rdi
	call	_ZNSt6vectorIlSaIlEE11_S_max_sizeERKS0_
	cmpq	-72(%rbp), %rax
	setb	%bl
	leaq	-49(%rbp), %rax
	movq	%rax, %rdi
	call	_ZNSt15__new_allocatorIlED2Ev
	nop
	testb	%bl, %bl
	je	.L455
	movq	-24(%rbp), %rax
	subq	%fs:40, %rax
	je	.L456
	call	__stack_chk_fail@PLT
.L456:
	leaq	.LC56(%rip), %rax
	movq	%rax, %rdi
	call	_ZSt20__throw_length_errorPKc@PLT
.L455:
	movq	-72(%rbp), %rax
	movq	-24(%rbp), %rdx
	subq	%fs:40, %rdx
	je	.L458
	call	__stack_chk_fail@PLT
.L458:
	movq	-8(%rbp), %rbx
	leave
	.cfi_def_cfa 7, 8
	ret
	.cfi_endproc
.LFE3787:
	.size	_ZNSt6vectorIlSaIlEE17_S_check_init_lenEmRKS0_, .-_ZNSt6vectorIlSaIlEE17_S_check_init_lenEmRKS0_
	.section	.text._ZNSt6vectorIlSaIlEE20_M_allocate_and_copyIPKlEEPlmT_S6_,"axG",@progbits,_ZNSt6vectorIlSaIlEE20_M_allocate_and_copyIPKlEEPlmT_S6_,comdat
	.align 2
	.weak	_ZNSt6vectorIlSaIlEE20_M_allocate_and_copyIPKlEEPlmT_S6_
	.type	_ZNSt6vectorIlSaIlEE20_M_allocate_and_copyIPKlEEPlmT_S6_, @function
_ZNSt6vectorIlSaIlEE20_M_allocate_and_copyIPKlEEPlmT_S6_:
.LFB3788:
	.cfi_startproc
	.cfi_personality 0x9b,DW.ref.__gxx_personality_v0
	.cfi_lsda 0x1b,.LLSDA3788
	pushq	%rbp
	.cfi_def_cfa_offset 16
	.cfi_offset 6, -16
	movq	%rsp, %rbp
	.cfi_def_cfa_register 6
	pushq	%rbx
	subq	$72, %rsp
	.cfi_offset 3, -24
	movq	%rdi, -56(%rbp)
	movq	%rsi, -64(%rbp)
	movq	%rdx, -72(%rbp)
	movq	%rcx, -80(%rbp)
	movq	%fs:40, %rax
	movq	%rax, -24(%rbp)
	xorl	%eax, %eax
	movq	-56(%rbp), %rbx
	movq	-56(%rbp), %rax
	movq	-64(%rbp), %rdx
	movq	%rdx, %rsi
	movq	%rax, %rdi
.LEHB22:
	call	_ZNSt12_Vector_baseIlSaIlEE11_M_allocateEm
.LEHE22:
	movq	%rax, %rsi
	movq	-64(%rbp), %rdx
	leaq	-48(%rbp), %rax
	movq	%rbx, %rcx
	movq	%rax, %rdi
	call	_ZNSt6vectorIlSaIlEE12_Guard_allocC1EPlmRSt12_Vector_baseIlS0_E
	movq	-56(%rbp), %rax
	movq	%rax, %rdi
	call	_ZNSt12_Vector_baseIlSaIlEE19_M_get_Tp_allocatorEv
	movq	%rax, %rcx
	movq	-48(%rbp), %rdx
	movq	-80(%rbp), %rsi
	movq	-72(%rbp), %rax
	movq	%rax, %rdi
.LEHB23:
	call	_ZSt22__uninitialized_copy_aIPKlS1_PllET1_T_T0_S3_RSaIT2_E
.LEHE23:
	leaq	-48(%rbp), %rax
	movq	%rax, %rdi
	call	_ZNSt6vectorIlSaIlEE12_Guard_alloc10_M_releaseEv
	movq	%rax, %rbx
	nop
	leaq	-48(%rbp), %rax
	movq	%rax, %rdi
	call	_ZNSt6vectorIlSaIlEE12_Guard_allocD1Ev
	movq	%rbx, %rax
	movq	-24(%rbp), %rdx
	subq	%fs:40, %rdx
	je	.L463
	jmp	.L465
.L464:
	movq	%rax, %rbx
	leaq	-48(%rbp), %rax
	movq	%rax, %rdi
	call	_ZNSt6vectorIlSaIlEE12_Guard_allocD1Ev
	movq	%rbx, %rax
	movq	-24(%rbp), %rdx
	subq	%fs:40, %rdx
	je	.L462
	call	__stack_chk_fail@PLT
.L462:
	movq	%rax, %rdi
.LEHB24:
	call	_Unwind_Resume@PLT
.LEHE24:
.L465:
	call	__stack_chk_fail@PLT
.L463:
	movq	-8(%rbp), %rbx
	leave
	.cfi_def_cfa 7, 8
	ret
	.cfi_endproc
.LFE3788:
	.section	.gcc_except_table
.LLSDA3788:
	.byte	0xff
	.byte	0xff
	.byte	0x1
	.uleb128 .LLSDACSE3788-.LLSDACSB3788
.LLSDACSB3788:
	.uleb128 .LEHB22-.LFB3788
	.uleb128 .LEHE22-.LEHB22
	.uleb128 0
	.uleb128 0
	.uleb128 .LEHB23-.LFB3788
	.uleb128 .LEHE23-.LEHB23
	.uleb128 .L464-.LFB3788
	.uleb128 0
	.uleb128 .LEHB24-.LFB3788
	.uleb128 .LEHE24-.LEHB24
	.uleb128 0
	.uleb128 0
.LLSDACSE3788:
	.section	.text._ZNSt6vectorIlSaIlEE20_M_allocate_and_copyIPKlEEPlmT_S6_,"axG",@progbits,_ZNSt6vectorIlSaIlEE20_M_allocate_and_copyIPKlEEPlmT_S6_,comdat
	.size	_ZNSt6vectorIlSaIlEE20_M_allocate_and_copyIPKlEEPlmT_S6_, .-_ZNSt6vectorIlSaIlEE20_M_allocate_and_copyIPKlEEPlmT_S6_
	.section	.text._ZNSt6vectorIlSaIlEE15_M_erase_at_endEPl,"axG",@progbits,_ZNSt6vectorIlSaIlEE15_M_erase_at_endEPl,comdat
	.align 2
	.weak	_ZNSt6vectorIlSaIlEE15_M_erase_at_endEPl
	.type	_ZNSt6vectorIlSaIlEE15_M_erase_at_endEPl, @function
_ZNSt6vectorIlSaIlEE15_M_erase_at_endEPl:
.LFB3789:
	.cfi_startproc
	pushq	%rbp
	.cfi_def_cfa_offset 16
	.cfi_offset 6, -16
	movq	%rsp, %rbp
	.cfi_def_cfa_register 6
	subq	$48, %rsp
	movq	%rdi, -40(%rbp)
	movq	%rsi, -48(%rbp)
	movq	-40(%rbp), %rax
	movq	8(%rax), %rax
	subq	-48(%rbp), %rax
	sarq	$3, %rax
	movq	%rax, -32(%rbp)
	cmpq	$0, -32(%rbp)
	je	.L468
	movq	-40(%rbp), %rax
	movq	%rax, %rdi
	call	_ZNSt12_Vector_baseIlSaIlEE19_M_get_Tp_allocatorEv
	movq	-40(%rbp), %rdx
	movq	8(%rdx), %rdx
	movq	-48(%rbp), %rcx
	movq	%rcx, -24(%rbp)
	movq	%rdx, -16(%rbp)
	movq	%rax, -8(%rbp)
	movq	-16(%rbp), %rdx
	movq	-24(%rbp), %rax
	movq	%rdx, %rsi
	movq	%rax, %rdi
	call	_ZSt8_DestroyIPlEvT_S1_
	nop
	movq	-40(%rbp), %rax
	movq	-48(%rbp), %rdx
	movq	%rdx, 8(%rax)
.L468:
	nop
	leave
	.cfi_def_cfa 7, 8
	ret
	.cfi_endproc
.LFE3789:
	.size	_ZNSt6vectorIlSaIlEE15_M_erase_at_endEPl, .-_ZNSt6vectorIlSaIlEE15_M_erase_at_endEPl
	.section	.text._ZSt4copyIPKlPlET0_T_S4_S3_,"axG",@progbits,_ZSt4copyIPKlPlET0_T_S4_S3_,comdat
	.weak	_ZSt4copyIPKlPlET0_T_S4_S3_
	.type	_ZSt4copyIPKlPlET0_T_S4_S3_, @function
_ZSt4copyIPKlPlET0_T_S4_S3_:
.LFB3790:
	.cfi_startproc
	pushq	%rbp
	.cfi_def_cfa_offset 16
	.cfi_offset 6, -16
	movq	%rsp, %rbp
	.cfi_def_cfa_register 6
	pushq	%rbx
	subq	$136, %rsp
	.cfi_offset 3, -24
	movq	%rdi, -120(%rbp)
	movq	%rsi, -128(%rbp)
	movq	%rdx, -136(%rbp)
	movq	%fs:40, %rax
	movq	%rax, -24(%rbp)
	xorl	%eax, %eax
	movq	-128(%rbp), %rax
	movq	%rax, %rdi
	call	_ZSt12__miter_baseIPKlET_S2_
	movq	%rax, %rbx
	movq	-120(%rbp), %rax
	movq	%rax, %rdi
	call	_ZSt12__miter_baseIPKlET_S2_
	movq	%rax, -96(%rbp)
	movq	%rbx, -88(%rbp)
	movq	-136(%rbp), %rax
	movq	%rax, -104(%rbp)
	movq	-104(%rbp), %rax
	movq	%rax, -80(%rbp)
	movq	-80(%rbp), %rax
	movq	-88(%rbp), %rdx
	movq	%rdx, -72(%rbp)
	movq	-72(%rbp), %rdx
	movq	-96(%rbp), %rcx
	movq	%rcx, -64(%rbp)
	movq	-64(%rbp), %rcx
	movq	%rcx, -56(%rbp)
	movq	%rdx, -48(%rbp)
	movq	%rax, -40(%rbp)
	movq	-40(%rbp), %rdx
	movq	-48(%rbp), %rcx
	movq	-56(%rbp), %rax
	movq	%rcx, %rsi
	movq	%rax, %rdi
	call	_ZSt14__copy_move_a2ILb0EPKlS1_PlET2_T0_T1_S3_
	nop
	movq	%rax, -32(%rbp)
	movq	-32(%rbp), %rax
	nop
	movq	-24(%rbp), %rdx
	subq	%fs:40, %rdx
	je	.L477
	call	__stack_chk_fail@PLT
.L477:
	movq	-8(%rbp), %rbx
	leave
	.cfi_def_cfa 7, 8
	ret
	.cfi_endproc
.LFE3790:
	.size	_ZSt4copyIPKlPlET0_T_S4_S3_, .-_ZSt4copyIPKlPlET0_T_S4_S3_
	.section	.text._ZSt22__uninitialized_copy_aIPKlS1_PllET1_T_T0_S3_RSaIT2_E,"axG",@progbits,_ZSt22__uninitialized_copy_aIPKlS1_PllET1_T_T0_S3_RSaIT2_E,comdat
	.weak	_ZSt22__uninitialized_copy_aIPKlS1_PllET1_T_T0_S3_RSaIT2_E
	.type	_ZSt22__uninitialized_copy_aIPKlS1_PllET1_T_T0_S3_RSaIT2_E, @function
_ZSt22__uninitialized_copy_aIPKlS1_PllET1_T_T0_S3_RSaIT2_E:
.LFB3792:
	.cfi_startproc
	pushq	%rbp
	.cfi_def_cfa_offset 16
	.cfi_offset 6, -16
	movq	%rsp, %rbp
	.cfi_def_cfa_register 6
	subq	$32, %rsp
	movq	%rdi, -8(%rbp)
	movq	%rsi, -16(%rbp)
	movq	%rdx, -24(%rbp)
	movq	%rcx, -32(%rbp)
	movq	-24(%rbp), %rdx
	movq	-16(%rbp), %rcx
	movq	-8(%rbp), %rax
	movq	%rcx, %rsi
	movq	%rax, %rdi
	call	_ZSt18uninitialized_copyIPKlPlET0_T_S4_S3_
	leave
	.cfi_def_cfa 7, 8
	ret
	.cfi_endproc
.LFE3792:
	.size	_ZSt22__uninitialized_copy_aIPKlS1_PllET1_T_T0_S3_RSaIT2_E, .-_ZSt22__uninitialized_copy_aIPKlS1_PllET1_T_T0_S3_RSaIT2_E
	.section	.text._ZSt8_DestroyIP6ResultEvT_S2_,"axG",@progbits,_ZSt8_DestroyIP6ResultEvT_S2_,comdat
	.weak	_ZSt8_DestroyIP6ResultEvT_S2_
	.type	_ZSt8_DestroyIP6ResultEvT_S2_, @function
_ZSt8_DestroyIP6ResultEvT_S2_:
.LFB3797:
	.cfi_startproc
	pushq	%rbp
	.cfi_def_cfa_offset 16
	.cfi_offset 6, -16
	movq	%rsp, %rbp
	.cfi_def_cfa_register 6
	movq	%rdi, -8(%rbp)
	movq	%rsi, -16(%rbp)
	nop
	popq	%rbp
	.cfi_def_cfa 7, 8
	ret
	.cfi_endproc
.LFE3797:
	.size	_ZSt8_DestroyIP6ResultEvT_S2_, .-_ZSt8_DestroyIP6ResultEvT_S2_
	.section	.text._ZNSt6vectorI6ResultSaIS0_EE11_S_max_sizeERKS1_,"axG",@progbits,_ZNSt6vectorI6ResultSaIS0_EE11_S_max_sizeERKS1_,comdat
	.weak	_ZNSt6vectorI6ResultSaIS0_EE11_S_max_sizeERKS1_
	.type	_ZNSt6vectorI6ResultSaIS0_EE11_S_max_sizeERKS1_, @function
_ZNSt6vectorI6ResultSaIS0_EE11_S_max_sizeERKS1_:
.LFB3798:
	.cfi_startproc
	pushq	%rbp
	.cfi_def_cfa_offset 16
	.cfi_offset 6, -16
	movq	%rsp, %rbp
	.cfi_def_cfa_register 6
	subq	$64, %rsp
	movq	%rdi, -56(%rbp)
	movq	%fs:40, %rax
	movq	%rax, -8(%rbp)
	xorl	%eax, %eax
	movabsq	$288230376151711743, %rax
	movq	%rax, -48(%rbp)
	movq	-56(%rbp), %rax
	movq	%rax, -32(%rbp)
	movq	-32(%rbp), %rax
	movq	%rax, -24(%rbp)
	movq	-24(%rbp), %rax
	movq	%rax, -16(%rbp)
	movabsq	$288230376151711743, %rax
	nop
	nop
	movq	%rax, -40(%rbp)
	leaq	-40(%rbp), %rdx
	leaq	-48(%rbp), %rax
	movq	%rdx, %rsi
	movq	%rax, %rdi
	call	_ZSt3minImERKT_S2_S2_
	movq	(%rax), %rax
	movq	-8(%rbp), %rdx
	subq	%fs:40, %rdx
	je	.L486
	call	__stack_chk_fail@PLT
.L486:
	leave
	.cfi_def_cfa 7, 8
	ret
	.cfi_endproc
.LFE3798:
	.size	_ZNSt6vectorI6ResultSaIS0_EE11_S_max_sizeERKS1_, .-_ZNSt6vectorI6ResultSaIS0_EE11_S_max_sizeERKS1_
	.section	.text._ZNKSt12_Vector_baseI6ResultSaIS0_EE19_M_get_Tp_allocatorEv,"axG",@progbits,_ZNKSt12_Vector_baseI6ResultSaIS0_EE19_M_get_Tp_allocatorEv,comdat
	.align 2
	.weak	_ZNKSt12_Vector_baseI6ResultSaIS0_EE19_M_get_Tp_allocatorEv
	.type	_ZNKSt12_Vector_baseI6ResultSaIS0_EE19_M_get_Tp_allocatorEv, @function
_ZNKSt12_Vector_baseI6ResultSaIS0_EE19_M_get_Tp_allocatorEv:
.LFB3799:
	.cfi_startproc
	pushq	%rbp
	.cfi_def_cfa_offset 16
	.cfi_offset 6, -16
	movq	%rsp, %rbp
	.cfi_def_cfa_register 6
	movq	%rdi, -8(%rbp)
	movq	-8(%rbp), %rax
	popq	%rbp
	.cfi_def_cfa 7, 8
	ret
	.cfi_endproc
.LFE3799:
	.size	_ZNKSt12_Vector_baseI6ResultSaIS0_EE19_M_get_Tp_allocatorEv, .-_ZNKSt12_Vector_baseI6ResultSaIS0_EE19_M_get_Tp_allocatorEv
	.section	.text._ZSt12__relocate_aIP6ResultS1_SaIS0_EET0_T_S4_S3_RT1_,"axG",@progbits,_ZSt12__relocate_aIP6ResultS1_SaIS0_EET0_T_S4_S3_RT1_,comdat
	.weak	_ZSt12__relocate_aIP6ResultS1_SaIS0_EET0_T_S4_S3_RT1_
	.type	_ZSt12__relocate_aIP6ResultS1_SaIS0_EET0_T_S4_S3_RT1_, @function
_ZSt12__relocate_aIP6ResultS1_SaIS0_EET0_T_S4_S3_RT1_:
.LFB3801:
	.cfi_startproc
	pushq	%rbp
	.cfi_def_cfa_offset 16
	.cfi_offset 6, -16
	movq	%rsp, %rbp
	.cfi_def_cfa_register 6
	subq	$64, %rsp
	movq	%rdi, -40(%rbp)
	movq	%rsi, -48(%rbp)
	movq	%rdx, -56(%rbp)
	movq	%rcx, -64(%rbp)
	movq	-56(%rbp), %rax
	movq	%rax, -8(%rbp)
	movq	-8(%rbp), %rdx
	movq	-48(%rbp), %rax
	movq	%rax, -16(%rbp)
	movq	-16(%rbp), %rsi
	movq	-40(%rbp), %rax
	movq	%rax, -24(%rbp)
	movq	-24(%rbp), %rax
	movq	-64(%rbp), %rcx
	movq	%rax, %rdi
	call	_ZSt14__relocate_a_1I6ResultS0_ENSt9enable_ifIXsrSt24__is_bitwise_relocatableIT_vE5valueEPS3_E4typeES5_S5_S5_RSaIT0_E
	leave
	.cfi_def_cfa 7, 8
	ret
	.cfi_endproc
.LFE3801:
	.size	_ZSt12__relocate_aIP6ResultS1_SaIS0_EET0_T_S4_S3_RT1_, .-_ZSt12__relocate_aIP6ResultS1_SaIS0_EET0_T_S4_S3_RT1_
	.section	.text._ZNKSt7__cxx1112basic_stringIcSt11char_traitsIcESaIcEE8_M_limitEmm,"axG",@progbits,_ZNKSt7__cxx1112basic_stringIcSt11char_traitsIcESaIcEE8_M_limitEmm,comdat
	.align 2
	.weak	_ZNKSt7__cxx1112basic_stringIcSt11char_traitsIcESaIcEE8_M_limitEmm
	.type	_ZNKSt7__cxx1112basic_stringIcSt11char_traitsIcESaIcEE8_M_limitEmm, @function
_ZNKSt7__cxx1112basic_stringIcSt11char_traitsIcESaIcEE8_M_limitEmm:
.LFB3807:
	.cfi_startproc
	pushq	%rbp
	.cfi_def_cfa_offset 16
	.cfi_offset 6, -16
	movq	%rsp, %rbp
	.cfi_def_cfa_register 6
	subq	$48, %rsp
	movq	%rdi, -24(%rbp)
	movq	%rsi, -32(%rbp)
	movq	%rdx, -40(%rbp)
	movq	-24(%rbp), %rax
	movq	%rax, %rdi
	call	_ZNKSt7__cxx1112basic_stringIcSt11char_traitsIcESaIcEE4sizeEv
	subq	-32(%rbp), %rax
	cmpq	%rax, -40(%rbp)
	setb	%al
	movb	%al, -1(%rbp)
	cmpb	$0, -1(%rbp)
	je	.L495
	movq	-40(%rbp), %rax
	jmp	.L497
.L495:
	movq	-24(%rbp), %rax
	movq	%rax, %rdi
	call	_ZNKSt7__cxx1112basic_stringIcSt11char_traitsIcESaIcEE4sizeEv
	subq	-32(%rbp), %rax
.L497:
	leave
	.cfi_def_cfa 7, 8
	ret
	.cfi_endproc
.LFE3807:
	.size	_ZNKSt7__cxx1112basic_stringIcSt11char_traitsIcESaIcEE8_M_limitEmm, .-_ZNKSt7__cxx1112basic_stringIcSt11char_traitsIcESaIcEE8_M_limitEmm
	.section	.rodata
.LC57:
	.string	"basic_string::_M_replace"
	.section	.text._ZNSt7__cxx1112basic_stringIcSt11char_traitsIcESaIcEE10_M_replaceEmmPKcm,"axG",@progbits,_ZNSt7__cxx1112basic_stringIcSt11char_traitsIcESaIcEE10_M_replaceEmmPKcm,comdat
	.align 2
	.weak	_ZNSt7__cxx1112basic_stringIcSt11char_traitsIcESaIcEE10_M_replaceEmmPKcm
	.type	_ZNSt7__cxx1112basic_stringIcSt11char_traitsIcESaIcEE10_M_replaceEmmPKcm, @function
_ZNSt7__cxx1112basic_stringIcSt11char_traitsIcESaIcEE10_M_replaceEmmPKcm:
.LFB3810:
	.cfi_startproc
	pushq	%rbp
	.cfi_def_cfa_offset 16
	.cfi_offset 6, -16
	movq	%rsp, %rbp
	.cfi_def_cfa_register 6
	subq	$80, %rsp
	movq	%rdi, -40(%rbp)
	movq	%rsi, -48(%rbp)
	movq	%rdx, -56(%rbp)
	movq	%rcx, -64(%rbp)
	movq	%r8, -72(%rbp)
	leaq	.LC57(%rip), %rcx
	movq	-72(%rbp), %rdx
	movq	-56(%rbp), %rsi
	movq	-40(%rbp), %rax
	movq	%rax, %rdi
	call	_ZNKSt7__cxx1112basic_stringIcSt11char_traitsIcESaIcEE15_M_check_lengthEmmPKc
	movq	-40(%rbp), %rax
	movq	%rax, %rdi
	call	_ZNKSt7__cxx1112basic_stringIcSt11char_traitsIcESaIcEE4sizeEv
	movq	%rax, -32(%rbp)
	movq	-32(%rbp), %rdx
	movq	-72(%rbp), %rax
	addq	%rdx, %rax
	subq	-56(%rbp), %rax
	movq	%rax, -24(%rbp)
	movq	-40(%rbp), %rax
	movq	%rax, %rdi
	call	_ZNKSt7__cxx1112basic_stringIcSt11char_traitsIcESaIcEE8capacityEv
	cmpq	-24(%rbp), %rax
	setnb	%al
	testb	%al, %al
	je	.L499
	movq	-40(%rbp), %rax
	movq	%rax, %rdi
	call	_ZNKSt7__cxx1112basic_stringIcSt11char_traitsIcESaIcEE7_M_dataEv
	movq	-48(%rbp), %rdx
	addq	%rdx, %rax
	movq	%rax, -16(%rbp)
	movq	-32(%rbp), %rax
	subq	-48(%rbp), %rax
	subq	-56(%rbp), %rax
	movq	%rax, -8(%rbp)
	movq	-64(%rbp), %rdx
	movq	-40(%rbp), %rax
	movq	%rdx, %rsi
	movq	%rax, %rdi
	call	_ZNKSt7__cxx1112basic_stringIcSt11char_traitsIcESaIcEE11_M_disjunctEPKc
	movzbl	%al, %eax
	testq	%rax, %rax
	setne	%al
	testb	%al, %al
	je	.L500
	cmpq	$0, -8(%rbp)
	je	.L501
	movq	-56(%rbp), %rax
	cmpq	-72(%rbp), %rax
	je	.L501
	movq	-16(%rbp), %rdx
	movq	-56(%rbp), %rax
	leaq	(%rdx,%rax), %rsi
	movq	-16(%rbp), %rdx
	movq	-72(%rbp), %rax
	leaq	(%rdx,%rax), %rcx
	movq	-8(%rbp), %rax
	movq	%rax, %rdx
	movq	%rcx, %rdi
	call	_ZNSt7__cxx1112basic_stringIcSt11char_traitsIcESaIcEE7_S_moveEPcPKcm
.L501:
	cmpq	$0, -72(%rbp)
	je	.L502
	movq	-72(%rbp), %rdx
	movq	-64(%rbp), %rcx
	movq	-16(%rbp), %rax
	movq	%rcx, %rsi
	movq	%rax, %rdi
	call	_ZNSt7__cxx1112basic_stringIcSt11char_traitsIcESaIcEE7_S_copyEPcPKcm
	jmp	.L502
.L500:
	movq	-8(%rbp), %r8
	movq	-72(%rbp), %rdi
	movq	-64(%rbp), %rcx
	movq	-56(%rbp), %rdx
	movq	-16(%rbp), %rsi
	movq	-40(%rbp), %rax
	movq	%r8, %r9
	movq	%rdi, %r8
	movq	%rax, %rdi
	call	_ZNSt7__cxx1112basic_stringIcSt11char_traitsIcESaIcEE15_M_replace_coldEPcmPKcmm
	jmp	.L502
.L499:
	movq	-72(%rbp), %rdi
	movq	-64(%rbp), %rcx
	movq	-56(%rbp), %rdx
	movq	-48(%rbp), %rsi
	movq	-40(%rbp), %rax
	movq	%rdi, %r8
	movq	%rax, %rdi
	call	_ZNSt7__cxx1112basic_stringIcSt11char_traitsIcESaIcEE9_M_mutateEmmPKcm
.L502:
	movq	-24(%rbp), %rdx
	movq	-40(%rbp), %rax
	movq	%rdx, %rsi
	movq	%rax, %rdi
	call	_ZNSt7__cxx1112basic_stringIcSt11char_traitsIcESaIcEE13_M_set_lengthEm
	movq	-40(%rbp), %rax
	leave
	.cfi_def_cfa 7, 8
	ret
	.cfi_endproc
.LFE3810:
	.size	_ZNSt7__cxx1112basic_stringIcSt11char_traitsIcESaIcEE10_M_replaceEmmPKcm, .-_ZNSt7__cxx1112basic_stringIcSt11char_traitsIcESaIcEE10_M_replaceEmmPKcm
	.section	.text._ZNSt7__cxx1112basic_stringIcSt11char_traitsIcESaIcEE7_S_moveEPcPKcm,"axG",@progbits,_ZNSt7__cxx1112basic_stringIcSt11char_traitsIcESaIcEE7_S_moveEPcPKcm,comdat
	.weak	_ZNSt7__cxx1112basic_stringIcSt11char_traitsIcESaIcEE7_S_moveEPcPKcm
	.type	_ZNSt7__cxx1112basic_stringIcSt11char_traitsIcESaIcEE7_S_moveEPcPKcm, @function
_ZNSt7__cxx1112basic_stringIcSt11char_traitsIcESaIcEE7_S_moveEPcPKcm:
.LFB3811:
	.cfi_startproc
	pushq	%rbp
	.cfi_def_cfa_offset 16
	.cfi_offset 6, -16
	movq	%rsp, %rbp
	.cfi_def_cfa_register 6
	subq	$32, %rsp
	movq	%rdi, -8(%rbp)
	movq	%rsi, -16(%rbp)
	movq	%rdx, -24(%rbp)
	cmpq	$1, -24(%rbp)
	jne	.L505
	movq	-16(%rbp), %rdx
	movq	-8(%rbp), %rax
	movq	%rdx, %rsi
	movq	%rax, %rdi
	call	_ZNSt11char_traitsIcE6assignERcRKc
	jmp	.L507
.L505:
	movq	-24(%rbp), %rdx
	movq	-16(%rbp), %rcx
	movq	-8(%rbp), %rax
	movq	%rcx, %rsi
	movq	%rax, %rdi
	call	_ZNSt11char_traitsIcE4moveEPcPKcm
.L507:
	nop
	leave
	.cfi_def_cfa 7, 8
	ret
	.cfi_endproc
.LFE3811:
	.size	_ZNSt7__cxx1112basic_stringIcSt11char_traitsIcESaIcEE7_S_moveEPcPKcm, .-_ZNSt7__cxx1112basic_stringIcSt11char_traitsIcESaIcEE7_S_moveEPcPKcm
	.section	.text._ZNSt6chrono13duration_castINS_8durationIdSt5ratioILl1ELl1EEEElS2_ILl1ELl1000000000EEEENSt9enable_ifIXsrNS_13__is_durationIT_EE5valueES8_E4typeERKNS1_IT0_T1_EE,"axG",@progbits,_ZNSt6chrono13duration_castINS_8durationIdSt5ratioILl1ELl1EEEElS2_ILl1ELl1000000000EEEENSt9enable_ifIXsrNS_13__is_durationIT_EE5valueES8_E4typeERKNS1_IT0_T1_EE,comdat
	.weak	_ZNSt6chrono13duration_castINS_8durationIdSt5ratioILl1ELl1EEEElS2_ILl1ELl1000000000EEEENSt9enable_ifIXsrNS_13__is_durationIT_EE5valueES8_E4typeERKNS1_IT0_T1_EE
	.type	_ZNSt6chrono13duration_castINS_8durationIdSt5ratioILl1ELl1EEEElS2_ILl1ELl1000000000EEEENSt9enable_ifIXsrNS_13__is_durationIT_EE5valueES8_E4typeERKNS1_IT0_T1_EE, @function
_ZNSt6chrono13duration_castINS_8durationIdSt5ratioILl1ELl1EEEElS2_ILl1ELl1000000000EEEENSt9enable_ifIXsrNS_13__is_durationIT_EE5valueES8_E4typeERKNS1_IT0_T1_EE:
.LFB3812:
	.cfi_startproc
	pushq	%rbp
	.cfi_def_cfa_offset 16
	.cfi_offset 6, -16
	movq	%rsp, %rbp
	.cfi_def_cfa_register 6
	subq	$16, %rsp
	movq	%rdi, -8(%rbp)
	movq	-8(%rbp), %rax
	movq	%rax, %rdi
	call	_ZNSt6chrono20__duration_cast_implINS_8durationIdSt5ratioILl1ELl1EEEES2_ILl1ELl1000000000EEdLb1ELb0EE6__castIlS5_EES4_RKNS1_IT_T0_EE
	leave
	.cfi_def_cfa 7, 8
	ret
	.cfi_endproc
.LFE3812:
	.size	_ZNSt6chrono13duration_castINS_8durationIdSt5ratioILl1ELl1EEEElS2_ILl1ELl1000000000EEEENSt9enable_ifIXsrNS_13__is_durationIT_EE5valueES8_E4typeERKNS1_IT0_T1_EE, .-_ZNSt6chrono13duration_castINS_8durationIdSt5ratioILl1ELl1EEEElS2_ILl1ELl1000000000EEEENSt9enable_ifIXsrNS_13__is_durationIT_EE5valueES8_E4typeERKNS1_IT0_T1_EE
	.section	.text._ZNSt6vectorI6ResultSaIS0_EE17_M_realloc_appendIJS0_EEEvDpOT_,"axG",@progbits,_ZNSt6vectorI6ResultSaIS0_EE17_M_realloc_appendIJS0_EEEvDpOT_,comdat
	.align 2
	.weak	_ZNSt6vectorI6ResultSaIS0_EE17_M_realloc_appendIJS0_EEEvDpOT_
	.type	_ZNSt6vectorI6ResultSaIS0_EE17_M_realloc_appendIJS0_EEEvDpOT_, @function
_ZNSt6vectorI6ResultSaIS0_EE17_M_realloc_appendIJS0_EEEvDpOT_:
.LFB3815:
	.cfi_startproc
	pushq	%rbp
	.cfi_def_cfa_offset 16
	.cfi_offset 6, -16
	movq	%rsp, %rbp
	.cfi_def_cfa_register 6
	pushq	%r12
	pushq	%rbx
	subq	$208, %rsp
	.cfi_offset 12, -24
	.cfi_offset 3, -32
	movq	%rdi, -216(%rbp)
	movq	%rsi, -224(%rbp)
	movq	%fs:40, %rax
	movq	%rax, -24(%rbp)
	xorl	%eax, %eax
	leaq	.LC52(%rip), %rdx
	movq	-216(%rbp), %rax
	movl	$1, %esi
	movq	%rax, %rdi
	call	_ZNKSt6vectorI6ResultSaIS0_EE12_M_check_lenEmPKc
	movq	%rax, -192(%rbp)
	cmpq	$0, -192(%rbp)
	movq	-216(%rbp), %rax
	movq	(%rax), %rax
	movq	%rax, -184(%rbp)
	movq	-216(%rbp), %rax
	movq	8(%rax), %rax
	movq	%rax, -176(%rbp)
	movq	-216(%rbp), %rax
	movq	%rax, %rdi
	call	_ZNSt6vectorI6ResultSaIS0_EE5beginEv
	movq	%rax, -48(%rbp)
	movq	-216(%rbp), %rax
	movq	%rax, %rdi
	call	_ZNSt6vectorI6ResultSaIS0_EE3endEv
	movq	%rax, -200(%rbp)
	leaq	-200(%rbp), %rax
	movq	%rax, -64(%rbp)
	movq	-64(%rbp), %rax
	movq	(%rax), %rdx
	leaq	-48(%rbp), %rax
	movq	%rax, -56(%rbp)
	movq	-56(%rbp), %rax
	movq	(%rax), %rax
	subq	%rax, %rdx
	movq	%rdx, %rax
	sarq	$5, %rax
	movq	%rax, -168(%rbp)
	movq	-216(%rbp), %rax
	movq	-192(%rbp), %rdx
	movq	%rdx, %rsi
	movq	%rax, %rdi
	call	_ZNSt12_Vector_baseI6ResultSaIS0_EE11_M_allocateEm
	movq	%rax, -160(%rbp)
	movq	-160(%rbp), %rax
	movq	%rax, -152(%rbp)
	movq	-216(%rbp), %rcx
	movq	-192(%rbp), %rdx
	movq	-160(%rbp), %rsi
	leaq	-48(%rbp), %rax
	movq	%rax, %rdi
	call	_ZNSt6vectorI6ResultSaIS0_EE12_Guard_allocC1EPS0_mRSt12_Vector_baseIS0_S1_E
	movq	-224(%rbp), %rax
	movq	%rax, -72(%rbp)
	movq	-72(%rbp), %rax
	movq	-168(%rbp), %rdx
	movq	%rdx, %rcx
	salq	$5, %rcx
	movq	-160(%rbp), %rdx
	addq	%rcx, %rdx
	movq	%rdx, -80(%rbp)
	movq	-80(%rbp), %rdx
	movq	-216(%rbp), %rcx
	movq	%rcx, -144(%rbp)
	movq	%rdx, -136(%rbp)
	movq	%rax, -128(%rbp)
	movq	-128(%rbp), %rax
	movq	%rax, -120(%rbp)
	movq	-120(%rbp), %rax
	movq	-136(%rbp), %rdx
	movq	%rdx, -112(%rbp)
	movq	%rax, -104(%rbp)
	movq	-144(%rbp), %rax
	movq	%rax, -96(%rbp)
	movq	-112(%rbp), %r12
	movq	%r12, %rsi
	movl	$32, %edi
	call	_ZnwmPv
	movq	-104(%rbp), %rdx
	movq	%rdx, -88(%rbp)
	movq	-88(%rbp), %rdx
	movq	(%rdx), %rcx
	movq	8(%rdx), %rbx
	movq	%rcx, (%rax)
	movq	%rbx, 8(%rax)
	movq	16(%rdx), %rcx
	movq	24(%rdx), %rbx
	movq	%rcx, 16(%rax)
	movq	%rbx, 24(%rax)
	movl	$0, %edx
	testb	%dl, %dl
	je	.L519
	movq	%r12, %rsi
	movq	%rax, %rdi
	call	_ZdlPvS_
.L519:
	nop
	nop
	movq	-216(%rbp), %rax
	movq	%rax, %rdi
	call	_ZNSt12_Vector_baseI6ResultSaIS0_EE19_M_get_Tp_allocatorEv
	movq	%rax, %rcx
	movq	-160(%rbp), %rdx
	movq	-176(%rbp), %rsi
	movq	-184(%rbp), %rax
	movq	%rax, %rdi
	call	_ZNSt6vectorI6ResultSaIS0_EE11_S_relocateEPS0_S3_S3_RS1_
	movq	%rax, -152(%rbp)
	addq	$32, -152(%rbp)
	movq	-184(%rbp), %rax
	movq	%rax, -48(%rbp)
	movq	-216(%rbp), %rax
	movq	16(%rax), %rax
	subq	-184(%rbp), %rax
	sarq	$5, %rax
	movq	%rax, -40(%rbp)
	leaq	-48(%rbp), %rax
	movq	%rax, %rdi
	call	_ZNSt6vectorI6ResultSaIS0_EE12_Guard_allocD1Ev
	movq	-216(%rbp), %rax
	movq	-160(%rbp), %rdx
	movq	%rdx, (%rax)
	movq	-216(%rbp), %rax
	movq	-152(%rbp), %rdx
	movq	%rdx, 8(%rax)
	movq	-192(%rbp), %rax
	salq	$5, %rax
	movq	%rax, %rdx
	movq	-160(%rbp), %rax
	addq	%rax, %rdx
	movq	-216(%rbp), %rax
	movq	%rdx, 16(%rax)
	nop
	movq	-24(%rbp), %rax
	subq	%fs:40, %rax
	je	.L520
	call	__stack_chk_fail@PLT
.L520:
	addq	$208, %rsp
	popq	%rbx
	popq	%r12
	popq	%rbp
	.cfi_def_cfa 7, 8
	ret
	.cfi_endproc
.LFE3815:
	.size	_ZNSt6vectorI6ResultSaIS0_EE17_M_realloc_appendIJS0_EEEvDpOT_, .-_ZNSt6vectorI6ResultSaIS0_EE17_M_realloc_appendIJS0_EEEvDpOT_
	.section	.rodata
	.align 8
.LC58:
	.string	"std::vector<_Tp, _Alloc>::reference std::vector<_Tp, _Alloc>::back() [with _Tp = Result; _Alloc = std::allocator<Result>; reference = Result&]"
	.section	.text._ZNSt6vectorI6ResultSaIS0_EE4backEv,"axG",@progbits,_ZNSt6vectorI6ResultSaIS0_EE4backEv,comdat
	.align 2
	.weak	_ZNSt6vectorI6ResultSaIS0_EE4backEv
	.type	_ZNSt6vectorI6ResultSaIS0_EE4backEv, @function
_ZNSt6vectorI6ResultSaIS0_EE4backEv:
.LFB3816:
	.cfi_startproc
	pushq	%rbp
	.cfi_def_cfa_offset 16
	.cfi_offset 6, -16
	movq	%rsp, %rbp
	.cfi_def_cfa_register 6
	subq	$64, %rsp
	movq	%rdi, -56(%rbp)
	movq	%fs:40, %rax
	movq	%rax, -8(%rbp)
	xorl	%eax, %eax
	movq	-56(%rbp), %rax
	movq	%rax, %rdi
	call	_ZNKSt6vectorI6ResultSaIS0_EE5emptyEv
	movzbl	%al, %eax
	testq	%rax, %rax
	setne	%al
	testb	%al, %al
	je	.L522
	leaq	.LC53(%rip), %rcx
	leaq	.LC58(%rip), %rdx
	leaq	.LC55(%rip), %rax
	movl	$1370, %esi
	movq	%rax, %rdi
	call	_ZSt21__glibcxx_assert_failPKciS0_S0_@PLT
.L522:
	movq	-56(%rbp), %rax
	movq	%rax, %rdi
	call	_ZNSt6vectorI6ResultSaIS0_EE3endEv
	movq	%rax, -40(%rbp)
	movq	$1, -16(%rbp)
	movq	-40(%rbp), %rax
	movq	-16(%rbp), %rdx
	salq	$5, %rdx
	negq	%rdx
	addq	%rdx, %rax
	movq	%rax, -32(%rbp)
	movq	-32(%rbp), %rax
	movq	%rax, -24(%rbp)
	nop
	movq	-24(%rbp), %rax
	movq	%rax, -24(%rbp)
	movq	-24(%rbp), %rax
	movq	-8(%rbp), %rdx
	subq	%fs:40, %rdx
	je	.L526
	call	__stack_chk_fail@PLT
.L526:
	leave
	.cfi_def_cfa 7, 8
	ret
	.cfi_endproc
.LFE3816:
	.size	_ZNSt6vectorI6ResultSaIS0_EE4backEv, .-_ZNSt6vectorI6ResultSaIS0_EE4backEv
	.section	.text._ZNSt7__cxx1112basic_stringIcSt11char_traitsIcESaIcEE11_S_allocateERS3_m,"axG",@progbits,_ZNSt7__cxx1112basic_stringIcSt11char_traitsIcESaIcEE11_S_allocateERS3_m,comdat
	.weak	_ZNSt7__cxx1112basic_stringIcSt11char_traitsIcESaIcEE11_S_allocateERS3_m
	.type	_ZNSt7__cxx1112basic_stringIcSt11char_traitsIcESaIcEE11_S_allocateERS3_m, @function
_ZNSt7__cxx1112basic_stringIcSt11char_traitsIcESaIcEE11_S_allocateERS3_m:
.LFB3821:
	.cfi_startproc
	pushq	%rbp
	.cfi_def_cfa_offset 16
	.cfi_offset 6, -16
	movq	%rsp, %rbp
	.cfi_def_cfa_register 6
	subq	$48, %rsp
	movq	%rdi, -40(%rbp)
	movq	%rsi, -48(%rbp)
	movq	-40(%rbp), %rax
	movq	%rax, -16(%rbp)
	movq	-48(%rbp), %rax
	movq	%rax, -8(%rbp)
	movq	-8(%rbp), %rcx
	movq	-16(%rbp), %rax
	movl	$0, %edx
	movq	%rcx, %rsi
	movq	%rax, %rdi
	call	_ZNSt15__new_allocatorIcE8allocateEmPKv
	nop
	movq	%rax, -24(%rbp)
	movq	-24(%rbp), %rax
	leave
	.cfi_def_cfa 7, 8
	ret
	.cfi_endproc
.LFE3821:
	.size	_ZNSt7__cxx1112basic_stringIcSt11char_traitsIcESaIcEE11_S_allocateERS3_m, .-_ZNSt7__cxx1112basic_stringIcSt11char_traitsIcESaIcEE11_S_allocateERS3_m
	.section	.text._ZNSt19__ptr_traits_ptr_toIPKcS0_Lb0EE10pointer_toERS0_,"axG",@progbits,_ZNSt19__ptr_traits_ptr_toIPKcS0_Lb0EE10pointer_toERS0_,comdat
	.weak	_ZNSt19__ptr_traits_ptr_toIPKcS0_Lb0EE10pointer_toERS0_
	.type	_ZNSt19__ptr_traits_ptr_toIPKcS0_Lb0EE10pointer_toERS0_, @function
_ZNSt19__ptr_traits_ptr_toIPKcS0_Lb0EE10pointer_toERS0_:
.LFB3822:
	.cfi_startproc
	pushq	%rbp
	.cfi_def_cfa_offset 16
	.cfi_offset 6, -16
	movq	%rsp, %rbp
	.cfi_def_cfa_register 6
	movq	%rdi, -24(%rbp)
	movq	-24(%rbp), %rax
	movq	%rax, -16(%rbp)
	movq	-16(%rbp), %rax
	movq	%rax, -8(%rbp)
	movq	-8(%rbp), %rax
	nop
	popq	%rbp
	.cfi_def_cfa 7, 8
	ret
	.cfi_endproc
.LFE3822:
	.size	_ZNSt19__ptr_traits_ptr_toIPKcS0_Lb0EE10pointer_toERS0_, .-_ZNSt19__ptr_traits_ptr_toIPKcS0_Lb0EE10pointer_toERS0_
	.section	.text._ZNKSt7__cxx1112basic_stringIcSt11char_traitsIcESaIcEE16_M_get_allocatorEv,"axG",@progbits,_ZNKSt7__cxx1112basic_stringIcSt11char_traitsIcESaIcEE16_M_get_allocatorEv,comdat
	.align 2
	.weak	_ZNKSt7__cxx1112basic_stringIcSt11char_traitsIcESaIcEE16_M_get_allocatorEv
	.type	_ZNKSt7__cxx1112basic_stringIcSt11char_traitsIcESaIcEE16_M_get_allocatorEv, @function
_ZNKSt7__cxx1112basic_stringIcSt11char_traitsIcESaIcEE16_M_get_allocatorEv:
.LFB3836:
	.cfi_startproc
	pushq	%rbp
	.cfi_def_cfa_offset 16
	.cfi_offset 6, -16
	movq	%rsp, %rbp
	.cfi_def_cfa_register 6
	movq	%rdi, -8(%rbp)
	movq	-8(%rbp), %rax
	popq	%rbp
	.cfi_def_cfa 7, 8
	ret
	.cfi_endproc
.LFE3836:
	.size	_ZNKSt7__cxx1112basic_stringIcSt11char_traitsIcESaIcEE16_M_get_allocatorEv, .-_ZNKSt7__cxx1112basic_stringIcSt11char_traitsIcESaIcEE16_M_get_allocatorEv
	.section	.text._ZNSt15__new_allocatorIlE10deallocateEPlm,"axG",@progbits,_ZNSt15__new_allocatorIlE10deallocateEPlm,comdat
	.align 2
	.weak	_ZNSt15__new_allocatorIlE10deallocateEPlm
	.type	_ZNSt15__new_allocatorIlE10deallocateEPlm, @function
_ZNSt15__new_allocatorIlE10deallocateEPlm:
.LFB3874:
	.cfi_startproc
	pushq	%rbp
	.cfi_def_cfa_offset 16
	.cfi_offset 6, -16
	movq	%rsp, %rbp
	.cfi_def_cfa_register 6
	subq	$32, %rsp
	movq	%rdi, -8(%rbp)
	movq	%rsi, -16(%rbp)
	movq	%rdx, -24(%rbp)
	movq	-24(%rbp), %rax
	leaq	0(,%rax,8), %rdx
	movq	-16(%rbp), %rax
	movq	%rdx, %rsi
	movq	%rax, %rdi
	call	_ZdlPvm@PLT
	leave
	.cfi_def_cfa 7, 8
	ret
	.cfi_endproc
.LFE3874:
	.size	_ZNSt15__new_allocatorIlE10deallocateEPlm, .-_ZNSt15__new_allocatorIlE10deallocateEPlm
	.section	.text._ZNKSt6vectorIlSaIlEE12_M_check_lenEmPKc,"axG",@progbits,_ZNKSt6vectorIlSaIlEE12_M_check_lenEmPKc,comdat
	.align 2
	.weak	_ZNKSt6vectorIlSaIlEE12_M_check_lenEmPKc
	.type	_ZNKSt6vectorIlSaIlEE12_M_check_lenEmPKc, @function
_ZNKSt6vectorIlSaIlEE12_M_check_lenEmPKc:
.LFB3876:
	.cfi_startproc
	pushq	%rbp
	.cfi_def_cfa_offset 16
	.cfi_offset 6, -16
	movq	%rsp, %rbp
	.cfi_def_cfa_register 6
	pushq	%rbx
	subq	$72, %rsp
	.cfi_offset 3, -24
	movq	%rdi, -56(%rbp)
	movq	%rsi, -64(%rbp)
	movq	%rdx, -72(%rbp)
	movq	%fs:40, %rax
	movq	%rax, -24(%rbp)
	xorl	%eax, %eax
	movq	-56(%rbp), %rax
	movq	%rax, %rdi
	call	_ZNKSt6vectorIlSaIlEE8max_sizeEv
	movq	%rax, %rbx
	movq	-56(%rbp), %rax
	movq	%rax, %rdi
	call	_ZNKSt6vectorIlSaIlEE4sizeEv
	subq	%rax, %rbx
	movq	%rbx, %rdx
	movq	-64(%rbp), %rax
	cmpq	%rax, %rdx
	setb	%al
	testb	%al, %al
	je	.L539
	movq	-24(%rbp), %rax
	subq	%fs:40, %rax
	je	.L540
	call	__stack_chk_fail@PLT
.L540:
	movq	-72(%rbp), %rax
	movq	%rax, %rdi
	call	_ZSt20__throw_length_errorPKc@PLT
.L539:
	movq	-56(%rbp), %rax
	movq	%rax, %rdi
	call	_ZNKSt6vectorIlSaIlEE4sizeEv
	movq	%rax, %rbx
	movq	-56(%rbp), %rax
	movq	%rax, %rdi
	call	_ZNKSt6vectorIlSaIlEE4sizeEv
	movq	%rax, -40(%rbp)
	leaq	-64(%rbp), %rdx
	leaq	-40(%rbp), %rax
	movq	%rdx, %rsi
	movq	%rax, %rdi
	call	_ZSt3maxImERKT_S2_S2_
	movq	(%rax), %rax
	addq	%rbx, %rax
	movq	%rax, -32(%rbp)
	movq	-56(%rbp), %rax
	movq	%rax, %rdi
	call	_ZNKSt6vectorIlSaIlEE4sizeEv
	cmpq	%rax, -32(%rbp)
	jb	.L541
	movq	-56(%rbp), %rax
	movq	%rax, %rdi
	call	_ZNKSt6vectorIlSaIlEE8max_sizeEv
	cmpq	-32(%rbp), %rax
	jnb	.L542
.L541:
	movq	-56(%rbp), %rax
	movq	%rax, %rdi
	call	_ZNKSt6vectorIlSaIlEE8max_sizeEv
	jmp	.L544
.L542:
	movq	-32(%rbp), %rax
.L544:
	movq	-24(%rbp), %rdx
	subq	%fs:40, %rdx
	je	.L545
	call	__stack_chk_fail@PLT
.L545:
	movq	-8(%rbp), %rbx
	leave
	.cfi_def_cfa 7, 8
	ret
	.cfi_endproc
.LFE3876:
	.size	_ZNKSt6vectorIlSaIlEE12_M_check_lenEmPKc, .-_ZNKSt6vectorIlSaIlEE12_M_check_lenEmPKc
	.section	.text._ZNSt12_Vector_baseIlSaIlEE11_M_allocateEm,"axG",@progbits,_ZNSt12_Vector_baseIlSaIlEE11_M_allocateEm,comdat
	.align 2
	.weak	_ZNSt12_Vector_baseIlSaIlEE11_M_allocateEm
	.type	_ZNSt12_Vector_baseIlSaIlEE11_M_allocateEm, @function
_ZNSt12_Vector_baseIlSaIlEE11_M_allocateEm:
.LFB3878:
	.cfi_startproc
	pushq	%rbp
	.cfi_def_cfa_offset 16
	.cfi_offset 6, -16
	movq	%rsp, %rbp
	.cfi_def_cfa_register 6
	subq	$32, %rsp
	movq	%rdi, -24(%rbp)
	movq	%rsi, -32(%rbp)
	cmpq	$0, -32(%rbp)
	je	.L547
	movq	-24(%rbp), %rax
	movq	%rax, -16(%rbp)
	movq	-32(%rbp), %rax
	movq	%rax, -8(%rbp)
	movq	-8(%rbp), %rcx
	movq	-16(%rbp), %rax
	movl	$0, %edx
	movq	%rcx, %rsi
	movq	%rax, %rdi
	call	_ZNSt15__new_allocatorIlE8allocateEmPKv
	nop
	jmp	.L549
.L547:
	movl	$0, %eax
.L549:
	leave
	.cfi_def_cfa 7, 8
	ret
	.cfi_endproc
.LFE3878:
	.size	_ZNSt12_Vector_baseIlSaIlEE11_M_allocateEm, .-_ZNSt12_Vector_baseIlSaIlEE11_M_allocateEm
	.section	.text._ZNSt6vectorIlSaIlEE12_Guard_allocC2EPlmRSt12_Vector_baseIlS0_E,"axG",@progbits,_ZNSt6vectorIlSaIlEE12_Guard_allocC5EPlmRSt12_Vector_baseIlS0_E,comdat
	.align 2
	.weak	_ZNSt6vectorIlSaIlEE12_Guard_allocC2EPlmRSt12_Vector_baseIlS0_E
	.type	_ZNSt6vectorIlSaIlEE12_Guard_allocC2EPlmRSt12_Vector_baseIlS0_E, @function
_ZNSt6vectorIlSaIlEE12_Guard_allocC2EPlmRSt12_Vector_baseIlS0_E:
.LFB3880:
	.cfi_startproc
	pushq	%rbp
	.cfi_def_cfa_offset 16
	.cfi_offset 6, -16
	movq	%rsp, %rbp
	.cfi_def_cfa_register 6
	movq	%rdi, -8(%rbp)
	movq	%rsi, -16(%rbp)
	movq	%rdx, -24(%rbp)
	movq	%rcx, -32(%rbp)
	movq	-8(%rbp), %rax
	movq	-16(%rbp), %rdx
	movq	%rdx, (%rax)
	movq	-8(%rbp), %rax
	movq	-24(%rbp), %rdx
	movq	%rdx, 8(%rax)
	movq	-8(%rbp), %rax
	movq	-32(%rbp), %rdx
	movq	%rdx, 16(%rax)
	nop
	popq	%rbp
	.cfi_def_cfa 7, 8
	ret
	.cfi_endproc
.LFE3880:
	.size	_ZNSt6vectorIlSaIlEE12_Guard_allocC2EPlmRSt12_Vector_baseIlS0_E, .-_ZNSt6vectorIlSaIlEE12_Guard_allocC2EPlmRSt12_Vector_baseIlS0_E
	.weak	_ZNSt6vectorIlSaIlEE12_Guard_allocC1EPlmRSt12_Vector_baseIlS0_E
	.set	_ZNSt6vectorIlSaIlEE12_Guard_allocC1EPlmRSt12_Vector_baseIlS0_E,_ZNSt6vectorIlSaIlEE12_Guard_allocC2EPlmRSt12_Vector_baseIlS0_E
	.section	.text._ZNSt6vectorIlSaIlEE12_Guard_allocD2Ev,"axG",@progbits,_ZNSt6vectorIlSaIlEE12_Guard_allocD5Ev,comdat
	.align 2
	.weak	_ZNSt6vectorIlSaIlEE12_Guard_allocD2Ev
	.type	_ZNSt6vectorIlSaIlEE12_Guard_allocD2Ev, @function
_ZNSt6vectorIlSaIlEE12_Guard_allocD2Ev:
.LFB3883:
	.cfi_startproc
	pushq	%rbp
	.cfi_def_cfa_offset 16
	.cfi_offset 6, -16
	movq	%rsp, %rbp
	.cfi_def_cfa_register 6
	subq	$16, %rsp
	movq	%rdi, -8(%rbp)
	movq	-8(%rbp), %rax
	movq	(%rax), %rax
	testq	%rax, %rax
	je	.L554
	movq	-8(%rbp), %rax
	movq	16(%rax), %rax
	movq	-8(%rbp), %rdx
	movq	8(%rdx), %rdx
	movq	-8(%rbp), %rcx
	movq	(%rcx), %rcx
	movq	%rcx, %rsi
	movq	%rax, %rdi
	call	_ZNSt12_Vector_baseIlSaIlEE13_M_deallocateEPlm
.L554:
	nop
	leave
	.cfi_def_cfa 7, 8
	ret
	.cfi_endproc
.LFE3883:
	.size	_ZNSt6vectorIlSaIlEE12_Guard_allocD2Ev, .-_ZNSt6vectorIlSaIlEE12_Guard_allocD2Ev
	.weak	_ZNSt6vectorIlSaIlEE12_Guard_allocD1Ev
	.set	_ZNSt6vectorIlSaIlEE12_Guard_allocD1Ev,_ZNSt6vectorIlSaIlEE12_Guard_allocD2Ev
	.section	.text._ZNSt6vectorIlSaIlEE11_S_relocateEPlS2_S2_RS0_,"axG",@progbits,_ZNSt6vectorIlSaIlEE11_S_relocateEPlS2_S2_RS0_,comdat
	.weak	_ZNSt6vectorIlSaIlEE11_S_relocateEPlS2_S2_RS0_
	.type	_ZNSt6vectorIlSaIlEE11_S_relocateEPlS2_S2_RS0_, @function
_ZNSt6vectorIlSaIlEE11_S_relocateEPlS2_S2_RS0_:
.LFB3886:
	.cfi_startproc
	pushq	%rbp
	.cfi_def_cfa_offset 16
	.cfi_offset 6, -16
	movq	%rsp, %rbp
	.cfi_def_cfa_register 6
	subq	$32, %rsp
	movq	%rdi, -8(%rbp)
	movq	%rsi, -16(%rbp)
	movq	%rdx, -24(%rbp)
	movq	%rcx, -32(%rbp)
	movq	-32(%rbp), %rcx
	movq	-24(%rbp), %rdx
	movq	-16(%rbp), %rsi
	movq	-8(%rbp), %rax
	movq	%rax, %rdi
	call	_ZSt12__relocate_aIPlS0_SaIlEET0_T_S3_S2_RT1_
	leave
	.cfi_def_cfa 7, 8
	ret
	.cfi_endproc
.LFE3886:
	.size	_ZNSt6vectorIlSaIlEE11_S_relocateEPlS2_S2_RS0_, .-_ZNSt6vectorIlSaIlEE11_S_relocateEPlS2_S2_RS0_
	.section	.text._ZNKSt6vectorIlSaIlEE5emptyEv,"axG",@progbits,_ZNKSt6vectorIlSaIlEE5emptyEv,comdat
	.align 2
	.weak	_ZNKSt6vectorIlSaIlEE5emptyEv
	.type	_ZNKSt6vectorIlSaIlEE5emptyEv, @function
_ZNKSt6vectorIlSaIlEE5emptyEv:
.LFB3887:
	.cfi_startproc
	pushq	%rbp
	.cfi_def_cfa_offset 16
	.cfi_offset 6, -16
	movq	%rsp, %rbp
	.cfi_def_cfa_register 6
	subq	$64, %rsp
	movq	%rdi, -56(%rbp)
	movq	%fs:40, %rax
	movq	%rax, -8(%rbp)
	xorl	%eax, %eax
	movq	-56(%rbp), %rax
	movq	%rax, %rdi
	call	_ZNKSt6vectorIlSaIlEE3endEv
	movq	%rax, -32(%rbp)
	movq	-56(%rbp), %rax
	movq	%rax, %rdi
	call	_ZNKSt6vectorIlSaIlEE5beginEv
	movq	%rax, -40(%rbp)
	leaq	-40(%rbp), %rax
	movq	%rax, -24(%rbp)
	movq	-24(%rbp), %rax
	movq	(%rax), %rdx
	leaq	-32(%rbp), %rax
	movq	%rax, -16(%rbp)
	movq	-16(%rbp), %rax
	movq	(%rax), %rax
	cmpq	%rax, %rdx
	sete	%al
	movq	-8(%rbp), %rdx
	subq	%fs:40, %rdx
	je	.L562
	call	__stack_chk_fail@PLT
.L562:
	leave
	.cfi_def_cfa 7, 8
	ret
	.cfi_endproc
.LFE3887:
	.size	_ZNKSt6vectorIlSaIlEE5emptyEv, .-_ZNKSt6vectorIlSaIlEE5emptyEv
	.section	.text._ZNSt6vectorIlSaIlEE11_S_max_sizeERKS0_,"axG",@progbits,_ZNSt6vectorIlSaIlEE11_S_max_sizeERKS0_,comdat
	.weak	_ZNSt6vectorIlSaIlEE11_S_max_sizeERKS0_
	.type	_ZNSt6vectorIlSaIlEE11_S_max_sizeERKS0_, @function
_ZNSt6vectorIlSaIlEE11_S_max_sizeERKS0_:
.LFB3889:
	.cfi_startproc
	pushq	%rbp
	.cfi_def_cfa_offset 16
	.cfi_offset 6, -16
	movq	%rsp, %rbp
	.cfi_def_cfa_register 6
	subq	$64, %rsp
	movq	%rdi, -56(%rbp)
	movq	%fs:40, %rax
	movq	%rax, -8(%rbp)
	xorl	%eax, %eax
	movabsq	$1152921504606846975, %rax
	movq	%rax, -48(%rbp)
	movq	-56(%rbp), %rax
	movq	%rax, -32(%rbp)
	movq	-32(%rbp), %rax
	movq	%rax, -24(%rbp)
	movq	-24(%rbp), %rax
	movq	%rax, -16(%rbp)
	movabsq	$1152921504606846975, %rax
	nop
	nop
	movq	%rax, -40(%rbp)
	leaq	-40(%rbp), %rdx
	leaq	-48(%rbp), %rax
	movq	%rdx, %rsi
	movq	%rax, %rdi
	call	_ZSt3minImERKT_S2_S2_
	movq	(%rax), %rax
	movq	-8(%rbp), %rdx
	subq	%fs:40, %rdx
	je	.L568
	call	__stack_chk_fail@PLT
.L568:
	leave
	.cfi_def_cfa 7, 8
	ret
	.cfi_endproc
.LFE3889:
	.size	_ZNSt6vectorIlSaIlEE11_S_max_sizeERKS0_, .-_ZNSt6vectorIlSaIlEE11_S_max_sizeERKS0_
	.section	.text._ZNSt6vectorIlSaIlEE12_Guard_alloc10_M_releaseEv,"axG",@progbits,_ZNSt6vectorIlSaIlEE12_Guard_alloc10_M_releaseEv,comdat
	.align 2
	.weak	_ZNSt6vectorIlSaIlEE12_Guard_alloc10_M_releaseEv
	.type	_ZNSt6vectorIlSaIlEE12_Guard_alloc10_M_releaseEv, @function
_ZNSt6vectorIlSaIlEE12_Guard_alloc10_M_releaseEv:
.LFB3893:
	.cfi_startproc
	pushq	%rbp
	.cfi_def_cfa_offset 16
	.cfi_offset 6, -16
	movq	%rsp, %rbp
	.cfi_def_cfa_register 6
	movq	%rdi, -24(%rbp)
	movq	-24(%rbp), %rax
	movq	(%rax), %rax
	movq	%rax, -8(%rbp)
	movq	-24(%rbp), %rax
	movq	$0, (%rax)
	movq	-8(%rbp), %rax
	popq	%rbp
	.cfi_def_cfa 7, 8
	ret
	.cfi_endproc
.LFE3893:
	.size	_ZNSt6vectorIlSaIlEE12_Guard_alloc10_M_releaseEv, .-_ZNSt6vectorIlSaIlEE12_Guard_alloc10_M_releaseEv
	.section	.text._ZSt12__miter_baseIPKlET_S2_,"axG",@progbits,_ZSt12__miter_baseIPKlET_S2_,comdat
	.weak	_ZSt12__miter_baseIPKlET_S2_
	.type	_ZSt12__miter_baseIPKlET_S2_, @function
_ZSt12__miter_baseIPKlET_S2_:
.LFB3894:
	.cfi_startproc
	pushq	%rbp
	.cfi_def_cfa_offset 16
	.cfi_offset 6, -16
	movq	%rsp, %rbp
	.cfi_def_cfa_register 6
	movq	%rdi, -8(%rbp)
	movq	-8(%rbp), %rax
	popq	%rbp
	.cfi_def_cfa 7, 8
	ret
	.cfi_endproc
.LFE3894:
	.size	_ZSt12__miter_baseIPKlET_S2_, .-_ZSt12__miter_baseIPKlET_S2_
	.section	.text._ZSt9__advanceIPKllEvRT_T0_St26random_access_iterator_tag,"axG",@progbits,_ZSt9__advanceIPKllEvRT_T0_St26random_access_iterator_tag,comdat
	.weak	_ZSt9__advanceIPKllEvRT_T0_St26random_access_iterator_tag
	.type	_ZSt9__advanceIPKllEvRT_T0_St26random_access_iterator_tag, @function
_ZSt9__advanceIPKllEvRT_T0_St26random_access_iterator_tag:
.LFB3897:
	.cfi_startproc
	pushq	%rbp
	.cfi_def_cfa_offset 16
	.cfi_offset 6, -16
	movq	%rsp, %rbp
	.cfi_def_cfa_register 6
	movq	%rdi, -8(%rbp)
	movq	%rsi, -16(%rbp)
	movq	-8(%rbp), %rax
	movq	(%rax), %rax
	movq	-16(%rbp), %rdx
	salq	$3, %rdx
	addq	%rax, %rdx
	movq	-8(%rbp), %rax
	movq	%rdx, (%rax)
	nop
	popq	%rbp
	.cfi_def_cfa 7, 8
	ret
	.cfi_endproc
.LFE3897:
	.size	_ZSt9__advanceIPKllEvRT_T0_St26random_access_iterator_tag, .-_ZSt9__advanceIPKllEvRT_T0_St26random_access_iterator_tag
	.section	.text._ZSt18uninitialized_copyIPKlPlET0_T_S4_S3_,"axG",@progbits,_ZSt18uninitialized_copyIPKlPlET0_T_S4_S3_,comdat
	.weak	_ZSt18uninitialized_copyIPKlPlET0_T_S4_S3_
	.type	_ZSt18uninitialized_copyIPKlPlET0_T_S4_S3_, @function
_ZSt18uninitialized_copyIPKlPlET0_T_S4_S3_:
.LFB3898:
	.cfi_startproc
	pushq	%rbp
	.cfi_def_cfa_offset 16
	.cfi_offset 6, -16
	movq	%rsp, %rbp
	.cfi_def_cfa_register 6
	subq	$64, %rsp
	movq	%rdi, -40(%rbp)
	movq	%rsi, -48(%rbp)
	movq	%rdx, -56(%rbp)
	movq	-48(%rbp), %rax
	subq	-40(%rbp), %rax
	sarq	$3, %rax
	movq	%rax, -24(%rbp)
	cmpq	$0, -24(%rbp)
	jle	.L575
	movq	-24(%rbp), %rax
	leaq	0(,%rax,8), %rsi
	movq	-40(%rbp), %rax
	movq	%rax, -8(%rbp)
	movq	-8(%rbp), %rdx
	movq	-56(%rbp), %rax
	movq	%rax, -16(%rbp)
	movq	-16(%rbp), %rax
	movq	%rdx, %rcx
	movq	%rsi, %rdx
	movq	%rcx, %rsi
	movq	%rax, %rdi
	call	memcpy@PLT
	movq	-24(%rbp), %rax
	salq	$3, %rax
	addq	%rax, -56(%rbp)
.L575:
	movq	-56(%rbp), %rax
	leave
	.cfi_def_cfa 7, 8
	ret
	.cfi_endproc
.LFE3898:
	.size	_ZSt18uninitialized_copyIPKlPlET0_T_S4_S3_, .-_ZSt18uninitialized_copyIPKlPlET0_T_S4_S3_
	.section	.text._ZNSt15__new_allocatorI6ResultE10deallocateEPS0_m,"axG",@progbits,_ZNSt15__new_allocatorI6ResultE10deallocateEPS0_m,comdat
	.align 2
	.weak	_ZNSt15__new_allocatorI6ResultE10deallocateEPS0_m
	.type	_ZNSt15__new_allocatorI6ResultE10deallocateEPS0_m, @function
_ZNSt15__new_allocatorI6ResultE10deallocateEPS0_m:
.LFB3899:
	.cfi_startproc
	pushq	%rbp
	.cfi_def_cfa_offset 16
	.cfi_offset 6, -16
	movq	%rsp, %rbp
	.cfi_def_cfa_register 6
	subq	$32, %rsp
	movq	%rdi, -8(%rbp)
	movq	%rsi, -16(%rbp)
	movq	%rdx, -24(%rbp)
	movq	-24(%rbp), %rax
	salq	$5, %rax
	movq	%rax, %rdx
	movq	-16(%rbp), %rax
	movq	%rdx, %rsi
	movq	%rax, %rdi
	call	_ZdlPvm@PLT
	leave
	.cfi_def_cfa 7, 8
	ret
	.cfi_endproc
.LFE3899:
	.size	_ZNSt15__new_allocatorI6ResultE10deallocateEPS0_m, .-_ZNSt15__new_allocatorI6ResultE10deallocateEPS0_m
	.section	.text._ZNSt15__new_allocatorI6ResultE8allocateEmPKv,"axG",@progbits,_ZNSt15__new_allocatorI6ResultE8allocateEmPKv,comdat
	.align 2
	.weak	_ZNSt15__new_allocatorI6ResultE8allocateEmPKv
	.type	_ZNSt15__new_allocatorI6ResultE8allocateEmPKv, @function
_ZNSt15__new_allocatorI6ResultE8allocateEmPKv:
.LFB3901:
	.cfi_startproc
	pushq	%rbp
	.cfi_def_cfa_offset 16
	.cfi_offset 6, -16
	movq	%rsp, %rbp
	.cfi_def_cfa_register 6
	subq	$48, %rsp
	movq	%rdi, -24(%rbp)
	movq	%rsi, -32(%rbp)
	movq	%rdx, -40(%rbp)
	movq	-24(%rbp), %rax
	movq	%rax, -8(%rbp)
	movabsq	$288230376151711743, %rax
	cmpq	-32(%rbp), %rax
	setb	%al
	movzbl	%al, %eax
	testq	%rax, %rax
	setne	%al
	testb	%al, %al
	je	.L583
	movabsq	$576460752303423487, %rax
	cmpq	-32(%rbp), %rax
	jnb	.L584
	call	_ZSt28__throw_bad_array_new_lengthv@PLT
.L584:
	call	_ZSt17__throw_bad_allocv@PLT
.L583:
	movq	-32(%rbp), %rax
	salq	$5, %rax
	movq	%rax, %rdi
	call	_Znwm@PLT
	nop
	leave
	.cfi_def_cfa 7, 8
	ret
	.cfi_endproc
.LFE3901:
	.size	_ZNSt15__new_allocatorI6ResultE8allocateEmPKv, .-_ZNSt15__new_allocatorI6ResultE8allocateEmPKv
	.section	.text._ZSt14__relocate_a_1I6ResultS0_ENSt9enable_ifIXsrSt24__is_bitwise_relocatableIT_vE5valueEPS3_E4typeES5_S5_S5_RSaIT0_E,"axG",@progbits,_ZSt14__relocate_a_1I6ResultS0_ENSt9enable_ifIXsrSt24__is_bitwise_relocatableIT_vE5valueEPS3_E4typeES5_S5_S5_RSaIT0_E,comdat
	.weak	_ZSt14__relocate_a_1I6ResultS0_ENSt9enable_ifIXsrSt24__is_bitwise_relocatableIT_vE5valueEPS3_E4typeES5_S5_S5_RSaIT0_E
	.type	_ZSt14__relocate_a_1I6ResultS0_ENSt9enable_ifIXsrSt24__is_bitwise_relocatableIT_vE5valueEPS3_E4typeES5_S5_S5_RSaIT0_E, @function
_ZSt14__relocate_a_1I6ResultS0_ENSt9enable_ifIXsrSt24__is_bitwise_relocatableIT_vE5valueEPS3_E4typeES5_S5_S5_RSaIT0_E:
.LFB3903:
	.cfi_startproc
	pushq	%rbp
	.cfi_def_cfa_offset 16
	.cfi_offset 6, -16
	movq	%rsp, %rbp
	.cfi_def_cfa_register 6
	subq	$48, %rsp
	movq	%rdi, -24(%rbp)
	movq	%rsi, -32(%rbp)
	movq	%rdx, -40(%rbp)
	movq	%rcx, -48(%rbp)
	movq	-32(%rbp), %rax
	subq	-24(%rbp), %rax
	sarq	$5, %rax
	movq	%rax, -8(%rbp)
	cmpq	$0, -8(%rbp)
	jle	.L587
	movq	-8(%rbp), %rax
	salq	$5, %rax
	movq	%rax, %rsi
	movq	-40(%rbp), %rdx
	movq	-24(%rbp), %rax
	movq	%rdx, %rcx
	movq	%rsi, %rdx
	movq	%rax, %rsi
	movq	%rcx, %rdi
	call	memcpy@PLT
.L587:
	movq	-8(%rbp), %rax
	salq	$5, %rax
	movq	%rax, %rdx
	movq	-40(%rbp), %rax
	addq	%rdx, %rax
	leave
	.cfi_def_cfa 7, 8
	ret
	.cfi_endproc
.LFE3903:
	.size	_ZSt14__relocate_a_1I6ResultS0_ENSt9enable_ifIXsrSt24__is_bitwise_relocatableIT_vE5valueEPS3_E4typeES5_S5_S5_RSaIT0_E, .-_ZSt14__relocate_a_1I6ResultS0_ENSt9enable_ifIXsrSt24__is_bitwise_relocatableIT_vE5valueEPS3_E4typeES5_S5_S5_RSaIT0_E
	.section	.text._ZNSt15__new_allocatorIcE10deallocateEPcm,"axG",@progbits,_ZNSt15__new_allocatorIcE10deallocateEPcm,comdat
	.align 2
	.weak	_ZNSt15__new_allocatorIcE10deallocateEPcm
	.type	_ZNSt15__new_allocatorIcE10deallocateEPcm, @function
_ZNSt15__new_allocatorIcE10deallocateEPcm:
.LFB3904:
	.cfi_startproc
	pushq	%rbp
	.cfi_def_cfa_offset 16
	.cfi_offset 6, -16
	movq	%rsp, %rbp
	.cfi_def_cfa_register 6
	subq	$32, %rsp
	movq	%rdi, -8(%rbp)
	movq	%rsi, -16(%rbp)
	movq	%rdx, -24(%rbp)
	movq	-24(%rbp), %rdx
	movq	-16(%rbp), %rax
	movq	%rdx, %rsi
	movq	%rax, %rdi
	call	_ZdlPvm@PLT
	leave
	.cfi_def_cfa 7, 8
	ret
	.cfi_endproc
.LFE3904:
	.size	_ZNSt15__new_allocatorIcE10deallocateEPcm, .-_ZNSt15__new_allocatorIcE10deallocateEPcm
	.section	.text._ZNKSt7__cxx1112basic_stringIcSt11char_traitsIcESaIcEE15_M_check_lengthEmmPKc,"axG",@progbits,_ZNKSt7__cxx1112basic_stringIcSt11char_traitsIcESaIcEE15_M_check_lengthEmmPKc,comdat
	.align 2
	.weak	_ZNKSt7__cxx1112basic_stringIcSt11char_traitsIcESaIcEE15_M_check_lengthEmmPKc
	.type	_ZNKSt7__cxx1112basic_stringIcSt11char_traitsIcESaIcEE15_M_check_lengthEmmPKc, @function
_ZNKSt7__cxx1112basic_stringIcSt11char_traitsIcESaIcEE15_M_check_lengthEmmPKc:
.LFB3905:
	.cfi_startproc
	pushq	%rbp
	.cfi_def_cfa_offset 16
	.cfi_offset 6, -16
	movq	%rsp, %rbp
	.cfi_def_cfa_register 6
	pushq	%rbx
	subq	$40, %rsp
	.cfi_offset 3, -24
	movq	%rdi, -24(%rbp)
	movq	%rsi, -32(%rbp)
	movq	%rdx, -40(%rbp)
	movq	%rcx, -48(%rbp)
	movq	-24(%rbp), %rax
	movq	%rax, %rdi
	call	_ZNKSt7__cxx1112basic_stringIcSt11char_traitsIcESaIcEE8max_sizeEv
	movq	%rax, %rbx
	movq	-24(%rbp), %rax
	movq	%rax, %rdi
	call	_ZNKSt7__cxx1112basic_stringIcSt11char_traitsIcESaIcEE4sizeEv
	movq	-32(%rbp), %rdx
	subq	%rax, %rdx
	leaq	(%rbx,%rdx), %rax
	cmpq	-40(%rbp), %rax
	setb	%al
	testb	%al, %al
	je	.L593
	movq	-48(%rbp), %rax
	movq	%rax, %rdi
	call	_ZSt20__throw_length_errorPKc@PLT
.L593:
	nop
	movq	-8(%rbp), %rbx
	leave
	.cfi_def_cfa 7, 8
	ret
	.cfi_endproc
.LFE3905:
	.size	_ZNKSt7__cxx1112basic_stringIcSt11char_traitsIcESaIcEE15_M_check_lengthEmmPKc, .-_ZNKSt7__cxx1112basic_stringIcSt11char_traitsIcESaIcEE15_M_check_lengthEmmPKc
	.section	.text._ZNKSt7__cxx1112basic_stringIcSt11char_traitsIcESaIcEE11_M_disjunctEPKc,"axG",@progbits,_ZNKSt7__cxx1112basic_stringIcSt11char_traitsIcESaIcEE11_M_disjunctEPKc,comdat
	.align 2
	.weak	_ZNKSt7__cxx1112basic_stringIcSt11char_traitsIcESaIcEE11_M_disjunctEPKc
	.type	_ZNKSt7__cxx1112basic_stringIcSt11char_traitsIcESaIcEE11_M_disjunctEPKc, @function
_ZNKSt7__cxx1112basic_stringIcSt11char_traitsIcESaIcEE11_M_disjunctEPKc:
.LFB3906:
	.cfi_startproc
	pushq	%rbp
	.cfi_def_cfa_offset 16
	.cfi_offset 6, -16
	movq	%rsp, %rbp
	.cfi_def_cfa_register 6
	pushq	%rbx
	subq	$40, %rsp
	.cfi_offset 3, -24
	movq	%rdi, -40(%rbp)
	movq	%rsi, -48(%rbp)
	movq	%fs:40, %rax
	movq	%rax, -24(%rbp)
	xorl	%eax, %eax
	movq	-40(%rbp), %rax
	movq	%rax, %rdi
	call	_ZNKSt7__cxx1112basic_stringIcSt11char_traitsIcESaIcEE7_M_dataEv
	movq	%rax, %rdx
	movq	-48(%rbp), %rcx
	leaq	-26(%rbp), %rax
	movq	%rcx, %rsi
	movq	%rax, %rdi
	call	_ZNKSt4lessIPKcEclES1_S1_
	testb	%al, %al
	jne	.L595
	movq	-40(%rbp), %rax
	movq	%rax, %rdi
	call	_ZNKSt7__cxx1112basic_stringIcSt11char_traitsIcESaIcEE7_M_dataEv
	movq	%rax, %rbx
	movq	-40(%rbp), %rax
	movq	%rax, %rdi
	call	_ZNKSt7__cxx1112basic_stringIcSt11char_traitsIcESaIcEE4sizeEv
	leaq	(%rbx,%rax), %rcx
	movq	-48(%rbp), %rdx
	leaq	-25(%rbp), %rax
	movq	%rcx, %rsi
	movq	%rax, %rdi
	call	_ZNKSt4lessIPKcEclES1_S1_
	testb	%al, %al
	je	.L596
.L595:
	movl	$1, %eax
	jmp	.L597
.L596:
	movl	$0, %eax
.L597:
	movq	-24(%rbp), %rdx
	subq	%fs:40, %rdx
	je	.L599
	call	__stack_chk_fail@PLT
.L599:
	movq	-8(%rbp), %rbx
	leave
	.cfi_def_cfa 7, 8
	ret
	.cfi_endproc
.LFE3906:
	.size	_ZNKSt7__cxx1112basic_stringIcSt11char_traitsIcESaIcEE11_M_disjunctEPKc, .-_ZNKSt7__cxx1112basic_stringIcSt11char_traitsIcESaIcEE11_M_disjunctEPKc
	.section	.text._ZNSt7__cxx1112basic_stringIcSt11char_traitsIcESaIcEE15_M_replace_coldEPcmPKcmm,"axG",@progbits,_ZNSt7__cxx1112basic_stringIcSt11char_traitsIcESaIcEE15_M_replace_coldEPcmPKcmm,comdat
	.align 2
	.weak	_ZNSt7__cxx1112basic_stringIcSt11char_traitsIcESaIcEE15_M_replace_coldEPcmPKcmm
	.type	_ZNSt7__cxx1112basic_stringIcSt11char_traitsIcESaIcEE15_M_replace_coldEPcmPKcmm, @function
_ZNSt7__cxx1112basic_stringIcSt11char_traitsIcESaIcEE15_M_replace_coldEPcmPKcmm:
.LFB3907:
	.cfi_startproc
	pushq	%rbp
	.cfi_def_cfa_offset 16
	.cfi_offset 6, -16
	movq	%rsp, %rbp
	.cfi_def_cfa_register 6
	subq	$64, %rsp
	movq	%rdi, -24(%rbp)
	movq	%rsi, -32(%rbp)
	movq	%rdx, -40(%rbp)
	movq	%rcx, -48(%rbp)
	movq	%r8, -56(%rbp)
	movq	%r9, -64(%rbp)
	cmpq	$0, -56(%rbp)
	je	.L601
	movq	-56(%rbp), %rax
	cmpq	%rax, -40(%rbp)
	jb	.L601
	movq	-56(%rbp), %rdx
	movq	-48(%rbp), %rcx
	movq	-32(%rbp), %rax
	movq	%rcx, %rsi
	movq	%rax, %rdi
	call	_ZNSt7__cxx1112basic_stringIcSt11char_traitsIcESaIcEE7_S_moveEPcPKcm
.L601:
	cmpq	$0, -64(%rbp)
	je	.L602
	movq	-40(%rbp), %rax
	cmpq	-56(%rbp), %rax
	je	.L602
	movq	-32(%rbp), %rdx
	movq	-40(%rbp), %rax
	leaq	(%rdx,%rax), %rsi
	movq	-32(%rbp), %rdx
	movq	-56(%rbp), %rax
	leaq	(%rdx,%rax), %rcx
	movq	-64(%rbp), %rax
	movq	%rax, %rdx
	movq	%rcx, %rdi
	call	_ZNSt7__cxx1112basic_stringIcSt11char_traitsIcESaIcEE7_S_moveEPcPKcm
.L602:
	movq	-56(%rbp), %rax
	cmpq	%rax, -40(%rbp)
	jnb	.L606
	movq	-48(%rbp), %rdx
	movq	-56(%rbp), %rax
	addq	%rdx, %rax
	movq	-32(%rbp), %rcx
	movq	-40(%rbp), %rdx
	addq	%rcx, %rdx
	cmpq	%rax, %rdx
	jb	.L604
	movq	-56(%rbp), %rdx
	movq	-48(%rbp), %rcx
	movq	-32(%rbp), %rax
	movq	%rcx, %rsi
	movq	%rax, %rdi
	call	_ZNSt7__cxx1112basic_stringIcSt11char_traitsIcESaIcEE7_S_moveEPcPKcm
	jmp	.L606
.L604:
	movq	-32(%rbp), %rdx
	movq	-40(%rbp), %rax
	addq	%rdx, %rax
	cmpq	%rax, -48(%rbp)
	jb	.L605
	movq	-48(%rbp), %rax
	subq	-32(%rbp), %rax
	movq	%rax, %rdx
	movq	-56(%rbp), %rax
	subq	-40(%rbp), %rax
	addq	%rdx, %rax
	movq	%rax, -8(%rbp)
	movq	-32(%rbp), %rdx
	movq	-8(%rbp), %rax
	leaq	(%rdx,%rax), %rcx
	movq	-56(%rbp), %rdx
	movq	-32(%rbp), %rax
	movq	%rcx, %rsi
	movq	%rax, %rdi
	call	_ZNSt7__cxx1112basic_stringIcSt11char_traitsIcESaIcEE7_S_copyEPcPKcm
	jmp	.L606
.L605:
	movq	-32(%rbp), %rdx
	movq	-40(%rbp), %rax
	addq	%rdx, %rax
	subq	-48(%rbp), %rax
	movq	%rax, -16(%rbp)
	movq	-16(%rbp), %rdx
	movq	-48(%rbp), %rcx
	movq	-32(%rbp), %rax
	movq	%rcx, %rsi
	movq	%rax, %rdi
	call	_ZNSt7__cxx1112basic_stringIcSt11char_traitsIcESaIcEE7_S_moveEPcPKcm
	movq	-56(%rbp), %rax
	subq	-16(%rbp), %rax
	movq	-32(%rbp), %rcx
	movq	-56(%rbp), %rdx
	leaq	(%rcx,%rdx), %rsi
	movq	-32(%rbp), %rcx
	movq	-16(%rbp), %rdx
	addq	%rdx, %rcx
	movq	%rax, %rdx
	movq	%rcx, %rdi
	call	_ZNSt7__cxx1112basic_stringIcSt11char_traitsIcESaIcEE7_S_copyEPcPKcm
.L606:
	nop
	leave
	.cfi_def_cfa 7, 8
	ret
	.cfi_endproc
.LFE3907:
	.size	_ZNSt7__cxx1112basic_stringIcSt11char_traitsIcESaIcEE15_M_replace_coldEPcmPKcmm, .-_ZNSt7__cxx1112basic_stringIcSt11char_traitsIcESaIcEE15_M_replace_coldEPcmPKcmm
	.section	.text._ZNSt7__cxx1112basic_stringIcSt11char_traitsIcESaIcEE9_M_mutateEmmPKcm,"axG",@progbits,_ZNSt7__cxx1112basic_stringIcSt11char_traitsIcESaIcEE9_M_mutateEmmPKcm,comdat
	.align 2
	.weak	_ZNSt7__cxx1112basic_stringIcSt11char_traitsIcESaIcEE9_M_mutateEmmPKcm
	.type	_ZNSt7__cxx1112basic_stringIcSt11char_traitsIcESaIcEE9_M_mutateEmmPKcm, @function
_ZNSt7__cxx1112basic_stringIcSt11char_traitsIcESaIcEE9_M_mutateEmmPKcm:
.LFB3908:
	.cfi_startproc
	pushq	%rbp
	.cfi_def_cfa_offset 16
	.cfi_offset 6, -16
	movq	%rsp, %rbp
	.cfi_def_cfa_register 6
	subq	$80, %rsp
	movq	%rdi, -40(%rbp)
	movq	%rsi, -48(%rbp)
	movq	%rdx, -56(%rbp)
	movq	%rcx, -64(%rbp)
	movq	%r8, -72(%rbp)
	movq	%fs:40, %rax
	movq	%rax, -8(%rbp)
	xorl	%eax, %eax
	movq	-40(%rbp), %rax
	movq	%rax, %rdi
	call	_ZNKSt7__cxx1112basic_stringIcSt11char_traitsIcESaIcEE6lengthEv
	subq	-48(%rbp), %rax
	subq	-56(%rbp), %rax
	movq	%rax, -24(%rbp)
	movq	-40(%rbp), %rax
	movq	%rax, %rdi
	call	_ZNKSt7__cxx1112basic_stringIcSt11char_traitsIcESaIcEE6lengthEv
	movq	-72(%rbp), %rdx
	addq	%rdx, %rax
	subq	-56(%rbp), %rax
	movq	%rax, -32(%rbp)
	movq	-40(%rbp), %rax
	movq	%rax, %rdi
	call	_ZNKSt7__cxx1112basic_stringIcSt11char_traitsIcESaIcEE8capacityEv
	movq	%rax, %rdx
	leaq	-32(%rbp), %rcx
	movq	-40(%rbp), %rax
	movq	%rcx, %rsi
	movq	%rax, %rdi
	call	_ZNSt7__cxx1112basic_stringIcSt11char_traitsIcESaIcEE9_M_createERmm
	movq	%rax, -16(%rbp)
	cmpq	$0, -48(%rbp)
	je	.L608
	movq	-40(%rbp), %rax
	movq	%rax, %rdi
	call	_ZNKSt7__cxx1112basic_stringIcSt11char_traitsIcESaIcEE7_M_dataEv
	movq	%rax, %rcx
	movq	-48(%rbp), %rdx
	movq	-16(%rbp), %rax
	movq	%rcx, %rsi
	movq	%rax, %rdi
	call	_ZNSt7__cxx1112basic_stringIcSt11char_traitsIcESaIcEE7_S_copyEPcPKcm
.L608:
	cmpq	$0, -64(%rbp)
	je	.L609
	cmpq	$0, -72(%rbp)
	je	.L609
	movq	-16(%rbp), %rdx
	movq	-48(%rbp), %rax
	leaq	(%rdx,%rax), %rcx
	movq	-72(%rbp), %rdx
	movq	-64(%rbp), %rax
	movq	%rax, %rsi
	movq	%rcx, %rdi
	call	_ZNSt7__cxx1112basic_stringIcSt11char_traitsIcESaIcEE7_S_copyEPcPKcm
.L609:
	cmpq	$0, -24(%rbp)
	je	.L610
	movq	-40(%rbp), %rax
	movq	%rax, %rdi
	call	_ZNKSt7__cxx1112basic_stringIcSt11char_traitsIcESaIcEE7_M_dataEv
	movq	-48(%rbp), %rcx
	movq	-56(%rbp), %rdx
	addq	%rcx, %rdx
	leaq	(%rax,%rdx), %rsi
	movq	-48(%rbp), %rdx
	movq	-72(%rbp), %rax
	addq	%rax, %rdx
	movq	-16(%rbp), %rax
	leaq	(%rdx,%rax), %rcx
	movq	-24(%rbp), %rax
	movq	%rax, %rdx
	movq	%rcx, %rdi
	call	_ZNSt7__cxx1112basic_stringIcSt11char_traitsIcESaIcEE7_S_copyEPcPKcm
.L610:
	movq	-40(%rbp), %rax
	movq	%rax, %rdi
	call	_ZNSt7__cxx1112basic_stringIcSt11char_traitsIcESaIcEE10_M_disposeEv
	movq	-16(%rbp), %rdx
	movq	-40(%rbp), %rax
	movq	%rdx, %rsi
	movq	%rax, %rdi
	call	_ZNSt7__cxx1112basic_stringIcSt11char_traitsIcESaIcEE7_M_dataEPc
	movq	-32(%rbp), %rdx
	movq	-40(%rbp), %rax
	movq	%rdx, %rsi
	movq	%rax, %rdi
	call	_ZNSt7__cxx1112basic_stringIcSt11char_traitsIcESaIcEE11_M_capacityEm
	nop
	movq	-8(%rbp), %rax
	subq	%fs:40, %rax
	je	.L611
	call	__stack_chk_fail@PLT
.L611:
	leave
	.cfi_def_cfa 7, 8
	ret
	.cfi_endproc
.LFE3908:
	.size	_ZNSt7__cxx1112basic_stringIcSt11char_traitsIcESaIcEE9_M_mutateEmmPKcm, .-_ZNSt7__cxx1112basic_stringIcSt11char_traitsIcESaIcEE9_M_mutateEmmPKcm
	.section	.text._ZNSt6chrono20__duration_cast_implINS_8durationIdSt5ratioILl1ELl1EEEES2_ILl1ELl1000000000EEdLb1ELb0EE6__castIlS5_EES4_RKNS1_IT_T0_EE,"axG",@progbits,_ZNSt6chrono20__duration_cast_implINS_8durationIdSt5ratioILl1ELl1EEEES2_ILl1ELl1000000000EEdLb1ELb0EE6__castIlS5_EES4_RKNS1_IT_T0_EE,comdat
	.weak	_ZNSt6chrono20__duration_cast_implINS_8durationIdSt5ratioILl1ELl1EEEES2_ILl1ELl1000000000EEdLb1ELb0EE6__castIlS5_EES4_RKNS1_IT_T0_EE
	.type	_ZNSt6chrono20__duration_cast_implINS_8durationIdSt5ratioILl1ELl1EEEES2_ILl1ELl1000000000EEdLb1ELb0EE6__castIlS5_EES4_RKNS1_IT_T0_EE, @function
_ZNSt6chrono20__duration_cast_implINS_8durationIdSt5ratioILl1ELl1EEEES2_ILl1ELl1000000000EEdLb1ELb0EE6__castIlS5_EES4_RKNS1_IT_T0_EE:
.LFB3909:
	.cfi_startproc
	pushq	%rbp
	.cfi_def_cfa_offset 16
	.cfi_offset 6, -16
	movq	%rsp, %rbp
	.cfi_def_cfa_register 6
	subq	$48, %rsp
	movq	%rdi, -40(%rbp)
	movq	%fs:40, %rax
	movq	%rax, -8(%rbp)
	xorl	%eax, %eax
	movq	-40(%rbp), %rax
	movq	%rax, %rdi
	call	_ZNKSt6chrono8durationIlSt5ratioILl1ELl1000000000EEE5countEv
	pxor	%xmm0, %xmm0
	cvtsi2sdq	%rax, %xmm0
	movsd	.LC59(%rip), %xmm1
	divsd	%xmm1, %xmm0
	movsd	%xmm0, -24(%rbp)
	leaq	-24(%rbp), %rdx
	leaq	-16(%rbp), %rax
	movq	%rdx, %rsi
	movq	%rax, %rdi
	call	_ZNSt6chrono8durationIdSt5ratioILl1ELl1EEEC1IdvEERKT_
	movsd	-16(%rbp), %xmm0
	movq	-8(%rbp), %rax
	subq	%fs:40, %rax
	je	.L614
	call	__stack_chk_fail@PLT
.L614:
	leave
	.cfi_def_cfa 7, 8
	ret
	.cfi_endproc
.LFE3909:
	.size	_ZNSt6chrono20__duration_cast_implINS_8durationIdSt5ratioILl1ELl1EEEES2_ILl1ELl1000000000EEdLb1ELb0EE6__castIlS5_EES4_RKNS1_IT_T0_EE, .-_ZNSt6chrono20__duration_cast_implINS_8durationIdSt5ratioILl1ELl1EEEES2_ILl1ELl1000000000EEdLb1ELb0EE6__castIlS5_EES4_RKNS1_IT_T0_EE
	.section	.text._ZNKSt6vectorI6ResultSaIS0_EE12_M_check_lenEmPKc,"axG",@progbits,_ZNKSt6vectorI6ResultSaIS0_EE12_M_check_lenEmPKc,comdat
	.align 2
	.weak	_ZNKSt6vectorI6ResultSaIS0_EE12_M_check_lenEmPKc
	.type	_ZNKSt6vectorI6ResultSaIS0_EE12_M_check_lenEmPKc, @function
_ZNKSt6vectorI6ResultSaIS0_EE12_M_check_lenEmPKc:
.LFB3911:
	.cfi_startproc
	pushq	%rbp
	.cfi_def_cfa_offset 16
	.cfi_offset 6, -16
	movq	%rsp, %rbp
	.cfi_def_cfa_register 6
	pushq	%rbx
	subq	$72, %rsp
	.cfi_offset 3, -24
	movq	%rdi, -56(%rbp)
	movq	%rsi, -64(%rbp)
	movq	%rdx, -72(%rbp)
	movq	%fs:40, %rax
	movq	%rax, -24(%rbp)
	xorl	%eax, %eax
	movq	-56(%rbp), %rax
	movq	%rax, %rdi
	call	_ZNKSt6vectorI6ResultSaIS0_EE8max_sizeEv
	movq	%rax, %rbx
	movq	-56(%rbp), %rax
	movq	%rax, %rdi
	call	_ZNKSt6vectorI6ResultSaIS0_EE4sizeEv
	subq	%rax, %rbx
	movq	%rbx, %rdx
	movq	-64(%rbp), %rax
	cmpq	%rax, %rdx
	setb	%al
	testb	%al, %al
	je	.L616
	movq	-24(%rbp), %rax
	subq	%fs:40, %rax
	je	.L617
	call	__stack_chk_fail@PLT
.L617:
	movq	-72(%rbp), %rax
	movq	%rax, %rdi
	call	_ZSt20__throw_length_errorPKc@PLT
.L616:
	movq	-56(%rbp), %rax
	movq	%rax, %rdi
	call	_ZNKSt6vectorI6ResultSaIS0_EE4sizeEv
	movq	%rax, %rbx
	movq	-56(%rbp), %rax
	movq	%rax, %rdi
	call	_ZNKSt6vectorI6ResultSaIS0_EE4sizeEv
	movq	%rax, -40(%rbp)
	leaq	-64(%rbp), %rdx
	leaq	-40(%rbp), %rax
	movq	%rdx, %rsi
	movq	%rax, %rdi
	call	_ZSt3maxImERKT_S2_S2_
	movq	(%rax), %rax
	addq	%rbx, %rax
	movq	%rax, -32(%rbp)
	movq	-56(%rbp), %rax
	movq	%rax, %rdi
	call	_ZNKSt6vectorI6ResultSaIS0_EE4sizeEv
	cmpq	%rax, -32(%rbp)
	jb	.L618
	movq	-56(%rbp), %rax
	movq	%rax, %rdi
	call	_ZNKSt6vectorI6ResultSaIS0_EE8max_sizeEv
	cmpq	-32(%rbp), %rax
	jnb	.L619
.L618:
	movq	-56(%rbp), %rax
	movq	%rax, %rdi
	call	_ZNKSt6vectorI6ResultSaIS0_EE8max_sizeEv
	jmp	.L621
.L619:
	movq	-32(%rbp), %rax
.L621:
	movq	-24(%rbp), %rdx
	subq	%fs:40, %rdx
	je	.L622
	call	__stack_chk_fail@PLT
.L622:
	movq	-8(%rbp), %rbx
	leave
	.cfi_def_cfa 7, 8
	ret
	.cfi_endproc
.LFE3911:
	.size	_ZNKSt6vectorI6ResultSaIS0_EE12_M_check_lenEmPKc, .-_ZNKSt6vectorI6ResultSaIS0_EE12_M_check_lenEmPKc
	.section	.text._ZNSt6vectorI6ResultSaIS0_EE12_Guard_allocC2EPS0_mRSt12_Vector_baseIS0_S1_E,"axG",@progbits,_ZNSt6vectorI6ResultSaIS0_EE12_Guard_allocC5EPS0_mRSt12_Vector_baseIS0_S1_E,comdat
	.align 2
	.weak	_ZNSt6vectorI6ResultSaIS0_EE12_Guard_allocC2EPS0_mRSt12_Vector_baseIS0_S1_E
	.type	_ZNSt6vectorI6ResultSaIS0_EE12_Guard_allocC2EPS0_mRSt12_Vector_baseIS0_S1_E, @function
_ZNSt6vectorI6ResultSaIS0_EE12_Guard_allocC2EPS0_mRSt12_Vector_baseIS0_S1_E:
.LFB3914:
	.cfi_startproc
	pushq	%rbp
	.cfi_def_cfa_offset 16
	.cfi_offset 6, -16
	movq	%rsp, %rbp
	.cfi_def_cfa_register 6
	movq	%rdi, -8(%rbp)
	movq	%rsi, -16(%rbp)
	movq	%rdx, -24(%rbp)
	movq	%rcx, -32(%rbp)
	movq	-8(%rbp), %rax
	movq	-16(%rbp), %rdx
	movq	%rdx, (%rax)
	movq	-8(%rbp), %rax
	movq	-24(%rbp), %rdx
	movq	%rdx, 8(%rax)
	movq	-8(%rbp), %rax
	movq	-32(%rbp), %rdx
	movq	%rdx, 16(%rax)
	nop
	popq	%rbp
	.cfi_def_cfa 7, 8
	ret
	.cfi_endproc
.LFE3914:
	.size	_ZNSt6vectorI6ResultSaIS0_EE12_Guard_allocC2EPS0_mRSt12_Vector_baseIS0_S1_E, .-_ZNSt6vectorI6ResultSaIS0_EE12_Guard_allocC2EPS0_mRSt12_Vector_baseIS0_S1_E
	.weak	_ZNSt6vectorI6ResultSaIS0_EE12_Guard_allocC1EPS0_mRSt12_Vector_baseIS0_S1_E
	.set	_ZNSt6vectorI6ResultSaIS0_EE12_Guard_allocC1EPS0_mRSt12_Vector_baseIS0_S1_E,_ZNSt6vectorI6ResultSaIS0_EE12_Guard_allocC2EPS0_mRSt12_Vector_baseIS0_S1_E
	.section	.text._ZNSt6vectorI6ResultSaIS0_EE12_Guard_allocD2Ev,"axG",@progbits,_ZNSt6vectorI6ResultSaIS0_EE12_Guard_allocD5Ev,comdat
	.align 2
	.weak	_ZNSt6vectorI6ResultSaIS0_EE12_Guard_allocD2Ev
	.type	_ZNSt6vectorI6ResultSaIS0_EE12_Guard_allocD2Ev, @function
_ZNSt6vectorI6ResultSaIS0_EE12_Guard_allocD2Ev:
.LFB3917:
	.cfi_startproc
	pushq	%rbp
	.cfi_def_cfa_offset 16
	.cfi_offset 6, -16
	movq	%rsp, %rbp
	.cfi_def_cfa_register 6
	subq	$16, %rsp
	movq	%rdi, -8(%rbp)
	movq	-8(%rbp), %rax
	movq	(%rax), %rax
	testq	%rax, %rax
	je	.L626
	movq	-8(%rbp), %rax
	movq	16(%rax), %rax
	movq	-8(%rbp), %rdx
	movq	8(%rdx), %rdx
	movq	-8(%rbp), %rcx
	movq	(%rcx), %rcx
	movq	%rcx, %rsi
	movq	%rax, %rdi
	call	_ZNSt12_Vector_baseI6ResultSaIS0_EE13_M_deallocateEPS0_m
.L626:
	nop
	leave
	.cfi_def_cfa 7, 8
	ret
	.cfi_endproc
.LFE3917:
	.size	_ZNSt6vectorI6ResultSaIS0_EE12_Guard_allocD2Ev, .-_ZNSt6vectorI6ResultSaIS0_EE12_Guard_allocD2Ev
	.weak	_ZNSt6vectorI6ResultSaIS0_EE12_Guard_allocD1Ev
	.set	_ZNSt6vectorI6ResultSaIS0_EE12_Guard_allocD1Ev,_ZNSt6vectorI6ResultSaIS0_EE12_Guard_allocD2Ev
	.section	.text._ZNKSt6vectorI6ResultSaIS0_EE5emptyEv,"axG",@progbits,_ZNKSt6vectorI6ResultSaIS0_EE5emptyEv,comdat
	.align 2
	.weak	_ZNKSt6vectorI6ResultSaIS0_EE5emptyEv
	.type	_ZNKSt6vectorI6ResultSaIS0_EE5emptyEv, @function
_ZNKSt6vectorI6ResultSaIS0_EE5emptyEv:
.LFB3920:
	.cfi_startproc
	pushq	%rbp
	.cfi_def_cfa_offset 16
	.cfi_offset 6, -16
	movq	%rsp, %rbp
	.cfi_def_cfa_register 6
	subq	$64, %rsp
	movq	%rdi, -56(%rbp)
	movq	%fs:40, %rax
	movq	%rax, -8(%rbp)
	xorl	%eax, %eax
	movq	-56(%rbp), %rax
	movq	%rax, %rdi
	call	_ZNKSt6vectorI6ResultSaIS0_EE3endEv
	movq	%rax, -32(%rbp)
	movq	-56(%rbp), %rax
	movq	%rax, %rdi
	call	_ZNKSt6vectorI6ResultSaIS0_EE5beginEv
	movq	%rax, -40(%rbp)
	leaq	-40(%rbp), %rax
	movq	%rax, -24(%rbp)
	movq	-24(%rbp), %rax
	movq	(%rax), %rdx
	leaq	-32(%rbp), %rax
	movq	%rax, -16(%rbp)
	movq	-16(%rbp), %rax
	movq	(%rax), %rax
	cmpq	%rax, %rdx
	sete	%al
	movq	-8(%rbp), %rdx
	subq	%fs:40, %rdx
	je	.L632
	call	__stack_chk_fail@PLT
.L632:
	leave
	.cfi_def_cfa 7, 8
	ret
	.cfi_endproc
.LFE3920:
	.size	_ZNKSt6vectorI6ResultSaIS0_EE5emptyEv, .-_ZNKSt6vectorI6ResultSaIS0_EE5emptyEv
	.section	.text._ZNKSt6vectorIlSaIlEE8max_sizeEv,"axG",@progbits,_ZNKSt6vectorIlSaIlEE8max_sizeEv,comdat
	.align 2
	.weak	_ZNKSt6vectorIlSaIlEE8max_sizeEv
	.type	_ZNKSt6vectorIlSaIlEE8max_sizeEv, @function
_ZNKSt6vectorIlSaIlEE8max_sizeEv:
.LFB3946:
	.cfi_startproc
	pushq	%rbp
	.cfi_def_cfa_offset 16
	.cfi_offset 6, -16
	movq	%rsp, %rbp
	.cfi_def_cfa_register 6
	subq	$16, %rsp
	movq	%rdi, -8(%rbp)
	movq	-8(%rbp), %rax
	movq	%rax, %rdi
	call	_ZNKSt12_Vector_baseIlSaIlEE19_M_get_Tp_allocatorEv
	movq	%rax, %rdi
	call	_ZNSt6vectorIlSaIlEE11_S_max_sizeERKS0_
	leave
	.cfi_def_cfa 7, 8
	ret
	.cfi_endproc
.LFE3946:
	.size	_ZNKSt6vectorIlSaIlEE8max_sizeEv, .-_ZNKSt6vectorIlSaIlEE8max_sizeEv
	.section	.text._ZSt3maxImERKT_S2_S2_,"axG",@progbits,_ZSt3maxImERKT_S2_S2_,comdat
	.weak	_ZSt3maxImERKT_S2_S2_
	.type	_ZSt3maxImERKT_S2_S2_, @function
_ZSt3maxImERKT_S2_S2_:
.LFB3947:
	.cfi_startproc
	pushq	%rbp
	.cfi_def_cfa_offset 16
	.cfi_offset 6, -16
	movq	%rsp, %rbp
	.cfi_def_cfa_register 6
	movq	%rdi, -8(%rbp)
	movq	%rsi, -16(%rbp)
	movq	-8(%rbp), %rax
	movq	(%rax), %rdx
	movq	-16(%rbp), %rax
	movq	(%rax), %rax
	cmpq	%rax, %rdx
	jnb	.L636
	movq	-16(%rbp), %rax
	jmp	.L637
.L636:
	movq	-8(%rbp), %rax
.L637:
	popq	%rbp
	.cfi_def_cfa 7, 8
	ret
	.cfi_endproc
.LFE3947:
	.size	_ZSt3maxImERKT_S2_S2_, .-_ZSt3maxImERKT_S2_S2_
	.section	.text._ZSt12__relocate_aIPlS0_SaIlEET0_T_S3_S2_RT1_,"axG",@progbits,_ZSt12__relocate_aIPlS0_SaIlEET0_T_S3_S2_RT1_,comdat
	.weak	_ZSt12__relocate_aIPlS0_SaIlEET0_T_S3_S2_RT1_
	.type	_ZSt12__relocate_aIPlS0_SaIlEET0_T_S3_S2_RT1_, @function
_ZSt12__relocate_aIPlS0_SaIlEET0_T_S3_S2_RT1_:
.LFB3949:
	.cfi_startproc
	pushq	%rbp
	.cfi_def_cfa_offset 16
	.cfi_offset 6, -16
	movq	%rsp, %rbp
	.cfi_def_cfa_register 6
	subq	$64, %rsp
	movq	%rdi, -40(%rbp)
	movq	%rsi, -48(%rbp)
	movq	%rdx, -56(%rbp)
	movq	%rcx, -64(%rbp)
	movq	-56(%rbp), %rax
	movq	%rax, -8(%rbp)
	movq	-8(%rbp), %rdx
	movq	-48(%rbp), %rax
	movq	%rax, -16(%rbp)
	movq	-16(%rbp), %rsi
	movq	-40(%rbp), %rax
	movq	%rax, -24(%rbp)
	movq	-24(%rbp), %rax
	movq	-64(%rbp), %rcx
	movq	%rax, %rdi
	call	_ZSt14__relocate_a_1IllENSt9enable_ifIXsrSt24__is_bitwise_relocatableIT_vE5valueEPS2_E4typeES4_S4_S4_RSaIT0_E
	leave
	.cfi_def_cfa 7, 8
	ret
	.cfi_endproc
.LFE3949:
	.size	_ZSt12__relocate_aIPlS0_SaIlEET0_T_S3_S2_RT1_, .-_ZSt12__relocate_aIPlS0_SaIlEET0_T_S3_S2_RT1_
	.section	.text._ZNKSt6vectorIlSaIlEE5beginEv,"axG",@progbits,_ZNKSt6vectorIlSaIlEE5beginEv,comdat
	.align 2
	.weak	_ZNKSt6vectorIlSaIlEE5beginEv
	.type	_ZNKSt6vectorIlSaIlEE5beginEv, @function
_ZNKSt6vectorIlSaIlEE5beginEv:
.LFB3950:
	.cfi_startproc
	pushq	%rbp
	.cfi_def_cfa_offset 16
	.cfi_offset 6, -16
	movq	%rsp, %rbp
	.cfi_def_cfa_register 6
	subq	$48, %rsp
	movq	%rdi, -40(%rbp)
	movq	%fs:40, %rax
	movq	%rax, -8(%rbp)
	xorl	%eax, %eax
	movq	-40(%rbp), %rax
	movq	%rax, -16(%rbp)
	movq	-16(%rbp), %rax
	movq	(%rax), %rax
	movq	%rax, -24(%rbp)
	nop
	movq	-24(%rbp), %rax
	movq	-8(%rbp), %rdx
	subq	%fs:40, %rdx
	je	.L645
	call	__stack_chk_fail@PLT
.L645:
	leave
	.cfi_def_cfa 7, 8
	ret
	.cfi_endproc
.LFE3950:
	.size	_ZNKSt6vectorIlSaIlEE5beginEv, .-_ZNKSt6vectorIlSaIlEE5beginEv
	.section	.text._ZNKSt6vectorIlSaIlEE3endEv,"axG",@progbits,_ZNKSt6vectorIlSaIlEE3endEv,comdat
	.align 2
	.weak	_ZNKSt6vectorIlSaIlEE3endEv
	.type	_ZNKSt6vectorIlSaIlEE3endEv, @function
_ZNKSt6vectorIlSaIlEE3endEv:
.LFB3951:
	.cfi_startproc
	pushq	%rbp
	.cfi_def_cfa_offset 16
	.cfi_offset 6, -16
	movq	%rsp, %rbp
	.cfi_def_cfa_register 6
	subq	$48, %rsp
	movq	%rdi, -40(%rbp)
	movq	%fs:40, %rax
	movq	%rax, -8(%rbp)
	xorl	%eax, %eax
	movq	-40(%rbp), %rax
	addq	$8, %rax
	movq	%rax, -16(%rbp)
	movq	-16(%rbp), %rax
	movq	(%rax), %rax
	movq	%rax, -24(%rbp)
	nop
	movq	-24(%rbp), %rax
	movq	-8(%rbp), %rdx
	subq	%fs:40, %rdx
	je	.L648
	call	__stack_chk_fail@PLT
.L648:
	leave
	.cfi_def_cfa 7, 8
	ret
	.cfi_endproc
.LFE3951:
	.size	_ZNKSt6vectorIlSaIlEE3endEv, .-_ZNKSt6vectorIlSaIlEE3endEv
	.section	.text._ZNKSt4lessIPKcEclES1_S1_,"axG",@progbits,_ZNKSt4lessIPKcEclES1_S1_,comdat
	.align 2
	.weak	_ZNKSt4lessIPKcEclES1_S1_
	.type	_ZNKSt4lessIPKcEclES1_S1_, @function
_ZNKSt4lessIPKcEclES1_S1_:
.LFB3963:
	.cfi_startproc
	pushq	%rbp
	.cfi_def_cfa_offset 16
	.cfi_offset 6, -16
	movq	%rsp, %rbp
	.cfi_def_cfa_register 6
	movq	%rdi, -8(%rbp)
	movq	%rsi, -16(%rbp)
	movq	%rdx, -24(%rbp)
	movl	$0, %eax
	testb	%al, %al
	je	.L651
	movq	-16(%rbp), %rax
	cmpq	-24(%rbp), %rax
	setb	%al
	jmp	.L652
.L651:
	movq	-16(%rbp), %rdx
	movq	-24(%rbp), %rax
	cmpq	%rax, %rdx
	setb	%al
.L652:
	popq	%rbp
	.cfi_def_cfa 7, 8
	ret
	.cfi_endproc
.LFE3963:
	.size	_ZNKSt4lessIPKcEclES1_S1_, .-_ZNKSt4lessIPKcEclES1_S1_
	.section	.text._ZNSt6chrono8durationIdSt5ratioILl1ELl1EEEC2IdvEERKT_,"axG",@progbits,_ZNSt6chrono8durationIdSt5ratioILl1ELl1EEEC5IdvEERKT_,comdat
	.align 2
	.weak	_ZNSt6chrono8durationIdSt5ratioILl1ELl1EEEC2IdvEERKT_
	.type	_ZNSt6chrono8durationIdSt5ratioILl1ELl1EEEC2IdvEERKT_, @function
_ZNSt6chrono8durationIdSt5ratioILl1ELl1EEEC2IdvEERKT_:
.LFB3965:
	.cfi_startproc
	pushq	%rbp
	.cfi_def_cfa_offset 16
	.cfi_offset 6, -16
	movq	%rsp, %rbp
	.cfi_def_cfa_register 6
	movq	%rdi, -8(%rbp)
	movq	%rsi, -16(%rbp)
	movq	-16(%rbp), %rax
	movsd	(%rax), %xmm0
	movq	-8(%rbp), %rax
	movsd	%xmm0, (%rax)
	nop
	popq	%rbp
	.cfi_def_cfa 7, 8
	ret
	.cfi_endproc
.LFE3965:
