	.file	"bench_montgomery.cpp"
	.text
	.section	.text._ZnwmPv,"axG",@progbits,_ZnwmPv,comdat
	.weak	_ZnwmPv
	.type	_ZnwmPv, @function
_ZnwmPv:
.LFB40:
	.cfi_startproc
	pushq	%rbp
	.cfi_def_cfa_offset 16
	.cfi_offset 6, -16
	movq	%rsp, %rbp
	.cfi_def_cfa_register 6
	movq	%rdi, -8(%rbp)
	movq	%rsi, -16(%rbp)
	movq	-16(%rbp), %rax
	popq	%rbp
	.cfi_def_cfa 7, 8
	ret
	.cfi_endproc
.LFE40:
	.size	_ZnwmPv, .-_ZnwmPv
	.section	.text._ZdlPvS_,"axG",@progbits,_ZdlPvS_,comdat
	.weak	_ZdlPvS_
	.type	_ZdlPvS_, @function
_ZdlPvS_:
.LFB42:
	.cfi_startproc
	pushq	%rbp
	.cfi_def_cfa_offset 16
	.cfi_offset 6, -16
	movq	%rsp, %rbp
	.cfi_def_cfa_register 6
	movq	%rdi, -8(%rbp)
	movq	%rsi, -16(%rbp)
	nop
	popq	%rbp
	.cfi_def_cfa 7, 8
	ret
	.cfi_endproc
.LFE42:
	.size	_ZdlPvS_, .-_ZdlPvS_
	.section	.text._ZNSt11char_traitsIcE6assignERcRKc,"axG",@progbits,_ZNSt11char_traitsIcE6assignERcRKc,comdat
	.weak	_ZNSt11char_traitsIcE6assignERcRKc
	.type	_ZNSt11char_traitsIcE6assignERcRKc, @function
_ZNSt11char_traitsIcE6assignERcRKc:
.LFB112:
	.cfi_startproc
	pushq	%rbp
	.cfi_def_cfa_offset 16
	.cfi_offset 6, -16
	movq	%rsp, %rbp
	.cfi_def_cfa_register 6
	movq	%rdi, -8(%rbp)
	movq	%rsi, -16(%rbp)
	movq	-16(%rbp), %rax
	movzbl	(%rax), %edx
	movq	-8(%rbp), %rax
	movb	%dl, (%rax)
	nop
	popq	%rbp
	.cfi_def_cfa 7, 8
	ret
	.cfi_endproc
.LFE112:
	.size	_ZNSt11char_traitsIcE6assignERcRKc, .-_ZNSt11char_traitsIcE6assignERcRKc
	.section	.text._ZNSt11char_traitsIcE2ltERKcS2_,"axG",@progbits,_ZNSt11char_traitsIcE2ltERKcS2_,comdat
	.weak	_ZNSt11char_traitsIcE2ltERKcS2_
	.type	_ZNSt11char_traitsIcE2ltERKcS2_, @function
_ZNSt11char_traitsIcE2ltERKcS2_:
.LFB114:
	.cfi_startproc
	pushq	%rbp
	.cfi_def_cfa_offset 16
	.cfi_offset 6, -16
	movq	%rsp, %rbp
	.cfi_def_cfa_register 6
	movq	%rdi, -8(%rbp)
	movq	%rsi, -16(%rbp)
	movq	-8(%rbp), %rax
	movzbl	(%rax), %eax
	movl	%eax, %edx
	movq	-16(%rbp), %rax
	movzbl	(%rax), %eax
	cmpb	%al, %dl
	setb	%al
	popq	%rbp
	.cfi_def_cfa 7, 8
	ret
	.cfi_endproc
.LFE114:
	.size	_ZNSt11char_traitsIcE2ltERKcS2_, .-_ZNSt11char_traitsIcE2ltERKcS2_
	.section	.text._ZNSt11char_traitsIcE7compareEPKcS2_m,"axG",@progbits,_ZNSt11char_traitsIcE7compareEPKcS2_m,comdat
	.weak	_ZNSt11char_traitsIcE7compareEPKcS2_m
	.type	_ZNSt11char_traitsIcE7compareEPKcS2_m, @function
_ZNSt11char_traitsIcE7compareEPKcS2_m:
.LFB115:
	.cfi_startproc
	pushq	%rbp
	.cfi_def_cfa_offset 16
	.cfi_offset 6, -16
	movq	%rsp, %rbp
	.cfi_def_cfa_register 6
	subq	$48, %rsp
	movq	%rdi, -24(%rbp)
	movq	%rsi, -32(%rbp)
	movq	%rdx, -40(%rbp)
	cmpq	$0, -40(%rbp)
	jne	.L8
	movl	$0, %eax
	jmp	.L9
.L8:
	movl	$0, %eax
	testb	%al, %al
	je	.L11
	movq	$0, -8(%rbp)
	jmp	.L12
.L15:
	movq	-32(%rbp), %rdx
	movq	-8(%rbp), %rax
	addq	%rax, %rdx
	movq	-24(%rbp), %rcx
	movq	-8(%rbp), %rax
	addq	%rcx, %rax
	movq	%rdx, %rsi
	movq	%rax, %rdi
	call	_ZNSt11char_traitsIcE2ltERKcS2_
	testb	%al, %al
	je	.L13
	movl	$-1, %eax
	jmp	.L9
.L13:
	movq	-24(%rbp), %rdx
	movq	-8(%rbp), %rax
	addq	%rax, %rdx
	movq	-32(%rbp), %rcx
	movq	-8(%rbp), %rax
	addq	%rcx, %rax
	movq	%rdx, %rsi
	movq	%rax, %rdi
	call	_ZNSt11char_traitsIcE2ltERKcS2_
	testb	%al, %al
	je	.L14
	movl	$1, %eax
	jmp	.L9
.L14:
	addq	$1, -8(%rbp)
.L12:
	movq	-8(%rbp), %rax
	cmpq	-40(%rbp), %rax
	jb	.L15
	movl	$0, %eax
	jmp	.L9
.L11:
	movq	-40(%rbp), %rdx
	movq	-32(%rbp), %rcx
	movq	-24(%rbp), %rax
	movq	%rcx, %rsi
	movq	%rax, %rdi
	call	memcmp@PLT
	nop
.L9:
	leave
	.cfi_def_cfa 7, 8
	ret
	.cfi_endproc
.LFE115:
	.size	_ZNSt11char_traitsIcE7compareEPKcS2_m, .-_ZNSt11char_traitsIcE7compareEPKcS2_m
	.section	.text._ZNSt11char_traitsIcE6lengthEPKc,"axG",@progbits,_ZNSt11char_traitsIcE6lengthEPKc,comdat
	.weak	_ZNSt11char_traitsIcE6lengthEPKc
	.type	_ZNSt11char_traitsIcE6lengthEPKc, @function
_ZNSt11char_traitsIcE6lengthEPKc:
.LFB116:
	.cfi_startproc
	pushq	%rbp
	.cfi_def_cfa_offset 16
	.cfi_offset 6, -16
	movq	%rsp, %rbp
	.cfi_def_cfa_register 6
	subq	$16, %rsp
	movq	%rdi, -8(%rbp)
	movl	$0, %eax
	testb	%al, %al
	je	.L18
	movq	-8(%rbp), %rax
	movq	%rax, %rdi
	call	_ZN9__gnu_cxx11char_traitsIcE6lengthEPKc
	jmp	.L19
.L18:
	movq	-8(%rbp), %rax
	movq	%rax, %rdi
	call	strlen@PLT
	nop
.L19:
	leave
	.cfi_def_cfa 7, 8
	ret
	.cfi_endproc
.LFE116:
	.size	_ZNSt11char_traitsIcE6lengthEPKc, .-_ZNSt11char_traitsIcE6lengthEPKc
	.section	.text._ZNSt11char_traitsIcE4findEPKcmRS1_,"axG",@progbits,_ZNSt11char_traitsIcE4findEPKcmRS1_,comdat
	.weak	_ZNSt11char_traitsIcE4findEPKcmRS1_
	.type	_ZNSt11char_traitsIcE4findEPKcmRS1_, @function
_ZNSt11char_traitsIcE4findEPKcmRS1_:
.LFB117:
	.cfi_startproc
	pushq	%rbp
	.cfi_def_cfa_offset 16
	.cfi_offset 6, -16
	movq	%rsp, %rbp
	.cfi_def_cfa_register 6
	subq	$32, %rsp
	movq	%rdi, -8(%rbp)
	movq	%rsi, -16(%rbp)
	movq	%rdx, -24(%rbp)
	cmpq	$0, -16(%rbp)
	jne	.L21
	movl	$0, %eax
	jmp	.L22
.L21:
	movl	$0, %eax
	testb	%al, %al
	je	.L24
	movq	-24(%rbp), %rdx
	movq	-16(%rbp), %rcx
	movq	-8(%rbp), %rax
	movq	%rcx, %rsi
	movq	%rax, %rdi
	call	_ZN9__gnu_cxx11char_traitsIcE4findEPKcmRS2_
	jmp	.L22
.L24:
	movq	-24(%rbp), %rax
	movzbl	(%rax), %eax
	movsbl	%al, %ecx
	movq	-16(%rbp), %rdx
	movq	-8(%rbp), %rax
	movl	%ecx, %esi
	movq	%rax, %rdi
	call	memchr@PLT
	nop
.L22:
	leave
	.cfi_def_cfa 7, 8
	ret
	.cfi_endproc
.LFE117:
	.size	_ZNSt11char_traitsIcE4findEPKcmRS1_, .-_ZNSt11char_traitsIcE4findEPKcmRS1_
	.section	.text._ZNSt11char_traitsIcE4moveEPcPKcm,"axG",@progbits,_ZNSt11char_traitsIcE4moveEPcPKcm,comdat
	.weak	_ZNSt11char_traitsIcE4moveEPcPKcm
	.type	_ZNSt11char_traitsIcE4moveEPcPKcm, @function
_ZNSt11char_traitsIcE4moveEPcPKcm:
.LFB118:
	.cfi_startproc
	pushq	%rbp
	.cfi_def_cfa_offset 16
	.cfi_offset 6, -16
	movq	%rsp, %rbp
	.cfi_def_cfa_register 6
	subq	$32, %rsp
	movq	%rdi, -8(%rbp)
	movq	%rsi, -16(%rbp)
	movq	%rdx, -24(%rbp)
	cmpq	$0, -24(%rbp)
	jne	.L26
	movq	-8(%rbp), %rax
	jmp	.L27
.L26:
	movq	-24(%rbp), %rdx
	movq	-16(%rbp), %rcx
	movq	-8(%rbp), %rax
	movq	%rcx, %rsi
	movq	%rax, %rdi
	call	memmove@PLT
	nop
.L27:
	leave
	.cfi_def_cfa 7, 8
	ret
	.cfi_endproc
.LFE118:
	.size	_ZNSt11char_traitsIcE4moveEPcPKcm, .-_ZNSt11char_traitsIcE4moveEPcPKcm
	.section	.text._ZNSt11char_traitsIcE4copyEPcPKcm,"axG",@progbits,_ZNSt11char_traitsIcE4copyEPcPKcm,comdat
	.weak	_ZNSt11char_traitsIcE4copyEPcPKcm
	.type	_ZNSt11char_traitsIcE4copyEPcPKcm, @function
_ZNSt11char_traitsIcE4copyEPcPKcm:
.LFB119:
	.cfi_startproc
	pushq	%rbp
	.cfi_def_cfa_offset 16
	.cfi_offset 6, -16
	movq	%rsp, %rbp
	.cfi_def_cfa_register 6
	subq	$32, %rsp
	movq	%rdi, -8(%rbp)
	movq	%rsi, -16(%rbp)
	movq	%rdx, -24(%rbp)
	cmpq	$0, -24(%rbp)
	jne	.L29
	movq	-8(%rbp), %rax
	jmp	.L30
.L29:
	movq	-8(%rbp), %rdx
	movq	-16(%rbp), %rax
	movq	%rdx, %rcx
	movq	%rax, %rsi
	movq	-24(%rbp), %rax
	movq	%rax, %rdx
	movq	%rcx, %rdi
	call	memcpy@PLT
	nop
.L30:
	leave
	.cfi_def_cfa 7, 8
	ret
	.cfi_endproc
.LFE119:
	.size	_ZNSt11char_traitsIcE4copyEPcPKcm, .-_ZNSt11char_traitsIcE4copyEPcPKcm
	.section	.rodata
.LC0:
	.string	"stoll"
	.section	.text._ZNSt7__cxx115stollERKNS_12basic_stringIcSt11char_traitsIcESaIcEEEPmi,"axG",@progbits,_ZNSt7__cxx115stollERKNS_12basic_stringIcSt11char_traitsIcESaIcEEEPmi,comdat
	.weak	_ZNSt7__cxx115stollERKNS_12basic_stringIcSt11char_traitsIcESaIcEEEPmi
	.type	_ZNSt7__cxx115stollERKNS_12basic_stringIcSt11char_traitsIcESaIcEEEPmi, @function
_ZNSt7__cxx115stollERKNS_12basic_stringIcSt11char_traitsIcESaIcEEEPmi:
.LFB1146:
	.cfi_startproc
	pushq	%rbp
	.cfi_def_cfa_offset 16
	.cfi_offset 6, -16
	movq	%rsp, %rbp
	.cfi_def_cfa_register 6
	subq	$32, %rsp
	movq	%rdi, -8(%rbp)
	movq	%rsi, -16(%rbp)
	movl	%edx, -20(%rbp)
	movq	-8(%rbp), %rax
	movq	%rax, %rdi
	call	_ZNKSt7__cxx1112basic_stringIcSt11char_traitsIcESaIcEE5c_strEv
	movq	%rax, %rdx
	movl	-20(%rbp), %ecx
	movq	-16(%rbp), %rax
	leaq	.LC0(%rip), %rsi
	movq	__isoc23_strtoll@GOTPCREL(%rip), %rdi
	movl	%ecx, %r8d
	movq	%rax, %rcx
	call	_ZN9__gnu_cxx6__stoaIxxcJiEEET0_PFT_PKT1_PPS3_DpT2_EPKcS5_PmS9_
	leave
	.cfi_def_cfa 7, 8
	ret
	.cfi_endproc
.LFE1146:
	.size	_ZNSt7__cxx115stollERKNS_12basic_stringIcSt11char_traitsIcESaIcEEEPmi, .-_ZNSt7__cxx115stollERKNS_12basic_stringIcSt11char_traitsIcESaIcEEEPmi
	.section	.rodata
.LC1:
	.string	"stoull"
	.section	.text._ZNSt7__cxx116stoullERKNS_12basic_stringIcSt11char_traitsIcESaIcEEEPmi,"axG",@progbits,_ZNSt7__cxx116stoullERKNS_12basic_stringIcSt11char_traitsIcESaIcEEEPmi,comdat
	.weak	_ZNSt7__cxx116stoullERKNS_12basic_stringIcSt11char_traitsIcESaIcEEEPmi
	.type	_ZNSt7__cxx116stoullERKNS_12basic_stringIcSt11char_traitsIcESaIcEEEPmi, @function
_ZNSt7__cxx116stoullERKNS_12basic_stringIcSt11char_traitsIcESaIcEEEPmi:
.LFB1147:
	.cfi_startproc
	pushq	%rbp
	.cfi_def_cfa_offset 16
	.cfi_offset 6, -16
	movq	%rsp, %rbp
	.cfi_def_cfa_register 6
	subq	$32, %rsp
	movq	%rdi, -8(%rbp)
	movq	%rsi, -16(%rbp)
	movl	%edx, -20(%rbp)
	movq	-8(%rbp), %rax
	movq	%rax, %rdi
	call	_ZNKSt7__cxx1112basic_stringIcSt11char_traitsIcESaIcEE5c_strEv
	movq	%rax, %rdx
	movl	-20(%rbp), %ecx
	movq	-16(%rbp), %rax
	leaq	.LC1(%rip), %rsi
	movq	__isoc23_strtoull@GOTPCREL(%rip), %rdi
	movl	%ecx, %r8d
	movq	%rax, %rcx
	call	_ZN9__gnu_cxx6__stoaIyycJiEEET0_PFT_PKT1_PPS3_DpT2_EPKcS5_PmS9_
	leave
	.cfi_def_cfa 7, 8
	ret
	.cfi_endproc
.LFE1147:
	.size	_ZNSt7__cxx116stoullERKNS_12basic_stringIcSt11char_traitsIcESaIcEEEPmi, .-_ZNSt7__cxx116stoullERKNS_12basic_stringIcSt11char_traitsIcESaIcEEEPmi
	.section	.text._ZStanSt13_Ios_FmtflagsS_,"axG",@progbits,_ZStanSt13_Ios_FmtflagsS_,comdat
	.weak	_ZStanSt13_Ios_FmtflagsS_
	.type	_ZStanSt13_Ios_FmtflagsS_, @function
_ZStanSt13_Ios_FmtflagsS_:
.LFB1567:
	.cfi_startproc
	pushq	%rbp
	.cfi_def_cfa_offset 16
	.cfi_offset 6, -16
	movq	%rsp, %rbp
	.cfi_def_cfa_register 6
	movl	%edi, -4(%rbp)
	movl	%esi, -8(%rbp)
	movl	-4(%rbp), %eax
	andl	-8(%rbp), %eax
	popq	%rbp
	.cfi_def_cfa 7, 8
	ret
	.cfi_endproc
.LFE1567:
	.size	_ZStanSt13_Ios_FmtflagsS_, .-_ZStanSt13_Ios_FmtflagsS_
	.section	.text._ZStorSt13_Ios_FmtflagsS_,"axG",@progbits,_ZStorSt13_Ios_FmtflagsS_,comdat
	.weak	_ZStorSt13_Ios_FmtflagsS_
	.type	_ZStorSt13_Ios_FmtflagsS_, @function
_ZStorSt13_Ios_FmtflagsS_:
.LFB1568:
	.cfi_startproc
	pushq	%rbp
	.cfi_def_cfa_offset 16
	.cfi_offset 6, -16
	movq	%rsp, %rbp
	.cfi_def_cfa_register 6
	movl	%edi, -4(%rbp)
	movl	%esi, -8(%rbp)
	movl	-4(%rbp), %eax
	orl	-8(%rbp), %eax
	popq	%rbp
	.cfi_def_cfa 7, 8
	ret
	.cfi_endproc
.LFE1568:
	.size	_ZStorSt13_Ios_FmtflagsS_, .-_ZStorSt13_Ios_FmtflagsS_
	.section	.text._ZStcoSt13_Ios_Fmtflags,"axG",@progbits,_ZStcoSt13_Ios_Fmtflags,comdat
	.weak	_ZStcoSt13_Ios_Fmtflags
	.type	_ZStcoSt13_Ios_Fmtflags, @function
_ZStcoSt13_Ios_Fmtflags:
.LFB1570:
	.cfi_startproc
	pushq	%rbp
	.cfi_def_cfa_offset 16
	.cfi_offset 6, -16
	movq	%rsp, %rbp
	.cfi_def_cfa_register 6
	movl	%edi, -4(%rbp)
	movl	-4(%rbp), %eax
	notl	%eax
	popq	%rbp
	.cfi_def_cfa 7, 8
	ret
	.cfi_endproc
.LFE1570:
	.size	_ZStcoSt13_Ios_Fmtflags, .-_ZStcoSt13_Ios_Fmtflags
	.section	.text._ZStoRRSt13_Ios_FmtflagsS_,"axG",@progbits,_ZStoRRSt13_Ios_FmtflagsS_,comdat
	.weak	_ZStoRRSt13_Ios_FmtflagsS_
	.type	_ZStoRRSt13_Ios_FmtflagsS_, @function
_ZStoRRSt13_Ios_FmtflagsS_:
.LFB1571:
	.cfi_startproc
	pushq	%rbp
	.cfi_def_cfa_offset 16
	.cfi_offset 6, -16
	movq	%rsp, %rbp
	.cfi_def_cfa_register 6
	subq	$16, %rsp
	movq	%rdi, -8(%rbp)
	movl	%esi, -12(%rbp)
	movq	-8(%rbp), %rax
	movl	(%rax), %eax
	movl	-12(%rbp), %edx
	movl	%edx, %esi
	movl	%eax, %edi
	call	_ZStorSt13_Ios_FmtflagsS_
	movq	-8(%rbp), %rdx
	movl	%eax, (%rdx)
	movq	-8(%rbp), %rax
	leave
	.cfi_def_cfa 7, 8
	ret
	.cfi_endproc
.LFE1571:
	.size	_ZStoRRSt13_Ios_FmtflagsS_, .-_ZStoRRSt13_Ios_FmtflagsS_
	.section	.text._ZStaNRSt13_Ios_FmtflagsS_,"axG",@progbits,_ZStaNRSt13_Ios_FmtflagsS_,comdat
	.weak	_ZStaNRSt13_Ios_FmtflagsS_
	.type	_ZStaNRSt13_Ios_FmtflagsS_, @function
_ZStaNRSt13_Ios_FmtflagsS_:
.LFB1572:
	.cfi_startproc
	pushq	%rbp
	.cfi_def_cfa_offset 16
	.cfi_offset 6, -16
	movq	%rsp, %rbp
	.cfi_def_cfa_register 6
	subq	$16, %rsp
	movq	%rdi, -8(%rbp)
	movl	%esi, -12(%rbp)
	movq	-8(%rbp), %rax
	movl	(%rax), %eax
	movl	-12(%rbp), %edx
	movl	%edx, %esi
	movl	%eax, %edi
	call	_ZStanSt13_Ios_FmtflagsS_
	movq	-8(%rbp), %rdx
	movl	%eax, (%rdx)
	movq	-8(%rbp), %rax
	leave
	.cfi_def_cfa 7, 8
	ret
	.cfi_endproc
.LFE1572:
	.size	_ZStaNRSt13_Ios_FmtflagsS_, .-_ZStaNRSt13_Ios_FmtflagsS_
	.section	.text._ZNSt8ios_base4setfESt13_Ios_FmtflagsS0_,"axG",@progbits,_ZNSt8ios_base4setfESt13_Ios_FmtflagsS0_,comdat
	.align 2
	.weak	_ZNSt8ios_base4setfESt13_Ios_FmtflagsS0_
	.type	_ZNSt8ios_base4setfESt13_Ios_FmtflagsS0_, @function
_ZNSt8ios_base4setfESt13_Ios_FmtflagsS0_:
.LFB1601:
	.cfi_startproc
	pushq	%rbp
	.cfi_def_cfa_offset 16
	.cfi_offset 6, -16
	movq	%rsp, %rbp
	.cfi_def_cfa_register 6
	subq	$32, %rsp
	movq	%rdi, -24(%rbp)
	movl	%esi, -28(%rbp)
	movl	%edx, -32(%rbp)
	movq	-24(%rbp), %rax
	movl	24(%rax), %eax
	movl	%eax, -4(%rbp)
	movl	-32(%rbp), %eax
	movl	%eax, %edi
	call	_ZStcoSt13_Ios_Fmtflags
	movl	%eax, %edx
	movq	-24(%rbp), %rax
	addq	$24, %rax
	movl	%edx, %esi
	movq	%rax, %rdi
	call	_ZStaNRSt13_Ios_FmtflagsS_
	movl	-32(%rbp), %edx
	movl	-28(%rbp), %eax
	movl	%edx, %esi
	movl	%eax, %edi
	call	_ZStanSt13_Ios_FmtflagsS_
	movl	%eax, %edx
	movq	-24(%rbp), %rax
	addq	$24, %rax
	movl	%edx, %esi
	movq	%rax, %rdi
	call	_ZStoRRSt13_Ios_FmtflagsS_
	movl	-4(%rbp), %eax
	leave
	.cfi_def_cfa 7, 8
	ret
	.cfi_endproc
.LFE1601:
	.size	_ZNSt8ios_base4setfESt13_Ios_FmtflagsS0_, .-_ZNSt8ios_base4setfESt13_Ios_FmtflagsS0_
	.section	.text._ZSt5fixedRSt8ios_base,"axG",@progbits,_ZSt5fixedRSt8ios_base,comdat
	.weak	_ZSt5fixedRSt8ios_base
	.type	_ZSt5fixedRSt8ios_base, @function
_ZSt5fixedRSt8ios_base:
.LFB1631:
	.cfi_startproc
	pushq	%rbp
	.cfi_def_cfa_offset 16
	.cfi_offset 6, -16
	movq	%rsp, %rbp
	.cfi_def_cfa_register 6
	subq	$16, %rsp
	movq	%rdi, -8(%rbp)
	movq	-8(%rbp), %rax
	movl	$260, %edx
	movl	$4, %esi
	movq	%rax, %rdi
	call	_ZNSt8ios_base4setfESt13_Ios_FmtflagsS0_
	movq	-8(%rbp), %rax
	leave
	.cfi_def_cfa 7, 8
	ret
	.cfi_endproc
.LFE1631:
	.size	_ZSt5fixedRSt8ios_base, .-_ZSt5fixedRSt8ios_base
#APP
	.globl _ZSt21ios_base_library_initv
#NO_APP
	.section	.text._ZNSt6chrono8durationIlSt5ratioILl1ELl1000000000EEEC2IlvEERKT_,"axG",@progbits,_ZNSt6chrono8durationIlSt5ratioILl1ELl1000000000EEEC5IlvEERKT_,comdat
	.align 2
	.weak	_ZNSt6chrono8durationIlSt5ratioILl1ELl1000000000EEEC2IlvEERKT_
	.type	_ZNSt6chrono8durationIlSt5ratioILl1ELl1000000000EEEC2IlvEERKT_, @function
_ZNSt6chrono8durationIlSt5ratioILl1ELl1000000000EEEC2IlvEERKT_:
.LFB2282:
	.cfi_startproc
	pushq	%rbp
	.cfi_def_cfa_offset 16
	.cfi_offset 6, -16
	movq	%rsp, %rbp
	.cfi_def_cfa_register 6
	movq	%rdi, -8(%rbp)
	movq	%rsi, -16(%rbp)
	movq	-16(%rbp), %rax
	movq	(%rax), %rdx
	movq	-8(%rbp), %rax
	movq	%rdx, (%rax)
	nop
	popq	%rbp
	.cfi_def_cfa 7, 8
	ret
	.cfi_endproc
.LFE2282:
	.size	_ZNSt6chrono8durationIlSt5ratioILl1ELl1000000000EEEC2IlvEERKT_, .-_ZNSt6chrono8durationIlSt5ratioILl1ELl1000000000EEEC2IlvEERKT_
	.weak	_ZNSt6chrono8durationIlSt5ratioILl1ELl1000000000EEEC1IlvEERKT_
	.set	_ZNSt6chrono8durationIlSt5ratioILl1ELl1000000000EEEC1IlvEERKT_,_ZNSt6chrono8durationIlSt5ratioILl1ELl1000000000EEEC2IlvEERKT_
	.section	.text._ZNKSt6chrono8durationIlSt5ratioILl1ELl1000000000EEE5countEv,"axG",@progbits,_ZNKSt6chrono8durationIlSt5ratioILl1ELl1000000000EEE5countEv,comdat
	.align 2
	.weak	_ZNKSt6chrono8durationIlSt5ratioILl1ELl1000000000EEE5countEv
	.type	_ZNKSt6chrono8durationIlSt5ratioILl1ELl1000000000EEE5countEv, @function
_ZNKSt6chrono8durationIlSt5ratioILl1ELl1000000000EEE5countEv:
.LFB2285:
	.cfi_startproc
	pushq	%rbp
	.cfi_def_cfa_offset 16
	.cfi_offset 6, -16
	movq	%rsp, %rbp
	.cfi_def_cfa_register 6
	movq	%rdi, -8(%rbp)
	movq	-8(%rbp), %rax
	movq	(%rax), %rax
	popq	%rbp
	.cfi_def_cfa 7, 8
	ret
	.cfi_endproc
.LFE2285:
	.size	_ZNKSt6chrono8durationIlSt5ratioILl1ELl1000000000EEE5countEv, .-_ZNKSt6chrono8durationIlSt5ratioILl1ELl1000000000EEE5countEv
	.section	.text._ZSt12setprecisioni,"axG",@progbits,_ZSt12setprecisioni,comdat
	.weak	_ZSt12setprecisioni
	.type	_ZSt12setprecisioni, @function
_ZSt12setprecisioni:
.LFB2943:
	.cfi_startproc
	pushq	%rbp
	.cfi_def_cfa_offset 16
	.cfi_offset 6, -16
	movq	%rsp, %rbp
	.cfi_def_cfa_register 6
	movl	%edi, -4(%rbp)
	movl	-4(%rbp), %eax
	popq	%rbp
	.cfi_def_cfa 7, 8
	ret
	.cfi_endproc
.LFE2943:
	.size	_ZSt12setprecisioni, .-_ZSt12setprecisioni
	.section	.text._ZN17MontgomeryContextC2Em,"axG",@progbits,_ZN17MontgomeryContextC5Em,comdat
	.align 2
	.weak	_ZN17MontgomeryContextC2Em
	.type	_ZN17MontgomeryContextC2Em, @function
_ZN17MontgomeryContextC2Em:
.LFB3052:
	.cfi_startproc
	pushq	%rbp
	.cfi_def_cfa_offset 16
	.cfi_offset 6, -16
	movq	%rsp, %rbp
	.cfi_def_cfa_register 6
	subq	$16, %rsp
	movq	%rdi, -8(%rbp)
	movq	%rsi, -16(%rbp)
	movq	-8(%rbp), %rax
	movq	-16(%rbp), %rdx
	movq	%rdx, (%rax)
	movq	-8(%rbp), %rax
	movq	(%rax), %rax
	movq	%rax, %rdi
	call	_ZN17MontgomeryContext13compute_n_invEm
	movq	-8(%rbp), %rdx
	movq	%rax, 24(%rdx)
	movq	-8(%rbp), %rax
	movq	(%rax), %rax
	movq	%rax, %rdi
	call	_ZN17MontgomeryContext15compute_r_mod_nEm
	movq	-8(%rbp), %rdx
	movq	%rax, 8(%rdx)
	movq	-8(%rbp), %rax
	movq	(%rax), %rdx
	movq	-8(%rbp), %rax
	movq	8(%rax), %rcx
	movq	-8(%rbp), %rax
	movq	8(%rax), %rax
	movq	%rcx, %rsi
	movq	%rax, %rdi
	call	_ZN17MontgomeryContext9mulmod128Emmm
	movq	-8(%rbp), %rdx
	movq	%rax, 16(%rdx)
	nop
	leave
	.cfi_def_cfa 7, 8
	ret
	.cfi_endproc
.LFE3052:
	.size	_ZN17MontgomeryContextC2Em, .-_ZN17MontgomeryContextC2Em
	.weak	_ZN17MontgomeryContextC1Em
	.set	_ZN17MontgomeryContextC1Em,_ZN17MontgomeryContextC2Em
	.section	.text._ZN17MontgomeryContext13compute_n_invEm,"axG",@progbits,_ZN17MontgomeryContext13compute_n_invEm,comdat
	.weak	_ZN17MontgomeryContext13compute_n_invEm
	.type	_ZN17MontgomeryContext13compute_n_invEm, @function
_ZN17MontgomeryContext13compute_n_invEm:
.LFB3054:
	.cfi_startproc
	pushq	%rbp
	.cfi_def_cfa_offset 16
	.cfi_offset 6, -16
	movq	%rsp, %rbp
	.cfi_def_cfa_register 6
	movq	%rdi, -24(%rbp)
	movq	$1, -8(%rbp)
	movl	$0, -12(%rbp)
	jmp	.L56
.L57:
	movq	-24(%rbp), %rax
	imulq	-8(%rbp), %rax
	movl	$2, %edx
	subq	%rax, %rdx
	movq	-8(%rbp), %rax
	imulq	%rdx, %rax
	movq	%rax, -8(%rbp)
	addl	$1, -12(%rbp)
.L56:
	cmpl	$5, -12(%rbp)
	jle	.L57
	movq	-8(%rbp), %rax
	popq	%rbp
	.cfi_def_cfa 7, 8
	ret
	.cfi_endproc
.LFE3054:
	.size	_ZN17MontgomeryContext13compute_n_invEm, .-_ZN17MontgomeryContext13compute_n_invEm
	.section	.text._ZN17MontgomeryContext15compute_r_mod_nEm,"axG",@progbits,_ZN17MontgomeryContext15compute_r_mod_nEm,comdat
	.weak	_ZN17MontgomeryContext15compute_r_mod_nEm
	.type	_ZN17MontgomeryContext15compute_r_mod_nEm, @function
_ZN17MontgomeryContext15compute_r_mod_nEm:
.LFB3055:
	.cfi_startproc
	pushq	%rbp
	.cfi_def_cfa_offset 16
	.cfi_offset 6, -16
	movq	%rsp, %rbp
	.cfi_def_cfa_register 6
	movq	%rdi, -24(%rbp)
	movq	$-1, %rax
	movl	$0, %edx
	divq	-24(%rbp)
	movq	%rdx, %rax
	addq	$1, %rax
	movq	%rax, -8(%rbp)
	movq	-8(%rbp), %rax
	popq	%rbp
	.cfi_def_cfa 7, 8
	ret
	.cfi_endproc
.LFE3055:
	.size	_ZN17MontgomeryContext15compute_r_mod_nEm, .-_ZN17MontgomeryContext15compute_r_mod_nEm
	.section	.text._ZN17MontgomeryContext9mulmod128Emmm,"axG",@progbits,_ZN17MontgomeryContext9mulmod128Emmm,comdat
	.weak	_ZN17MontgomeryContext9mulmod128Emmm
	.type	_ZN17MontgomeryContext9mulmod128Emmm, @function
_ZN17MontgomeryContext9mulmod128Emmm:
.LFB3056:
	.cfi_startproc
	pushq	%rbp
	.cfi_def_cfa_offset 16
	.cfi_offset 6, -16
	movq	%rsp, %rbp
	.cfi_def_cfa_register 6
	pushq	%rbx
	subq	$56, %rsp
	.cfi_offset 3, -24
	movq	%rdi, -40(%rbp)
	movq	%rsi, -48(%rbp)
	movq	%rdx, -56(%rbp)
	movq	-40(%rbp), %rax
	movl	$0, %edx
	movq	-48(%rbp), %rcx
	movl	$0, %ebx
	movq	%rdx, %rdi
	imulq	%rcx, %rdi
	movq	%rbx, %rsi
	imulq	%rax, %rsi
	addq	%rdi, %rsi
	mulq	%rcx
	leaq	(%rsi,%rdx), %rcx
	movq	%rcx, %rdx
	movq	%rax, -32(%rbp)
	movq	%rdx, -24(%rbp)
	movq	%rax, -32(%rbp)
	movq	%rdx, -24(%rbp)
	movq	-56(%rbp), %rax
	movl	$0, %edx
	movq	-32(%rbp), %rcx
	movq	-24(%rbp), %rbx
	movq	%rcx, %rdi
	movq	%rbx, %rsi
	movq	%rdx, %rcx
	movq	%rax, %rdx
	call	__umodti3@PLT
	movq	-8(%rbp), %rbx
	leave
	.cfi_def_cfa 7, 8
	ret
	.cfi_endproc
.LFE3056:
	.size	_ZN17MontgomeryContext9mulmod128Emmm, .-_ZN17MontgomeryContext9mulmod128Emmm
	.section	.text._ZNK17MontgomeryContext4redcEmm,"axG",@progbits,_ZNK17MontgomeryContext4redcEmm,comdat
	.align 2
	.weak	_ZNK17MontgomeryContext4redcEmm
	.type	_ZNK17MontgomeryContext4redcEmm, @function
_ZNK17MontgomeryContext4redcEmm:
.LFB3057:
	.cfi_startproc
	pushq	%rbp
	.cfi_def_cfa_offset 16
	.cfi_offset 6, -16
	movq	%rsp, %rbp
	.cfi_def_cfa_register 6
	pushq	%rbx
	.cfi_offset 3, -24
	movq	%rdi, -88(%rbp)
	movq	%rsi, -96(%rbp)
	movq	%rdx, -104(%rbp)
	movq	-88(%rbp), %rax
	movq	24(%rax), %rax
	movq	-96(%rbp), %rdx
	imulq	%rdx, %rax
	movq	%rax, -72(%rbp)
	movq	-72(%rbp), %rax
	movl	$0, %edx
	movq	-88(%rbp), %rcx
	movq	(%rcx), %rcx
	movq	%rcx, %rcx
	movl	$0, %ebx
	movq	%rdx, %rdi
	imulq	%rcx, %rdi
	movq	%rbx, %rsi
	imulq	%rax, %rsi
	addq	%rdi, %rsi
	mulq	%rcx
	leaq	(%rsi,%rdx), %rcx
	movq	%rcx, %rdx
	movq	%rax, -64(%rbp)
	movq	%rdx, -56(%rbp)
	movq	%rax, -64(%rbp)
	movq	%rdx, -56(%rbp)
	movq	-104(%rbp), %rax
	movl	$0, %edx
	movq	%rax, %rdx
	xorl	%eax, %eax
	movq	-96(%rbp), %rcx
	movl	$0, %ebx
	orq	%rcx, %rax
	orq	%rbx, %rdx
	movq	%rax, -48(%rbp)
	movq	%rdx, -40(%rbp)
	movq	-48(%rbp), %rcx
	movq	-40(%rbp), %rbx
	movq	-64(%rbp), %rax
	movq	-56(%rbp), %rdx
	addq	%rcx, %rax
	adcq	%rbx, %rdx
	movq	%rdx, %rax
	xorl	%edx, %edx
	movq	%rax, -32(%rbp)
	movq	%rdx, -24(%rbp)
	movq	-32(%rbp), %rax
	movq	%rax, -80(%rbp)
	movq	-88(%rbp), %rax
	movq	(%rax), %rax
	cmpq	%rax, -80(%rbp)
	jb	.L64
	movq	-88(%rbp), %rax
	movq	(%rax), %rax
	subq	%rax, -80(%rbp)
.L64:
	movq	-80(%rbp), %rax
	movq	-8(%rbp), %rbx
	leave
	.cfi_def_cfa 7, 8
	ret
	.cfi_endproc
.LFE3057:
	.size	_ZNK17MontgomeryContext4redcEmm, .-_ZNK17MontgomeryContext4redcEmm
	.section	.text._ZNK17MontgomeryContext13to_montgomeryEm,"axG",@progbits,_ZNK17MontgomeryContext13to_montgomeryEm,comdat
	.align 2
	.weak	_ZNK17MontgomeryContext13to_montgomeryEm
	.type	_ZNK17MontgomeryContext13to_montgomeryEm, @function
_ZNK17MontgomeryContext13to_montgomeryEm:
.LFB3058:
	.cfi_startproc
	pushq	%rbp
	.cfi_def_cfa_offset 16
	.cfi_offset 6, -16
	movq	%rsp, %rbp
	.cfi_def_cfa_register 6
	subq	$16, %rsp
	movq	%rdi, -8(%rbp)
	movq	%rsi, -16(%rbp)
	movq	-8(%rbp), %rax
	movq	(%rax), %rdx
	movq	-8(%rbp), %rax
	movq	16(%rax), %rcx
	movq	-16(%rbp), %rax
	movq	%rcx, %rsi
	movq	%rax, %rdi
	call	_ZN17MontgomeryContext9mulmod128Emmm
	leave
	.cfi_def_cfa 7, 8
	ret
	.cfi_endproc
.LFE3058:
	.size	_ZNK17MontgomeryContext13to_montgomeryEm, .-_ZNK17MontgomeryContext13to_montgomeryEm
	.section	.text._ZNK17MontgomeryContext15from_montgomeryEm,"axG",@progbits,_ZNK17MontgomeryContext15from_montgomeryEm,comdat
	.align 2
	.weak	_ZNK17MontgomeryContext15from_montgomeryEm
	.type	_ZNK17MontgomeryContext15from_montgomeryEm, @function
_ZNK17MontgomeryContext15from_montgomeryEm:
.LFB3059:
	.cfi_startproc
	pushq	%rbp
	.cfi_def_cfa_offset 16
	.cfi_offset 6, -16
	movq	%rsp, %rbp
	.cfi_def_cfa_register 6
	subq	$16, %rsp
	movq	%rdi, -8(%rbp)
	movq	%rsi, -16(%rbp)
	movq	-16(%rbp), %rcx
	movq	-8(%rbp), %rax
	movl	$0, %edx
	movq	%rcx, %rsi
	movq	%rax, %rdi
	call	_ZNK17MontgomeryContext4redcEmm
	leave
	.cfi_def_cfa 7, 8
	ret
	.cfi_endproc
.LFE3059:
	.size	_ZNK17MontgomeryContext15from_montgomeryEm, .-_ZNK17MontgomeryContext15from_montgomeryEm
	.section	.text._ZNK17MontgomeryContext14montgomery_mulEmm,"axG",@progbits,_ZNK17MontgomeryContext14montgomery_mulEmm,comdat
	.align 2
	.weak	_ZNK17MontgomeryContext14montgomery_mulEmm
	.type	_ZNK17MontgomeryContext14montgomery_mulEmm, @function
_ZNK17MontgomeryContext14montgomery_mulEmm:
.LFB3060:
	.cfi_startproc
	pushq	%rbp
	.cfi_def_cfa_offset 16
	.cfi_offset 6, -16
	movq	%rsp, %rbp
	.cfi_def_cfa_register 6
	pushq	%rbx
	subq	$72, %rsp
	.cfi_offset 3, -24
	movq	%rdi, -56(%rbp)
	movq	%rsi, -64(%rbp)
	movq	%rdx, -72(%rbp)
	movq	-64(%rbp), %rax
	movl	$0, %edx
	movq	-72(%rbp), %rcx
	movl	$0, %ebx
	movq	%rdx, %rdi
	imulq	%rcx, %rdi
	movq	%rbx, %rsi
	imulq	%rax, %rsi
	addq	%rdi, %rsi
	mulq	%rcx
	leaq	(%rsi,%rdx), %rcx
	movq	%rcx, %rdx
	movq	%rax, -32(%rbp)
	movq	%rdx, -24(%rbp)
	movq	%rax, -32(%rbp)
	movq	%rdx, -24(%rbp)
	movq	-32(%rbp), %rax
	movq	%rax, -48(%rbp)
	movq	-32(%rbp), %rax
	movq	-24(%rbp), %rdx
	movq	%rdx, %rax
	xorl	%edx, %edx
	movq	%rax, -40(%rbp)
	movq	-40(%rbp), %rdx
	movq	-48(%rbp), %rcx
	movq	-56(%rbp), %rax
	movq	%rcx, %rsi
	movq	%rax, %rdi
	call	_ZNK17MontgomeryContext4redcEmm
	movq	-8(%rbp), %rbx
	leave
	.cfi_def_cfa 7, 8
	ret
	.cfi_endproc
.LFE3060:
	.size	_ZNK17MontgomeryContext14montgomery_mulEmm, .-_ZNK17MontgomeryContext14montgomery_mulEmm
	.section	.text._ZNK17MontgomeryContext14montgomery_addEmm,"axG",@progbits,_ZNK17MontgomeryContext14montgomery_addEmm,comdat
	.align 2
	.weak	_ZNK17MontgomeryContext14montgomery_addEmm
	.type	_ZNK17MontgomeryContext14montgomery_addEmm, @function
_ZNK17MontgomeryContext14montgomery_addEmm:
.LFB3061:
	.cfi_startproc
	pushq	%rbp
	.cfi_def_cfa_offset 16
	.cfi_offset 6, -16
	movq	%rsp, %rbp
	.cfi_def_cfa_register 6
	movq	%rdi, -24(%rbp)
	movq	%rsi, -32(%rbp)
	movq	%rdx, -40(%rbp)
	movq	-32(%rbp), %rdx
	movq	-40(%rbp), %rax
	addq	%rdx, %rax
	movq	%rax, -8(%rbp)
	movq	-24(%rbp), %rax
	movq	(%rax), %rax
	cmpq	%rax, -8(%rbp)
	jnb	.L73
	movq	-8(%rbp), %rax
	cmpq	-32(%rbp), %rax
	jnb	.L74
.L73:
	movq	-24(%rbp), %rax
	movq	(%rax), %rax
	subq	%rax, -8(%rbp)
.L74:
	movq	-8(%rbp), %rax
	popq	%rbp
	.cfi_def_cfa 7, 8
	ret
	.cfi_endproc
.LFE3061:
	.size	_ZNK17MontgomeryContext14montgomery_addEmm, .-_ZNK17MontgomeryContext14montgomery_addEmm
	.text
	.globl	_Z14classic_modmulmmm
	.type	_Z14classic_modmulmmm, @function
_Z14classic_modmulmmm:
.LFB3062:
	.cfi_startproc
	pushq	%rbp
	.cfi_def_cfa_offset 16
	.cfi_offset 6, -16
	movq	%rsp, %rbp
	.cfi_def_cfa_register 6
	pushq	%rbx
	subq	$56, %rsp
	.cfi_offset 3, -24
	movq	%rdi, -40(%rbp)
	movq	%rsi, -48(%rbp)
	movq	%rdx, -56(%rbp)
	movq	-40(%rbp), %rax
	movl	$0, %edx
	movq	-48(%rbp), %rcx
	movl	$0, %ebx
	movq	%rdx, %rdi
	imulq	%rcx, %rdi
	movq	%rbx, %rsi
	imulq	%rax, %rsi
	addq	%rdi, %rsi
	mulq	%rcx
	leaq	(%rsi,%rdx), %rcx
	movq	%rcx, %rdx
	movq	%rax, -32(%rbp)
	movq	%rdx, -24(%rbp)
	movq	%rax, -32(%rbp)
	movq	%rdx, -24(%rbp)
	movq	-56(%rbp), %rax
	movl	$0, %edx
	movq	-32(%rbp), %rcx
	movq	-24(%rbp), %rbx
	movq	%rcx, %rdi
	movq	%rbx, %rsi
	movq	%rdx, %rcx
	movq	%rax, %rdx
	call	__umodti3@PLT
	movq	-8(%rbp), %rbx
	leave
	.cfi_def_cfa 7, 8
	ret
	.cfi_endproc
.LFE3062:
	.size	_Z14classic_modmulmmm, .-_Z14classic_modmulmmm
	.globl	_Z14classic_modaddmmm
	.type	_Z14classic_modaddmmm, @function
_Z14classic_modaddmmm:
.LFB3063:
	.cfi_startproc
	pushq	%rbp
	.cfi_def_cfa_offset 16
	.cfi_offset 6, -16
	movq	%rsp, %rbp
	.cfi_def_cfa_register 6
	movq	%rdi, -8(%rbp)
	movq	%rsi, -16(%rbp)
	movq	%rdx, -24(%rbp)
	movq	-8(%rbp), %rdx
	movq	-16(%rbp), %rax
	addq	%rdx, %rax
	movl	$0, %edx
	divq	-24(%rbp)
	movq	%rdx, %rax
	popq	%rbp
	.cfi_def_cfa 7, 8
	ret
	.cfi_endproc
.LFE3063:
	.size	_Z14classic_modaddmmm, .-_Z14classic_modaddmmm
	.globl	_Z12reist_modaddlll
	.type	_Z12reist_modaddlll, @function
_Z12reist_modaddlll:
.LFB3064:
	.cfi_startproc
	pushq	%rbp
	.cfi_def_cfa_offset 16
	.cfi_offset 6, -16
	movq	%rsp, %rbp
	.cfi_def_cfa_register 6
	movq	%rdi, -56(%rbp)
	movq	%rsi, -64(%rbp)
	movq	%rdx, -72(%rbp)
	movq	-72(%rbp), %rax
	movq	%rax, %rdx
	shrq	$63, %rdx
	addq	%rdx, %rax
	sarq	%rax
	movq	%rax, -40(%rbp)
	movq	-40(%rbp), %rax
	negq	%rax
	movq	%rax, -32(%rbp)
	movq	-56(%rbp), %rdx
	movq	-64(%rbp), %rax
	addq	%rdx, %rax
	movq	%rax, -24(%rbp)
	movq	-24(%rbp), %rax
	cmpq	-40(%rbp), %rax
	setg	%al
	movzbl	%al, %eax
	movq	%rax, -16(%rbp)
	movq	-24(%rbp), %rax
	cmpq	-32(%rbp), %rax
	setle	%al
	movzbl	%al, %eax
	movq	%rax, -8(%rbp)
	movq	-16(%rbp), %rax
	negq	%rax
	andq	-72(%rbp), %rax
	subq	%rax, -24(%rbp)
	movq	-8(%rbp), %rax
	negq	%rax
	andq	-72(%rbp), %rax
	addq	%rax, -24(%rbp)
	movq	-24(%rbp), %rax
	popq	%rbp
	.cfi_def_cfa 7, 8
	ret
	.cfi_endproc
.LFE3064:
	.size	_Z12reist_modaddlll, .-_Z12reist_modaddlll
	.globl	_Z12reist_modmullll
	.type	_Z12reist_modmullll, @function
_Z12reist_modmullll:
.LFB3065:
	.cfi_startproc
	pushq	%rbp
	.cfi_def_cfa_offset 16
	.cfi_offset 6, -16
	movq	%rsp, %rbp
	.cfi_def_cfa_register 6
	pushq	%rbx
	subq	$72, %rsp
	.cfi_offset 3, -24
	movq	%rdi, -56(%rbp)
	movq	%rsi, -64(%rbp)
	movq	%rdx, -72(%rbp)
	movq	-56(%rbp), %rax
	cqto
	movq	-64(%rbp), %rcx
	movq	%rcx, %rbx
	sarq	$63, %rbx
	movq	%rdx, %rdi
	imulq	%rcx, %rdi
	movq	%rbx, %rsi
	imulq	%rax, %rsi
	addq	%rdi, %rsi
	mulq	%rcx
	leaq	(%rsi,%rdx), %rcx
	movq	%rcx, %rdx
	movq	%rax, -32(%rbp)
	movq	%rdx, -24(%rbp)
	movq	%rax, -32(%rbp)
	movq	%rdx, -24(%rbp)
	movq	-72(%rbp), %rax
	cqto
	movq	-32(%rbp), %rcx
	movq	-24(%rbp), %rbx
	movq	%rcx, %rdi
	movq	%rbx, %rsi
	movq	%rdx, %rcx
	movq	%rax, %rdx
	call	__modti3@PLT
	movq	%rax, -48(%rbp)
	movq	-72(%rbp), %rax
	movq	%rax, %rdx
	shrq	$63, %rdx
	addq	%rdx, %rax
	sarq	%rax
	movq	%rax, -40(%rbp)
	movq	-48(%rbp), %rax
	cmpq	-40(%rbp), %rax
	jle	.L83
	movq	-72(%rbp), %rax
	subq	%rax, -48(%rbp)
	jmp	.L84
.L83:
	movq	-40(%rbp), %rax
	negq	%rax
	cmpq	%rax, -48(%rbp)
	jg	.L84
	movq	-72(%rbp), %rax
	addq	%rax, -48(%rbp)
.L84:
	movq	-48(%rbp), %rax
	movq	-8(%rbp), %rbx
	leave
	.cfi_def_cfa 7, 8
	ret
	.cfi_endproc
.LFE3065:
	.size	_Z12reist_modmullll, .-_Z12reist_modmullll
	.section	.text._ZNSt12_Vector_baseImSaImEE12_Vector_implD2Ev,"axG",@progbits,_ZNSt12_Vector_baseImSaImEE12_Vector_implD5Ev,comdat
	.align 2
	.weak	_ZNSt12_Vector_baseImSaImEE12_Vector_implD2Ev
	.type	_ZNSt12_Vector_baseImSaImEE12_Vector_implD2Ev, @function
_ZNSt12_Vector_baseImSaImEE12_Vector_implD2Ev:
.LFB3072:
	.cfi_startproc
	pushq	%rbp
	.cfi_def_cfa_offset 16
	.cfi_offset 6, -16
	movq	%rsp, %rbp
	.cfi_def_cfa_register 6
	subq	$32, %rsp
	movq	%rdi, -24(%rbp)
	movq	-24(%rbp), %rax
	movq	%rax, -8(%rbp)
	movq	-8(%rbp), %rax
	movq	%rax, %rdi
	call	_ZNSt15__new_allocatorImED2Ev
	nop
	nop
	leave
	.cfi_def_cfa 7, 8
	ret
	.cfi_endproc
.LFE3072:
	.size	_ZNSt12_Vector_baseImSaImEE12_Vector_implD2Ev, .-_ZNSt12_Vector_baseImSaImEE12_Vector_implD2Ev
	.weak	_ZNSt12_Vector_baseImSaImEE12_Vector_implD1Ev
	.set	_ZNSt12_Vector_baseImSaImEE12_Vector_implD1Ev,_ZNSt12_Vector_baseImSaImEE12_Vector_implD2Ev
	.section	.text._ZNSt12_Vector_baseImSaImEEC2Ev,"axG",@progbits,_ZNSt12_Vector_baseImSaImEEC5Ev,comdat
	.align 2
	.weak	_ZNSt12_Vector_baseImSaImEEC2Ev
	.type	_ZNSt12_Vector_baseImSaImEEC2Ev, @function
_ZNSt12_Vector_baseImSaImEEC2Ev:
.LFB3074:
	.cfi_startproc
	pushq	%rbp
	.cfi_def_cfa_offset 16
	.cfi_offset 6, -16
	movq	%rsp, %rbp
	.cfi_def_cfa_register 6
	subq	$16, %rsp
	movq	%rdi, -8(%rbp)
	movq	-8(%rbp), %rax
	movq	%rax, %rdi
	call	_ZNSt12_Vector_baseImSaImEE12_Vector_implC1Ev
	nop
	leave
	.cfi_def_cfa 7, 8
	ret
	.cfi_endproc
.LFE3074:
	.size	_ZNSt12_Vector_baseImSaImEEC2Ev, .-_ZNSt12_Vector_baseImSaImEEC2Ev
	.weak	_ZNSt12_Vector_baseImSaImEEC1Ev
	.set	_ZNSt12_Vector_baseImSaImEEC1Ev,_ZNSt12_Vector_baseImSaImEEC2Ev
	.section	.text._ZNSt6vectorImSaImEEC2Ev,"axG",@progbits,_ZNSt6vectorImSaImEEC5Ev,comdat
	.align 2
	.weak	_ZNSt6vectorImSaImEEC2Ev
	.type	_ZNSt6vectorImSaImEEC2Ev, @function
_ZNSt6vectorImSaImEEC2Ev:
.LFB3076:
	.cfi_startproc
	pushq	%rbp
	.cfi_def_cfa_offset 16
	.cfi_offset 6, -16
	movq	%rsp, %rbp
	.cfi_def_cfa_register 6
	subq	$16, %rsp
	movq	%rdi, -8(%rbp)
	movq	-8(%rbp), %rax
	movq	%rax, %rdi
	call	_ZNSt12_Vector_baseImSaImEEC2Ev
	nop
	leave
	.cfi_def_cfa 7, 8
	ret
	.cfi_endproc
.LFE3076:
	.size	_ZNSt6vectorImSaImEEC2Ev, .-_ZNSt6vectorImSaImEEC2Ev
	.weak	_ZNSt6vectorImSaImEEC1Ev
	.set	_ZNSt6vectorImSaImEEC1Ev,_ZNSt6vectorImSaImEEC2Ev
	.text
	.align 2
	.type	_ZZ4mainENKUllE_clEl, @function
_ZZ4mainENKUllE_clEl:
.LFB3084:
	.cfi_startproc
	pushq	%rbp
	.cfi_def_cfa_offset 16
	.cfi_offset 6, -16
	movq	%rsp, %rbp
	.cfi_def_cfa_register 6
	subq	$48, %rsp
	movq	%rdi, -40(%rbp)
	movq	%rsi, -48(%rbp)
	movq	-40(%rbp), %rax
	movq	(%rax), %rax
	movq	(%rax), %rax
	movq	%rax, -24(%rbp)
	movq	-40(%rbp), %rax
	movq	8(%rax), %rax
	movq	(%rax), %rax
	movq	%rax, -8(%rbp)
	movq	$0, -16(%rbp)
	jmp	.L90
.L91:
	movq	-40(%rbp), %rax
	movq	16(%rax), %rax
	movq	(%rax), %rdx
	movq	-8(%rbp), %rcx
	movq	-24(%rbp), %rax
	movq	%rcx, %rsi
	movq	%rax, %rdi
	call	_Z14classic_modaddmmm
	movq	%rax, -24(%rbp)
	addq	$1, -16(%rbp)
.L90:
	movq	-16(%rbp), %rax
	cmpq	-48(%rbp), %rax
	jl	.L91
	movq	-40(%rbp), %rax
	movq	24(%rax), %rax
	movq	-24(%rbp), %rdx
	movq	%rdx, (%rax)
	nop
	leave
	.cfi_def_cfa 7, 8
	ret
	.cfi_endproc
.LFE3084:
	.size	_ZZ4mainENKUllE_clEl, .-_ZZ4mainENKUllE_clEl
	.align 2
	.type	_ZZ4mainENKUllE0_clEl, @function
_ZZ4mainENKUllE0_clEl:
.LFB3085:
	.cfi_startproc
	pushq	%rbp
	.cfi_def_cfa_offset 16
	.cfi_offset 6, -16
	movq	%rsp, %rbp
	.cfi_def_cfa_register 6
	subq	$48, %rsp
	movq	%rdi, -40(%rbp)
	movq	%rsi, -48(%rbp)
	movq	-40(%rbp), %rax
	movq	(%rax), %rax
	movq	(%rax), %rax
	movq	%rax, -24(%rbp)
	movq	-40(%rbp), %rax
	movq	8(%rax), %rax
	movq	(%rax), %rax
	movq	%rax, -8(%rbp)
	movq	$0, -16(%rbp)
	jmp	.L93
.L94:
	movq	-40(%rbp), %rax
	movq	16(%rax), %rax
	movq	(%rax), %rax
	movq	%rax, %rdx
	movq	-8(%rbp), %rcx
	movq	-24(%rbp), %rax
	movq	%rcx, %rsi
	movq	%rax, %rdi
	call	_Z12reist_modaddlll
	movq	%rax, -24(%rbp)
	addq	$1, -16(%rbp)
.L93:
	movq	-16(%rbp), %rax
	cmpq	-48(%rbp), %rax
	jl	.L94
	movq	-40(%rbp), %rax
	movq	24(%rax), %rax
	movq	-24(%rbp), %rdx
	movq	%rdx, (%rax)
	nop
	leave
	.cfi_def_cfa 7, 8
	ret
	.cfi_endproc
.LFE3085:
	.size	_ZZ4mainENKUllE0_clEl, .-_ZZ4mainENKUllE0_clEl
	.align 2
	.type	_ZZ4mainENKUllE1_clEl, @function
_ZZ4mainENKUllE1_clEl:
.LFB3086:
	.cfi_startproc
	pushq	%rbp
	.cfi_def_cfa_offset 16
	.cfi_offset 6, -16
	movq	%rsp, %rbp
	.cfi_def_cfa_register 6
	subq	$48, %rsp
	movq	%rdi, -40(%rbp)
	movq	%rsi, -48(%rbp)
	movq	-40(%rbp), %rax
	movq	(%rax), %rax
	movq	(%rax), %rax
	movq	%rax, -24(%rbp)
	movq	-40(%rbp), %rax
	movq	8(%rax), %rax
	movq	(%rax), %rax
	movq	%rax, -8(%rbp)
	movq	$0, -16(%rbp)
	jmp	.L96
.L97:
	movq	-40(%rbp), %rax
	movq	16(%rax), %rax
	movq	-8(%rbp), %rdx
	movq	-24(%rbp), %rcx
	movq	%rcx, %rsi
	movq	%rax, %rdi
	call	_ZNK17MontgomeryContext14montgomery_addEmm
	movq	%rax, -24(%rbp)
	addq	$1, -16(%rbp)
.L96:
	movq	-16(%rbp), %rax
	cmpq	-48(%rbp), %rax
	jl	.L97
	movq	-40(%rbp), %rax
	movq	24(%rax), %rax
	movq	-24(%rbp), %rdx
	movq	%rdx, (%rax)
	nop
	leave
	.cfi_def_cfa 7, 8
	ret
	.cfi_endproc
.LFE3086:
	.size	_ZZ4mainENKUllE1_clEl, .-_ZZ4mainENKUllE1_clEl
	.align 2
	.type	_ZZ4mainENKUllE2_clEl, @function
_ZZ4mainENKUllE2_clEl:
.LFB3087:
	.cfi_startproc
	pushq	%rbp
	.cfi_def_cfa_offset 16
	.cfi_offset 6, -16
	movq	%rsp, %rbp
	.cfi_def_cfa_register 6
	subq	$48, %rsp
	movq	%rdi, -40(%rbp)
	movq	%rsi, -48(%rbp)
	movq	-40(%rbp), %rax
	movq	(%rax), %rax
	movq	(%rax), %rax
	movq	%rax, -24(%rbp)
	movq	-40(%rbp), %rax
	movq	8(%rax), %rax
	movq	(%rax), %rax
	movq	%rax, -8(%rbp)
	movq	$0, -16(%rbp)
	jmp	.L99
.L100:
	movq	-40(%rbp), %rax
	movq	16(%rax), %rax
	movq	(%rax), %rdx
	movq	-8(%rbp), %rcx
	movq	-24(%rbp), %rax
	movq	%rcx, %rsi
	movq	%rax, %rdi
	call	_Z14classic_modmulmmm
	movq	%rax, -24(%rbp)
	addq	$1, -16(%rbp)
.L99:
	movq	-16(%rbp), %rax
	cmpq	-48(%rbp), %rax
	jl	.L100
	movq	-40(%rbp), %rax
	movq	24(%rax), %rax
	movq	-24(%rbp), %rdx
	movq	%rdx, (%rax)
	nop
	leave
	.cfi_def_cfa 7, 8
	ret
	.cfi_endproc
.LFE3087:
	.size	_ZZ4mainENKUllE2_clEl, .-_ZZ4mainENKUllE2_clEl
	.align 2
	.type	_ZZ4mainENKUllE3_clEl, @function
_ZZ4mainENKUllE3_clEl:
.LFB3088:
	.cfi_startproc
	pushq	%rbp
	.cfi_def_cfa_offset 16
	.cfi_offset 6, -16
	movq	%rsp, %rbp
	.cfi_def_cfa_register 6
	subq	$48, %rsp
	movq	%rdi, -40(%rbp)
	movq	%rsi, -48(%rbp)
	movq	-40(%rbp), %rax
	movq	(%rax), %rax
	movq	(%rax), %rax
	movq	%rax, -24(%rbp)
	movq	-40(%rbp), %rax
	movq	8(%rax), %rax
	movq	(%rax), %rax
	movq	%rax, -8(%rbp)
	movq	$0, -16(%rbp)
	jmp	.L102
.L103:
	movq	-40(%rbp), %rax
	movq	16(%rax), %rax
	movq	(%rax), %rax
	movq	%rax, %rdx
	movq	-8(%rbp), %rcx
	movq	-24(%rbp), %rax
	movq	%rcx, %rsi
	movq	%rax, %rdi
	call	_Z12reist_modmullll
	movq	%rax, -24(%rbp)
	addq	$1, -16(%rbp)
.L102:
	movq	-16(%rbp), %rax
	cmpq	-48(%rbp), %rax
	jl	.L103
	movq	-40(%rbp), %rax
	movq	24(%rax), %rax
	movq	-24(%rbp), %rdx
	movq	%rdx, (%rax)
	nop
	leave
	.cfi_def_cfa 7, 8
	ret
	.cfi_endproc
.LFE3088:
	.size	_ZZ4mainENKUllE3_clEl, .-_ZZ4mainENKUllE3_clEl
	.align 2
	.type	_ZZ4mainENKUllE4_clEl, @function
_ZZ4mainENKUllE4_clEl:
.LFB3089:
	.cfi_startproc
	pushq	%rbp
	.cfi_def_cfa_offset 16
	.cfi_offset 6, -16
	movq	%rsp, %rbp
	.cfi_def_cfa_register 6
	subq	$48, %rsp
	movq	%rdi, -40(%rbp)
	movq	%rsi, -48(%rbp)
	movq	-40(%rbp), %rax
	movq	(%rax), %rax
	movq	(%rax), %rax
	movq	%rax, -24(%rbp)
	movq	-40(%rbp), %rax
	movq	8(%rax), %rax
	movq	(%rax), %rax
	movq	%rax, -8(%rbp)
	movq	$0, -16(%rbp)
	jmp	.L105
.L106:
	movq	-40(%rbp), %rax
	movq	16(%rax), %rax
	movq	-8(%rbp), %rdx
	movq	-24(%rbp), %rcx
	movq	%rcx, %rsi
	movq	%rax, %rdi
	call	_ZNK17MontgomeryContext14montgomery_mulEmm
	movq	%rax, -24(%rbp)
	addq	$1, -16(%rbp)
.L105:
	movq	-16(%rbp), %rax
	cmpq	-48(%rbp), %rax
	jl	.L106
	movq	-40(%rbp), %rax
	movq	24(%rax), %rax
	movq	-24(%rbp), %rdx
	movq	%rdx, (%rax)
	nop
	leave
	.cfi_def_cfa 7, 8
	ret
	.cfi_endproc
.LFE3089:
	.size	_ZZ4mainENKUllE4_clEl, .-_ZZ4mainENKUllE4_clEl
	.align 2
	.type	_ZZ4mainENKUllE5_clEl, @function
_ZZ4mainENKUllE5_clEl:
.LFB3090:
	.cfi_startproc
	pushq	%rbp
	.cfi_def_cfa_offset 16
	.cfi_offset 6, -16
	movq	%rsp, %rbp
	.cfi_def_cfa_register 6
	pushq	%rbx
	subq	$72, %rsp
	.cfi_offset 3, -24
	movq	%rdi, -72(%rbp)
	movq	%rsi, -80(%rbp)
	movq	-72(%rbp), %rax
	movq	(%rax), %rax
	movq	(%rax), %rax
	movq	%rax, -64(%rbp)
	movq	-72(%rbp), %rax
	movq	8(%rax), %rax
	movq	(%rax), %rax
	movq	-72(%rbp), %rdx
	movq	16(%rdx), %rdx
	movq	(%rdx), %rcx
	movl	$0, %edx
	divq	%rcx
	movq	%rdx, -32(%rbp)
	movq	-72(%rbp), %rax
	movq	24(%rax), %rax
	movq	-32(%rbp), %rdx
	movq	%rdx, %rsi
	movq	%rax, %rdi
	call	_ZNK17MontgomeryContext13to_montgomeryEm
	movq	%rax, -56(%rbp)
	movq	$0, -48(%rbp)
	jmp	.L108
.L111:
	movq	-72(%rbp), %rax
	movq	16(%rax), %rax
	movq	(%rax), %rax
	movq	%rax, %rdx
	movq	-32(%rbp), %rcx
	movq	-64(%rbp), %rax
	movq	%rcx, %rsi
	movq	%rax, %rdi
	call	_Z12reist_modaddlll
	movq	%rax, -64(%rbp)
	cmpq	$0, -64(%rbp)
	jns	.L109
	movq	-72(%rbp), %rax
	movq	16(%rax), %rax
	movq	(%rax), %rdx
	movq	-64(%rbp), %rax
	addq	%rdx, %rax
	movq	%rax, -40(%rbp)
	jmp	.L110
.L109:
	movq	-64(%rbp), %rax
	movq	%rax, -40(%rbp)
.L110:
	movq	-72(%rbp), %rax
	movq	24(%rax), %rax
	movq	-40(%rbp), %rdx
	movq	%rdx, %rsi
	movq	%rax, %rdi
	call	_ZNK17MontgomeryContext13to_montgomeryEm
	movq	%rax, -24(%rbp)
	movq	-72(%rbp), %rax
	movq	24(%rax), %rax
	movq	-56(%rbp), %rdx
	movq	-24(%rbp), %rcx
	movq	%rcx, %rsi
	movq	%rax, %rdi
	call	_ZNK17MontgomeryContext14montgomery_mulEmm
	movq	%rax, -56(%rbp)
	addq	$1, -48(%rbp)
.L108:
	movq	-48(%rbp), %rax
	cmpq	-80(%rbp), %rax
	jl	.L111
	movq	-72(%rbp), %rax
	movq	24(%rax), %rax
	movq	-72(%rbp), %rdx
	movq	32(%rdx), %rbx
	movq	-56(%rbp), %rdx
	movq	%rdx, %rsi
	movq	%rax, %rdi
	call	_ZNK17MontgomeryContext15from_montgomeryEm
	movq	%rax, (%rbx)
	nop
	movq	-8(%rbp), %rbx
	leave
	.cfi_def_cfa 7, 8
	ret
	.cfi_endproc
.LFE3090:
	.size	_ZZ4mainENKUllE5_clEl, .-_ZZ4mainENKUllE5_clEl
	.align 2
	.type	_ZZ4mainENKUllE6_clEl, @function
_ZZ4mainENKUllE6_clEl:
.LFB3091:
	.cfi_startproc
	pushq	%rbp
	.cfi_def_cfa_offset 16
	.cfi_offset 6, -16
	movq	%rsp, %rbp
	.cfi_def_cfa_register 6
	subq	$80, %rsp
	movq	%rdi, -72(%rbp)
	movq	%rsi, -80(%rbp)
	movq	$0, -56(%rbp)
	movq	-72(%rbp), %rax
	movq	(%rax), %rax
	movq	(%rax), %rax
	movq	%rax, -48(%rbp)
	movq	-72(%rbp), %rax
	movq	8(%rax), %rax
	movq	(%rax), %rax
	movq	%rax, -40(%rbp)
	movq	$0, -32(%rbp)
	jmp	.L113
.L114:
	movq	-32(%rbp), %rdx
	movq	-48(%rbp), %rax
	addq	%rdx, %rax
	addq	$1, %rax
	movq	%rax, -48(%rbp)
	movq	-48(%rbp), %rax
	xorq	%rax, -40(%rbp)
	movq	-72(%rbp), %rax
	movq	16(%rax), %rcx
	movq	-72(%rbp), %rax
	movq	24(%rax), %rax
	movq	(%rax), %rdi
	movq	-48(%rbp), %rax
	movl	$0, %edx
	divq	%rdi
	movq	%rdx, %rsi
	movq	%rsi, %rax
	movq	%rax, %rsi
	movq	%rcx, %rdi
	call	_ZNK17MontgomeryContext13to_montgomeryEm
	movq	%rax, -24(%rbp)
	movq	-72(%rbp), %rax
	movq	16(%rax), %rcx
	movq	-72(%rbp), %rax
	movq	24(%rax), %rax
	movq	(%rax), %rdi
	movq	-40(%rbp), %rax
	movl	$0, %edx
	divq	%rdi
	movq	%rdx, %rsi
	movq	%rsi, %rax
	movq	%rax, %rsi
	movq	%rcx, %rdi
	call	_ZNK17MontgomeryContext13to_montgomeryEm
	movq	%rax, -16(%rbp)
	movq	-72(%rbp), %rax
	movq	16(%rax), %rax
	movq	-16(%rbp), %rdx
	movq	-24(%rbp), %rcx
	movq	%rcx, %rsi
	movq	%rax, %rdi
	call	_ZNK17MontgomeryContext14montgomery_mulEmm
	movq	%rax, -8(%rbp)
	movq	-72(%rbp), %rax
	movq	16(%rax), %rax
	movq	-8(%rbp), %rdx
	movq	%rdx, %rsi
	movq	%rax, %rdi
	call	_ZNK17MontgomeryContext15from_montgomeryEm
	movq	%rax, -56(%rbp)
	addq	$1, -32(%rbp)
.L113:
	movq	-32(%rbp), %rax
	cmpq	-80(%rbp), %rax
	jl	.L114
	movq	-72(%rbp), %rax
	movq	32(%rax), %rax
	movq	-56(%rbp), %rdx
	movq	%rdx, (%rax)
	nop
	leave
	.cfi_def_cfa 7, 8
	ret
	.cfi_endproc
.LFE3091:
	.size	_ZZ4mainENKUllE6_clEl, .-_ZZ4mainENKUllE6_clEl
	.section	.rodata
.LC2:
	.string	"N must be > 0\n"
.LC3:
	.string	"/proc/cpuinfo"
.LC4:
	.string	"model name"
.LC5:
	.string	":"
.LC6:
	.string	"cpu MHz"
.LC7:
	.string	"/proc/meminfo"
.LC8:
	.string	"MemTotal"
.LC9:
	.string	"r"
.LC10:
	.string	"uname -o"
	.align 8
.LC11:
	.string	"========================================\n"
	.align 8
.LC12:
	.string	"REIST vs Montgomery Arithmetic Benchmark\n"
.LC13:
	.string	"System Information:\n"
.LC14:
	.string	"  Hostname: "
.LC15:
	.string	"\n"
.LC16:
	.string	"  OS: "
.LC17:
	.string	"  CPU Model: "
.LC18:
	.string	"  CPU MHz: "
.LC19:
	.string	"  Memory: "
	.align 8
.LC20:
	.string	"========================================\n\n"
	.align 8
.LC21:
	.string	"Total operations per modulus N = "
.LC22:
	.string	"\n\n"
.LC23:
	.string	"Testing scenarios:\n"
.LC24:
	.string	"  1. Modular Addition\n"
.LC25:
	.string	"  2. Modular Multiplication\n"
	.align 8
.LC26:
	.string	"  3. Montgomery Multiplication (with conversion overhead)\n\n"
.LC27:
	.string	"Running benchmarks...\n\n"
.LC28:
	.string	"Modulus = "
.LC29:
	.string	"\n--- Modular Addition ---\n"
.LC30:
	.string	"  Classic     : "
.LC31:
	.string	" s\n"
.LC32:
	.string	"  REIST       : "
.LC33:
	.string	"  Montgomery  : "
	.align 8
.LC34:
	.string	"  REIST speedup vs Classic    : "
.LC35:
	.string	"x\n"
	.align 8
.LC36:
	.string	"  Montgomery speedup vs Classic: "
	.align 8
.LC37:
	.string	"  REIST speedup vs Montgomery : "
.LC38:
	.string	"  Sinks: "
.LC39:
	.string	" / "
	.align 8
.LC40:
	.string	"\n--- Modular Multiplication ---\n"
	.align 8
.LC41:
	.string	"\n--- Combined REIST Add + Montgomery Mul ---\n"
.LC42:
	.string	"  Combined time : "
.LC43:
	.string	"  Sink: "
	.align 8
.LC44:
	.string	"  Reference (Classic add + classic mul): "
	.align 8
.LC45:
	.string	"\n--- Montgomery Multiplication (with conversion) ---\n"
.LC46:
	.string	"  Montgomery (full cycle): "
.LC47:
	.string	"  Overhead: "
.LC50:
	.string	"% vs Classic\n"
	.align 8
.LC51:
	.string	"  Note: Montgomery is efficient when staying in Montgomery form\n"
	.align 8
.LC52:
	.string	"        for multiple operations (e.g., modular exponentiation)\n"
	.align 8
.LC53:
	.string	"  Note: REIST produces centered residues [-N/2, N/2),\n"
	.align 8
.LC54:
	.string	"        Montgomery operates in [0, N) domain.\n"
	.text
	.globl	main
	.type	main, @function
main:
.LFB3067:
	.cfi_startproc
	.cfi_personality 0x9b,DW.ref.__gxx_personality_v0
	.cfi_lsda 0x1b,.LLSDA3067
	pushq	%rbp
	.cfi_def_cfa_offset 16
	.cfi_offset 6, -16
	movq	%rsp, %rbp
	.cfi_def_cfa_register 6
	pushq	%r13
	pushq	%r12
	pushq	%rbx
	subq	$1512, %rsp
	.cfi_offset 13, -24
	.cfi_offset 12, -32
	.cfi_offset 3, -40
	movl	%edi, -1524(%rbp)
	movq	%rsi, -1536(%rbp)
	movq	%fs:40, %rax
	movq	%rax, -40(%rbp)
	xorl	%eax, %eax
	movq	$10000000, -1424(%rbp)
	cmpl	$1, -1524(%rbp)
	jle	.L116
	leaq	-1232(%rbp), %rax
	movq	%rax, -1336(%rbp)
	nop
	nop
	movq	-1536(%rbp), %rax
	addq	$8, %rax
	movq	(%rax), %rcx
	leaq	-1232(%rbp), %rdx
	leaq	-960(%rbp), %rax
	movq	%rcx, %rsi
	movq	%rax, %rdi
.LEHB0:
	call	_ZNSt7__cxx1112basic_stringIcSt11char_traitsIcESaIcEEC1IS3_EEPKcRKS3_
.LEHE0:
	leaq	-960(%rbp), %rax
	movl	$10, %edx
	movl	$0, %esi
	movq	%rax, %rdi
.LEHB1:
	call	_ZNSt7__cxx115stollERKNS_12basic_stringIcSt11char_traitsIcESaIcEEEPmi
.LEHE1:
	movq	%rax, -1424(%rbp)
	leaq	-960(%rbp), %rax
	movq	%rax, %rdi
	call	_ZNSt7__cxx1112basic_stringIcSt11char_traitsIcESaIcEED1Ev
	leaq	-1232(%rbp), %rax
	movq	%rax, %rdi
	call	_ZNSt15__new_allocatorIcED2Ev
	nop
.L116:
	cmpq	$0, -1424(%rbp)
	jg	.L117
	leaq	.LC2(%rip), %rdx
	leaq	_ZSt4cerr(%rip), %rax
	movq	%rdx, %rsi
	movq	%rax, %rdi
.LEHB2:
	call	_ZStlsISt11char_traitsIcEERSt13basic_ostreamIcT_ES5_PKc@PLT
.LEHE2:
	movl	$1, %ebx
	jmp	.L137
.L117:
	leaq	-1296(%rbp), %rax
	movq	%rax, %rdi
	call	_ZNSt6vectorImSaImEEC1Ev
	cmpl	$2, -1524(%rbp)
	jle	.L119
	leaq	-1264(%rbp), %rax
	movq	%rax, -1328(%rbp)
	nop
	nop
	movq	-1536(%rbp), %rax
	addq	$16, %rax
	movq	(%rax), %rcx
	leaq	-1264(%rbp), %rdx
	leaq	-960(%rbp), %rax
	movq	%rcx, %rsi
	movq	%rax, %rdi
.LEHB3:
	call	_ZNSt7__cxx1112basic_stringIcSt11char_traitsIcESaIcEEC1IS3_EEPKcRKS3_
.LEHE3:
	leaq	-960(%rbp), %rax
	movl	$10, %edx
	movl	$0, %esi
	movq	%rax, %rdi
.LEHB4:
	call	_ZNSt7__cxx116stoullERKNS_12basic_stringIcSt11char_traitsIcESaIcEEEPmi
	movq	%rax, -1232(%rbp)
	leaq	-1232(%rbp), %rdx
	leaq	-1296(%rbp), %rax
	movq	%rdx, %rsi
	movq	%rax, %rdi
	call	_ZNSt6vectorImSaImEE9push_backEOm
.LEHE4:
	leaq	-960(%rbp), %rax
	movq	%rax, %rdi
	call	_ZNSt7__cxx1112basic_stringIcSt11char_traitsIcESaIcEED1Ev
	leaq	-1264(%rbp), %rax
	movq	%rax, %rdi
	call	_ZNSt15__new_allocatorIcED2Ev
	jmp	.L120
.L119:
	leaq	C.0.0(%rip), %r12
	movl	$6, %r13d
	movq	%r12, %rcx
	movq	%r13, %rdx
	leaq	-1296(%rbp), %rax
	movq	%rcx, %rsi
	movq	%rax, %rdi
.LEHB5:
	call	_ZNSt6vectorImSaImEEaSESt16initializer_listImE
.LEHE5:
.L120:
	leaq	-1184(%rbp), %rax
	movq	%rax, %rdi
	call	_ZNSt7__cxx1112basic_stringIcSt11char_traitsIcESaIcEEC1Ev
	leaq	-1152(%rbp), %rax
	movq	%rax, %rdi
	call	_ZNSt7__cxx1112basic_stringIcSt11char_traitsIcESaIcEEC1Ev
	leaq	-1120(%rbp), %rax
	movq	%rax, %rdi
	call	_ZNSt7__cxx1112basic_stringIcSt11char_traitsIcESaIcEEC1Ev
	leaq	-1088(%rbp), %rax
	movq	%rax, %rdi
	call	_ZNSt7__cxx1112basic_stringIcSt11char_traitsIcESaIcEEC1Ev
	leaq	-1056(%rbp), %rax
	movq	%rax, %rdi
	call	_ZNSt7__cxx1112basic_stringIcSt11char_traitsIcESaIcEEC1Ev
	leaq	.LC3(%rip), %rcx
	leaq	-960(%rbp), %rax
	movl	$8, %edx
	movq	%rcx, %rsi
	movq	%rax, %rdi
.LEHB6:
	call	_ZNSt14basic_ifstreamIcSt11char_traitsIcEEC1EPKcSt13_Ios_Openmode@PLT
.LEHE6:
	leaq	-1024(%rbp), %rax
	movq	%rax, %rdi
	call	_ZNSt7__cxx1112basic_stringIcSt11char_traitsIcESaIcEEC1Ev
	jmp	.L121
.L123:
	leaq	.LC4(%rip), %rcx
	leaq	-1024(%rbp), %rax
	movl	$0, %edx
	movq	%rcx, %rsi
	movq	%rax, %rdi
	call	_ZNKSt7__cxx1112basic_stringIcSt11char_traitsIcESaIcEE4findEPKcm
	cmpq	$-1, %rax
	setne	%al
	testb	%al, %al
	je	.L122
	leaq	.LC5(%rip), %rcx
	leaq	-1024(%rbp), %rax
	movl	$0, %edx
	movq	%rcx, %rsi
	movq	%rax, %rdi
	call	_ZNKSt7__cxx1112basic_stringIcSt11char_traitsIcESaIcEE4findEPKcm
	leaq	2(%rax), %rdx
	leaq	-992(%rbp), %rax
	leaq	-1024(%rbp), %rsi
	movq	$-1, %rcx
	movq	%rax, %rdi
.LEHB7:
	call	_ZNKSt7__cxx1112basic_stringIcSt11char_traitsIcESaIcEE6substrEmm
	leaq	-992(%rbp), %rdx
	leaq	-1184(%rbp), %rax
	movq	%rdx, %rsi
	movq	%rax, %rdi
	call	_ZNSt7__cxx1112basic_stringIcSt11char_traitsIcESaIcEEaSEOS4_
	leaq	-992(%rbp), %rax
	movq	%rax, %rdi
	call	_ZNSt7__cxx1112basic_stringIcSt11char_traitsIcESaIcEED1Ev
.L122:
	leaq	.LC6(%rip), %rcx
	leaq	-1024(%rbp), %rax
	movl	$0, %edx
	movq	%rcx, %rsi
	movq	%rax, %rdi
	call	_ZNKSt7__cxx1112basic_stringIcSt11char_traitsIcESaIcEE4findEPKcm
	cmpq	$-1, %rax
	setne	%al
	testb	%al, %al
	je	.L121
	leaq	.LC5(%rip), %rcx
	leaq	-1024(%rbp), %rax
	movl	$0, %edx
	movq	%rcx, %rsi
	movq	%rax, %rdi
	call	_ZNKSt7__cxx1112basic_stringIcSt11char_traitsIcESaIcEE4findEPKcm
	leaq	2(%rax), %rdx
	leaq	-992(%rbp), %rax
	leaq	-1024(%rbp), %rsi
	movq	$-1, %rcx
	movq	%rax, %rdi
	call	_ZNKSt7__cxx1112basic_stringIcSt11char_traitsIcESaIcEE6substrEmm
	leaq	-992(%rbp), %rdx
	leaq	-1152(%rbp), %rax
	movq	%rdx, %rsi
	movq	%rax, %rdi
	call	_ZNSt7__cxx1112basic_stringIcSt11char_traitsIcESaIcEEaSEOS4_
	leaq	-992(%rbp), %rax
	movq	%rax, %rdi
	call	_ZNSt7__cxx1112basic_stringIcSt11char_traitsIcESaIcEED1Ev
.L121:
	leaq	-1024(%rbp), %rdx
	leaq	-960(%rbp), %rax
	movq	%rdx, %rsi
	movq	%rax, %rdi
	call	_ZSt7getlineIcSt11char_traitsIcESaIcEERSt13basic_istreamIT_T0_ES7_RNSt7__cxx1112basic_stringIS4_S5_T1_EE@PLT
	movq	(%rax), %rdx
	subq	$24, %rdx
	movq	(%rdx), %rdx
	addq	%rdx, %rax
	movq	%rax, %rdi
	call	_ZNKSt9basic_iosIcSt11char_traitsIcEEcvbEv@PLT
.LEHE7:
	testb	%al, %al
	jne	.L123
	leaq	-1024(%rbp), %rax
	movq	%rax, %rdi
	call	_ZNSt7__cxx1112basic_stringIcSt11char_traitsIcESaIcEED1Ev
	leaq	-960(%rbp), %rax
	movq	%rax, %rdi
	call	_ZNSt14basic_ifstreamIcSt11char_traitsIcEED1Ev@PLT
	leaq	.LC7(%rip), %rcx
	leaq	-960(%rbp), %rax
	movl	$8, %edx
	movq	%rcx, %rsi
	movq	%rax, %rdi
.LEHB8:
	call	_ZNSt14basic_ifstreamIcSt11char_traitsIcEEC1EPKcSt13_Ios_Openmode@PLT
.LEHE8:
	leaq	-1024(%rbp), %rax
	movq	%rax, %rdi
	call	_ZNSt7__cxx1112basic_stringIcSt11char_traitsIcESaIcEEC1Ev
	leaq	-1024(%rbp), %rdx
	leaq	-960(%rbp), %rax
	movq	%rdx, %rsi
	movq	%rax, %rdi
.LEHB9:
	call	_ZSt7getlineIcSt11char_traitsIcESaIcEERSt13basic_istreamIT_T0_ES7_RNSt7__cxx1112basic_stringIS4_S5_T1_EE@PLT
	movq	(%rax), %rdx
	subq	$24, %rdx
	movq	(%rdx), %rdx
	addq	%rdx, %rax
	movq	%rax, %rdi
	call	_ZNKSt9basic_iosIcSt11char_traitsIcEEcvbEv@PLT
	testb	%al, %al
	je	.L124
	leaq	.LC8(%rip), %rcx
	leaq	-1024(%rbp), %rax
	movl	$0, %edx
	movq	%rcx, %rsi
	movq	%rax, %rdi
	call	_ZNKSt7__cxx1112basic_stringIcSt11char_traitsIcESaIcEE4findEPKcm
	cmpq	$-1, %rax
	setne	%al
	testb	%al, %al
	je	.L124
	leaq	.LC5(%rip), %rcx
	leaq	-1024(%rbp), %rax
	movl	$0, %edx
	movq	%rcx, %rsi
	movq	%rax, %rdi
	call	_ZNKSt7__cxx1112basic_stringIcSt11char_traitsIcESaIcEE4findEPKcm
	leaq	2(%rax), %rdx
	leaq	-992(%rbp), %rax
	leaq	-1024(%rbp), %rsi
	movq	$-1, %rcx
	movq	%rax, %rdi
	call	_ZNKSt7__cxx1112basic_stringIcSt11char_traitsIcESaIcEE6substrEmm
.LEHE9:
	leaq	-992(%rbp), %rdx
	leaq	-1120(%rbp), %rax
	movq	%rdx, %rsi
	movq	%rax, %rdi
	call	_ZNSt7__cxx1112basic_stringIcSt11char_traitsIcESaIcEEaSEOS4_
	leaq	-992(%rbp), %rax
	movq	%rax, %rdi
	call	_ZNSt7__cxx1112basic_stringIcSt11char_traitsIcESaIcEED1Ev
.L124:
	leaq	-1024(%rbp), %rax
	movq	%rax, %rdi
	call	_ZNSt7__cxx1112basic_stringIcSt11char_traitsIcESaIcEED1Ev
	leaq	-960(%rbp), %rax
	movq	%rax, %rdi
	call	_ZNSt14basic_ifstreamIcSt11char_traitsIcEED1Ev@PLT
	leaq	-304(%rbp), %rax
	movl	$256, %esi
	movq	%rax, %rdi
	call	gethostname@PLT
	testl	%eax, %eax
	sete	%al
	testb	%al, %al
	je	.L125
	leaq	-304(%rbp), %rdx
	leaq	-1088(%rbp), %rax
	movq	%rdx, %rsi
	movq	%rax, %rdi
.LEHB10:
	call	_ZNSt7__cxx1112basic_stringIcSt11char_traitsIcESaIcEEaSEPKc
.L125:
	leaq	.LC9(%rip), %rdx
	leaq	.LC10(%rip), %rax
	movq	%rdx, %rsi
	movq	%rax, %rdi
	call	popen@PLT
	movq	%rax, -1416(%rbp)
	cmpq	$0, -1416(%rbp)
	je	.L126
	movq	-1416(%rbp), %rdx
	leaq	-432(%rbp), %rax
	movl	$128, %esi
	movq	%rax, %rdi
	call	fgets@PLT
.LEHE10:
	testq	%rax, %rax
	setne	%al
	testb	%al, %al
	je	.L127
	leaq	-1232(%rbp), %rax
	movq	%rax, -1320(%rbp)
	nop
	nop
	leaq	-1232(%rbp), %rdx
	leaq	-432(%rbp), %rcx
	leaq	-960(%rbp), %rax
	movq	%rcx, %rsi
	movq	%rax, %rdi
.LEHB11:
	call	_ZNSt7__cxx1112basic_stringIcSt11char_traitsIcESaIcEEC1IS3_EEPKcRKS3_
.LEHE11:
	leaq	-960(%rbp), %rdx
	leaq	-1056(%rbp), %rax
	movq	%rdx, %rsi
	movq	%rax, %rdi
	call	_ZNSt7__cxx1112basic_stringIcSt11char_traitsIcESaIcEEaSEOS4_
	leaq	-960(%rbp), %rax
	movq	%rax, %rdi
	call	_ZNSt7__cxx1112basic_stringIcSt11char_traitsIcESaIcEED1Ev
	leaq	-1232(%rbp), %rax
	movq	%rax, %rdi
	call	_ZNSt15__new_allocatorIcED2Ev
	nop
	leaq	-1056(%rbp), %rax
	movq	%rax, %rdi
	call	_ZNKSt7__cxx1112basic_stringIcSt11char_traitsIcESaIcEE5emptyEv
	xorl	$1, %eax
	testb	%al, %al
	je	.L128
	leaq	-1056(%rbp), %rax
	movq	%rax, %rdi
	call	_ZNSt7__cxx1112basic_stringIcSt11char_traitsIcESaIcEE4backEv
	movzbl	(%rax), %eax
	cmpb	$10, %al
	jne	.L128
	movl	$1, %eax
	jmp	.L129
.L128:
	movl	$0, %eax
.L129:
	testb	%al, %al
	je	.L127
	leaq	-1056(%rbp), %rax
	movq	%rax, %rdi
	call	_ZNSt7__cxx1112basic_stringIcSt11char_traitsIcESaIcEE8pop_backEv
.L127:
	movq	-1416(%rbp), %rax
	movq	%rax, %rdi
.LEHB12:
	call	pclose@PLT
.L126:
	leaq	_ZSt5fixedRSt8ios_base(%rip), %rdx
	leaq	_ZSt4cout(%rip), %rax
	movq	%rdx, %rsi
	movq	%rax, %rdi
	call	_ZNSolsEPFRSt8ios_baseS0_E@PLT
	movq	%rax, %rbx
	movl	$6, %edi
	call	_ZSt12setprecisioni
	movl	%eax, %esi
	movq	%rbx, %rdi
	call	_ZStlsIcSt11char_traitsIcEERSt13basic_ostreamIT_T0_ES6_St13_Setprecision@PLT
	leaq	.LC11(%rip), %rdx
	leaq	_ZSt4cout(%rip), %rax
	movq	%rdx, %rsi
	movq	%rax, %rdi
	call	_ZStlsISt11char_traitsIcEERSt13basic_ostreamIcT_ES5_PKc@PLT
	leaq	.LC12(%rip), %rdx
	leaq	_ZSt4cout(%rip), %rax
	movq	%rdx, %rsi
	movq	%rax, %rdi
	call	_ZStlsISt11char_traitsIcEERSt13basic_ostreamIcT_ES5_PKc@PLT
	leaq	.LC11(%rip), %rdx
	leaq	_ZSt4cout(%rip), %rax
	movq	%rdx, %rsi
	movq	%rax, %rdi
	call	_ZStlsISt11char_traitsIcEERSt13basic_ostreamIcT_ES5_PKc@PLT
	leaq	.LC13(%rip), %rdx
	leaq	_ZSt4cout(%rip), %rax
	movq	%rdx, %rsi
	movq	%rax, %rdi
	call	_ZStlsISt11char_traitsIcEERSt13basic_ostreamIcT_ES5_PKc@PLT
	leaq	.LC14(%rip), %rdx
	leaq	_ZSt4cout(%rip), %rax
	movq	%rdx, %rsi
	movq	%rax, %rdi
	call	_ZStlsISt11char_traitsIcEERSt13basic_ostreamIcT_ES5_PKc@PLT
	movq	%rax, %rdx
	leaq	-1088(%rbp), %rax
	movq	%rax, %rsi
	movq	%rdx, %rdi
	call	_ZStlsIcSt11char_traitsIcESaIcEERSt13basic_ostreamIT_T0_ES7_RKNSt7__cxx1112basic_stringIS4_S5_T1_EE@PLT
	movq	%rax, %rdx
	leaq	.LC15(%rip), %rax
	movq	%rax, %rsi
	movq	%rdx, %rdi
	call	_ZStlsISt11char_traitsIcEERSt13basic_ostreamIcT_ES5_PKc@PLT
	leaq	.LC16(%rip), %rdx
	leaq	_ZSt4cout(%rip), %rax
	movq	%rdx, %rsi
	movq	%rax, %rdi
	call	_ZStlsISt11char_traitsIcEERSt13basic_ostreamIcT_ES5_PKc@PLT
	movq	%rax, %rdx
	leaq	-1056(%rbp), %rax
	movq	%rax, %rsi
	movq	%rdx, %rdi
	call	_ZStlsIcSt11char_traitsIcESaIcEERSt13basic_ostreamIT_T0_ES7_RKNSt7__cxx1112basic_stringIS4_S5_T1_EE@PLT
	movq	%rax, %rdx
	leaq	.LC15(%rip), %rax
	movq	%rax, %rsi
	movq	%rdx, %rdi
	call	_ZStlsISt11char_traitsIcEERSt13basic_ostreamIcT_ES5_PKc@PLT
	leaq	.LC17(%rip), %rdx
	leaq	_ZSt4cout(%rip), %rax
	movq	%rdx, %rsi
	movq	%rax, %rdi
	call	_ZStlsISt11char_traitsIcEERSt13basic_ostreamIcT_ES5_PKc@PLT
	movq	%rax, %rdx
	leaq	-1184(%rbp), %rax
	movq	%rax, %rsi
	movq	%rdx, %rdi
	call	_ZStlsIcSt11char_traitsIcESaIcEERSt13basic_ostreamIT_T0_ES7_RKNSt7__cxx1112basic_stringIS4_S5_T1_EE@PLT
	movq	%rax, %rdx
	leaq	.LC15(%rip), %rax
	movq	%rax, %rsi
	movq	%rdx, %rdi
	call	_ZStlsISt11char_traitsIcEERSt13basic_ostreamIcT_ES5_PKc@PLT
	leaq	.LC18(%rip), %rdx
	leaq	_ZSt4cout(%rip), %rax
	movq	%rdx, %rsi
	movq	%rax, %rdi
	call	_ZStlsISt11char_traitsIcEERSt13basic_ostreamIcT_ES5_PKc@PLT
	movq	%rax, %rdx
	leaq	-1152(%rbp), %rax
	movq	%rax, %rsi
	movq	%rdx, %rdi
	call	_ZStlsIcSt11char_traitsIcESaIcEERSt13basic_ostreamIT_T0_ES7_RKNSt7__cxx1112basic_stringIS4_S5_T1_EE@PLT
	movq	%rax, %rdx
	leaq	.LC15(%rip), %rax
	movq	%rax, %rsi
	movq	%rdx, %rdi
	call	_ZStlsISt11char_traitsIcEERSt13basic_ostreamIcT_ES5_PKc@PLT
	leaq	.LC19(%rip), %rdx
	leaq	_ZSt4cout(%rip), %rax
	movq	%rdx, %rsi
	movq	%rax, %rdi
	call	_ZStlsISt11char_traitsIcEERSt13basic_ostreamIcT_ES5_PKc@PLT
	movq	%rax, %rdx
	leaq	-1120(%rbp), %rax
	movq	%rax, %rsi
	movq	%rdx, %rdi
	call	_ZStlsIcSt11char_traitsIcESaIcEERSt13basic_ostreamIT_T0_ES7_RKNSt7__cxx1112basic_stringIS4_S5_T1_EE@PLT
	movq	%rax, %rdx
	leaq	.LC15(%rip), %rax
	movq	%rax, %rsi
	movq	%rdx, %rdi
	call	_ZStlsISt11char_traitsIcEERSt13basic_ostreamIcT_ES5_PKc@PLT
	leaq	.LC20(%rip), %rdx
	leaq	_ZSt4cout(%rip), %rax
	movq	%rdx, %rsi
	movq	%rax, %rdi
	call	_ZStlsISt11char_traitsIcEERSt13basic_ostreamIcT_ES5_PKc@PLT
	leaq	.LC21(%rip), %rdx
	leaq	_ZSt4cout(%rip), %rax
	movq	%rdx, %rsi
	movq	%rax, %rdi
	call	_ZStlsISt11char_traitsIcEERSt13basic_ostreamIcT_ES5_PKc@PLT
	movq	%rax, %rdx
	movq	-1424(%rbp), %rax
	movq	%rax, %rsi
	movq	%rdx, %rdi
	call	_ZNSolsEl@PLT
	movq	%rax, %rdx
	leaq	.LC22(%rip), %rax
	movq	%rax, %rsi
	movq	%rdx, %rdi
	call	_ZStlsISt11char_traitsIcEERSt13basic_ostreamIcT_ES5_PKc@PLT
	leaq	.LC23(%rip), %rdx
	leaq	_ZSt4cout(%rip), %rax
	movq	%rdx, %rsi
	movq	%rax, %rdi
	call	_ZStlsISt11char_traitsIcEERSt13basic_ostreamIcT_ES5_PKc@PLT
	leaq	.LC24(%rip), %rdx
	leaq	_ZSt4cout(%rip), %rax
	movq	%rdx, %rsi
	movq	%rax, %rdi
	call	_ZStlsISt11char_traitsIcEERSt13basic_ostreamIcT_ES5_PKc@PLT
	leaq	.LC25(%rip), %rdx
	leaq	_ZSt4cout(%rip), %rax
	movq	%rdx, %rsi
	movq	%rax, %rdi
	call	_ZStlsISt11char_traitsIcEERSt13basic_ostreamIcT_ES5_PKc@PLT
	leaq	.LC26(%rip), %rdx
	leaq	_ZSt4cout(%rip), %rax
	movq	%rdx, %rsi
	movq	%rax, %rdi
	call	_ZStlsISt11char_traitsIcEERSt13basic_ostreamIcT_ES5_PKc@PLT
	leaq	.LC27(%rip), %rdx
	leaq	_ZSt4cout(%rip), %rax
	movq	%rdx, %rsi
	movq	%rax, %rdi
	call	_ZStlsISt11char_traitsIcEERSt13basic_ostreamIcT_ES5_PKc@PLT
	leaq	-1296(%rbp), %rax
	movq	%rax, -1408(%rbp)
	movq	-1408(%rbp), %rax
	movq	%rax, %rdi
	call	_ZNSt6vectorImSaImEE5beginEv
	movq	%rax, -1512(%rbp)
	movq	-1408(%rbp), %rax
	movq	%rax, %rdi
	call	_ZNSt6vectorImSaImEE3endEv
	movq	%rax, -1504(%rbp)
	jmp	.L130
.L136:
	movq	-1512(%rbp), %rax
	movq	(%rax), %rax
	movq	%rax, -1520(%rbp)
	leaq	.LC11(%rip), %rdx
	leaq	_ZSt4cout(%rip), %rax
	movq	%rdx, %rsi
	movq	%rax, %rdi
	call	_ZStlsISt11char_traitsIcEERSt13basic_ostreamIcT_ES5_PKc@PLT
	leaq	.LC28(%rip), %rdx
	leaq	_ZSt4cout(%rip), %rax
	movq	%rdx, %rsi
	movq	%rax, %rdi
	call	_ZStlsISt11char_traitsIcEERSt13basic_ostreamIcT_ES5_PKc@PLT
	movq	%rax, %rdx
	movq	-1520(%rbp), %rax
	movq	%rax, %rsi
	movq	%rdx, %rdi
	call	_ZNSolsEm@PLT
	movq	%rax, %rdx
	leaq	.LC15(%rip), %rax
	movq	%rax, %rsi
	movq	%rdx, %rdi
	call	_ZStlsISt11char_traitsIcEERSt13basic_ostreamIcT_ES5_PKc@PLT
	leaq	.LC11(%rip), %rdx
	leaq	_ZSt4cout(%rip), %rax
	movq	%rdx, %rsi
	movq	%rax, %rdi
	call	_ZStlsISt11char_traitsIcEERSt13basic_ostreamIcT_ES5_PKc@PLT
	movq	-1520(%rbp), %rdx
	leaq	-1264(%rbp), %rax
	movq	%rdx, %rsi
	movq	%rax, %rdi
	call	_ZN17MontgomeryContextC1Em
	leaq	.LC29(%rip), %rdx
	leaq	_ZSt4cout(%rip), %rax
	movq	%rdx, %rsi
	movq	%rax, %rdi
	call	_ZStlsISt11char_traitsIcEERSt13basic_ostreamIcT_ES5_PKc@PLT
	movq	-1520(%rbp), %rcx
	movl	$12345, %eax
	movl	$0, %edx
	divq	%rcx
	movq	%rdx, %rcx
	movq	%rcx, %rax
	movq	%rax, -1496(%rbp)
	movq	-1520(%rbp), %rcx
	movl	$67890, %eax
	movl	$0, %edx
	divq	%rcx
	movq	%rdx, %rcx
	movq	%rcx, %rax
	movq	%rax, -1488(%rbp)
	movq	$0, -1480(%rbp)
	leaq	-1496(%rbp), %rax
	movq	%rax, -1232(%rbp)
	leaq	-1488(%rbp), %rax
	movq	%rax, -1224(%rbp)
	leaq	-1520(%rbp), %rax
	movq	%rax, -1216(%rbp)
	leaq	-1480(%rbp), %rax
	movq	%rax, -1208(%rbp)
	movq	-1424(%rbp), %rdx
	leaq	-1232(%rbp), %rax
	movq	%rdx, %rsi
	movq	%rax, %rdi
	call	_Z9time_loopIZ4mainEUllE_EdOT_l
	movq	%xmm0, %rax
	movq	%rax, -1400(%rbp)
	movq	-1496(%rbp), %rax
	movq	-1520(%rbp), %rcx
	movl	$0, %edx
	divq	%rcx
	movq	%rdx, %rcx
	movq	%rcx, %rax
	movq	%rax, -1472(%rbp)
	movq	-1488(%rbp), %rax
	movq	-1520(%rbp), %rcx
	movl	$0, %edx
	divq	%rcx
	movq	%rdx, %rcx
	movq	%rcx, %rax
	movq	%rax, -1464(%rbp)
	movq	$0, -1456(%rbp)
	leaq	-1472(%rbp), %rax
	movq	%rax, -1232(%rbp)
	leaq	-1464(%rbp), %rax
	movq	%rax, -1224(%rbp)
	leaq	-1520(%rbp), %rax
	movq	%rax, -1216(%rbp)
	leaq	-1456(%rbp), %rax
	movq	%rax, -1208(%rbp)
	movq	-1424(%rbp), %rdx
	leaq	-1232(%rbp), %rax
	movq	%rdx, %rsi
	movq	%rax, %rdi
	call	_Z9time_loopIZ4mainEUllE0_EdOT_l
	movq	%xmm0, %rax
	movq	%rax, -1392(%rbp)
	movq	-1496(%rbp), %rdx
	leaq	-1264(%rbp), %rax
	movq	%rdx, %rsi
	movq	%rax, %rdi
	call	_ZNK17MontgomeryContext13to_montgomeryEm
	movq	%rax, -1448(%rbp)
	movq	-1488(%rbp), %rdx
	leaq	-1264(%rbp), %rax
	movq	%rdx, %rsi
	movq	%rax, %rdi
	call	_ZNK17MontgomeryContext13to_montgomeryEm
	movq	%rax, -1440(%rbp)
	movq	$0, -1432(%rbp)
	leaq	-1448(%rbp), %rax
	movq	%rax, -1232(%rbp)
	leaq	-1440(%rbp), %rax
	movq	%rax, -1224(%rbp)
	leaq	-1264(%rbp), %rax
	movq	%rax, -1216(%rbp)
	leaq	-1432(%rbp), %rax
	movq	%rax, -1208(%rbp)
	movq	-1424(%rbp), %rdx
	leaq	-1232(%rbp), %rax
	movq	%rdx, %rsi
	movq	%rax, %rdi
	call	_Z9time_loopIZ4mainEUllE1_EdOT_l
	movq	%xmm0, %rax
	movq	%rax, -1384(%rbp)
	leaq	.LC30(%rip), %rdx
	leaq	_ZSt4cout(%rip), %rax
	movq	%rdx, %rsi
	movq	%rax, %rdi
	call	_ZStlsISt11char_traitsIcEERSt13basic_ostreamIcT_ES5_PKc@PLT
	movq	%rax, %rdx
	movq	-1400(%rbp), %rax
	movq	%rax, %xmm0
	movq	%rdx, %rdi
	call	_ZNSolsEd@PLT
	movq	%rax, %rdx
	leaq	.LC31(%rip), %rax
	movq	%rax, %rsi
	movq	%rdx, %rdi
	call	_ZStlsISt11char_traitsIcEERSt13basic_ostreamIcT_ES5_PKc@PLT
	leaq	.LC32(%rip), %rdx
	leaq	_ZSt4cout(%rip), %rax
	movq	%rdx, %rsi
	movq	%rax, %rdi
	call	_ZStlsISt11char_traitsIcEERSt13basic_ostreamIcT_ES5_PKc@PLT
	movq	%rax, %rdx
	movq	-1392(%rbp), %rax
	movq	%rax, %xmm0
	movq	%rdx, %rdi
	call	_ZNSolsEd@PLT
	movq	%rax, %rdx
	leaq	.LC31(%rip), %rax
	movq	%rax, %rsi
	movq	%rdx, %rdi
	call	_ZStlsISt11char_traitsIcEERSt13basic_ostreamIcT_ES5_PKc@PLT
	leaq	.LC33(%rip), %rdx
	leaq	_ZSt4cout(%rip), %rax
	movq	%rdx, %rsi
	movq	%rax, %rdi
	call	_ZStlsISt11char_traitsIcEERSt13basic_ostreamIcT_ES5_PKc@PLT
	movq	%rax, %rdx
	movq	-1384(%rbp), %rax
	movq	%rax, %xmm0
	movq	%rdx, %rdi
	call	_ZNSolsEd@PLT
	movq	%rax, %rdx
	leaq	.LC31(%rip), %rax
	movq	%rax, %rsi
	movq	%rdx, %rdi
	call	_ZStlsISt11char_traitsIcEERSt13basic_ostreamIcT_ES5_PKc@PLT
	leaq	.LC34(%rip), %rdx
	leaq	_ZSt4cout(%rip), %rax
	movq	%rdx, %rsi
	movq	%rax, %rdi
	call	_ZStlsISt11char_traitsIcEERSt13basic_ostreamIcT_ES5_PKc@PLT
	movq	%rax, %rdx
	movsd	-1400(%rbp), %xmm0
	divsd	-1392(%rbp), %xmm0
	movq	%xmm0, %rax
	movq	%rax, %xmm0
	movq	%rdx, %rdi
	call	_ZNSolsEd@PLT
	movq	%rax, %rdx
	leaq	.LC35(%rip), %rax
	movq	%rax, %rsi
	movq	%rdx, %rdi
	call	_ZStlsISt11char_traitsIcEERSt13basic_ostreamIcT_ES5_PKc@PLT
	leaq	.LC36(%rip), %rdx
	leaq	_ZSt4cout(%rip), %rax
	movq	%rdx, %rsi
	movq	%rax, %rdi
	call	_ZStlsISt11char_traitsIcEERSt13basic_ostreamIcT_ES5_PKc@PLT
	movq	%rax, %rdx
	movsd	-1400(%rbp), %xmm0
	divsd	-1384(%rbp), %xmm0
	movq	%xmm0, %rax
	movq	%rax, %xmm0
	movq	%rdx, %rdi
	call	_ZNSolsEd@PLT
	movq	%rax, %rdx
	leaq	.LC35(%rip), %rax
	movq	%rax, %rsi
	movq	%rdx, %rdi
	call	_ZStlsISt11char_traitsIcEERSt13basic_ostreamIcT_ES5_PKc@PLT
	leaq	.LC37(%rip), %rdx
	leaq	_ZSt4cout(%rip), %rax
	movq	%rdx, %rsi
	movq	%rax, %rdi
	call	_ZStlsISt11char_traitsIcEERSt13basic_ostreamIcT_ES5_PKc@PLT
	movq	%rax, %rdx
	movsd	-1384(%rbp), %xmm0
	divsd	-1392(%rbp), %xmm0
	movq	%xmm0, %rax
	movq	%rax, %xmm0
	movq	%rdx, %rdi
	call	_ZNSolsEd@PLT
	movq	%rax, %rdx
	leaq	.LC35(%rip), %rax
	movq	%rax, %rsi
	movq	%rdx, %rdi
	call	_ZStlsISt11char_traitsIcEERSt13basic_ostreamIcT_ES5_PKc@PLT
	leaq	.LC38(%rip), %rdx
	leaq	_ZSt4cout(%rip), %rax
	movq	%rdx, %rsi
	movq	%rax, %rdi
	call	_ZStlsISt11char_traitsIcEERSt13basic_ostreamIcT_ES5_PKc@PLT
	movq	%rax, %rdx
	movq	-1480(%rbp), %rax
	movq	%rax, %rsi
	movq	%rdx, %rdi
	call	_ZNSolsEm@PLT
	movq	%rax, %rdx
	leaq	.LC39(%rip), %rax
	movq	%rax, %rsi
	movq	%rdx, %rdi
	call	_ZStlsISt11char_traitsIcEERSt13basic_ostreamIcT_ES5_PKc@PLT
	movq	%rax, %rdx
	movq	-1456(%rbp), %rax
	movq	%rax, %rsi
	movq	%rdx, %rdi
	call	_ZNSolsEl@PLT
	movq	%rax, %rdx
	leaq	.LC39(%rip), %rax
	movq	%rax, %rsi
	movq	%rdx, %rdi
	call	_ZStlsISt11char_traitsIcEERSt13basic_ostreamIcT_ES5_PKc@PLT
	movq	%rax, %rdx
	movq	-1432(%rbp), %rax
	movq	%rax, %rsi
	movq	%rdx, %rdi
	call	_ZNSolsEm@PLT
	movq	%rax, %rdx
	leaq	.LC15(%rip), %rax
	movq	%rax, %rsi
	movq	%rdx, %rdi
	call	_ZStlsISt11char_traitsIcEERSt13basic_ostreamIcT_ES5_PKc@PLT
	leaq	.LC40(%rip), %rdx
	leaq	_ZSt4cout(%rip), %rax
	movq	%rdx, %rsi
	movq	%rax, %rdi
	call	_ZStlsISt11char_traitsIcEERSt13basic_ostreamIcT_ES5_PKc@PLT
	movq	$0, -1480(%rbp)
	leaq	-1496(%rbp), %rax
	movq	%rax, -1232(%rbp)
	leaq	-1488(%rbp), %rax
	movq	%rax, -1224(%rbp)
	leaq	-1520(%rbp), %rax
	movq	%rax, -1216(%rbp)
	leaq	-1480(%rbp), %rax
	movq	%rax, -1208(%rbp)
	movq	-1424(%rbp), %rdx
	leaq	-1232(%rbp), %rax
	movq	%rdx, %rsi
	movq	%rax, %rdi
	call	_Z9time_loopIZ4mainEUllE2_EdOT_l
	movq	%xmm0, %rax
	movq	%rax, -1376(%rbp)
	movq	$0, -1456(%rbp)
	leaq	-1472(%rbp), %rax
	movq	%rax, -1232(%rbp)
	leaq	-1464(%rbp), %rax
	movq	%rax, -1224(%rbp)
	leaq	-1520(%rbp), %rax
	movq	%rax, -1216(%rbp)
	leaq	-1456(%rbp), %rax
	movq	%rax, -1208(%rbp)
	movq	-1424(%rbp), %rdx
	leaq	-1232(%rbp), %rax
	movq	%rdx, %rsi
	movq	%rax, %rdi
	call	_Z9time_loopIZ4mainEUllE3_EdOT_l
	movq	%xmm0, %rax
	movq	%rax, -1368(%rbp)
	movq	$0, -1432(%rbp)
	leaq	-1448(%rbp), %rax
	movq	%rax, -1232(%rbp)
	leaq	-1440(%rbp), %rax
	movq	%rax, -1224(%rbp)
	leaq	-1264(%rbp), %rax
	movq	%rax, -1216(%rbp)
	leaq	-1432(%rbp), %rax
	movq	%rax, -1208(%rbp)
	movq	-1424(%rbp), %rdx
	leaq	-1232(%rbp), %rax
	movq	%rdx, %rsi
	movq	%rax, %rdi
	call	_Z9time_loopIZ4mainEUllE4_EdOT_l
	movq	%xmm0, %rax
	movq	%rax, -1360(%rbp)
	leaq	.LC30(%rip), %rdx
	leaq	_ZSt4cout(%rip), %rax
	movq	%rdx, %rsi
	movq	%rax, %rdi
	call	_ZStlsISt11char_traitsIcEERSt13basic_ostreamIcT_ES5_PKc@PLT
	movq	%rax, %rdx
	movq	-1376(%rbp), %rax
	movq	%rax, %xmm0
	movq	%rdx, %rdi
	call	_ZNSolsEd@PLT
	movq	%rax, %rdx
	leaq	.LC31(%rip), %rax
	movq	%rax, %rsi
	movq	%rdx, %rdi
	call	_ZStlsISt11char_traitsIcEERSt13basic_ostreamIcT_ES5_PKc@PLT
	leaq	.LC32(%rip), %rdx
	leaq	_ZSt4cout(%rip), %rax
	movq	%rdx, %rsi
	movq	%rax, %rdi
	call	_ZStlsISt11char_traitsIcEERSt13basic_ostreamIcT_ES5_PKc@PLT
	movq	%rax, %rdx
	movq	-1368(%rbp), %rax
	movq	%rax, %xmm0
	movq	%rdx, %rdi
	call	_ZNSolsEd@PLT
	movq	%rax, %rdx
	leaq	.LC31(%rip), %rax
	movq	%rax, %rsi
	movq	%rdx, %rdi
	call	_ZStlsISt11char_traitsIcEERSt13basic_ostreamIcT_ES5_PKc@PLT
	leaq	.LC33(%rip), %rdx
	leaq	_ZSt4cout(%rip), %rax
	movq	%rdx, %rsi
	movq	%rax, %rdi
	call	_ZStlsISt11char_traitsIcEERSt13basic_ostreamIcT_ES5_PKc@PLT
	movq	%rax, %rdx
	movq	-1360(%rbp), %rax
	movq	%rax, %xmm0
	movq	%rdx, %rdi
	call	_ZNSolsEd@PLT
	movq	%rax, %rdx
	leaq	.LC31(%rip), %rax
	movq	%rax, %rsi
	movq	%rdx, %rdi
	call	_ZStlsISt11char_traitsIcEERSt13basic_ostreamIcT_ES5_PKc@PLT
	leaq	.LC34(%rip), %rdx
	leaq	_ZSt4cout(%rip), %rax
	movq	%rdx, %rsi
	movq	%rax, %rdi
	call	_ZStlsISt11char_traitsIcEERSt13basic_ostreamIcT_ES5_PKc@PLT
	movq	%rax, %rdx
	movsd	-1376(%rbp), %xmm0
	divsd	-1368(%rbp), %xmm0
	movq	%xmm0, %rax
	movq	%rax, %xmm0
	movq	%rdx, %rdi
	call	_ZNSolsEd@PLT
	movq	%rax, %rdx
	leaq	.LC35(%rip), %rax
	movq	%rax, %rsi
	movq	%rdx, %rdi
	call	_ZStlsISt11char_traitsIcEERSt13basic_ostreamIcT_ES5_PKc@PLT
	leaq	.LC36(%rip), %rdx
	leaq	_ZSt4cout(%rip), %rax
	movq	%rdx, %rsi
	movq	%rax, %rdi
	call	_ZStlsISt11char_traitsIcEERSt13basic_ostreamIcT_ES5_PKc@PLT
	movq	%rax, %rdx
	movsd	-1376(%rbp), %xmm0
	divsd	-1360(%rbp), %xmm0
	movq	%xmm0, %rax
	movq	%rax, %xmm0
	movq	%rdx, %rdi
	call	_ZNSolsEd@PLT
	movq	%rax, %rdx
	leaq	.LC35(%rip), %rax
	movq	%rax, %rsi
	movq	%rdx, %rdi
	call	_ZStlsISt11char_traitsIcEERSt13basic_ostreamIcT_ES5_PKc@PLT
	leaq	.LC37(%rip), %rdx
	leaq	_ZSt4cout(%rip), %rax
	movq	%rdx, %rsi
	movq	%rax, %rdi
	call	_ZStlsISt11char_traitsIcEERSt13basic_ostreamIcT_ES5_PKc@PLT
	movq	%rax, %rdx
	movsd	-1360(%rbp), %xmm0
	divsd	-1368(%rbp), %xmm0
	movq	%xmm0, %rax
	movq	%rax, %xmm0
	movq	%rdx, %rdi
	call	_ZNSolsEd@PLT
	movq	%rax, %rdx
	leaq	.LC35(%rip), %rax
	movq	%rax, %rsi
	movq	%rdx, %rdi
	call	_ZStlsISt11char_traitsIcEERSt13basic_ostreamIcT_ES5_PKc@PLT
	leaq	.LC38(%rip), %rdx
	leaq	_ZSt4cout(%rip), %rax
	movq	%rdx, %rsi
	movq	%rax, %rdi
	call	_ZStlsISt11char_traitsIcEERSt13basic_ostreamIcT_ES5_PKc@PLT
	movq	%rax, %rdx
	movq	-1480(%rbp), %rax
	movq	%rax, %rsi
	movq	%rdx, %rdi
	call	_ZNSolsEm@PLT
	movq	%rax, %rdx
	leaq	.LC39(%rip), %rax
	movq	%rax, %rsi
	movq	%rdx, %rdi
	call	_ZStlsISt11char_traitsIcEERSt13basic_ostreamIcT_ES5_PKc@PLT
	movq	%rax, %rdx
	movq	-1456(%rbp), %rax
	movq	%rax, %rsi
	movq	%rdx, %rdi
	call	_ZNSolsEl@PLT
	movq	%rax, %rdx
	leaq	.LC39(%rip), %rax
	movq	%rax, %rsi
	movq	%rdx, %rdi
	call	_ZStlsISt11char_traitsIcEERSt13basic_ostreamIcT_ES5_PKc@PLT
	movq	%rax, %rdx
	movq	-1432(%rbp), %rax
	movq	%rax, %rsi
	movq	%rdx, %rdi
	call	_ZNSolsEm@PLT
	movq	%rax, %rdx
	leaq	.LC15(%rip), %rax
	movq	%rax, %rsi
	movq	%rdx, %rdi
	call	_ZStlsISt11char_traitsIcEERSt13basic_ostreamIcT_ES5_PKc@PLT
	leaq	.LC41(%rip), %rdx
	leaq	_ZSt4cout(%rip), %rax
	movq	%rdx, %rsi
	movq	%rax, %rdi
	call	_ZStlsISt11char_traitsIcEERSt13basic_ostreamIcT_ES5_PKc@PLT
	leaq	-1472(%rbp), %rax
	movq	%rax, -1232(%rbp)
	leaq	-1488(%rbp), %rax
	movq	%rax, -1224(%rbp)
	leaq	-1520(%rbp), %rax
	movq	%rax, -1216(%rbp)
	leaq	-1264(%rbp), %rax
	movq	%rax, -1208(%rbp)
	leaq	-1480(%rbp), %rax
	movq	%rax, -1200(%rbp)
	movq	-1424(%rbp), %rdx
	leaq	-1232(%rbp), %rax
	movq	%rdx, %rsi
	movq	%rax, %rdi
	call	_Z9time_loopIZ4mainEUllE5_EdOT_l
	movq	%xmm0, %rax
	movq	%rax, -1352(%rbp)
	leaq	.LC42(%rip), %rdx
	leaq	_ZSt4cout(%rip), %rax
	movq	%rdx, %rsi
	movq	%rax, %rdi
	call	_ZStlsISt11char_traitsIcEERSt13basic_ostreamIcT_ES5_PKc@PLT
	movq	%rax, %rdx
	movq	-1352(%rbp), %rax
	movq	%rax, %xmm0
	movq	%rdx, %rdi
	call	_ZNSolsEd@PLT
	movq	%rax, %rdx
	leaq	.LC31(%rip), %rax
	movq	%rax, %rsi
	movq	%rdx, %rdi
	call	_ZStlsISt11char_traitsIcEERSt13basic_ostreamIcT_ES5_PKc@PLT
	leaq	.LC43(%rip), %rdx
	leaq	_ZSt4cout(%rip), %rax
	movq	%rdx, %rsi
	movq	%rax, %rdi
	call	_ZStlsISt11char_traitsIcEERSt13basic_ostreamIcT_ES5_PKc@PLT
	movq	%rax, %rdx
	movq	-1480(%rbp), %rax
	movq	%rax, %rsi
	movq	%rdx, %rdi
	call	_ZNSolsEm@PLT
	movq	%rax, %rdx
	leaq	.LC15(%rip), %rax
	movq	%rax, %rsi
	movq	%rdx, %rdi
	call	_ZStlsISt11char_traitsIcEERSt13basic_ostreamIcT_ES5_PKc@PLT
	leaq	.LC44(%rip), %rdx
	leaq	_ZSt4cout(%rip), %rax
	movq	%rdx, %rsi
	movq	%rax, %rdi
	call	_ZStlsISt11char_traitsIcEERSt13basic_ostreamIcT_ES5_PKc@PLT
	movq	%rax, %rdx
	movsd	-1400(%rbp), %xmm0
	addsd	-1376(%rbp), %xmm0
	movq	%xmm0, %rax
	movq	%rax, %xmm0
	movq	%rdx, %rdi
	call	_ZNSolsEd@PLT
	movq	%rax, %rdx
	leaq	.LC31(%rip), %rax
	movq	%rax, %rsi
	movq	%rdx, %rdi
	call	_ZStlsISt11char_traitsIcEERSt13basic_ostreamIcT_ES5_PKc@PLT
	leaq	.LC45(%rip), %rdx
	leaq	_ZSt4cout(%rip), %rax
	movq	%rdx, %rsi
	movq	%rax, %rdi
	call	_ZStlsISt11char_traitsIcEERSt13basic_ostreamIcT_ES5_PKc@PLT
	leaq	-1496(%rbp), %rax
	movq	%rax, -1232(%rbp)
	leaq	-1488(%rbp), %rax
	movq	%rax, -1224(%rbp)
	leaq	-1264(%rbp), %rax
	movq	%rax, -1216(%rbp)
	leaq	-1520(%rbp), %rax
	movq	%rax, -1208(%rbp)
	leaq	-1480(%rbp), %rax
	movq	%rax, -1200(%rbp)
	movq	-1424(%rbp), %rdx
	leaq	-1232(%rbp), %rax
	movq	%rdx, %rsi
	movq	%rax, %rdi
	call	_Z9time_loopIZ4mainEUllE6_EdOT_l
	movq	%xmm0, %rax
	movq	%rax, -1344(%rbp)
	leaq	.LC46(%rip), %rdx
	leaq	_ZSt4cout(%rip), %rax
	movq	%rdx, %rsi
	movq	%rax, %rdi
	call	_ZStlsISt11char_traitsIcEERSt13basic_ostreamIcT_ES5_PKc@PLT
	movq	%rax, %rdx
	movq	-1344(%rbp), %rax
	movq	%rax, %xmm0
	movq	%rdx, %rdi
	call	_ZNSolsEd@PLT
	movq	%rax, %rdx
	leaq	.LC31(%rip), %rax
	movq	%rax, %rsi
	movq	%rdx, %rdi
	call	_ZStlsISt11char_traitsIcEERSt13basic_ostreamIcT_ES5_PKc@PLT
	leaq	.LC47(%rip), %rdx
	leaq	_ZSt4cout(%rip), %rax
	movq	%rdx, %rsi
	movq	%rax, %rdi
	call	_ZStlsISt11char_traitsIcEERSt13basic_ostreamIcT_ES5_PKc@PLT
	movq	%rax, %rdx
	movsd	-1344(%rbp), %xmm0
	divsd	-1376(%rbp), %xmm0
	movsd	.LC48(%rip), %xmm2
	movapd	%xmm0, %xmm1
	subsd	%xmm2, %xmm1
	movsd	.LC49(%rip), %xmm0
	mulsd	%xmm0, %xmm1
	movq	%xmm1, %rax
	movq	%rax, %xmm0
	movq	%rdx, %rdi
	call	_ZNSolsEd@PLT
	movq	%rax, %rdx
	leaq	.LC50(%rip), %rax
	movq	%rax, %rsi
	movq	%rdx, %rdi
	call	_ZStlsISt11char_traitsIcEERSt13basic_ostreamIcT_ES5_PKc@PLT
	leaq	.LC51(%rip), %rdx
	leaq	_ZSt4cout(%rip), %rax
	movq	%rdx, %rsi
	movq	%rax, %rdi
	call	_ZStlsISt11char_traitsIcEERSt13basic_ostreamIcT_ES5_PKc@PLT
	leaq	.LC52(%rip), %rdx
	leaq	_ZSt4cout(%rip), %rax
	movq	%rdx, %rsi
	movq	%rax, %rdi
	call	_ZStlsISt11char_traitsIcEERSt13basic_ostreamIcT_ES5_PKc@PLT
	leaq	.LC53(%rip), %rdx
	leaq	_ZSt4cout(%rip), %rax
	movq	%rdx, %rsi
	movq	%rax, %rdi
	call	_ZStlsISt11char_traitsIcEERSt13basic_ostreamIcT_ES5_PKc@PLT
	leaq	.LC54(%rip), %rdx
	leaq	_ZSt4cout(%rip), %rax
	movq	%rdx, %rsi
	movq	%rax, %rdi
	call	_ZStlsISt11char_traitsIcEERSt13basic_ostreamIcT_ES5_PKc@PLT
	leaq	.LC15(%rip), %rdx
	leaq	_ZSt4cout(%rip), %rax
	movq	%rdx, %rsi
	movq	%rax, %rdi
	call	_ZStlsISt11char_traitsIcEERSt13basic_ostreamIcT_ES5_PKc@PLT
.LEHE12:
	movq	-1512(%rbp), %rax
	addq	$8, %rax
	movq	%rax, -1512(%rbp)
	nop
.L130:
	leaq	-1512(%rbp), %rax
	movq	%rax, -1312(%rbp)
	movq	-1312(%rbp), %rax
	movq	(%rax), %rdx
	leaq	-1504(%rbp), %rax
	movq	%rax, -1304(%rbp)
	movq	-1304(%rbp), %rax
	movq	(%rax), %rax
	cmpq	%rax, %rdx
	setne	%al
	testb	%al, %al
	jne	.L136
	movl	$0, %ebx
	leaq	-1056(%rbp), %rax
	movq	%rax, %rdi
	call	_ZNSt7__cxx1112basic_stringIcSt11char_traitsIcESaIcEED1Ev
	leaq	-1088(%rbp), %rax
	movq	%rax, %rdi
	call	_ZNSt7__cxx1112basic_stringIcSt11char_traitsIcESaIcEED1Ev
	leaq	-1120(%rbp), %rax
	movq	%rax, %rdi
	call	_ZNSt7__cxx1112basic_stringIcSt11char_traitsIcESaIcEED1Ev
	leaq	-1152(%rbp), %rax
	movq	%rax, %rdi
	call	_ZNSt7__cxx1112basic_stringIcSt11char_traitsIcESaIcEED1Ev
	leaq	-1184(%rbp), %rax
	movq	%rax, %rdi
	call	_ZNSt7__cxx1112basic_stringIcSt11char_traitsIcESaIcEED1Ev
	leaq	-1296(%rbp), %rax
	movq	%rax, %rdi
	call	_ZNSt6vectorImSaImEED1Ev
.L137:
	movl	%ebx, %eax
	movq	-40(%rbp), %rdx
	subq	%fs:40, %rdx
	je	.L149
	jmp	.L159
.L151:
	movq	%rax, %rbx
	leaq	-960(%rbp), %rax
	movq	%rax, %rdi
	call	_ZNSt7__cxx1112basic_stringIcSt11char_traitsIcESaIcEED1Ev
	jmp	.L139
.L150:
	movq	%rax, %rbx
.L139:
	leaq	-1232(%rbp), %rax
	movq	%rax, %rdi
	call	_ZNSt15__new_allocatorIcED2Ev
	nop
	movq	%rbx, %rax
	movq	-40(%rbp), %rdx
	subq	%fs:40, %rdx
	je	.L140
	call	__stack_chk_fail@PLT
.L140:
	movq	%rax, %rdi
.LEHB13:
	call	_Unwind_Resume@PLT
.L153:
	movq	%rax, %rbx
	leaq	-960(%rbp), %rax
	movq	%rax, %rdi
	call	_ZNSt7__cxx1112basic_stringIcSt11char_traitsIcESaIcEED1Ev
	jmp	.L142
.L152:
	movq	%rax, %rbx
.L142:
	leaq	-1264(%rbp), %rax
	movq	%rax, %rdi
	call	_ZNSt15__new_allocatorIcED2Ev
	nop
	jmp	.L143
.L155:
	movq	%rax, %rbx
	leaq	-1024(%rbp), %rax
	movq	%rax, %rdi
	call	_ZNSt7__cxx1112basic_stringIcSt11char_traitsIcESaIcEED1Ev
	leaq	-960(%rbp), %rax
	movq	%rax, %rdi
	call	_ZNSt14basic_ifstreamIcSt11char_traitsIcEED1Ev@PLT
	jmp	.L145
.L157:
	movq	%rax, %rbx
	leaq	-1024(%rbp), %rax
	movq	%rax, %rdi
	call	_ZNSt7__cxx1112basic_stringIcSt11char_traitsIcESaIcEED1Ev
	leaq	-960(%rbp), %rax
	movq	%rax, %rdi
	call	_ZNSt14basic_ifstreamIcSt11char_traitsIcEED1Ev@PLT
	jmp	.L145
.L158:
	movq	%rax, %rbx
	leaq	-1232(%rbp), %rax
	movq	%rax, %rdi
	call	_ZNSt15__new_allocatorIcED2Ev
	nop
	jmp	.L145
.L156:
	movq	%rax, %rbx
.L145:
	leaq	-1056(%rbp), %rax
	movq	%rax, %rdi
	call	_ZNSt7__cxx1112basic_stringIcSt11char_traitsIcESaIcEED1Ev
	leaq	-1088(%rbp), %rax
	movq	%rax, %rdi
	call	_ZNSt7__cxx1112basic_stringIcSt11char_traitsIcESaIcEED1Ev
	leaq	-1120(%rbp), %rax
	movq	%rax, %rdi
	call	_ZNSt7__cxx1112basic_stringIcSt11char_traitsIcESaIcEED1Ev
	leaq	-1152(%rbp), %rax
	movq	%rax, %rdi
	call	_ZNSt7__cxx1112basic_stringIcSt11char_traitsIcESaIcEED1Ev
	leaq	-1184(%rbp), %rax
	movq	%rax, %rdi
	call	_ZNSt7__cxx1112basic_stringIcSt11char_traitsIcESaIcEED1Ev
	jmp	.L143
.L154:
	movq	%rax, %rbx
.L143:
	leaq	-1296(%rbp), %rax
	movq	%rax, %rdi
	call	_ZNSt6vectorImSaImEED1Ev
	movq	%rbx, %rax
	movq	-40(%rbp), %rdx
	subq	%fs:40, %rdx
	je	.L148
	call	__stack_chk_fail@PLT
.L148:
	movq	%rax, %rdi
	call	_Unwind_Resume@PLT
.LEHE13:
.L159:
	call	__stack_chk_fail@PLT
.L149:
	addq	$1512, %rsp
	popq	%rbx
	popq	%r12
	popq	%r13
	popq	%rbp
	.cfi_def_cfa 7, 8
	ret
	.cfi_endproc
.LFE3067:
	.section	.gcc_except_table,"a",@progbits
.LLSDA3067:
	.byte	0xff
	.byte	0xff
	.byte	0x1
	.uleb128 .LLSDACSE3067-.LLSDACSB3067
.LLSDACSB3067:
	.uleb128 .LEHB0-.LFB3067
	.uleb128 .LEHE0-.LEHB0
	.uleb128 .L150-.LFB3067
	.uleb128 0
	.uleb128 .LEHB1-.LFB3067
	.uleb128 .LEHE1-.LEHB1
	.uleb128 .L151-.LFB3067
	.uleb128 0
	.uleb128 .LEHB2-.LFB3067
	.uleb128 .LEHE2-.LEHB2
	.uleb128 0
	.uleb128 0
	.uleb128 .LEHB3-.LFB3067
	.uleb128 .LEHE3-.LEHB3
	.uleb128 .L152-.LFB3067
	.uleb128 0
	.uleb128 .LEHB4-.LFB3067
	.uleb128 .LEHE4-.LEHB4
	.uleb128 .L153-.LFB3067
	.uleb128 0
	.uleb128 .LEHB5-.LFB3067
	.uleb128 .LEHE5-.LEHB5
	.uleb128 .L154-.LFB3067
	.uleb128 0
	.uleb128 .LEHB6-.LFB3067
	.uleb128 .LEHE6-.LEHB6
	.uleb128 .L156-.LFB3067
	.uleb128 0
	.uleb128 .LEHB7-.LFB3067
	.uleb128 .LEHE7-.LEHB7
	.uleb128 .L155-.LFB3067
	.uleb128 0
	.uleb128 .LEHB8-.LFB3067
	.uleb128 .LEHE8-.LEHB8
	.uleb128 .L156-.LFB3067
	.uleb128 0
	.uleb128 .LEHB9-.LFB3067
	.uleb128 .LEHE9-.LEHB9
	.uleb128 .L157-.LFB3067
	.uleb128 0
	.uleb128 .LEHB10-.LFB3067
	.uleb128 .LEHE10-.LEHB10
	.uleb128 .L156-.LFB3067
	.uleb128 0
	.uleb128 .LEHB11-.LFB3067
	.uleb128 .LEHE11-.LEHB11
	.uleb128 .L158-.LFB3067
	.uleb128 0
	.uleb128 .LEHB12-.LFB3067
	.uleb128 .LEHE12-.LEHB12
	.uleb128 .L156-.LFB3067
	.uleb128 0
	.uleb128 .LEHB13-.LFB3067
	.uleb128 .LEHE13-.LEHB13
	.uleb128 0
	.uleb128 0
.LLSDACSE3067:
	.text
	.size	main, .-main
	.section	.text._ZN9__gnu_cxx11char_traitsIcE6lengthEPKc,"axG",@progbits,_ZN9__gnu_cxx11char_traitsIcE6lengthEPKc,comdat
	.align 2
	.weak	_ZN9__gnu_cxx11char_traitsIcE6lengthEPKc
	.type	_ZN9__gnu_cxx11char_traitsIcE6lengthEPKc, @function
_ZN9__gnu_cxx11char_traitsIcE6lengthEPKc:
.LFB3092:
	.cfi_startproc
	pushq	%rbp
	.cfi_def_cfa_offset 16
	.cfi_offset 6, -16
	movq	%rsp, %rbp
	.cfi_def_cfa_register 6
	subq	$48, %rsp
	movq	%rdi, -40(%rbp)
	movq	%fs:40, %rax
	movq	%rax, -8(%rbp)
	xorl	%eax, %eax
	movq	$0, -16(%rbp)
	jmp	.L161
.L162:
	addq	$1, -16(%rbp)
.L161:
	movb	$0, -17(%rbp)
	movq	-40(%rbp), %rdx
	movq	-16(%rbp), %rax
	addq	%rax, %rdx
	leaq	-17(%rbp), %rax
	movq	%rax, %rsi
	movq	%rdx, %rdi
	call	_ZN9__gnu_cxx11char_traitsIcE2eqERKcS3_
	xorl	$1, %eax
	testb	%al, %al
	jne	.L162
	movq	-16(%rbp), %rax
	movq	-8(%rbp), %rdx
	subq	%fs:40, %rdx
	je	.L164
	call	__stack_chk_fail@PLT
.L164:
	leave
	.cfi_def_cfa 7, 8
	ret
	.cfi_endproc
.LFE3092:
	.size	_ZN9__gnu_cxx11char_traitsIcE6lengthEPKc, .-_ZN9__gnu_cxx11char_traitsIcE6lengthEPKc
	.section	.text._ZN9__gnu_cxx11char_traitsIcE4findEPKcmRS2_,"axG",@progbits,_ZN9__gnu_cxx11char_traitsIcE4findEPKcmRS2_,comdat
	.align 2
	.weak	_ZN9__gnu_cxx11char_traitsIcE4findEPKcmRS2_
	.type	_ZN9__gnu_cxx11char_traitsIcE4findEPKcmRS2_, @function
_ZN9__gnu_cxx11char_traitsIcE4findEPKcmRS2_:
.LFB3093:
	.cfi_startproc
	pushq	%rbp
	.cfi_def_cfa_offset 16
	.cfi_offset 6, -16
	movq	%rsp, %rbp
	.cfi_def_cfa_register 6
	subq	$48, %rsp
	movq	%rdi, -24(%rbp)
	movq	%rsi, -32(%rbp)
	movq	%rdx, -40(%rbp)
	movq	$0, -8(%rbp)
	jmp	.L166
.L169:
	movq	-24(%rbp), %rdx
	movq	-8(%rbp), %rax
	addq	%rax, %rdx
	movq	-40(%rbp), %rax
	movq	%rax, %rsi
	movq	%rdx, %rdi
	call	_ZN9__gnu_cxx11char_traitsIcE2eqERKcS3_
	testb	%al, %al
	je	.L167
	movq	-24(%rbp), %rdx
	movq	-8(%rbp), %rax
	addq	%rdx, %rax
	jmp	.L168
.L167:
	addq	$1, -8(%rbp)
.L166:
	movq	-8(%rbp), %rax
	cmpq	-32(%rbp), %rax
	jb	.L169
	movl	$0, %eax
.L168:
	leave
	.cfi_def_cfa 7, 8
	ret
	.cfi_endproc
.LFE3093:
	.size	_ZN9__gnu_cxx11char_traitsIcE4findEPKcmRS2_, .-_ZN9__gnu_cxx11char_traitsIcE4findEPKcmRS2_
	.section	.text._ZNKSt7__cxx1112basic_stringIcSt11char_traitsIcESaIcEE5c_strEv,"axG",@progbits,_ZNKSt7__cxx1112basic_stringIcSt11char_traitsIcESaIcEE5c_strEv,comdat
	.align 2
	.weak	_ZNKSt7__cxx1112basic_stringIcSt11char_traitsIcESaIcEE5c_strEv
	.type	_ZNKSt7__cxx1112basic_stringIcSt11char_traitsIcESaIcEE5c_strEv, @function
_ZNKSt7__cxx1112basic_stringIcSt11char_traitsIcESaIcEE5c_strEv:
.LFB3118:
	.cfi_startproc
	pushq	%rbp
	.cfi_def_cfa_offset 16
	.cfi_offset 6, -16
	movq	%rsp, %rbp
	.cfi_def_cfa_register 6
	subq	$16, %rsp
	movq	%rdi, -8(%rbp)
	movq	-8(%rbp), %rax
	movq	%rax, %rdi
	call	_ZNKSt7__cxx1112basic_stringIcSt11char_traitsIcESaIcEE7_M_dataEv
	leave
	.cfi_def_cfa 7, 8
	ret
	.cfi_endproc
.LFE3118:
	.size	_ZNKSt7__cxx1112basic_stringIcSt11char_traitsIcESaIcEE5c_strEv, .-_ZNKSt7__cxx1112basic_stringIcSt11char_traitsIcESaIcEE5c_strEv
	.section	.text._ZZN9__gnu_cxx6__stoaIxxcJiEEET0_PFT_PKT1_PPS3_DpT2_EPKcS5_PmS9_EN11_Save_errnoC2Ev,"axG",@progbits,_ZZN9__gnu_cxx6__stoaIxxcJiEEET0_PFT_PKT1_PPS3_DpT2_EPKcS5_PmS9_EN11_Save_errnoC5Ev,comdat
	.align 2
	.weak	_ZZN9__gnu_cxx6__stoaIxxcJiEEET0_PFT_PKT1_PPS3_DpT2_EPKcS5_PmS9_EN11_Save_errnoC2Ev
	.type	_ZZN9__gnu_cxx6__stoaIxxcJiEEET0_PFT_PKT1_PPS3_DpT2_EPKcS5_PmS9_EN11_Save_errnoC2Ev, @function
_ZZN9__gnu_cxx6__stoaIxxcJiEEET0_PFT_PKT1_PPS3_DpT2_EPKcS5_PmS9_EN11_Save_errnoC2Ev:
.LFB3148:
	.cfi_startproc
	pushq	%rbp
	.cfi_def_cfa_offset 16
	.cfi_offset 6, -16
	movq	%rsp, %rbp
	.cfi_def_cfa_register 6
	subq	$16, %rsp
	movq	%rdi, -8(%rbp)
	call	__errno_location@PLT
	movl	(%rax), %edx
	movq	-8(%rbp), %rax
	movl	%edx, (%rax)
	call	__errno_location@PLT
	movl	$0, (%rax)
	nop
	leave
	.cfi_def_cfa 7, 8
	ret
	.cfi_endproc
.LFE3148:
	.size	_ZZN9__gnu_cxx6__stoaIxxcJiEEET0_PFT_PKT1_PPS3_DpT2_EPKcS5_PmS9_EN11_Save_errnoC2Ev, .-_ZZN9__gnu_cxx6__stoaIxxcJiEEET0_PFT_PKT1_PPS3_DpT2_EPKcS5_PmS9_EN11_Save_errnoC2Ev
	.weak	_ZZN9__gnu_cxx6__stoaIxxcJiEEET0_PFT_PKT1_PPS3_DpT2_EPKcS5_PmS9_EN11_Save_errnoC1Ev
	.set	_ZZN9__gnu_cxx6__stoaIxxcJiEEET0_PFT_PKT1_PPS3_DpT2_EPKcS5_PmS9_EN11_Save_errnoC1Ev,_ZZN9__gnu_cxx6__stoaIxxcJiEEET0_PFT_PKT1_PPS3_DpT2_EPKcS5_PmS9_EN11_Save_errnoC2Ev
	.section	.text._ZZN9__gnu_cxx6__stoaIxxcJiEEET0_PFT_PKT1_PPS3_DpT2_EPKcS5_PmS9_EN11_Save_errnoD2Ev,"axG",@progbits,_ZZN9__gnu_cxx6__stoaIxxcJiEEET0_PFT_PKT1_PPS3_DpT2_EPKcS5_PmS9_EN11_Save_errnoD5Ev,comdat
	.align 2
	.weak	_ZZN9__gnu_cxx6__stoaIxxcJiEEET0_PFT_PKT1_PPS3_DpT2_EPKcS5_PmS9_EN11_Save_errnoD2Ev
	.type	_ZZN9__gnu_cxx6__stoaIxxcJiEEET0_PFT_PKT1_PPS3_DpT2_EPKcS5_PmS9_EN11_Save_errnoD2Ev, @function
_ZZN9__gnu_cxx6__stoaIxxcJiEEET0_PFT_PKT1_PPS3_DpT2_EPKcS5_PmS9_EN11_Save_errnoD2Ev:
.LFB3151:
	.cfi_startproc
	pushq	%rbp
	.cfi_def_cfa_offset 16
	.cfi_offset 6, -16
	movq	%rsp, %rbp
	.cfi_def_cfa_register 6
	subq	$16, %rsp
	movq	%rdi, -8(%rbp)
	call	__errno_location@PLT
	movl	(%rax), %eax
	testl	%eax, %eax
	jne	.L175
	call	__errno_location@PLT
	movq	-8(%rbp), %rdx
	movl	(%rdx), %edx
	movl	%edx, (%rax)
.L175:
	nop
	leave
	.cfi_def_cfa 7, 8
	ret
	.cfi_endproc
.LFE3151:
	.size	_ZZN9__gnu_cxx6__stoaIxxcJiEEET0_PFT_PKT1_PPS3_DpT2_EPKcS5_PmS9_EN11_Save_errnoD2Ev, .-_ZZN9__gnu_cxx6__stoaIxxcJiEEET0_PFT_PKT1_PPS3_DpT2_EPKcS5_PmS9_EN11_Save_errnoD2Ev
	.weak	_ZZN9__gnu_cxx6__stoaIxxcJiEEET0_PFT_PKT1_PPS3_DpT2_EPKcS5_PmS9_EN11_Save_errnoD1Ev
	.set	_ZZN9__gnu_cxx6__stoaIxxcJiEEET0_PFT_PKT1_PPS3_DpT2_EPKcS5_PmS9_EN11_Save_errnoD1Ev,_ZZN9__gnu_cxx6__stoaIxxcJiEEET0_PFT_PKT1_PPS3_DpT2_EPKcS5_PmS9_EN11_Save_errnoD2Ev
	.section	.text._ZZN9__gnu_cxx6__stoaIxxcJiEEET0_PFT_PKT1_PPS3_DpT2_EPKcS5_PmS9_EN10_Range_chk6_S_chkExSt17integral_constantIbLb0EE,"axG",@progbits,_ZZN9__gnu_cxx6__stoaIxxcJiEEET0_PFT_PKT1_PPS3_DpT2_EPKcS5_PmS9_EN10_Range_chk6_S_chkExSt17integral_constantIbLb0EE,comdat
	.weak	_ZZN9__gnu_cxx6__stoaIxxcJiEEET0_PFT_PKT1_PPS3_DpT2_EPKcS5_PmS9_EN10_Range_chk6_S_chkExSt17integral_constantIbLb0EE
	.type	_ZZN9__gnu_cxx6__stoaIxxcJiEEET0_PFT_PKT1_PPS3_DpT2_EPKcS5_PmS9_EN10_Range_chk6_S_chkExSt17integral_constantIbLb0EE, @function
_ZZN9__gnu_cxx6__stoaIxxcJiEEET0_PFT_PKT1_PPS3_DpT2_EPKcS5_PmS9_EN10_Range_chk6_S_chkExSt17integral_constantIbLb0EE:
.LFB3153:
	.cfi_startproc
	pushq	%rbp
	.cfi_def_cfa_offset 16
	.cfi_offset 6, -16
	movq	%rsp, %rbp
	.cfi_def_cfa_register 6
	movq	%rdi, -8(%rbp)
	movl	$0, %eax
	popq	%rbp
	.cfi_def_cfa 7, 8
	ret
	.cfi_endproc
.LFE3153:
	.size	_ZZN9__gnu_cxx6__stoaIxxcJiEEET0_PFT_PKT1_PPS3_DpT2_EPKcS5_PmS9_EN10_Range_chk6_S_chkExSt17integral_constantIbLb0EE, .-_ZZN9__gnu_cxx6__stoaIxxcJiEEET0_PFT_PKT1_PPS3_DpT2_EPKcS5_PmS9_EN10_Range_chk6_S_chkExSt17integral_constantIbLb0EE
	.section	.text._ZN9__gnu_cxx6__stoaIxxcJiEEET0_PFT_PKT1_PPS3_DpT2_EPKcS5_PmS9_,"axG",@progbits,_ZN9__gnu_cxx6__stoaIxxcJiEEET0_PFT_PKT1_PPS3_DpT2_EPKcS5_PmS9_,comdat
	.weak	_ZN9__gnu_cxx6__stoaIxxcJiEEET0_PFT_PKT1_PPS3_DpT2_EPKcS5_PmS9_
	.type	_ZN9__gnu_cxx6__stoaIxxcJiEEET0_PFT_PKT1_PPS3_DpT2_EPKcS5_PmS9_, @function
_ZN9__gnu_cxx6__stoaIxxcJiEEET0_PFT_PKT1_PPS3_DpT2_EPKcS5_PmS9_:
.LFB3146:
	.cfi_startproc
	.cfi_personality 0x9b,DW.ref.__gxx_personality_v0
	.cfi_lsda 0x1b,.LLSDA3146
	pushq	%rbp
	.cfi_def_cfa_offset 16
	.cfi_offset 6, -16
	movq	%rsp, %rbp
	.cfi_def_cfa_register 6
	pushq	%rbx
	subq	$104, %rsp
	.cfi_offset 3, -24
	movq	%rdi, -72(%rbp)
	movq	%rsi, -80(%rbp)
	movq	%rdx, -88(%rbp)
	movq	%rcx, -96(%rbp)
	movl	%r8d, -100(%rbp)
	movq	%fs:40, %rax
	movq	%rax, -24(%rbp)
	xorl	%eax, %eax
	leaq	-52(%rbp), %rax
	movq	%rax, %rdi
	call	_ZZN9__gnu_cxx6__stoaIxxcJiEEET0_PFT_PKT1_PPS3_DpT2_EPKcS5_PmS9_EN11_Save_errnoC1Ev
	movq	-72(%rbp), %r8
	movl	-100(%rbp), %edx
	leaq	-48(%rbp), %rcx
	movq	-88(%rbp), %rax
	movq	%rcx, %rsi
	movq	%rax, %rdi
.LEHB14:
	call	*%r8
	movq	%rax, -40(%rbp)
	movq	-48(%rbp), %rax
	cmpq	%rax, -88(%rbp)
	jne	.L179
	movq	-24(%rbp), %rax
	subq	%fs:40, %rax
	je	.L180
	call	__stack_chk_fail@PLT
.L180:
	movq	-80(%rbp), %rax
	movq	%rax, %rdi
	call	_ZSt24__throw_invalid_argumentPKc@PLT
.L179:
	call	__errno_location@PLT
	movl	(%rax), %eax
	cmpl	$34, %eax
	je	.L181
	movq	-40(%rbp), %rax
	movq	%rax, %rdi
	call	_ZZN9__gnu_cxx6__stoaIxxcJiEEET0_PFT_PKT1_PPS3_DpT2_EPKcS5_PmS9_EN10_Range_chk6_S_chkExSt17integral_constantIbLb0EE
	testb	%al, %al
	je	.L182
.L181:
	movl	$1, %eax
	jmp	.L183
.L182:
	movl	$0, %eax
.L183:
	testb	%al, %al
	je	.L184
	movq	-24(%rbp), %rax
	subq	%fs:40, %rax
	je	.L185
	call	__stack_chk_fail@PLT
.L185:
	movq	-80(%rbp), %rax
	movq	%rax, %rdi
	call	_ZSt20__throw_out_of_rangePKc@PLT
.LEHE14:
.L184:
	movq	-40(%rbp), %rax
	movq	%rax, -32(%rbp)
	cmpq	$0, -96(%rbp)
	je	.L186
	movq	-48(%rbp), %rax
	subq	-88(%rbp), %rax
	movq	%rax, %rdx
	movq	-96(%rbp), %rax
	movq	%rdx, (%rax)
.L186:
	movq	-32(%rbp), %rbx
	leaq	-52(%rbp), %rax
	movq	%rax, %rdi
	call	_ZZN9__gnu_cxx6__stoaIxxcJiEEET0_PFT_PKT1_PPS3_DpT2_EPKcS5_PmS9_EN11_Save_errnoD1Ev
	movq	%rbx, %rax
	movq	-24(%rbp), %rdx
	subq	%fs:40, %rdx
	je	.L190
	jmp	.L192
.L191:
	movq	%rax, %rbx
	leaq	-52(%rbp), %rax
	movq	%rax, %rdi
	call	_ZZN9__gnu_cxx6__stoaIxxcJiEEET0_PFT_PKT1_PPS3_DpT2_EPKcS5_PmS9_EN11_Save_errnoD1Ev
	movq	%rbx, %rax
	movq	-24(%rbp), %rdx
	subq	%fs:40, %rdx
	je	.L189
	call	__stack_chk_fail@PLT
.L189:
	movq	%rax, %rdi
.LEHB15:
	call	_Unwind_Resume@PLT
.LEHE15:
.L192:
	call	__stack_chk_fail@PLT
.L190:
	movq	-8(%rbp), %rbx
	leave
	.cfi_def_cfa 7, 8
	ret
	.cfi_endproc
.LFE3146:
	.section	.gcc_except_table
.LLSDA3146:
	.byte	0xff
	.byte	0xff
	.byte	0x1
	.uleb128 .LLSDACSE3146-.LLSDACSB3146
.LLSDACSB3146:
	.uleb128 .LEHB14-.LFB3146
	.uleb128 .LEHE14-.LEHB14
	.uleb128 .L191-.LFB3146
	.uleb128 0
	.uleb128 .LEHB15-.LFB3146
	.uleb128 .LEHE15-.LEHB15
	.uleb128 0
	.uleb128 0
.LLSDACSE3146:
	.section	.text._ZN9__gnu_cxx6__stoaIxxcJiEEET0_PFT_PKT1_PPS3_DpT2_EPKcS5_PmS9_,"axG",@progbits,_ZN9__gnu_cxx6__stoaIxxcJiEEET0_PFT_PKT1_PPS3_DpT2_EPKcS5_PmS9_,comdat
	.size	_ZN9__gnu_cxx6__stoaIxxcJiEEET0_PFT_PKT1_PPS3_DpT2_EPKcS5_PmS9_, .-_ZN9__gnu_cxx6__stoaIxxcJiEEET0_PFT_PKT1_PPS3_DpT2_EPKcS5_PmS9_
	.section	.text._ZZN9__gnu_cxx6__stoaIyycJiEEET0_PFT_PKT1_PPS3_DpT2_EPKcS5_PmS9_EN11_Save_errnoC2Ev,"axG",@progbits,_ZZN9__gnu_cxx6__stoaIyycJiEEET0_PFT_PKT1_PPS3_DpT2_EPKcS5_PmS9_EN11_Save_errnoC5Ev,comdat
	.align 2
	.weak	_ZZN9__gnu_cxx6__stoaIyycJiEEET0_PFT_PKT1_PPS3_DpT2_EPKcS5_PmS9_EN11_Save_errnoC2Ev
	.type	_ZZN9__gnu_cxx6__stoaIyycJiEEET0_PFT_PKT1_PPS3_DpT2_EPKcS5_PmS9_EN11_Save_errnoC2Ev, @function
_ZZN9__gnu_cxx6__stoaIyycJiEEET0_PFT_PKT1_PPS3_DpT2_EPKcS5_PmS9_EN11_Save_errnoC2Ev:
.LFB3157:
	.cfi_startproc
	pushq	%rbp
	.cfi_def_cfa_offset 16
	.cfi_offset 6, -16
	movq	%rsp, %rbp
	.cfi_def_cfa_register 6
	subq	$16, %rsp
	movq	%rdi, -8(%rbp)
	call	__errno_location@PLT
	movl	(%rax), %edx
	movq	-8(%rbp), %rax
	movl	%edx, (%rax)
	call	__errno_location@PLT
	movl	$0, (%rax)
	nop
	leave
	.cfi_def_cfa 7, 8
	ret
	.cfi_endproc
.LFE3157:
	.size	_ZZN9__gnu_cxx6__stoaIyycJiEEET0_PFT_PKT1_PPS3_DpT2_EPKcS5_PmS9_EN11_Save_errnoC2Ev, .-_ZZN9__gnu_cxx6__stoaIyycJiEEET0_PFT_PKT1_PPS3_DpT2_EPKcS5_PmS9_EN11_Save_errnoC2Ev
	.weak	_ZZN9__gnu_cxx6__stoaIyycJiEEET0_PFT_PKT1_PPS3_DpT2_EPKcS5_PmS9_EN11_Save_errnoC1Ev
	.set	_ZZN9__gnu_cxx6__stoaIyycJiEEET0_PFT_PKT1_PPS3_DpT2_EPKcS5_PmS9_EN11_Save_errnoC1Ev,_ZZN9__gnu_cxx6__stoaIyycJiEEET0_PFT_PKT1_PPS3_DpT2_EPKcS5_PmS9_EN11_Save_errnoC2Ev
	.section	.text._ZZN9__gnu_cxx6__stoaIyycJiEEET0_PFT_PKT1_PPS3_DpT2_EPKcS5_PmS9_EN11_Save_errnoD2Ev,"axG",@progbits,_ZZN9__gnu_cxx6__stoaIyycJiEEET0_PFT_PKT1_PPS3_DpT2_EPKcS5_PmS9_EN11_Save_errnoD5Ev,comdat
	.align 2
	.weak	_ZZN9__gnu_cxx6__stoaIyycJiEEET0_PFT_PKT1_PPS3_DpT2_EPKcS5_PmS9_EN11_Save_errnoD2Ev
	.type	_ZZN9__gnu_cxx6__stoaIyycJiEEET0_PFT_PKT1_PPS3_DpT2_EPKcS5_PmS9_EN11_Save_errnoD2Ev, @function
_ZZN9__gnu_cxx6__stoaIyycJiEEET0_PFT_PKT1_PPS3_DpT2_EPKcS5_PmS9_EN11_Save_errnoD2Ev:
.LFB3160:
	.cfi_startproc
	pushq	%rbp
	.cfi_def_cfa_offset 16
	.cfi_offset 6, -16
	movq	%rsp, %rbp
	.cfi_def_cfa_register 6
	subq	$16, %rsp
	movq	%rdi, -8(%rbp)
	call	__errno_location@PLT
	movl	(%rax), %eax
	testl	%eax, %eax
	jne	.L196
	call	__errno_location@PLT
	movq	-8(%rbp), %rdx
	movl	(%rdx), %edx
	movl	%edx, (%rax)
.L196:
	nop
	leave
	.cfi_def_cfa 7, 8
	ret
	.cfi_endproc
.LFE3160:
	.size	_ZZN9__gnu_cxx6__stoaIyycJiEEET0_PFT_PKT1_PPS3_DpT2_EPKcS5_PmS9_EN11_Save_errnoD2Ev, .-_ZZN9__gnu_cxx6__stoaIyycJiEEET0_PFT_PKT1_PPS3_DpT2_EPKcS5_PmS9_EN11_Save_errnoD2Ev
	.weak	_ZZN9__gnu_cxx6__stoaIyycJiEEET0_PFT_PKT1_PPS3_DpT2_EPKcS5_PmS9_EN11_Save_errnoD1Ev
	.set	_ZZN9__gnu_cxx6__stoaIyycJiEEET0_PFT_PKT1_PPS3_DpT2_EPKcS5_PmS9_EN11_Save_errnoD1Ev,_ZZN9__gnu_cxx6__stoaIyycJiEEET0_PFT_PKT1_PPS3_DpT2_EPKcS5_PmS9_EN11_Save_errnoD2Ev
	.section	.text._ZZN9__gnu_cxx6__stoaIyycJiEEET0_PFT_PKT1_PPS3_DpT2_EPKcS5_PmS9_EN10_Range_chk6_S_chkEySt17integral_constantIbLb0EE,"axG",@progbits,_ZZN9__gnu_cxx6__stoaIyycJiEEET0_PFT_PKT1_PPS3_DpT2_EPKcS5_PmS9_EN10_Range_chk6_S_chkEySt17integral_constantIbLb0EE,comdat
	.weak	_ZZN9__gnu_cxx6__stoaIyycJiEEET0_PFT_PKT1_PPS3_DpT2_EPKcS5_PmS9_EN10_Range_chk6_S_chkEySt17integral_constantIbLb0EE
	.type	_ZZN9__gnu_cxx6__stoaIyycJiEEET0_PFT_PKT1_PPS3_DpT2_EPKcS5_PmS9_EN10_Range_chk6_S_chkEySt17integral_constantIbLb0EE, @function
_ZZN9__gnu_cxx6__stoaIyycJiEEET0_PFT_PKT1_PPS3_DpT2_EPKcS5_PmS9_EN10_Range_chk6_S_chkEySt17integral_constantIbLb0EE:
.LFB3162:
	.cfi_startproc
	pushq	%rbp
	.cfi_def_cfa_offset 16
	.cfi_offset 6, -16
	movq	%rsp, %rbp
	.cfi_def_cfa_register 6
	movq	%rdi, -8(%rbp)
	movl	$0, %eax
	popq	%rbp
	.cfi_def_cfa 7, 8
	ret
	.cfi_endproc
.LFE3162:
	.size	_ZZN9__gnu_cxx6__stoaIyycJiEEET0_PFT_PKT1_PPS3_DpT2_EPKcS5_PmS9_EN10_Range_chk6_S_chkEySt17integral_constantIbLb0EE, .-_ZZN9__gnu_cxx6__stoaIyycJiEEET0_PFT_PKT1_PPS3_DpT2_EPKcS5_PmS9_EN10_Range_chk6_S_chkEySt17integral_constantIbLb0EE
	.section	.text._ZN9__gnu_cxx6__stoaIyycJiEEET0_PFT_PKT1_PPS3_DpT2_EPKcS5_PmS9_,"axG",@progbits,_ZN9__gnu_cxx6__stoaIyycJiEEET0_PFT_PKT1_PPS3_DpT2_EPKcS5_PmS9_,comdat
	.weak	_ZN9__gnu_cxx6__stoaIyycJiEEET0_PFT_PKT1_PPS3_DpT2_EPKcS5_PmS9_
	.type	_ZN9__gnu_cxx6__stoaIyycJiEEET0_PFT_PKT1_PPS3_DpT2_EPKcS5_PmS9_, @function
_ZN9__gnu_cxx6__stoaIyycJiEEET0_PFT_PKT1_PPS3_DpT2_EPKcS5_PmS9_:
.LFB3155:
	.cfi_startproc
	.cfi_personality 0x9b,DW.ref.__gxx_personality_v0
	.cfi_lsda 0x1b,.LLSDA3155
	pushq	%rbp
	.cfi_def_cfa_offset 16
	.cfi_offset 6, -16
	movq	%rsp, %rbp
	.cfi_def_cfa_register 6
	pushq	%rbx
	subq	$104, %rsp
	.cfi_offset 3, -24
	movq	%rdi, -72(%rbp)
	movq	%rsi, -80(%rbp)
	movq	%rdx, -88(%rbp)
	movq	%rcx, -96(%rbp)
	movl	%r8d, -100(%rbp)
	movq	%fs:40, %rax
	movq	%rax, -24(%rbp)
	xorl	%eax, %eax
	leaq	-52(%rbp), %rax
	movq	%rax, %rdi
	call	_ZZN9__gnu_cxx6__stoaIyycJiEEET0_PFT_PKT1_PPS3_DpT2_EPKcS5_PmS9_EN11_Save_errnoC1Ev
	movq	-72(%rbp), %r8
	movl	-100(%rbp), %edx
	leaq	-48(%rbp), %rcx
	movq	-88(%rbp), %rax
	movq	%rcx, %rsi
	movq	%rax, %rdi
.LEHB16:
	call	*%r8
	movq	%rax, -40(%rbp)
	movq	-48(%rbp), %rax
	cmpq	%rax, -88(%rbp)
	jne	.L200
	movq	-24(%rbp), %rax
	subq	%fs:40, %rax
	je	.L201
	call	__stack_chk_fail@PLT
.L201:
	movq	-80(%rbp), %rax
	movq	%rax, %rdi
	call	_ZSt24__throw_invalid_argumentPKc@PLT
.L200:
	call	__errno_location@PLT
	movl	(%rax), %eax
	cmpl	$34, %eax
	je	.L202
	movq	-40(%rbp), %rax
	movq	%rax, %rdi
	call	_ZZN9__gnu_cxx6__stoaIyycJiEEET0_PFT_PKT1_PPS3_DpT2_EPKcS5_PmS9_EN10_Range_chk6_S_chkEySt17integral_constantIbLb0EE
	testb	%al, %al
	je	.L203
.L202:
	movl	$1, %eax
	jmp	.L204
.L203:
	movl	$0, %eax
.L204:
	testb	%al, %al
	je	.L205
	movq	-24(%rbp), %rax
	subq	%fs:40, %rax
	je	.L206
	call	__stack_chk_fail@PLT
.L206:
	movq	-80(%rbp), %rax
	movq	%rax, %rdi
	call	_ZSt20__throw_out_of_rangePKc@PLT
.LEHE16:
.L205:
	movq	-40(%rbp), %rax
	movq	%rax, -32(%rbp)
	cmpq	$0, -96(%rbp)
	je	.L207
	movq	-48(%rbp), %rax
	subq	-88(%rbp), %rax
	movq	%rax, %rdx
	movq	-96(%rbp), %rax
	movq	%rdx, (%rax)
.L207:
	movq	-32(%rbp), %rbx
	leaq	-52(%rbp), %rax
	movq	%rax, %rdi
	call	_ZZN9__gnu_cxx6__stoaIyycJiEEET0_PFT_PKT1_PPS3_DpT2_EPKcS5_PmS9_EN11_Save_errnoD1Ev
	movq	%rbx, %rax
	movq	-24(%rbp), %rdx
	subq	%fs:40, %rdx
	je	.L211
	jmp	.L213
.L212:
	movq	%rax, %rbx
	leaq	-52(%rbp), %rax
	movq	%rax, %rdi
	call	_ZZN9__gnu_cxx6__stoaIyycJiEEET0_PFT_PKT1_PPS3_DpT2_EPKcS5_PmS9_EN11_Save_errnoD1Ev
	movq	%rbx, %rax
	movq	-24(%rbp), %rdx
	subq	%fs:40, %rdx
	je	.L210
	call	__stack_chk_fail@PLT
.L210:
	movq	%rax, %rdi
.LEHB17:
	call	_Unwind_Resume@PLT
.LEHE17:
.L213:
	call	__stack_chk_fail@PLT
.L211:
	movq	-8(%rbp), %rbx
	leave
	.cfi_def_cfa 7, 8
	ret
	.cfi_endproc
.LFE3155:
	.section	.gcc_except_table
.LLSDA3155:
	.byte	0xff
	.byte	0xff
	.byte	0x1
	.uleb128 .LLSDACSE3155-.LLSDACSB3155
.LLSDACSB3155:
	.uleb128 .LEHB16-.LFB3155
	.uleb128 .LEHE16-.LEHB16
	.uleb128 .L212-.LFB3155
	.uleb128 0
	.uleb128 .LEHB17-.LFB3155
	.uleb128 .LEHE17-.LEHB17
	.uleb128 0
	.uleb128 0
.LLSDACSE3155:
	.section	.text._ZN9__gnu_cxx6__stoaIyycJiEEET0_PFT_PKT1_PPS3_DpT2_EPKcS5_PmS9_,"axG",@progbits,_ZN9__gnu_cxx6__stoaIyycJiEEET0_PFT_PKT1_PPS3_DpT2_EPKcS5_PmS9_,comdat
	.size	_ZN9__gnu_cxx6__stoaIyycJiEEET0_PFT_PKT1_PPS3_DpT2_EPKcS5_PmS9_, .-_ZN9__gnu_cxx6__stoaIyycJiEEET0_PFT_PKT1_PPS3_DpT2_EPKcS5_PmS9_
	.section	.text._ZNSt7__cxx1112basic_stringIcSt11char_traitsIcESaIcEE12_Alloc_hiderD2Ev,"axG",@progbits,_ZNSt7__cxx1112basic_stringIcSt11char_traitsIcESaIcEE12_Alloc_hiderD5Ev,comdat
	.align 2
	.weak	_ZNSt7__cxx1112basic_stringIcSt11char_traitsIcESaIcEE12_Alloc_hiderD2Ev
	.type	_ZNSt7__cxx1112basic_stringIcSt11char_traitsIcESaIcEE12_Alloc_hiderD2Ev, @function
_ZNSt7__cxx1112basic_stringIcSt11char_traitsIcESaIcEE12_Alloc_hiderD2Ev:
.LFB3193:
	.cfi_startproc
	pushq	%rbp
	.cfi_def_cfa_offset 16
	.cfi_offset 6, -16
	movq	%rsp, %rbp
	.cfi_def_cfa_register 6
	subq	$32, %rsp
	movq	%rdi, -24(%rbp)
	movq	-24(%rbp), %rax
	movq	%rax, -8(%rbp)
	movq	-8(%rbp), %rax
	movq	%rax, %rdi
	call	_ZNSt15__new_allocatorIcED2Ev
	nop
	nop
	leave
	.cfi_def_cfa 7, 8
	ret
	.cfi_endproc
.LFE3193:
	.size	_ZNSt7__cxx1112basic_stringIcSt11char_traitsIcESaIcEE12_Alloc_hiderD2Ev, .-_ZNSt7__cxx1112basic_stringIcSt11char_traitsIcESaIcEE12_Alloc_hiderD2Ev
	.weak	_ZNSt7__cxx1112basic_stringIcSt11char_traitsIcESaIcEE12_Alloc_hiderD1Ev
	.set	_ZNSt7__cxx1112basic_stringIcSt11char_traitsIcESaIcEE12_Alloc_hiderD1Ev,_ZNSt7__cxx1112basic_stringIcSt11char_traitsIcESaIcEE12_Alloc_hiderD2Ev
	.section	.text._ZNSt7__cxx1112basic_stringIcSt11char_traitsIcESaIcEEC2Ev,"axG",@progbits,_ZNSt7__cxx1112basic_stringIcSt11char_traitsIcESaIcEEC5Ev,comdat
	.align 2
	.weak	_ZNSt7__cxx1112basic_stringIcSt11char_traitsIcESaIcEEC2Ev
	.type	_ZNSt7__cxx1112basic_stringIcSt11char_traitsIcESaIcEEC2Ev, @function
_ZNSt7__cxx1112basic_stringIcSt11char_traitsIcESaIcEEC2Ev:
.LFB3195:
	.cfi_startproc
	.cfi_personality 0x9b,DW.ref.__gxx_personality_v0
	.cfi_lsda 0x1b,.LLSDA3195
	pushq	%rbp
	.cfi_def_cfa_offset 16
	.cfi_offset 6, -16
	movq	%rsp, %rbp
	.cfi_def_cfa_register 6
	pushq	%rbx
	subq	$56, %rsp
	.cfi_offset 3, -24
	movq	%rdi, -56(%rbp)
	movq	%fs:40, %rax
	movq	%rax, -24(%rbp)
	xorl	%eax, %eax
	movq	-56(%rbp), %rbx
	leaq	-41(%rbp), %rax
	movq	%rax, -32(%rbp)
	nop
	nop
	movq	-56(%rbp), %rax
	movq	%rax, %rdi
	call	_ZNSt7__cxx1112basic_stringIcSt11char_traitsIcESaIcEE13_M_local_dataEv
	movq	%rax, %rcx
	leaq	-41(%rbp), %rax
	movq	%rax, %rdx
	movq	%rcx, %rsi
	movq	%rbx, %rdi
	call	_ZNSt7__cxx1112basic_stringIcSt11char_traitsIcESaIcEE12_Alloc_hiderC1EPcOS3_
	leaq	-41(%rbp), %rax
	movq	%rax, %rdi
	call	_ZNSt15__new_allocatorIcED2Ev
	nop
	movq	-56(%rbp), %rax
	movq	%rax, -40(%rbp)
	nop
	movq	-56(%rbp), %rax
	movl	$0, %esi
	movq	%rax, %rdi
	call	_ZNSt7__cxx1112basic_stringIcSt11char_traitsIcESaIcEE13_M_set_lengthEm
	nop
	movq	-24(%rbp), %rax
	subq	%fs:40, %rax
	je	.L216
	call	__stack_chk_fail@PLT
.L216:
	movq	-8(%rbp), %rbx
	leave
	.cfi_def_cfa 7, 8
	ret
	.cfi_endproc
.LFE3195:
	.section	.gcc_except_table
.LLSDA3195:
	.byte	0xff
	.byte	0xff
	.byte	0x1
	.uleb128 .LLSDACSE3195-.LLSDACSB3195
.LLSDACSB3195:
.LLSDACSE3195:
	.section	.text._ZNSt7__cxx1112basic_stringIcSt11char_traitsIcESaIcEEC2Ev,"axG",@progbits,_ZNSt7__cxx1112basic_stringIcSt11char_traitsIcESaIcEEC5Ev,comdat
	.size	_ZNSt7__cxx1112basic_stringIcSt11char_traitsIcESaIcEEC2Ev, .-_ZNSt7__cxx1112basic_stringIcSt11char_traitsIcESaIcEEC2Ev
	.weak	_ZNSt7__cxx1112basic_stringIcSt11char_traitsIcESaIcEEC1Ev
	.set	_ZNSt7__cxx1112basic_stringIcSt11char_traitsIcESaIcEEC1Ev,_ZNSt7__cxx1112basic_stringIcSt11char_traitsIcESaIcEEC2Ev
	.section	.text._ZNSt7__cxx1112basic_stringIcSt11char_traitsIcESaIcEED2Ev,"axG",@progbits,_ZNSt7__cxx1112basic_stringIcSt11char_traitsIcESaIcEED5Ev,comdat
	.align 2
	.weak	_ZNSt7__cxx1112basic_stringIcSt11char_traitsIcESaIcEED2Ev
	.type	_ZNSt7__cxx1112basic_stringIcSt11char_traitsIcESaIcEED2Ev, @function
_ZNSt7__cxx1112basic_stringIcSt11char_traitsIcESaIcEED2Ev:
.LFB3198:
	.cfi_startproc
	.cfi_personality 0x9b,DW.ref.__gxx_personality_v0
	.cfi_lsda 0x1b,.LLSDA3198
	pushq	%rbp
	.cfi_def_cfa_offset 16
	.cfi_offset 6, -16
	movq	%rsp, %rbp
	.cfi_def_cfa_register 6
	subq	$16, %rsp
	movq	%rdi, -8(%rbp)
	movq	-8(%rbp), %rax
	movq	%rax, %rdi
	call	_ZNSt7__cxx1112basic_stringIcSt11char_traitsIcESaIcEE10_M_disposeEv
	movq	-8(%rbp), %rax
	movq	%rax, %rdi
	call	_ZNSt7__cxx1112basic_stringIcSt11char_traitsIcESaIcEE12_Alloc_hiderD1Ev
	nop
	leave
	.cfi_def_cfa 7, 8
	ret
	.cfi_endproc
.LFE3198:
	.section	.gcc_except_table
.LLSDA3198:
	.byte	0xff
	.byte	0xff
	.byte	0x1
	.uleb128 .LLSDACSE3198-.LLSDACSB3198
.LLSDACSB3198:
.LLSDACSE3198:
	.section	.text._ZNSt7__cxx1112basic_stringIcSt11char_traitsIcESaIcEED2Ev,"axG",@progbits,_ZNSt7__cxx1112basic_stringIcSt11char_traitsIcESaIcEED5Ev,comdat
	.size	_ZNSt7__cxx1112basic_stringIcSt11char_traitsIcESaIcEED2Ev, .-_ZNSt7__cxx1112basic_stringIcSt11char_traitsIcESaIcEED2Ev
	.weak	_ZNSt7__cxx1112basic_stringIcSt11char_traitsIcESaIcEED1Ev
	.set	_ZNSt7__cxx1112basic_stringIcSt11char_traitsIcESaIcEED1Ev,_ZNSt7__cxx1112basic_stringIcSt11char_traitsIcESaIcEED2Ev
	.section	.text._ZNKSt6chrono10time_pointINS_3_V212system_clockENS_8durationIlSt5ratioILl1ELl1000000000EEEEE16time_since_epochEv,"axG",@progbits,_ZNKSt6chrono10time_pointINS_3_V212system_clockENS_8durationIlSt5ratioILl1ELl1000000000EEEEE16time_since_epochEv,comdat
	.align 2
	.weak	_ZNKSt6chrono10time_pointINS_3_V212system_clockENS_8durationIlSt5ratioILl1ELl1000000000EEEEE16time_since_epochEv
	.type	_ZNKSt6chrono10time_pointINS_3_V212system_clockENS_8durationIlSt5ratioILl1ELl1000000000EEEEE16time_since_epochEv, @function
_ZNKSt6chrono10time_pointINS_3_V212system_clockENS_8durationIlSt5ratioILl1ELl1000000000EEEEE16time_since_epochEv:
.LFB3368:
	.cfi_startproc
	pushq	%rbp
	.cfi_def_cfa_offset 16
	.cfi_offset 6, -16
	movq	%rsp, %rbp
	.cfi_def_cfa_register 6
	movq	%rdi, -8(%rbp)
	movq	-8(%rbp), %rax
	movq	(%rax), %rax
	popq	%rbp
	.cfi_def_cfa 7, 8
	ret
	.cfi_endproc
.LFE3368:
	.size	_ZNKSt6chrono10time_pointINS_3_V212system_clockENS_8durationIlSt5ratioILl1ELl1000000000EEEEE16time_since_epochEv, .-_ZNKSt6chrono10time_pointINS_3_V212system_clockENS_8durationIlSt5ratioILl1ELl1000000000EEEEE16time_since_epochEv
	.section	.rodata
	.align 8
.LC55:
	.string	"basic_string: construction from null is not valid"
	.section	.text._ZNSt7__cxx1112basic_stringIcSt11char_traitsIcESaIcEEC2IS3_EEPKcRKS3_,"axG",@progbits,_ZNSt7__cxx1112basic_stringIcSt11char_traitsIcESaIcEEC5IS3_EEPKcRKS3_,comdat
	.align 2
	.weak	_ZNSt7__cxx1112basic_stringIcSt11char_traitsIcESaIcEEC2IS3_EEPKcRKS3_
	.type	_ZNSt7__cxx1112basic_stringIcSt11char_traitsIcESaIcEEC2IS3_EEPKcRKS3_, @function
_ZNSt7__cxx1112basic_stringIcSt11char_traitsIcESaIcEEC2IS3_EEPKcRKS3_:
.LFB3413:
	.cfi_startproc
	.cfi_personality 0x9b,DW.ref.__gxx_personality_v0
	.cfi_lsda 0x1b,.LLSDA3413
	pushq	%rbp
	.cfi_def_cfa_offset 16
	.cfi_offset 6, -16
	movq	%rsp, %rbp
	.cfi_def_cfa_register 6
	pushq	%rbx
	subq	$56, %rsp
	.cfi_offset 3, -24
	movq	%rdi, -40(%rbp)
	movq	%rsi, -48(%rbp)
	movq	%rdx, -56(%rbp)
	movq	-40(%rbp), %rbx
	movq	-40(%rbp), %rax
	movq	%rax, %rdi
	call	_ZNSt7__cxx1112basic_stringIcSt11char_traitsIcESaIcEE13_M_local_dataEv
	movq	%rax, %rcx
	movq	-56(%rbp), %rax
	movq	%rax, %rdx
	movq	%rcx, %rsi
	movq	%rbx, %rdi
	call	_ZNSt7__cxx1112basic_stringIcSt11char_traitsIcESaIcEE12_Alloc_hiderC1EPcRKS3_
	cmpq	$0, -48(%rbp)
	jne	.L221
	leaq	.LC55(%rip), %rax
	movq	%rax, %rdi
.LEHB18:
	call	_ZSt19__throw_logic_errorPKc@PLT
.L221:
	movq	-48(%rbp), %rax
	movq	%rax, %rdi
	call	_ZNSt11char_traitsIcE6lengthEPKc
	movq	-48(%rbp), %rdx
	addq	%rdx, %rax
	movq	%rax, -24(%rbp)
	movq	-24(%rbp), %rdx
	movq	-48(%rbp), %rcx
	movq	-40(%rbp), %rax
	movq	%rcx, %rsi
	movq	%rax, %rdi
	call	_ZNSt7__cxx1112basic_stringIcSt11char_traitsIcESaIcEE12_M_constructIPKcEEvT_S8_St20forward_iterator_tag
.LEHE18:
	jmp	.L224
.L223:
	movq	%rax, %rbx
	movq	-40(%rbp), %rax
	movq	%rax, %rdi
	call	_ZNSt7__cxx1112basic_stringIcSt11char_traitsIcESaIcEE12_Alloc_hiderD1Ev
	movq	%rbx, %rax
	movq	%rax, %rdi
.LEHB19:
	call	_Unwind_Resume@PLT
.LEHE19:
.L224:
	movq	-8(%rbp), %rbx
	leave
	.cfi_def_cfa 7, 8
	ret
	.cfi_endproc
.LFE3413:
	.section	.gcc_except_table
.LLSDA3413:
	.byte	0xff
	.byte	0xff
	.byte	0x1
	.uleb128 .LLSDACSE3413-.LLSDACSB3413
.LLSDACSB3413:
	.uleb128 .LEHB18-.LFB3413
	.uleb128 .LEHE18-.LEHB18
	.uleb128 .L223-.LFB3413
	.uleb128 0
	.uleb128 .LEHB19-.LFB3413
	.uleb128 .LEHE19-.LEHB19
	.uleb128 0
	.uleb128 0
.LLSDACSE3413:
	.section	.text._ZNSt7__cxx1112basic_stringIcSt11char_traitsIcESaIcEEC2IS3_EEPKcRKS3_,"axG",@progbits,_ZNSt7__cxx1112basic_stringIcSt11char_traitsIcESaIcEEC5IS3_EEPKcRKS3_,comdat
	.size	_ZNSt7__cxx1112basic_stringIcSt11char_traitsIcESaIcEEC2IS3_EEPKcRKS3_, .-_ZNSt7__cxx1112basic_stringIcSt11char_traitsIcESaIcEEC2IS3_EEPKcRKS3_
	.weak	_ZNSt7__cxx1112basic_stringIcSt11char_traitsIcESaIcEEC1IS3_EEPKcRKS3_
	.set	_ZNSt7__cxx1112basic_stringIcSt11char_traitsIcESaIcEEC1IS3_EEPKcRKS3_,_ZNSt7__cxx1112basic_stringIcSt11char_traitsIcESaIcEEC2IS3_EEPKcRKS3_
	.section	.text._ZNSt12_Vector_baseImSaImEE12_Vector_implC2Ev,"axG",@progbits,_ZNSt12_Vector_baseImSaImEE12_Vector_implC5Ev,comdat
	.align 2
	.weak	_ZNSt12_Vector_baseImSaImEE12_Vector_implC2Ev
	.type	_ZNSt12_Vector_baseImSaImEE12_Vector_implC2Ev, @function
_ZNSt12_Vector_baseImSaImEE12_Vector_implC2Ev:
.LFB3417:
	.cfi_startproc
	pushq	%rbp
	.cfi_def_cfa_offset 16
	.cfi_offset 6, -16
	movq	%rsp, %rbp
	.cfi_def_cfa_register 6
	subq	$32, %rsp
	movq	%rdi, -24(%rbp)
	movq	-24(%rbp), %rax
	movq	%rax, -16(%rbp)
	movq	-16(%rbp), %rax
	movq	%rax, -8(%rbp)
	nop
	nop
	movq	-24(%rbp), %rax
	movq	%rax, %rdi
	call	_ZNSt12_Vector_baseImSaImEE17_Vector_impl_dataC2Ev
	nop
	leave
	.cfi_def_cfa 7, 8
	ret
	.cfi_endproc
.LFE3417:
	.size	_ZNSt12_Vector_baseImSaImEE12_Vector_implC2Ev, .-_ZNSt12_Vector_baseImSaImEE12_Vector_implC2Ev
	.weak	_ZNSt12_Vector_baseImSaImEE12_Vector_implC1Ev
	.set	_ZNSt12_Vector_baseImSaImEE12_Vector_implC1Ev,_ZNSt12_Vector_baseImSaImEE12_Vector_implC2Ev
	.section	.text._ZNSt12_Vector_baseImSaImEED2Ev,"axG",@progbits,_ZNSt12_Vector_baseImSaImEED5Ev,comdat
	.align 2
	.weak	_ZNSt12_Vector_baseImSaImEED2Ev
	.type	_ZNSt12_Vector_baseImSaImEED2Ev, @function
_ZNSt12_Vector_baseImSaImEED2Ev:
.LFB3423:
	.cfi_startproc
	.cfi_personality 0x9b,DW.ref.__gxx_personality_v0
	.cfi_lsda 0x1b,.LLSDA3423
	pushq	%rbp
	.cfi_def_cfa_offset 16
	.cfi_offset 6, -16
	movq	%rsp, %rbp
	.cfi_def_cfa_register 6
	subq	$16, %rsp
	movq	%rdi, -8(%rbp)
	movq	-8(%rbp), %rax
	movq	16(%rax), %rdx
	movq	-8(%rbp), %rax
	movq	(%rax), %rax
	subq	%rax, %rdx
	movq	%rdx, %rax
	sarq	$3, %rax
	movq	%rax, %rdx
	movq	-8(%rbp), %rax
	movq	(%rax), %rcx
	movq	-8(%rbp), %rax
	movq	%rcx, %rsi
	movq	%rax, %rdi
	call	_ZNSt12_Vector_baseImSaImEE13_M_deallocateEPmm
	movq	-8(%rbp), %rax
	movq	%rax, %rdi
	call	_ZNSt12_Vector_baseImSaImEE12_Vector_implD1Ev
	nop
	leave
	.cfi_def_cfa 7, 8
	ret
	.cfi_endproc
.LFE3423:
	.section	.gcc_except_table
.LLSDA3423:
	.byte	0xff
	.byte	0xff
	.byte	0x1
	.uleb128 .LLSDACSE3423-.LLSDACSB3423
.LLSDACSB3423:
.LLSDACSE3423:
	.section	.text._ZNSt12_Vector_baseImSaImEED2Ev,"axG",@progbits,_ZNSt12_Vector_baseImSaImEED5Ev,comdat
	.size	_ZNSt12_Vector_baseImSaImEED2Ev, .-_ZNSt12_Vector_baseImSaImEED2Ev
	.weak	_ZNSt12_Vector_baseImSaImEED1Ev
	.set	_ZNSt12_Vector_baseImSaImEED1Ev,_ZNSt12_Vector_baseImSaImEED2Ev
	.section	.text._ZNSt6vectorImSaImEED2Ev,"axG",@progbits,_ZNSt6vectorImSaImEED5Ev,comdat
	.align 2
	.weak	_ZNSt6vectorImSaImEED2Ev
	.type	_ZNSt6vectorImSaImEED2Ev, @function
_ZNSt6vectorImSaImEED2Ev:
.LFB3426:
	.cfi_startproc
	pushq	%rbp
	.cfi_def_cfa_offset 16
	.cfi_offset 6, -16
	movq	%rsp, %rbp
	.cfi_def_cfa_register 6
	subq	$48, %rsp
	movq	%rdi, -40(%rbp)
	movq	-40(%rbp), %rax
	movq	%rax, %rdi
	call	_ZNSt12_Vector_baseImSaImEE19_M_get_Tp_allocatorEv
	movq	-40(%rbp), %rdx
	movq	8(%rdx), %rdx
	movq	-40(%rbp), %rcx
	movq	(%rcx), %rcx
	movq	%rcx, -24(%rbp)
	movq	%rdx, -16(%rbp)
	movq	%rax, -8(%rbp)
	movq	-16(%rbp), %rdx
	movq	-24(%rbp), %rax
	movq	%rdx, %rsi
	movq	%rax, %rdi
	call	_ZSt8_DestroyIPmEvT_S1_
	nop
	movq	-40(%rbp), %rax
	movq	%rax, %rdi
	call	_ZNSt12_Vector_baseImSaImEED2Ev
	nop
	leave
	.cfi_def_cfa 7, 8
	ret
	.cfi_endproc
.LFE3426:
	.size	_ZNSt6vectorImSaImEED2Ev, .-_ZNSt6vectorImSaImEED2Ev
	.weak	_ZNSt6vectorImSaImEED1Ev
	.set	_ZNSt6vectorImSaImEED1Ev,_ZNSt6vectorImSaImEED2Ev
	.section	.text._ZNSt6vectorImSaImEE9push_backEOm,"axG",@progbits,_ZNSt6vectorImSaImEE9push_backEOm,comdat
	.align 2
	.weak	_ZNSt6vectorImSaImEE9push_backEOm
	.type	_ZNSt6vectorImSaImEE9push_backEOm, @function
_ZNSt6vectorImSaImEE9push_backEOm:
.LFB3428:
	.cfi_startproc
	pushq	%rbp
	.cfi_def_cfa_offset 16
	.cfi_offset 6, -16
	movq	%rsp, %rbp
	.cfi_def_cfa_register 6
	subq	$32, %rsp
	movq	%rdi, -24(%rbp)
	movq	%rsi, -32(%rbp)
	movq	-32(%rbp), %rax
	movq	%rax, -8(%rbp)
	movq	-8(%rbp), %rdx
	movq	-24(%rbp), %rax
	movq	%rdx, %rsi
	movq	%rax, %rdi
	call	_ZNSt6vectorImSaImEE12emplace_backIJmEEERmDpOT_
	nop
	leave
	.cfi_def_cfa 7, 8
	ret
	.cfi_endproc
.LFE3428:
	.size	_ZNSt6vectorImSaImEE9push_backEOm, .-_ZNSt6vectorImSaImEE9push_backEOm
	.section	.text._ZNSt6vectorImSaImEEaSESt16initializer_listImE,"axG",@progbits,_ZNSt6vectorImSaImEEaSESt16initializer_listImE,comdat
	.align 2
	.weak	_ZNSt6vectorImSaImEEaSESt16initializer_listImE
	.type	_ZNSt6vectorImSaImEEaSESt16initializer_listImE, @function
_ZNSt6vectorImSaImEEaSESt16initializer_listImE:
.LFB3429:
	.cfi_startproc
	pushq	%rbp
	.cfi_def_cfa_offset 16
	.cfi_offset 6, -16
	movq	%rsp, %rbp
	.cfi_def_cfa_register 6
	pushq	%rbx
	subq	$56, %rsp
	.cfi_offset 3, -24
	movq	%rdi, -40(%rbp)
	movq	%rsi, %rax
	movq	%rdx, %rcx
	movq	%rax, %rax
	movl	$0, %edx
	movq	%rcx, %rdx
	movq	%rax, -64(%rbp)
	movq	%rdx, -56(%rbp)
	movq	%fs:40, %rax
	movq	%rax, -24(%rbp)
	xorl	%eax, %eax
	leaq	-64(%rbp), %rax
	movq	%rax, %rdi
	call	_ZNKSt16initializer_listImE3endEv
	movq	%rax, %rbx
	leaq	-64(%rbp), %rax
	movq	%rax, %rdi
	call	_ZNKSt16initializer_listImE5beginEv
	movq	%rax, %rcx
	movq	-40(%rbp), %rax
	movq	%rbx, %rdx
	movq	%rcx, %rsi
	movq	%rax, %rdi
	call	_ZNSt6vectorImSaImEE13_M_assign_auxIPKmEEvT_S5_St20forward_iterator_tag
	movq	-40(%rbp), %rax
	movq	-24(%rbp), %rdx
	subq	%fs:40, %rdx
	je	.L232
	call	__stack_chk_fail@PLT
.L232:
	movq	-8(%rbp), %rbx
	leave
	.cfi_def_cfa 7, 8
	ret
	.cfi_endproc
.LFE3429:
	.size	_ZNSt6vectorImSaImEEaSESt16initializer_listImE, .-_ZNSt6vectorImSaImEEaSESt16initializer_listImE
	.section	.text._ZNKSt7__cxx1112basic_stringIcSt11char_traitsIcESaIcEE4findEPKcm,"axG",@progbits,_ZNKSt7__cxx1112basic_stringIcSt11char_traitsIcESaIcEE4findEPKcm,comdat
	.align 2
	.weak	_ZNKSt7__cxx1112basic_stringIcSt11char_traitsIcESaIcEE4findEPKcm
	.type	_ZNKSt7__cxx1112basic_stringIcSt11char_traitsIcESaIcEE4findEPKcm, @function
_ZNKSt7__cxx1112basic_stringIcSt11char_traitsIcESaIcEE4findEPKcm:
.LFB3439:
	.cfi_startproc
	.cfi_personality 0x9b,DW.ref.__gxx_personality_v0
	.cfi_lsda 0x1b,.LLSDA3439
	pushq	%rbp
	.cfi_def_cfa_offset 16
	.cfi_offset 6, -16
	movq	%rsp, %rbp
	.cfi_def_cfa_register 6
	subq	$32, %rsp
	movq	%rdi, -8(%rbp)
	movq	%rsi, -16(%rbp)
	movq	%rdx, -24(%rbp)
	movq	-16(%rbp), %rax
	movq	%rax, %rdi
	call	_ZNSt11char_traitsIcE6lengthEPKc
	movq	%rax, %rcx
	movq	-24(%rbp), %rdx
	movq	-16(%rbp), %rsi
	movq	-8(%rbp), %rax
	movq	%rax, %rdi
	call	_ZNKSt7__cxx1112basic_stringIcSt11char_traitsIcESaIcEE4findEPKcmm
	leave
	.cfi_def_cfa 7, 8
	ret
	.cfi_endproc
.LFE3439:
	.section	.gcc_except_table
.LLSDA3439:
	.byte	0xff
	.byte	0xff
	.byte	0x1
	.uleb128 .LLSDACSE3439-.LLSDACSB3439
.LLSDACSB3439:
.LLSDACSE3439:
	.section	.text._ZNKSt7__cxx1112basic_stringIcSt11char_traitsIcESaIcEE4findEPKcm,"axG",@progbits,_ZNKSt7__cxx1112basic_stringIcSt11char_traitsIcESaIcEE4findEPKcm,comdat
	.size	_ZNKSt7__cxx1112basic_stringIcSt11char_traitsIcESaIcEE4findEPKcm, .-_ZNKSt7__cxx1112basic_stringIcSt11char_traitsIcESaIcEE4findEPKcm
	.section	.rodata
.LC56:
	.string	"basic_string::substr"
	.section	.text._ZNKSt7__cxx1112basic_stringIcSt11char_traitsIcESaIcEE6substrEmm,"axG",@progbits,_ZNKSt7__cxx1112basic_stringIcSt11char_traitsIcESaIcEE6substrEmm,comdat
	.align 2
	.weak	_ZNKSt7__cxx1112basic_stringIcSt11char_traitsIcESaIcEE6substrEmm
	.type	_ZNKSt7__cxx1112basic_stringIcSt11char_traitsIcESaIcEE6substrEmm, @function
_ZNKSt7__cxx1112basic_stringIcSt11char_traitsIcESaIcEE6substrEmm:
.LFB3440:
	.cfi_startproc
	pushq	%rbp
	.cfi_def_cfa_offset 16
	.cfi_offset 6, -16
	movq	%rsp, %rbp
	.cfi_def_cfa_register 6
	subq	$32, %rsp
	movq	%rdi, -8(%rbp)
	movq	%rsi, -16(%rbp)
	movq	%rdx, -24(%rbp)
	movq	%rcx, -32(%rbp)
	leaq	.LC56(%rip), %rdx
	movq	-24(%rbp), %rcx
	movq	-16(%rbp), %rax
	movq	%rcx, %rsi
	movq	%rax, %rdi
	call	_ZNKSt7__cxx1112basic_stringIcSt11char_traitsIcESaIcEE8_M_checkEmPKc
	movq	%rax, %rdi
	movq	-32(%rbp), %rdx
	movq	-16(%rbp), %rsi
	movq	-8(%rbp), %rax
	movq	%rdx, %rcx
	movq	%rdi, %rdx
	movq	%rax, %rdi
	call	_ZNSt7__cxx1112basic_stringIcSt11char_traitsIcESaIcEEC1ERKS4_mm
	movq	-8(%rbp), %rax
	leave
	.cfi_def_cfa 7, 8
	ret
	.cfi_endproc
.LFE3440:
	.size	_ZNKSt7__cxx1112basic_stringIcSt11char_traitsIcESaIcEE6substrEmm, .-_ZNKSt7__cxx1112basic_stringIcSt11char_traitsIcESaIcEE6substrEmm
	.section	.text._ZNSt7__cxx1112basic_stringIcSt11char_traitsIcESaIcEEaSEOS4_,"axG",@progbits,_ZNSt7__cxx1112basic_stringIcSt11char_traitsIcESaIcEEaSEOS4_,comdat
	.align 2
	.weak	_ZNSt7__cxx1112basic_stringIcSt11char_traitsIcESaIcEEaSEOS4_
	.type	_ZNSt7__cxx1112basic_stringIcSt11char_traitsIcESaIcEEaSEOS4_, @function
_ZNSt7__cxx1112basic_stringIcSt11char_traitsIcESaIcEEaSEOS4_:
.LFB3441:
	.cfi_startproc
	.cfi_personality 0x9b,DW.ref.__gxx_personality_v0
	.cfi_lsda 0x1b,.LLSDA3441
	pushq	%rbp
	.cfi_def_cfa_offset 16
	.cfi_offset 6, -16
	movq	%rsp, %rbp
	.cfi_def_cfa_register 6
	pushq	%r12
	pushq	%rbx
	subq	$80, %rsp
	.cfi_offset 12, -24
	.cfi_offset 3, -32
	movq	%rdi, -88(%rbp)
	movq	%rsi, -96(%rbp)
	movb	$1, -73(%rbp)
	movq	-88(%rbp), %rax
	movq	%rax, %rdi
	call	_ZNKSt7__cxx1112basic_stringIcSt11char_traitsIcESaIcEE11_M_is_localEv
	xorl	$1, %eax
	testb	%al, %al
	je	.L240
	movl	$1, %eax
	testb	%al, %al
.L240:
	movl	$0, %eax
	testb	%al, %al
	je	.L241
	movq	-88(%rbp), %rax
	movq	16(%rax), %rdx
	movq	-88(%rbp), %rax
	movq	%rdx, %rsi
	movq	%rax, %rdi
	call	_ZNSt7__cxx1112basic_stringIcSt11char_traitsIcESaIcEE10_M_destroyEm
	movq	-88(%rbp), %rax
	movq	%rax, %rdi
	call	_ZNSt7__cxx1112basic_stringIcSt11char_traitsIcESaIcEE13_M_local_dataEv
	movq	%rax, %rdx
	movq	-88(%rbp), %rax
	movq	%rdx, %rsi
	movq	%rax, %rdi
	call	_ZNSt7__cxx1112basic_stringIcSt11char_traitsIcESaIcEE7_M_dataEPc
	movq	-88(%rbp), %rax
	movl	$0, %esi
	movq	%rax, %rdi
	call	_ZNSt7__cxx1112basic_stringIcSt11char_traitsIcESaIcEE13_M_set_lengthEm
.L241:
	movq	-96(%rbp), %rax
	movq	%rax, %rdi
	call	_ZNSt7__cxx1112basic_stringIcSt11char_traitsIcESaIcEE16_M_get_allocatorEv
	movq	%rax, %rbx
	movq	-88(%rbp), %rax
	movq	%rax, %rdi
	call	_ZNSt7__cxx1112basic_stringIcSt11char_traitsIcESaIcEE16_M_get_allocatorEv
	movq	%rbx, -56(%rbp)
	movq	%rax, -48(%rbp)
	movq	-56(%rbp), %rax
	movq	%rax, -40(%rbp)
	nop
	movq	-96(%rbp), %rax
	movq	%rax, %rdi
	call	_ZNKSt7__cxx1112basic_stringIcSt11char_traitsIcESaIcEE11_M_is_localEv
	testb	%al, %al
	je	.L243
	movq	-96(%rbp), %rax
	movq	%rax, -32(%rbp)
	movq	-32(%rbp), %rax
	cmpq	%rax, -88(%rbp)
	setne	%al
	movzbl	%al, %eax
	testq	%rax, %rax
	setne	%al
	testb	%al, %al
	je	.L245
	movq	-96(%rbp), %rax
	movq	%rax, %rdi
	call	_ZNKSt7__cxx1112basic_stringIcSt11char_traitsIcESaIcEE4sizeEv
	testq	%rax, %rax
	setne	%al
	testb	%al, %al
	je	.L246
	movq	-96(%rbp), %rax
	movq	%rax, %rdi
	call	_ZNKSt7__cxx1112basic_stringIcSt11char_traitsIcESaIcEE4sizeEv
	movq	%rax, %r12
	movq	-96(%rbp), %rax
	movq	%rax, %rdi
	call	_ZNKSt7__cxx1112basic_stringIcSt11char_traitsIcESaIcEE7_M_dataEv
	movq	%rax, %rbx
	movq	-88(%rbp), %rax
	movq	%rax, %rdi
	call	_ZNKSt7__cxx1112basic_stringIcSt11char_traitsIcESaIcEE7_M_dataEv
	movq	%r12, %rdx
	movq	%rbx, %rsi
	movq	%rax, %rdi
	call	_ZNSt7__cxx1112basic_stringIcSt11char_traitsIcESaIcEE7_S_copyEPcPKcm
.L246:
	movq	-96(%rbp), %rax
	movq	%rax, %rdi
	call	_ZNKSt7__cxx1112basic_stringIcSt11char_traitsIcESaIcEE4sizeEv
	movq	%rax, %rdx
	movq	-88(%rbp), %rax
	movq	%rdx, %rsi
	movq	%rax, %rdi
	call	_ZNSt7__cxx1112basic_stringIcSt11char_traitsIcESaIcEE13_M_set_lengthEm
	jmp	.L245
.L243:
	movl	$1, %eax
	testb	%al, %al
	je	.L248
	movq	$0, -72(%rbp)
	movq	-88(%rbp), %rax
	movq	%rax, %rdi
	call	_ZNKSt7__cxx1112basic_stringIcSt11char_traitsIcESaIcEE11_M_is_localEv
	xorl	$1, %eax
	testb	%al, %al
	je	.L249
	movq	-88(%rbp), %rax
	movq	%rax, %rdi
	call	_ZNKSt7__cxx1112basic_stringIcSt11char_traitsIcESaIcEE7_M_dataEv
	movq	%rax, -72(%rbp)
	movq	-88(%rbp), %rax
	movq	16(%rax), %rax
	movq	%rax, -64(%rbp)
.L249:
	movq	-96(%rbp), %rax
	movq	%rax, %rdi
	call	_ZNKSt7__cxx1112basic_stringIcSt11char_traitsIcESaIcEE7_M_dataEv
	movq	%rax, %rdx
	movq	-88(%rbp), %rax
	movq	%rdx, %rsi
	movq	%rax, %rdi
	call	_ZNSt7__cxx1112basic_stringIcSt11char_traitsIcESaIcEE7_M_dataEPc
	movq	-96(%rbp), %rax
	movq	%rax, %rdi
	call	_ZNKSt7__cxx1112basic_stringIcSt11char_traitsIcESaIcEE6lengthEv
	movq	%rax, %rdx
	movq	-88(%rbp), %rax
	movq	%rdx, %rsi
	movq	%rax, %rdi
	call	_ZNSt7__cxx1112basic_stringIcSt11char_traitsIcESaIcEE9_M_lengthEm
	movq	-96(%rbp), %rax
	movq	16(%rax), %rdx
	movq	-88(%rbp), %rax
	movq	%rdx, %rsi
	movq	%rax, %rdi
	call	_ZNSt7__cxx1112basic_stringIcSt11char_traitsIcESaIcEE11_M_capacityEm
	cmpq	$0, -72(%rbp)
	je	.L250
	movq	-72(%rbp), %rdx
	movq	-96(%rbp), %rax
	movq	%rdx, %rsi
	movq	%rax, %rdi
	call	_ZNSt7__cxx1112basic_stringIcSt11char_traitsIcESaIcEE7_M_dataEPc
	movq	-64(%rbp), %rdx
	movq	-96(%rbp), %rax
	movq	%rdx, %rsi
	movq	%rax, %rdi
	call	_ZNSt7__cxx1112basic_stringIcSt11char_traitsIcESaIcEE11_M_capacityEm
	jmp	.L245
.L250:
	movq	-96(%rbp), %rax
	movq	%rax, -24(%rbp)
	movq	-24(%rbp), %rax
	movq	%rax, %rdi
	call	_ZNSt7__cxx1112basic_stringIcSt11char_traitsIcESaIcEE13_M_local_dataEv
	movq	%rax, %rdx
	nop
	movq	-96(%rbp), %rax
	movq	%rdx, %rsi
	movq	%rax, %rdi
	call	_ZNSt7__cxx1112basic_stringIcSt11char_traitsIcESaIcEE7_M_dataEPc
	jmp	.L245
.L248:
	movq	-96(%rbp), %rdx
	movq	-88(%rbp), %rax
	movq	%rdx, %rsi
	movq	%rax, %rdi
	call	_ZNSt7__cxx1112basic_stringIcSt11char_traitsIcESaIcEE9_M_assignERKS4_
.L245:
	movq	-96(%rbp), %rax
	movq	%rax, %rdi
	call	_ZNSt7__cxx1112basic_stringIcSt11char_traitsIcESaIcEE5clearEv
	movq	-88(%rbp), %rax
	addq	$80, %rsp
	popq	%rbx
	popq	%r12
	popq	%rbp
	.cfi_def_cfa 7, 8
	ret
	.cfi_endproc
.LFE3441:
	.section	.gcc_except_table
.LLSDA3441:
	.byte	0xff
	.byte	0xff
	.byte	0x1
	.uleb128 .LLSDACSE3441-.LLSDACSB3441
.LLSDACSB3441:
.LLSDACSE3441:
	.section	.text._ZNSt7__cxx1112basic_stringIcSt11char_traitsIcESaIcEEaSEOS4_,"axG",@progbits,_ZNSt7__cxx1112basic_stringIcSt11char_traitsIcESaIcEEaSEOS4_,comdat
	.size	_ZNSt7__cxx1112basic_stringIcSt11char_traitsIcESaIcEEaSEOS4_, .-_ZNSt7__cxx1112basic_stringIcSt11char_traitsIcESaIcEEaSEOS4_
	.section	.text._ZNSt7__cxx1112basic_stringIcSt11char_traitsIcESaIcEEaSEPKc,"axG",@progbits,_ZNSt7__cxx1112basic_stringIcSt11char_traitsIcESaIcEEaSEPKc,comdat
	.align 2
	.weak	_ZNSt7__cxx1112basic_stringIcSt11char_traitsIcESaIcEEaSEPKc
	.type	_ZNSt7__cxx1112basic_stringIcSt11char_traitsIcESaIcEEaSEPKc, @function
_ZNSt7__cxx1112basic_stringIcSt11char_traitsIcESaIcEEaSEPKc:
.LFB3442:
	.cfi_startproc
	pushq	%rbp
	.cfi_def_cfa_offset 16
	.cfi_offset 6, -16
	movq	%rsp, %rbp
	.cfi_def_cfa_register 6
	subq	$16, %rsp
	movq	%rdi, -8(%rbp)
	movq	%rsi, -16(%rbp)
	movq	-16(%rbp), %rdx
	movq	-8(%rbp), %rax
	movq	%rdx, %rsi
	movq	%rax, %rdi
	call	_ZNSt7__cxx1112basic_stringIcSt11char_traitsIcESaIcEE6assignEPKc
	leave
	.cfi_def_cfa 7, 8
	ret
	.cfi_endproc
.LFE3442:
	.size	_ZNSt7__cxx1112basic_stringIcSt11char_traitsIcESaIcEEaSEPKc, .-_ZNSt7__cxx1112basic_stringIcSt11char_traitsIcESaIcEEaSEPKc
	.section	.text._ZNKSt7__cxx1112basic_stringIcSt11char_traitsIcESaIcEE5emptyEv,"axG",@progbits,_ZNKSt7__cxx1112basic_stringIcSt11char_traitsIcESaIcEE5emptyEv,comdat
	.align 2
	.weak	_ZNKSt7__cxx1112basic_stringIcSt11char_traitsIcESaIcEE5emptyEv
	.type	_ZNKSt7__cxx1112basic_stringIcSt11char_traitsIcESaIcEE5emptyEv, @function
_ZNKSt7__cxx1112basic_stringIcSt11char_traitsIcESaIcEE5emptyEv:
.LFB3443:
	.cfi_startproc
	pushq	%rbp
	.cfi_def_cfa_offset 16
	.cfi_offset 6, -16
	movq	%rsp, %rbp
	.cfi_def_cfa_register 6
	movq	%rdi, -8(%rbp)
	movq	-8(%rbp), %rax
	movq	8(%rax), %rax
	testq	%rax, %rax
	sete	%al
	popq	%rbp
	.cfi_def_cfa 7, 8
	ret
	.cfi_endproc
.LFE3443:
	.size	_ZNKSt7__cxx1112basic_stringIcSt11char_traitsIcESaIcEE5emptyEv, .-_ZNKSt7__cxx1112basic_stringIcSt11char_traitsIcESaIcEE5emptyEv
	.section	.rodata
.LC57:
	.string	"!empty()"
	.align 8
.LC58:
	.string	"std::__cxx11::basic_string<_CharT, _Traits, _Alloc>::reference std::__cxx11::basic_string<_CharT, _Traits, _Alloc>::back() [with _CharT = char; _Traits = std::char_traits<char>; _Alloc = std::allocator<char>; reference = char&]"
	.align 8
.LC59:
	.string	"/usr/include/c++/15.2.1/bits/basic_string.h"
	.section	.text._ZNSt7__cxx1112basic_stringIcSt11char_traitsIcESaIcEE4backEv,"axG",@progbits,_ZNSt7__cxx1112basic_stringIcSt11char_traitsIcESaIcEE4backEv,comdat
	.align 2
	.weak	_ZNSt7__cxx1112basic_stringIcSt11char_traitsIcESaIcEE4backEv
	.type	_ZNSt7__cxx1112basic_stringIcSt11char_traitsIcESaIcEE4backEv, @function
_ZNSt7__cxx1112basic_stringIcSt11char_traitsIcESaIcEE4backEv:
.LFB3444:
	.cfi_startproc
	pushq	%rbp
	.cfi_def_cfa_offset 16
	.cfi_offset 6, -16
	movq	%rsp, %rbp
	.cfi_def_cfa_register 6
	subq	$16, %rsp
	movq	%rdi, -8(%rbp)
	movq	-8(%rbp), %rax
	movq	%rax, %rdi
	call	_ZNKSt7__cxx1112basic_stringIcSt11char_traitsIcESaIcEE5emptyEv
	movzbl	%al, %eax
	testq	%rax, %rax
	setne	%al
	testb	%al, %al
	je	.L258
	leaq	.LC57(%rip), %rcx
	leaq	.LC58(%rip), %rdx
	leaq	.LC59(%rip), %rax
	movl	$1452, %esi
	movq	%rax, %rdi
	call	_ZSt21__glibcxx_assert_failPKciS0_S0_@PLT
.L258:
	movq	-8(%rbp), %rax
	movq	%rax, %rdi
	call	_ZNKSt7__cxx1112basic_stringIcSt11char_traitsIcESaIcEE4sizeEv
	leaq	-1(%rax), %rdx
	movq	-8(%rbp), %rax
	movq	%rdx, %rsi
	movq	%rax, %rdi
	call	_ZNSt7__cxx1112basic_stringIcSt11char_traitsIcESaIcEEixEm
	leave
	.cfi_def_cfa 7, 8
	ret
	.cfi_endproc
.LFE3444:
	.size	_ZNSt7__cxx1112basic_stringIcSt11char_traitsIcESaIcEE4backEv, .-_ZNSt7__cxx1112basic_stringIcSt11char_traitsIcESaIcEE4backEv
	.section	.rodata
	.align 8
.LC60:
	.string	"void std::__cxx11::basic_string<_CharT, _Traits, _Alloc>::pop_back() [with _CharT = char; _Traits = std::char_traits<char>; _Alloc = std::allocator<char>]"
	.section	.text._ZNSt7__cxx1112basic_stringIcSt11char_traitsIcESaIcEE8pop_backEv,"axG",@progbits,_ZNSt7__cxx1112basic_stringIcSt11char_traitsIcESaIcEE8pop_backEv,comdat
	.align 2
	.weak	_ZNSt7__cxx1112basic_stringIcSt11char_traitsIcESaIcEE8pop_backEv
	.type	_ZNSt7__cxx1112basic_stringIcSt11char_traitsIcESaIcEE8pop_backEv, @function
_ZNSt7__cxx1112basic_stringIcSt11char_traitsIcESaIcEE8pop_backEv:
.LFB3445:
	.cfi_startproc
	.cfi_personality 0x9b,DW.ref.__gxx_personality_v0
	.cfi_lsda 0x1b,.LLSDA3445
	pushq	%rbp
	.cfi_def_cfa_offset 16
	.cfi_offset 6, -16
	movq	%rsp, %rbp
	.cfi_def_cfa_register 6
	subq	$16, %rsp
	movq	%rdi, -8(%rbp)
	movq	-8(%rbp), %rax
	movq	%rax, %rdi
	call	_ZNKSt7__cxx1112basic_stringIcSt11char_traitsIcESaIcEE5emptyEv
	movzbl	%al, %eax
	testq	%rax, %rax
	setne	%al
	testb	%al, %al
	je	.L261
	leaq	.LC57(%rip), %rcx
	leaq	.LC60(%rip), %rdx
	leaq	.LC59(%rip), %rax
	movl	$2385, %esi
	movq	%rax, %rdi
	call	_ZSt21__glibcxx_assert_failPKciS0_S0_@PLT
.L261:
	movq	-8(%rbp), %rax
	movq	%rax, %rdi
	call	_ZNKSt7__cxx1112basic_stringIcSt11char_traitsIcESaIcEE4sizeEv
	leaq	-1(%rax), %rcx
	movq	-8(%rbp), %rax
	movl	$1, %edx
	movq	%rcx, %rsi
	movq	%rax, %rdi
	call	_ZNSt7__cxx1112basic_stringIcSt11char_traitsIcESaIcEE8_M_eraseEmm
	nop
	leave
	.cfi_def_cfa 7, 8
	ret
	.cfi_endproc
.LFE3445:
	.section	.gcc_except_table
.LLSDA3445:
	.byte	0xff
	.byte	0xff
	.byte	0x1
	.uleb128 .LLSDACSE3445-.LLSDACSB3445
.LLSDACSB3445:
.LLSDACSE3445:
	.section	.text._ZNSt7__cxx1112basic_stringIcSt11char_traitsIcESaIcEE8pop_backEv,"axG",@progbits,_ZNSt7__cxx1112basic_stringIcSt11char_traitsIcESaIcEE8pop_backEv,comdat
	.size	_ZNSt7__cxx1112basic_stringIcSt11char_traitsIcESaIcEE8pop_backEv, .-_ZNSt7__cxx1112basic_stringIcSt11char_traitsIcESaIcEE8pop_backEv
	.section	.text._ZNSt6vectorImSaImEE5beginEv,"axG",@progbits,_ZNSt6vectorImSaImEE5beginEv,comdat
	.align 2
	.weak	_ZNSt6vectorImSaImEE5beginEv
	.type	_ZNSt6vectorImSaImEE5beginEv, @function
_ZNSt6vectorImSaImEE5beginEv:
.LFB3450:
	.cfi_startproc
	pushq	%rbp
	.cfi_def_cfa_offset 16
	.cfi_offset 6, -16
	movq	%rsp, %rbp
	.cfi_def_cfa_register 6
	subq	$48, %rsp
	movq	%rdi, -40(%rbp)
	movq	%fs:40, %rax
	movq	%rax, -8(%rbp)
	xorl	%eax, %eax
	movq	-40(%rbp), %rax
	movq	%rax, -16(%rbp)
	movq	-16(%rbp), %rax
	movq	(%rax), %rax
	movq	%rax, -24(%rbp)
	nop
	movq	-24(%rbp), %rax
	movq	-8(%rbp), %rdx
	subq	%fs:40, %rdx
	je	.L264
	call	__stack_chk_fail@PLT
.L264:
	leave
	.cfi_def_cfa 7, 8
	ret
	.cfi_endproc
.LFE3450:
	.size	_ZNSt6vectorImSaImEE5beginEv, .-_ZNSt6vectorImSaImEE5beginEv
	.section	.text._ZNSt6vectorImSaImEE3endEv,"axG",@progbits,_ZNSt6vectorImSaImEE3endEv,comdat
	.align 2
	.weak	_ZNSt6vectorImSaImEE3endEv
	.type	_ZNSt6vectorImSaImEE3endEv, @function
_ZNSt6vectorImSaImEE3endEv:
.LFB3451:
	.cfi_startproc
	pushq	%rbp
	.cfi_def_cfa_offset 16
	.cfi_offset 6, -16
	movq	%rsp, %rbp
	.cfi_def_cfa_register 6
	subq	$48, %rsp
	movq	%rdi, -40(%rbp)
	movq	%fs:40, %rax
	movq	%rax, -8(%rbp)
	xorl	%eax, %eax
	movq	-40(%rbp), %rax
	addq	$8, %rax
	movq	%rax, -16(%rbp)
	movq	-16(%rbp), %rax
	movq	(%rax), %rax
	movq	%rax, -24(%rbp)
	nop
	movq	-24(%rbp), %rax
	movq	-8(%rbp), %rdx
	subq	%fs:40, %rdx
	je	.L267
	call	__stack_chk_fail@PLT
.L267:
	leave
	.cfi_def_cfa 7, 8
	ret
	.cfi_endproc
.LFE3451:
	.size	_ZNSt6vectorImSaImEE3endEv, .-_ZNSt6vectorImSaImEE3endEv
	.section	.text._ZNSt6chronomiINS_3_V212system_clockENS_8durationIlSt5ratioILl1ELl1000000000EEEES6_EENSt11common_typeIJT0_T1_EE4typeERKNS_10time_pointIT_S8_EERKNSC_ISD_S9_EE,"axG",@progbits,_ZNSt6chronomiINS_3_V212system_clockENS_8durationIlSt5ratioILl1ELl1000000000EEEES6_EENSt11common_typeIJT0_T1_EE4typeERKNS_10time_pointIT_S8_EERKNSC_ISD_S9_EE,comdat
	.weak	_ZNSt6chronomiINS_3_V212system_clockENS_8durationIlSt5ratioILl1ELl1000000000EEEES6_EENSt11common_typeIJT0_T1_EE4typeERKNS_10time_pointIT_S8_EERKNSC_ISD_S9_EE
	.type	_ZNSt6chronomiINS_3_V212system_clockENS_8durationIlSt5ratioILl1ELl1000000000EEEES6_EENSt11common_typeIJT0_T1_EE4typeERKNS_10time_pointIT_S8_EERKNSC_ISD_S9_EE, @function
_ZNSt6chronomiINS_3_V212system_clockENS_8durationIlSt5ratioILl1ELl1000000000EEEES6_EENSt11common_typeIJT0_T1_EE4typeERKNS_10time_pointIT_S8_EERKNSC_ISD_S9_EE:
.LFB3456:
	.cfi_startproc
	pushq	%rbp
	.cfi_def_cfa_offset 16
	.cfi_offset 6, -16
	movq	%rsp, %rbp
	.cfi_def_cfa_register 6
	subq	$48, %rsp
	movq	%rdi, -40(%rbp)
	movq	%rsi, -48(%rbp)
	movq	%fs:40, %rax
	movq	%rax, -8(%rbp)
	xorl	%eax, %eax
	movq	-48(%rbp), %rax
	movq	%rax, %rdi
	call	_ZNKSt6chrono10time_pointINS_3_V212system_clockENS_8durationIlSt5ratioILl1ELl1000000000EEEEE16time_since_epochEv
	movq	%rax, -16(%rbp)
	movq	-40(%rbp), %rax
	movq	%rax, %rdi
	call	_ZNKSt6chrono10time_pointINS_3_V212system_clockENS_8durationIlSt5ratioILl1ELl1000000000EEEEE16time_since_epochEv
	movq	%rax, -24(%rbp)
	leaq	-16(%rbp), %rdx
	leaq	-24(%rbp), %rax
	movq	%rdx, %rsi
	movq	%rax, %rdi
	call	_ZNSt6chronomiIlSt5ratioILl1ELl1000000000EElS2_EENSt11common_typeIJNS_8durationIT_T0_EENS4_IT1_T2_EEEE4typeERKS7_RKSA_
	movq	-8(%rbp), %rdx
	subq	%fs:40, %rdx
	je	.L270
	call	__stack_chk_fail@PLT
.L270:
	leave
	.cfi_def_cfa 7, 8
	ret
	.cfi_endproc
.LFE3456:
	.size	_ZNSt6chronomiINS_3_V212system_clockENS_8durationIlSt5ratioILl1ELl1000000000EEEES6_EENSt11common_typeIJT0_T1_EE4typeERKNS_10time_pointIT_S8_EERKNSC_ISD_S9_EE, .-_ZNSt6chronomiINS_3_V212system_clockENS_8durationIlSt5ratioILl1ELl1000000000EEEES6_EENSt11common_typeIJT0_T1_EE4typeERKNS_10time_pointIT_S8_EERKNSC_ISD_S9_EE
	.text
	.type	_Z9time_loopIZ4mainEUllE_EdOT_l, @function
_Z9time_loopIZ4mainEUllE_EdOT_l:
.LFB3454:
	.cfi_startproc
	pushq	%rbp
	.cfi_def_cfa_offset 16
	.cfi_offset 6, -16
	movq	%rsp, %rbp
	.cfi_def_cfa_register 6
	subq	$64, %rsp
	movq	%rdi, -56(%rbp)
	movq	%rsi, -64(%rbp)
	movq	%fs:40, %rax
	movq	%rax, -8(%rbp)
	xorl	%eax, %eax
	call	_ZNSt6chrono3_V212system_clock3nowEv@PLT
	movq	%rax, -40(%rbp)
	movq	-64(%rbp), %rdx
	movq	-56(%rbp), %rax
	movq	%rdx, %rsi
	movq	%rax, %rdi
	call	_ZZ4mainENKUllE_clEl
	call	_ZNSt6chrono3_V212system_clock3nowEv@PLT
	movq	%rax, -32(%rbp)
	leaq	-40(%rbp), %rdx
	leaq	-32(%rbp), %rax
	movq	%rdx, %rsi
	movq	%rax, %rdi
	call	_ZNSt6chronomiINS_3_V212system_clockENS_8durationIlSt5ratioILl1ELl1000000000EEEES6_EENSt11common_typeIJT0_T1_EE4typeERKNS_10time_pointIT_S8_EERKNSC_ISD_S9_EE
	movq	%rax, -16(%rbp)
	leaq	-16(%rbp), %rdx
	leaq	-24(%rbp), %rax
	movq	%rdx, %rsi
	movq	%rax, %rdi
	call	_ZNSt6chrono8durationIdSt5ratioILl1ELl1EEEC1IlS1_ILl1ELl1000000000EEvEERKNS0_IT_T0_EE
	leaq	-24(%rbp), %rax
	movq	%rax, %rdi
	call	_ZNKSt6chrono8durationIdSt5ratioILl1ELl1EEE5countEv
	movq	-8(%rbp), %rax
	subq	%fs:40, %rax
	je	.L273
	call	__stack_chk_fail@PLT
.L273:
	leave
	.cfi_def_cfa 7, 8
	ret
	.cfi_endproc
.LFE3454:
	.size	_Z9time_loopIZ4mainEUllE_EdOT_l, .-_Z9time_loopIZ4mainEUllE_EdOT_l
	.type	_Z9time_loopIZ4mainEUllE0_EdOT_l, @function
_Z9time_loopIZ4mainEUllE0_EdOT_l:
.LFB3457:
	.cfi_startproc
	pushq	%rbp
	.cfi_def_cfa_offset 16
	.cfi_offset 6, -16
	movq	%rsp, %rbp
	.cfi_def_cfa_register 6
	subq	$64, %rsp
	movq	%rdi, -56(%rbp)
	movq	%rsi, -64(%rbp)
	movq	%fs:40, %rax
	movq	%rax, -8(%rbp)
	xorl	%eax, %eax
	call	_ZNSt6chrono3_V212system_clock3nowEv@PLT
	movq	%rax, -40(%rbp)
	movq	-64(%rbp), %rdx
	movq	-56(%rbp), %rax
	movq	%rdx, %rsi
	movq	%rax, %rdi
	call	_ZZ4mainENKUllE0_clEl
	call	_ZNSt6chrono3_V212system_clock3nowEv@PLT
	movq	%rax, -32(%rbp)
	leaq	-40(%rbp), %rdx
	leaq	-32(%rbp), %rax
	movq	%rdx, %rsi
	movq	%rax, %rdi
	call	_ZNSt6chronomiINS_3_V212system_clockENS_8durationIlSt5ratioILl1ELl1000000000EEEES6_EENSt11common_typeIJT0_T1_EE4typeERKNS_10time_pointIT_S8_EERKNSC_ISD_S9_EE
	movq	%rax, -16(%rbp)
	leaq	-16(%rbp), %rdx
	leaq	-24(%rbp), %rax
	movq	%rdx, %rsi
	movq	%rax, %rdi
	call	_ZNSt6chrono8durationIdSt5ratioILl1ELl1EEEC1IlS1_ILl1ELl1000000000EEvEERKNS0_IT_T0_EE
	leaq	-24(%rbp), %rax
	movq	%rax, %rdi
	call	_ZNKSt6chrono8durationIdSt5ratioILl1ELl1EEE5countEv
	movq	-8(%rbp), %rax
	subq	%fs:40, %rax
	je	.L276
	call	__stack_chk_fail@PLT
.L276:
	leave
	.cfi_def_cfa 7, 8
	ret
	.cfi_endproc
.LFE3457:
	.size	_Z9time_loopIZ4mainEUllE0_EdOT_l, .-_Z9time_loopIZ4mainEUllE0_EdOT_l
	.type	_Z9time_loopIZ4mainEUllE1_EdOT_l, @function
_Z9time_loopIZ4mainEUllE1_EdOT_l:
.LFB3458:
	.cfi_startproc
	pushq	%rbp
	.cfi_def_cfa_offset 16
	.cfi_offset 6, -16
	movq	%rsp, %rbp
	.cfi_def_cfa_register 6
	subq	$64, %rsp
	movq	%rdi, -56(%rbp)
	movq	%rsi, -64(%rbp)
	movq	%fs:40, %rax
	movq	%rax, -8(%rbp)
	xorl	%eax, %eax
	call	_ZNSt6chrono3_V212system_clock3nowEv@PLT
	movq	%rax, -40(%rbp)
	movq	-64(%rbp), %rdx
	movq	-56(%rbp), %rax
	movq	%rdx, %rsi
	movq	%rax, %rdi
	call	_ZZ4mainENKUllE1_clEl
	call	_ZNSt6chrono3_V212system_clock3nowEv@PLT
	movq	%rax, -32(%rbp)
	leaq	-40(%rbp), %rdx
	leaq	-32(%rbp), %rax
	movq	%rdx, %rsi
	movq	%rax, %rdi
	call	_ZNSt6chronomiINS_3_V212system_clockENS_8durationIlSt5ratioILl1ELl1000000000EEEES6_EENSt11common_typeIJT0_T1_EE4typeERKNS_10time_pointIT_S8_EERKNSC_ISD_S9_EE
	movq	%rax, -16(%rbp)
	leaq	-16(%rbp), %rdx
	leaq	-24(%rbp), %rax
	movq	%rdx, %rsi
	movq	%rax, %rdi
	call	_ZNSt6chrono8durationIdSt5ratioILl1ELl1EEEC1IlS1_ILl1ELl1000000000EEvEERKNS0_IT_T0_EE
	leaq	-24(%rbp), %rax
	movq	%rax, %rdi
	call	_ZNKSt6chrono8durationIdSt5ratioILl1ELl1EEE5countEv
	movq	-8(%rbp), %rax
	subq	%fs:40, %rax
	je	.L279
	call	__stack_chk_fail@PLT
.L279:
	leave
	.cfi_def_cfa 7, 8
	ret
	.cfi_endproc
.LFE3458:
	.size	_Z9time_loopIZ4mainEUllE1_EdOT_l, .-_Z9time_loopIZ4mainEUllE1_EdOT_l
	.type	_Z9time_loopIZ4mainEUllE2_EdOT_l, @function
_Z9time_loopIZ4mainEUllE2_EdOT_l:
.LFB3460:
	.cfi_startproc
	pushq	%rbp
	.cfi_def_cfa_offset 16
	.cfi_offset 6, -16
	movq	%rsp, %rbp
	.cfi_def_cfa_register 6
	subq	$64, %rsp
	movq	%rdi, -56(%rbp)
	movq	%rsi, -64(%rbp)
	movq	%fs:40, %rax
	movq	%rax, -8(%rbp)
	xorl	%eax, %eax
	call	_ZNSt6chrono3_V212system_clock3nowEv@PLT
	movq	%rax, -40(%rbp)
	movq	-64(%rbp), %rdx
	movq	-56(%rbp), %rax
	movq	%rdx, %rsi
	movq	%rax, %rdi
	call	_ZZ4mainENKUllE2_clEl
	call	_ZNSt6chrono3_V212system_clock3nowEv@PLT
	movq	%rax, -32(%rbp)
	leaq	-40(%rbp), %rdx
	leaq	-32(%rbp), %rax
	movq	%rdx, %rsi
	movq	%rax, %rdi
	call	_ZNSt6chronomiINS_3_V212system_clockENS_8durationIlSt5ratioILl1ELl1000000000EEEES6_EENSt11common_typeIJT0_T1_EE4typeERKNS_10time_pointIT_S8_EERKNSC_ISD_S9_EE
	movq	%rax, -16(%rbp)
	leaq	-16(%rbp), %rdx
	leaq	-24(%rbp), %rax
	movq	%rdx, %rsi
	movq	%rax, %rdi
	call	_ZNSt6chrono8durationIdSt5ratioILl1ELl1EEEC1IlS1_ILl1ELl1000000000EEvEERKNS0_IT_T0_EE
	leaq	-24(%rbp), %rax
	movq	%rax, %rdi
	call	_ZNKSt6chrono8durationIdSt5ratioILl1ELl1EEE5countEv
	movq	-8(%rbp), %rax
	subq	%fs:40, %rax
	je	.L282
	call	__stack_chk_fail@PLT
.L282:
	leave
	.cfi_def_cfa 7, 8
	ret
	.cfi_endproc
.LFE3460:
	.size	_Z9time_loopIZ4mainEUllE2_EdOT_l, .-_Z9time_loopIZ4mainEUllE2_EdOT_l
	.type	_Z9time_loopIZ4mainEUllE3_EdOT_l, @function
_Z9time_loopIZ4mainEUllE3_EdOT_l:
.LFB3461:
	.cfi_startproc
	pushq	%rbp
	.cfi_def_cfa_offset 16
	.cfi_offset 6, -16
	movq	%rsp, %rbp
	.cfi_def_cfa_register 6
	subq	$64, %rsp
	movq	%rdi, -56(%rbp)
	movq	%rsi, -64(%rbp)
	movq	%fs:40, %rax
	movq	%rax, -8(%rbp)
	xorl	%eax, %eax
	call	_ZNSt6chrono3_V212system_clock3nowEv@PLT
	movq	%rax, -40(%rbp)
	movq	-64(%rbp), %rdx
	movq	-56(%rbp), %rax
	movq	%rdx, %rsi
	movq	%rax, %rdi
	call	_ZZ4mainENKUllE3_clEl
	call	_ZNSt6chrono3_V212system_clock3nowEv@PLT
	movq	%rax, -32(%rbp)
	leaq	-40(%rbp), %rdx
	leaq	-32(%rbp), %rax
	movq	%rdx, %rsi
	movq	%rax, %rdi
	call	_ZNSt6chronomiINS_3_V212system_clockENS_8durationIlSt5ratioILl1ELl1000000000EEEES6_EENSt11common_typeIJT0_T1_EE4typeERKNS_10time_pointIT_S8_EERKNSC_ISD_S9_EE
	movq	%rax, -16(%rbp)
	leaq	-16(%rbp), %rdx
	leaq	-24(%rbp), %rax
	movq	%rdx, %rsi
	movq	%rax, %rdi
	call	_ZNSt6chrono8durationIdSt5ratioILl1ELl1EEEC1IlS1_ILl1ELl1000000000EEvEERKNS0_IT_T0_EE
	leaq	-24(%rbp), %rax
	movq	%rax, %rdi
	call	_ZNKSt6chrono8durationIdSt5ratioILl1ELl1EEE5countEv
	movq	-8(%rbp), %rax
	subq	%fs:40, %rax
	je	.L285
	call	__stack_chk_fail@PLT
.L285:
	leave
	.cfi_def_cfa 7, 8
	ret
	.cfi_endproc
.LFE3461:
	.size	_Z9time_loopIZ4mainEUllE3_EdOT_l, .-_Z9time_loopIZ4mainEUllE3_EdOT_l
	.type	_Z9time_loopIZ4mainEUllE4_EdOT_l, @function
_Z9time_loopIZ4mainEUllE4_EdOT_l:
.LFB3462:
	.cfi_startproc
	pushq	%rbp
	.cfi_def_cfa_offset 16
	.cfi_offset 6, -16
	movq	%rsp, %rbp
	.cfi_def_cfa_register 6
	subq	$64, %rsp
	movq	%rdi, -56(%rbp)
	movq	%rsi, -64(%rbp)
	movq	%fs:40, %rax
	movq	%rax, -8(%rbp)
	xorl	%eax, %eax
	call	_ZNSt6chrono3_V212system_clock3nowEv@PLT
	movq	%rax, -40(%rbp)
	movq	-64(%rbp), %rdx
	movq	-56(%rbp), %rax
	movq	%rdx, %rsi
	movq	%rax, %rdi
	call	_ZZ4mainENKUllE4_clEl
	call	_ZNSt6chrono3_V212system_clock3nowEv@PLT
	movq	%rax, -32(%rbp)
	leaq	-40(%rbp), %rdx
	leaq	-32(%rbp), %rax
	movq	%rdx, %rsi
	movq	%rax, %rdi
	call	_ZNSt6chronomiINS_3_V212system_clockENS_8durationIlSt5ratioILl1ELl1000000000EEEES6_EENSt11common_typeIJT0_T1_EE4typeERKNS_10time_pointIT_S8_EERKNSC_ISD_S9_EE
	movq	%rax, -16(%rbp)
	leaq	-16(%rbp), %rdx
	leaq	-24(%rbp), %rax
	movq	%rdx, %rsi
	movq	%rax, %rdi
	call	_ZNSt6chrono8durationIdSt5ratioILl1ELl1EEEC1IlS1_ILl1ELl1000000000EEvEERKNS0_IT_T0_EE
	leaq	-24(%rbp), %rax
	movq	%rax, %rdi
	call	_ZNKSt6chrono8durationIdSt5ratioILl1ELl1EEE5countEv
	movq	-8(%rbp), %rax
	subq	%fs:40, %rax
	je	.L288
	call	__stack_chk_fail@PLT
.L288:
	leave
	.cfi_def_cfa 7, 8
	ret
	.cfi_endproc
.LFE3462:
	.size	_Z9time_loopIZ4mainEUllE4_EdOT_l, .-_Z9time_loopIZ4mainEUllE4_EdOT_l
	.type	_Z9time_loopIZ4mainEUllE5_EdOT_l, @function
_Z9time_loopIZ4mainEUllE5_EdOT_l:
.LFB3463:
	.cfi_startproc
	pushq	%rbp
	.cfi_def_cfa_offset 16
	.cfi_offset 6, -16
	movq	%rsp, %rbp
	.cfi_def_cfa_register 6
	subq	$64, %rsp
	movq	%rdi, -56(%rbp)
	movq	%rsi, -64(%rbp)
	movq	%fs:40, %rax
	movq	%rax, -8(%rbp)
	xorl	%eax, %eax
	call	_ZNSt6chrono3_V212system_clock3nowEv@PLT
	movq	%rax, -40(%rbp)
	movq	-64(%rbp), %rdx
	movq	-56(%rbp), %rax
	movq	%rdx, %rsi
	movq	%rax, %rdi
	call	_ZZ4mainENKUllE5_clEl
	call	_ZNSt6chrono3_V212system_clock3nowEv@PLT
	movq	%rax, -32(%rbp)
	leaq	-40(%rbp), %rdx
	leaq	-32(%rbp), %rax
	movq	%rdx, %rsi
	movq	%rax, %rdi
	call	_ZNSt6chronomiINS_3_V212system_clockENS_8durationIlSt5ratioILl1ELl1000000000EEEES6_EENSt11common_typeIJT0_T1_EE4typeERKNS_10time_pointIT_S8_EERKNSC_ISD_S9_EE
	movq	%rax, -16(%rbp)
	leaq	-16(%rbp), %rdx
	leaq	-24(%rbp), %rax
	movq	%rdx, %rsi
	movq	%rax, %rdi
	call	_ZNSt6chrono8durationIdSt5ratioILl1ELl1EEEC1IlS1_ILl1ELl1000000000EEvEERKNS0_IT_T0_EE
	leaq	-24(%rbp), %rax
	movq	%rax, %rdi
	call	_ZNKSt6chrono8durationIdSt5ratioILl1ELl1EEE5countEv
	movq	-8(%rbp), %rax
	subq	%fs:40, %rax
	je	.L291
	call	__stack_chk_fail@PLT
.L291:
	leave
	.cfi_def_cfa 7, 8
	ret
	.cfi_endproc
.LFE3463:
	.size	_Z9time_loopIZ4mainEUllE5_EdOT_l, .-_Z9time_loopIZ4mainEUllE5_EdOT_l
	.type	_Z9time_loopIZ4mainEUllE6_EdOT_l, @function
_Z9time_loopIZ4mainEUllE6_EdOT_l:
.LFB3464:
	.cfi_startproc
	pushq	%rbp
	.cfi_def_cfa_offset 16
	.cfi_offset 6, -16
	movq	%rsp, %rbp
	.cfi_def_cfa_register 6
	subq	$64, %rsp
	movq	%rdi, -56(%rbp)
	movq	%rsi, -64(%rbp)
	movq	%fs:40, %rax
	movq	%rax, -8(%rbp)
	xorl	%eax, %eax
	call	_ZNSt6chrono3_V212system_clock3nowEv@PLT
	movq	%rax, -40(%rbp)
	movq	-64(%rbp), %rdx
	movq	-56(%rbp), %rax
	movq	%rdx, %rsi
	movq	%rax, %rdi
	call	_ZZ4mainENKUllE6_clEl
	call	_ZNSt6chrono3_V212system_clock3nowEv@PLT
	movq	%rax, -32(%rbp)
	leaq	-40(%rbp), %rdx
	leaq	-32(%rbp), %rax
	movq	%rdx, %rsi
	movq	%rax, %rdi
	call	_ZNSt6chronomiINS_3_V212system_clockENS_8durationIlSt5ratioILl1ELl1000000000EEEES6_EENSt11common_typeIJT0_T1_EE4typeERKNS_10time_pointIT_S8_EERKNSC_ISD_S9_EE
	movq	%rax, -16(%rbp)
	leaq	-16(%rbp), %rdx
	leaq	-24(%rbp), %rax
	movq	%rdx, %rsi
	movq	%rax, %rdi
	call	_ZNSt6chrono8durationIdSt5ratioILl1ELl1EEEC1IlS1_ILl1ELl1000000000EEvEERKNS0_IT_T0_EE
	leaq	-24(%rbp), %rax
	movq	%rax, %rdi
	call	_ZNKSt6chrono8durationIdSt5ratioILl1ELl1EEE5countEv
	movq	-8(%rbp), %rax
	subq	%fs:40, %rax
	je	.L294
	call	__stack_chk_fail@PLT
.L294:
	leave
	.cfi_def_cfa 7, 8
	ret
	.cfi_endproc
.LFE3464:
	.size	_Z9time_loopIZ4mainEUllE6_EdOT_l, .-_Z9time_loopIZ4mainEUllE6_EdOT_l
	.section	.text._ZN9__gnu_cxx11char_traitsIcE2eqERKcS3_,"axG",@progbits,_ZN9__gnu_cxx11char_traitsIcE2eqERKcS3_,comdat
	.weak	_ZN9__gnu_cxx11char_traitsIcE2eqERKcS3_
	.type	_ZN9__gnu_cxx11char_traitsIcE2eqERKcS3_, @function
_ZN9__gnu_cxx11char_traitsIcE2eqERKcS3_:
.LFB3465:
	.cfi_startproc
	pushq	%rbp
	.cfi_def_cfa_offset 16
	.cfi_offset 6, -16
	movq	%rsp, %rbp
	.cfi_def_cfa_register 6
	movq	%rdi, -8(%rbp)
	movq	%rsi, -16(%rbp)
	movq	-8(%rbp), %rax
	movzbl	(%rax), %edx
	movq	-16(%rbp), %rax
	movzbl	(%rax), %eax
	cmpb	%al, %dl
	sete	%al
	popq	%rbp
	.cfi_def_cfa 7, 8
	ret
	.cfi_endproc
.LFE3465:
	.size	_ZN9__gnu_cxx11char_traitsIcE2eqERKcS3_, .-_ZN9__gnu_cxx11char_traitsIcE2eqERKcS3_
	.section	.text._ZNKSt7__cxx1112basic_stringIcSt11char_traitsIcESaIcEE7_M_dataEv,"axG",@progbits,_ZNKSt7__cxx1112basic_stringIcSt11char_traitsIcESaIcEE7_M_dataEv,comdat
	.align 2
	.weak	_ZNKSt7__cxx1112basic_stringIcSt11char_traitsIcESaIcEE7_M_dataEv
	.type	_ZNKSt7__cxx1112basic_stringIcSt11char_traitsIcESaIcEE7_M_dataEv, @function
_ZNKSt7__cxx1112basic_stringIcSt11char_traitsIcESaIcEE7_M_dataEv:
.LFB3468:
	.cfi_startproc
	pushq	%rbp
	.cfi_def_cfa_offset 16
	.cfi_offset 6, -16
	movq	%rsp, %rbp
	.cfi_def_cfa_register 6
	movq	%rdi, -8(%rbp)
	movq	-8(%rbp), %rax
	movq	(%rax), %rax
	popq	%rbp
	.cfi_def_cfa 7, 8
	ret
	.cfi_endproc
.LFE3468:
	.size	_ZNKSt7__cxx1112basic_stringIcSt11char_traitsIcESaIcEE7_M_dataEv, .-_ZNKSt7__cxx1112basic_stringIcSt11char_traitsIcESaIcEE7_M_dataEv
	.section	.text._ZNSt7__cxx1112basic_stringIcSt11char_traitsIcESaIcEE13_M_local_dataEv,"axG",@progbits,_ZNSt7__cxx1112basic_stringIcSt11char_traitsIcESaIcEE13_M_local_dataEv,comdat
	.align 2
	.weak	_ZNSt7__cxx1112basic_stringIcSt11char_traitsIcESaIcEE13_M_local_dataEv
	.type	_ZNSt7__cxx1112basic_stringIcSt11char_traitsIcESaIcEE13_M_local_dataEv, @function
_ZNSt7__cxx1112basic_stringIcSt11char_traitsIcESaIcEE13_M_local_dataEv:
.LFB3469:
	.cfi_startproc
	pushq	%rbp
	.cfi_def_cfa_offset 16
	.cfi_offset 6, -16
	movq	%rsp, %rbp
	.cfi_def_cfa_register 6
	subq	$16, %rsp
	movq	%rdi, -8(%rbp)
	movq	-8(%rbp), %rax
	addq	$16, %rax
	movq	%rax, %rdi
	call	_ZNSt19__ptr_traits_ptr_toIPccLb0EE10pointer_toERc
	leave
	.cfi_def_cfa 7, 8
	ret
	.cfi_endproc
.LFE3469:
	.size	_ZNSt7__cxx1112basic_stringIcSt11char_traitsIcESaIcEE13_M_local_dataEv, .-_ZNSt7__cxx1112basic_stringIcSt11char_traitsIcESaIcEE13_M_local_dataEv
	.section	.text._ZNSt7__cxx1112basic_stringIcSt11char_traitsIcESaIcEE12_Alloc_hiderC2EPcOS3_,"axG",@progbits,_ZNSt7__cxx1112basic_stringIcSt11char_traitsIcESaIcEE12_Alloc_hiderC5EPcOS3_,comdat
	.align 2
	.weak	_ZNSt7__cxx1112basic_stringIcSt11char_traitsIcESaIcEE12_Alloc_hiderC2EPcOS3_
	.type	_ZNSt7__cxx1112basic_stringIcSt11char_traitsIcESaIcEE12_Alloc_hiderC2EPcOS3_, @function
_ZNSt7__cxx1112basic_stringIcSt11char_traitsIcESaIcEE12_Alloc_hiderC2EPcOS3_:
.LFB3471:
	.cfi_startproc
	pushq	%rbp
	.cfi_def_cfa_offset 16
	.cfi_offset 6, -16
	movq	%rsp, %rbp
	.cfi_def_cfa_register 6
	movq	%rdi, -56(%rbp)
	movq	%rsi, -64(%rbp)
	movq	%rdx, -72(%rbp)
	movq	-72(%rbp), %rax
	movq	%rax, -8(%rbp)
	movq	-8(%rbp), %rax
	movq	-56(%rbp), %rdx
	movq	%rdx, -40(%rbp)
	movq	%rax, -32(%rbp)
	movq	-40(%rbp), %rax
	movq	%rax, -24(%rbp)
	movq	-32(%rbp), %rax
	movq	%rax, -16(%rbp)
	nop
	nop
	movq	-56(%rbp), %rax
	movq	-64(%rbp), %rdx
	movq	%rdx, (%rax)
	nop
	popq	%rbp
	.cfi_def_cfa 7, 8
	ret
	.cfi_endproc
.LFE3471:
	.size	_ZNSt7__cxx1112basic_stringIcSt11char_traitsIcESaIcEE12_Alloc_hiderC2EPcOS3_, .-_ZNSt7__cxx1112basic_stringIcSt11char_traitsIcESaIcEE12_Alloc_hiderC2EPcOS3_
	.weak	_ZNSt7__cxx1112basic_stringIcSt11char_traitsIcESaIcEE12_Alloc_hiderC1EPcOS3_
	.set	_ZNSt7__cxx1112basic_stringIcSt11char_traitsIcESaIcEE12_Alloc_hiderC1EPcOS3_,_ZNSt7__cxx1112basic_stringIcSt11char_traitsIcESaIcEE12_Alloc_hiderC2EPcOS3_
	.section	.text._ZNSt7__cxx1112basic_stringIcSt11char_traitsIcESaIcEE13_M_set_lengthEm,"axG",@progbits,_ZNSt7__cxx1112basic_stringIcSt11char_traitsIcESaIcEE13_M_set_lengthEm,comdat
	.align 2
	.weak	_ZNSt7__cxx1112basic_stringIcSt11char_traitsIcESaIcEE13_M_set_lengthEm
	.type	_ZNSt7__cxx1112basic_stringIcSt11char_traitsIcESaIcEE13_M_set_lengthEm, @function
_ZNSt7__cxx1112basic_stringIcSt11char_traitsIcESaIcEE13_M_set_lengthEm:
.LFB3474:
	.cfi_startproc
	pushq	%rbp
	.cfi_def_cfa_offset 16
	.cfi_offset 6, -16
	movq	%rsp, %rbp
	.cfi_def_cfa_register 6
	subq	$32, %rsp
	movq	%rdi, -24(%rbp)
	movq	%rsi, -32(%rbp)
	movq	%fs:40, %rax
	movq	%rax, -8(%rbp)
	xorl	%eax, %eax
	movq	-32(%rbp), %rdx
	movq	-24(%rbp), %rax
	movq	%rdx, %rsi
	movq	%rax, %rdi
	call	_ZNSt7__cxx1112basic_stringIcSt11char_traitsIcESaIcEE9_M_lengthEm
	movb	$0, -9(%rbp)
	movq	-24(%rbp), %rax
	movq	%rax, %rdi
	call	_ZNKSt7__cxx1112basic_stringIcSt11char_traitsIcESaIcEE7_M_dataEv
	movq	-32(%rbp), %rdx
	addq	%rax, %rdx
	leaq	-9(%rbp), %rax
	movq	%rax, %rsi
	movq	%rdx, %rdi
	call	_ZNSt11char_traitsIcE6assignERcRKc
	nop
	movq	-8(%rbp), %rax
	subq	%fs:40, %rax
	je	.L304
	call	__stack_chk_fail@PLT
.L304:
	leave
	.cfi_def_cfa 7, 8
	ret
	.cfi_endproc
.LFE3474:
	.size	_ZNSt7__cxx1112basic_stringIcSt11char_traitsIcESaIcEE13_M_set_lengthEm, .-_ZNSt7__cxx1112basic_stringIcSt11char_traitsIcESaIcEE13_M_set_lengthEm
	.section	.text._ZNSt7__cxx1112basic_stringIcSt11char_traitsIcESaIcEE10_M_disposeEv,"axG",@progbits,_ZNSt7__cxx1112basic_stringIcSt11char_traitsIcESaIcEE10_M_disposeEv,comdat
	.align 2
	.weak	_ZNSt7__cxx1112basic_stringIcSt11char_traitsIcESaIcEE10_M_disposeEv
	.type	_ZNSt7__cxx1112basic_stringIcSt11char_traitsIcESaIcEE10_M_disposeEv, @function
_ZNSt7__cxx1112basic_stringIcSt11char_traitsIcESaIcEE10_M_disposeEv:
.LFB3475:
	.cfi_startproc
	pushq	%rbp
	.cfi_def_cfa_offset 16
	.cfi_offset 6, -16
	movq	%rsp, %rbp
	.cfi_def_cfa_register 6
	subq	$16, %rsp
	movq	%rdi, -8(%rbp)
	movq	-8(%rbp), %rax
	movq	%rax, %rdi
	call	_ZNKSt7__cxx1112basic_stringIcSt11char_traitsIcESaIcEE11_M_is_localEv
	xorl	$1, %eax
	testb	%al, %al
	je	.L307
	movq	-8(%rbp), %rax
	movq	16(%rax), %rdx
	movq	-8(%rbp), %rax
	movq	%rdx, %rsi
	movq	%rax, %rdi
	call	_ZNSt7__cxx1112basic_stringIcSt11char_traitsIcESaIcEE10_M_destroyEm
.L307:
	nop
	leave
	.cfi_def_cfa 7, 8
	ret
	.cfi_endproc
.LFE3475:
	.size	_ZNSt7__cxx1112basic_stringIcSt11char_traitsIcESaIcEE10_M_disposeEv, .-_ZNSt7__cxx1112basic_stringIcSt11char_traitsIcESaIcEE10_M_disposeEv
	.section	.text._ZNSt7__cxx1112basic_stringIcSt11char_traitsIcESaIcEE16_M_get_allocatorEv,"axG",@progbits,_ZNSt7__cxx1112basic_stringIcSt11char_traitsIcESaIcEE16_M_get_allocatorEv,comdat
	.align 2
	.weak	_ZNSt7__cxx1112basic_stringIcSt11char_traitsIcESaIcEE16_M_get_allocatorEv
	.type	_ZNSt7__cxx1112basic_stringIcSt11char_traitsIcESaIcEE16_M_get_allocatorEv, @function
_ZNSt7__cxx1112basic_stringIcSt11char_traitsIcESaIcEE16_M_get_allocatorEv:
.LFB3478:
	.cfi_startproc
	pushq	%rbp
	.cfi_def_cfa_offset 16
	.cfi_offset 6, -16
	movq	%rsp, %rbp
	.cfi_def_cfa_register 6
	movq	%rdi, -8(%rbp)
	movq	-8(%rbp), %rax
	popq	%rbp
	.cfi_def_cfa 7, 8
	ret
	.cfi_endproc
.LFE3478:
	.size	_ZNSt7__cxx1112basic_stringIcSt11char_traitsIcESaIcEE16_M_get_allocatorEv, .-_ZNSt7__cxx1112basic_stringIcSt11char_traitsIcESaIcEE16_M_get_allocatorEv
	.section	.text._ZNKSt7__cxx1112basic_stringIcSt11char_traitsIcESaIcEE11_M_is_localEv,"axG",@progbits,_ZNKSt7__cxx1112basic_stringIcSt11char_traitsIcESaIcEE11_M_is_localEv,comdat
	.align 2
	.weak	_ZNKSt7__cxx1112basic_stringIcSt11char_traitsIcESaIcEE11_M_is_localEv
	.type	_ZNKSt7__cxx1112basic_stringIcSt11char_traitsIcESaIcEE11_M_is_localEv, @function
_ZNKSt7__cxx1112basic_stringIcSt11char_traitsIcESaIcEE11_M_is_localEv:
.LFB3480:
	.cfi_startproc
	pushq	%rbp
	.cfi_def_cfa_offset 16
	.cfi_offset 6, -16
	movq	%rsp, %rbp
	.cfi_def_cfa_register 6
	pushq	%rbx
	subq	$24, %rsp
	.cfi_offset 3, -24
	movq	%rdi, -24(%rbp)
	movq	-24(%rbp), %rax
	movq	%rax, %rdi
	call	_ZNKSt7__cxx1112basic_stringIcSt11char_traitsIcESaIcEE7_M_dataEv
	movq	%rax, %rbx
	movq	-24(%rbp), %rax
	movq	%rax, %rdi
	call	_ZNKSt7__cxx1112basic_stringIcSt11char_traitsIcESaIcEE13_M_local_dataEv
	cmpq	%rax, %rbx
	sete	%al
	testb	%al, %al
	je	.L311
	movq	-24(%rbp), %rax
	movq	8(%rax), %rax
	cmpq	$15, %rax
	movl	$1, %eax
	jmp	.L313
.L311:
	movl	$0, %eax
.L313:
	movq	-8(%rbp), %rbx
	leave
	.cfi_def_cfa 7, 8
	ret
	.cfi_endproc
.LFE3480:
	.size	_ZNKSt7__cxx1112basic_stringIcSt11char_traitsIcESaIcEE11_M_is_localEv, .-_ZNKSt7__cxx1112basic_stringIcSt11char_traitsIcESaIcEE11_M_is_localEv
	.section	.text._ZNKSt7__cxx1112basic_stringIcSt11char_traitsIcESaIcEE6lengthEv,"axG",@progbits,_ZNKSt7__cxx1112basic_stringIcSt11char_traitsIcESaIcEE6lengthEv,comdat
	.align 2
	.weak	_ZNKSt7__cxx1112basic_stringIcSt11char_traitsIcESaIcEE6lengthEv
	.type	_ZNKSt7__cxx1112basic_stringIcSt11char_traitsIcESaIcEE6lengthEv, @function
_ZNKSt7__cxx1112basic_stringIcSt11char_traitsIcESaIcEE6lengthEv:
.LFB3481:
	.cfi_startproc
	pushq	%rbp
	.cfi_def_cfa_offset 16
	.cfi_offset 6, -16
	movq	%rsp, %rbp
	.cfi_def_cfa_register 6
	subq	$16, %rsp
	movq	%rdi, -8(%rbp)
	movq	-8(%rbp), %rax
	movq	%rax, %rdi
	call	_ZNKSt7__cxx1112basic_stringIcSt11char_traitsIcESaIcEE4sizeEv
	leave
	.cfi_def_cfa 7, 8
	ret
	.cfi_endproc
.LFE3481:
	.size	_ZNKSt7__cxx1112basic_stringIcSt11char_traitsIcESaIcEE6lengthEv, .-_ZNKSt7__cxx1112basic_stringIcSt11char_traitsIcESaIcEE6lengthEv
	.section	.text._ZNSt7__cxx1112basic_stringIcSt11char_traitsIcESaIcEE7_M_dataEPc,"axG",@progbits,_ZNSt7__cxx1112basic_stringIcSt11char_traitsIcESaIcEE7_M_dataEPc,comdat
	.align 2
	.weak	_ZNSt7__cxx1112basic_stringIcSt11char_traitsIcESaIcEE7_M_dataEPc
	.type	_ZNSt7__cxx1112basic_stringIcSt11char_traitsIcESaIcEE7_M_dataEPc, @function
_ZNSt7__cxx1112basic_stringIcSt11char_traitsIcESaIcEE7_M_dataEPc:
.LFB3482:
	.cfi_startproc
	pushq	%rbp
	.cfi_def_cfa_offset 16
	.cfi_offset 6, -16
	movq	%rsp, %rbp
	.cfi_def_cfa_register 6
	movq	%rdi, -8(%rbp)
	movq	%rsi, -16(%rbp)
	movq	-8(%rbp), %rax
	movq	-16(%rbp), %rdx
	movq	%rdx, (%rax)
	nop
	popq	%rbp
	.cfi_def_cfa 7, 8
	ret
	.cfi_endproc
.LFE3482:
	.size	_ZNSt7__cxx1112basic_stringIcSt11char_traitsIcESaIcEE7_M_dataEPc, .-_ZNSt7__cxx1112basic_stringIcSt11char_traitsIcESaIcEE7_M_dataEPc
	.section	.text._ZNSt7__cxx1112basic_stringIcSt11char_traitsIcESaIcEE11_M_capacityEm,"axG",@progbits,_ZNSt7__cxx1112basic_stringIcSt11char_traitsIcESaIcEE11_M_capacityEm,comdat
	.align 2
	.weak	_ZNSt7__cxx1112basic_stringIcSt11char_traitsIcESaIcEE11_M_capacityEm
	.type	_ZNSt7__cxx1112basic_stringIcSt11char_traitsIcESaIcEE11_M_capacityEm, @function
_ZNSt7__cxx1112basic_stringIcSt11char_traitsIcESaIcEE11_M_capacityEm:
.LFB3483:
	.cfi_startproc
	pushq	%rbp
	.cfi_def_cfa_offset 16
	.cfi_offset 6, -16
	movq	%rsp, %rbp
	.cfi_def_cfa_register 6
	movq	%rdi, -8(%rbp)
	movq	%rsi, -16(%rbp)
	movq	-8(%rbp), %rax
	movq	-16(%rbp), %rdx
	movq	%rdx, 16(%rax)
	nop
	popq	%rbp
	.cfi_def_cfa 7, 8
	ret
	.cfi_endproc
.LFE3483:
	.size	_ZNSt7__cxx1112basic_stringIcSt11char_traitsIcESaIcEE11_M_capacityEm, .-_ZNSt7__cxx1112basic_stringIcSt11char_traitsIcESaIcEE11_M_capacityEm
	.section	.text._ZNSt7__cxx1112basic_stringIcSt11char_traitsIcESaIcEE9_M_lengthEm,"axG",@progbits,_ZNSt7__cxx1112basic_stringIcSt11char_traitsIcESaIcEE9_M_lengthEm,comdat
	.align 2
	.weak	_ZNSt7__cxx1112basic_stringIcSt11char_traitsIcESaIcEE9_M_lengthEm
	.type	_ZNSt7__cxx1112basic_stringIcSt11char_traitsIcESaIcEE9_M_lengthEm, @function
_ZNSt7__cxx1112basic_stringIcSt11char_traitsIcESaIcEE9_M_lengthEm:
.LFB3484:
	.cfi_startproc
	pushq	%rbp
	.cfi_def_cfa_offset 16
	.cfi_offset 6, -16
	movq	%rsp, %rbp
	.cfi_def_cfa_register 6
	movq	%rdi, -8(%rbp)
	movq	%rsi, -16(%rbp)
	movq	-8(%rbp), %rax
	movq	-16(%rbp), %rdx
	movq	%rdx, 8(%rax)
	nop
	popq	%rbp
	.cfi_def_cfa 7, 8
	ret
	.cfi_endproc
.LFE3484:
	.size	_ZNSt7__cxx1112basic_stringIcSt11char_traitsIcESaIcEE9_M_lengthEm, .-_ZNSt7__cxx1112basic_stringIcSt11char_traitsIcESaIcEE9_M_lengthEm
	.section	.text._ZNKSt7__cxx1112basic_stringIcSt11char_traitsIcESaIcEE4dataEv,"axG",@progbits,_ZNKSt7__cxx1112basic_stringIcSt11char_traitsIcESaIcEE4dataEv,comdat
	.align 2
	.weak	_ZNKSt7__cxx1112basic_stringIcSt11char_traitsIcESaIcEE4dataEv
	.type	_ZNKSt7__cxx1112basic_stringIcSt11char_traitsIcESaIcEE4dataEv, @function
_ZNKSt7__cxx1112basic_stringIcSt11char_traitsIcESaIcEE4dataEv:
.LFB3514:
	.cfi_startproc
	pushq	%rbp
	.cfi_def_cfa_offset 16
	.cfi_offset 6, -16
	movq	%rsp, %rbp
	.cfi_def_cfa_register 6
	subq	$16, %rsp
	movq	%rdi, -8(%rbp)
	movq	-8(%rbp), %rax
	movq	%rax, %rdi
	call	_ZNKSt7__cxx1112basic_stringIcSt11char_traitsIcESaIcEE7_M_dataEv
	leave
	.cfi_def_cfa 7, 8
	ret
	.cfi_endproc
.LFE3514:
	.size	_ZNKSt7__cxx1112basic_stringIcSt11char_traitsIcESaIcEE4dataEv, .-_ZNKSt7__cxx1112basic_stringIcSt11char_traitsIcESaIcEE4dataEv
	.section	.text._ZNKSt7__cxx1112basic_stringIcSt11char_traitsIcESaIcEE4sizeEv,"axG",@progbits,_ZNKSt7__cxx1112basic_stringIcSt11char_traitsIcESaIcEE4sizeEv,comdat
	.align 2
	.weak	_ZNKSt7__cxx1112basic_stringIcSt11char_traitsIcESaIcEE4sizeEv
	.type	_ZNKSt7__cxx1112basic_stringIcSt11char_traitsIcESaIcEE4sizeEv, @function
_ZNKSt7__cxx1112basic_stringIcSt11char_traitsIcESaIcEE4sizeEv:
.LFB3515:
	.cfi_startproc
	pushq	%rbp
	.cfi_def_cfa_offset 16
	.cfi_offset 6, -16
	movq	%rsp, %rbp
	.cfi_def_cfa_register 6
	subq	$32, %rsp
	movq	%rdi, -24(%rbp)
	movq	-24(%rbp), %rax
	movq	8(%rax), %rax
	movq	%rax, -8(%rbp)
	movq	-24(%rbp), %rax
	movq	%rax, %rdi
	call	_ZNKSt7__cxx1112basic_stringIcSt11char_traitsIcESaIcEE8max_sizeEv
	cmpq	-8(%rbp), %rax
	setb	%al
	testb	%al, %al
	movq	-8(%rbp), %rax
	leave
	.cfi_def_cfa 7, 8
	ret
	.cfi_endproc
.LFE3515:
	.size	_ZNKSt7__cxx1112basic_stringIcSt11char_traitsIcESaIcEE4sizeEv, .-_ZNKSt7__cxx1112basic_stringIcSt11char_traitsIcESaIcEE4sizeEv
	.section	.text._ZNSt15__new_allocatorIcED2Ev,"axG",@progbits,_ZNSt15__new_allocatorIcED5Ev,comdat
	.align 2
	.weak	_ZNSt15__new_allocatorIcED2Ev
	.type	_ZNSt15__new_allocatorIcED2Ev, @function
_ZNSt15__new_allocatorIcED2Ev:
.LFB3520:
	.cfi_startproc
	pushq	%rbp
	.cfi_def_cfa_offset 16
	.cfi_offset 6, -16
	movq	%rsp, %rbp
	.cfi_def_cfa_register 6
	movq	%rdi, -8(%rbp)
	nop
	popq	%rbp
	.cfi_def_cfa 7, 8
	ret
	.cfi_endproc
.LFE3520:
	.size	_ZNSt15__new_allocatorIcED2Ev, .-_ZNSt15__new_allocatorIcED2Ev
	.weak	_ZNSt15__new_allocatorIcED1Ev
	.set	_ZNSt15__new_allocatorIcED1Ev,_ZNSt15__new_allocatorIcED2Ev
	.section	.text._ZNSt7__cxx1112basic_stringIcSt11char_traitsIcESaIcEE12_Alloc_hiderC2EPcRKS3_,"axG",@progbits,_ZNSt7__cxx1112basic_stringIcSt11char_traitsIcESaIcEE12_Alloc_hiderC5EPcRKS3_,comdat
	.align 2
	.weak	_ZNSt7__cxx1112basic_stringIcSt11char_traitsIcESaIcEE12_Alloc_hiderC2EPcRKS3_
	.type	_ZNSt7__cxx1112basic_stringIcSt11char_traitsIcESaIcEE12_Alloc_hiderC2EPcRKS3_, @function
_ZNSt7__cxx1112basic_stringIcSt11char_traitsIcESaIcEE12_Alloc_hiderC2EPcRKS3_:
.LFB3523:
	.cfi_startproc
	pushq	%rbp
	.cfi_def_cfa_offset 16
	.cfi_offset 6, -16
	movq	%rsp, %rbp
	.cfi_def_cfa_register 6
	movq	%rdi, -40(%rbp)
	movq	%rsi, -48(%rbp)
	movq	%rdx, -56(%rbp)
	movq	-40(%rbp), %rax
	movq	%rax, -32(%rbp)
	movq	-56(%rbp), %rax
	movq	%rax, -24(%rbp)
	movq	-32(%rbp), %rax
	movq	%rax, -16(%rbp)
	movq	-24(%rbp), %rax
	movq	%rax, -8(%rbp)
	nop
	nop
	movq	-40(%rbp), %rax
	movq	-48(%rbp), %rdx
	movq	%rdx, (%rax)
	nop
	popq	%rbp
	.cfi_def_cfa 7, 8
	ret
	.cfi_endproc
.LFE3523:
	.size	_ZNSt7__cxx1112basic_stringIcSt11char_traitsIcESaIcEE12_Alloc_hiderC2EPcRKS3_, .-_ZNSt7__cxx1112basic_stringIcSt11char_traitsIcESaIcEE12_Alloc_hiderC2EPcRKS3_
	.weak	_ZNSt7__cxx1112basic_stringIcSt11char_traitsIcESaIcEE12_Alloc_hiderC1EPcRKS3_
	.set	_ZNSt7__cxx1112basic_stringIcSt11char_traitsIcESaIcEE12_Alloc_hiderC1EPcRKS3_,_ZNSt7__cxx1112basic_stringIcSt11char_traitsIcESaIcEE12_Alloc_hiderC2EPcRKS3_
	.section	.text._ZZNSt7__cxx1112basic_stringIcSt11char_traitsIcESaIcEE12_M_constructIPKcEEvT_S8_St20forward_iterator_tagEN6_GuardC2EPS4_,"axG",@progbits,_ZZNSt7__cxx1112basic_stringIcSt11char_traitsIcESaIcEE12_M_constructIPKcEEvT_S8_St20forward_iterator_tagEN6_GuardC5EPS4_,comdat
	.align 2
	.weak	_ZZNSt7__cxx1112basic_stringIcSt11char_traitsIcESaIcEE12_M_constructIPKcEEvT_S8_St20forward_iterator_tagEN6_GuardC2EPS4_
	.type	_ZZNSt7__cxx1112basic_stringIcSt11char_traitsIcESaIcEE12_M_constructIPKcEEvT_S8_St20forward_iterator_tagEN6_GuardC2EPS4_, @function
_ZZNSt7__cxx1112basic_stringIcSt11char_traitsIcESaIcEE12_M_constructIPKcEEvT_S8_St20forward_iterator_tagEN6_GuardC2EPS4_:
.LFB3527:
	.cfi_startproc
	pushq	%rbp
	.cfi_def_cfa_offset 16
	.cfi_offset 6, -16
	movq	%rsp, %rbp
	.cfi_def_cfa_register 6
	movq	%rdi, -8(%rbp)
	movq	%rsi, -16(%rbp)
	movq	-8(%rbp), %rax
	movq	-16(%rbp), %rdx
	movq	%rdx, (%rax)
	nop
	popq	%rbp
	.cfi_def_cfa 7, 8
	ret
	.cfi_endproc
.LFE3527:
	.size	_ZZNSt7__cxx1112basic_stringIcSt11char_traitsIcESaIcEE12_M_constructIPKcEEvT_S8_St20forward_iterator_tagEN6_GuardC2EPS4_, .-_ZZNSt7__cxx1112basic_stringIcSt11char_traitsIcESaIcEE12_M_constructIPKcEEvT_S8_St20forward_iterator_tagEN6_GuardC2EPS4_
	.weak	_ZZNSt7__cxx1112basic_stringIcSt11char_traitsIcESaIcEE12_M_constructIPKcEEvT_S8_St20forward_iterator_tagEN6_GuardC1EPS4_
	.set	_ZZNSt7__cxx1112basic_stringIcSt11char_traitsIcESaIcEE12_M_constructIPKcEEvT_S8_St20forward_iterator_tagEN6_GuardC1EPS4_,_ZZNSt7__cxx1112basic_stringIcSt11char_traitsIcESaIcEE12_M_constructIPKcEEvT_S8_St20forward_iterator_tagEN6_GuardC2EPS4_
	.section	.text._ZZNSt7__cxx1112basic_stringIcSt11char_traitsIcESaIcEE12_M_constructIPKcEEvT_S8_St20forward_iterator_tagEN6_GuardD2Ev,"axG",@progbits,_ZZNSt7__cxx1112basic_stringIcSt11char_traitsIcESaIcEE12_M_constructIPKcEEvT_S8_St20forward_iterator_tagEN6_GuardD5Ev,comdat
	.align 2
	.weak	_ZZNSt7__cxx1112basic_stringIcSt11char_traitsIcESaIcEE12_M_constructIPKcEEvT_S8_St20forward_iterator_tagEN6_GuardD2Ev
	.type	_ZZNSt7__cxx1112basic_stringIcSt11char_traitsIcESaIcEE12_M_constructIPKcEEvT_S8_St20forward_iterator_tagEN6_GuardD2Ev, @function
_ZZNSt7__cxx1112basic_stringIcSt11char_traitsIcESaIcEE12_M_constructIPKcEEvT_S8_St20forward_iterator_tagEN6_GuardD2Ev:
.LFB3530:
	.cfi_startproc
	.cfi_personality 0x9b,DW.ref.__gxx_personality_v0
	.cfi_lsda 0x1b,.LLSDA3530
	pushq	%rbp
	.cfi_def_cfa_offset 16
	.cfi_offset 6, -16
	movq	%rsp, %rbp
	.cfi_def_cfa_register 6
	subq	$16, %rsp
	movq	%rdi, -8(%rbp)
	movq	-8(%rbp), %rax
	movq	(%rax), %rax
	testq	%rax, %rax
	je	.L329
	movq	-8(%rbp), %rax
	movq	(%rax), %rax
	movq	%rax, %rdi
	call	_ZNSt7__cxx1112basic_stringIcSt11char_traitsIcESaIcEE10_M_disposeEv
.L329:
	nop
	leave
	.cfi_def_cfa 7, 8
	ret
	.cfi_endproc
.LFE3530:
	.section	.gcc_except_table
.LLSDA3530:
	.byte	0xff
	.byte	0xff
	.byte	0x1
	.uleb128 .LLSDACSE3530-.LLSDACSB3530
.LLSDACSB3530:
.LLSDACSE3530:
	.section	.text._ZZNSt7__cxx1112basic_stringIcSt11char_traitsIcESaIcEE12_M_constructIPKcEEvT_S8_St20forward_iterator_tagEN6_GuardD2Ev,"axG",@progbits,_ZZNSt7__cxx1112basic_stringIcSt11char_traitsIcESaIcEE12_M_constructIPKcEEvT_S8_St20forward_iterator_tagEN6_GuardD5Ev,comdat
	.size	_ZZNSt7__cxx1112basic_stringIcSt11char_traitsIcESaIcEE12_M_constructIPKcEEvT_S8_St20forward_iterator_tagEN6_GuardD2Ev, .-_ZZNSt7__cxx1112basic_stringIcSt11char_traitsIcESaIcEE12_M_constructIPKcEEvT_S8_St20forward_iterator_tagEN6_GuardD2Ev
	.weak	_ZZNSt7__cxx1112basic_stringIcSt11char_traitsIcESaIcEE12_M_constructIPKcEEvT_S8_St20forward_iterator_tagEN6_GuardD1Ev
	.set	_ZZNSt7__cxx1112basic_stringIcSt11char_traitsIcESaIcEE12_M_constructIPKcEEvT_S8_St20forward_iterator_tagEN6_GuardD1Ev,_ZZNSt7__cxx1112basic_stringIcSt11char_traitsIcESaIcEE12_M_constructIPKcEEvT_S8_St20forward_iterator_tagEN6_GuardD2Ev
	.section	.text._ZNSt7__cxx1112basic_stringIcSt11char_traitsIcESaIcEE12_M_constructIPKcEEvT_S8_St20forward_iterator_tag,"axG",@progbits,_ZNSt7__cxx1112basic_stringIcSt11char_traitsIcESaIcEE12_M_constructIPKcEEvT_S8_St20forward_iterator_tag,comdat
	.align 2
	.weak	_ZNSt7__cxx1112basic_stringIcSt11char_traitsIcESaIcEE12_M_constructIPKcEEvT_S8_St20forward_iterator_tag
	.type	_ZNSt7__cxx1112basic_stringIcSt11char_traitsIcESaIcEE12_M_constructIPKcEEvT_S8_St20forward_iterator_tag, @function
_ZNSt7__cxx1112basic_stringIcSt11char_traitsIcESaIcEE12_M_constructIPKcEEvT_S8_St20forward_iterator_tag:
.LFB3525:
	.cfi_startproc
	pushq	%rbp
	.cfi_def_cfa_offset 16
	.cfi_offset 6, -16
	movq	%rsp, %rbp
	.cfi_def_cfa_register 6
	subq	$96, %rsp
	movq	%rdi, -72(%rbp)
	movq	%rsi, -80(%rbp)
	movq	%rdx, -88(%rbp)
	movq	%fs:40, %rax
	movq	%rax, -8(%rbp)
	xorl	%eax, %eax
	movq	-80(%rbp), %rax
	movq	%rax, -48(%rbp)
	movq	-88(%rbp), %rax
	movq	%rax, -40(%rbp)
	nop
	movq	-48(%rbp), %rax
	movq	%rax, -32(%rbp)
	movq	-40(%rbp), %rax
	movq	%rax, -24(%rbp)
	movq	-24(%rbp), %rax
	subq	-32(%rbp), %rax
	nop
	movq	%rax, -56(%rbp)
	movq	-56(%rbp), %rax
	cmpq	$15, %rax
	jbe	.L334
	leaq	-56(%rbp), %rcx
	movq	-72(%rbp), %rax
	movl	$0, %edx
	movq	%rcx, %rsi
	movq	%rax, %rdi
	call	_ZNSt7__cxx1112basic_stringIcSt11char_traitsIcESaIcEE9_M_createERmm
	movq	%rax, %rdx
	movq	-72(%rbp), %rax
	movq	%rdx, %rsi
	movq	%rax, %rdi
	call	_ZNSt7__cxx1112basic_stringIcSt11char_traitsIcESaIcEE7_M_dataEPc
	movq	-56(%rbp), %rdx
	movq	-72(%rbp), %rax
	movq	%rdx, %rsi
	movq	%rax, %rdi
	call	_ZNSt7__cxx1112basic_stringIcSt11char_traitsIcESaIcEE11_M_capacityEm
	jmp	.L335
.L334:
	movq	-72(%rbp), %rax
	movq	%rax, -16(%rbp)
	nop
.L335:
	movq	-72(%rbp), %rdx
	leaq	-48(%rbp), %rax
	movq	%rdx, %rsi
	movq	%rax, %rdi
	call	_ZZNSt7__cxx1112basic_stringIcSt11char_traitsIcESaIcEE12_M_constructIPKcEEvT_S8_St20forward_iterator_tagEN6_GuardC1EPS4_
	movq	-72(%rbp), %rax
	movq	%rax, %rdi
	call	_ZNKSt7__cxx1112basic_stringIcSt11char_traitsIcESaIcEE7_M_dataEv
	movq	%rax, %rcx
	movq	-88(%rbp), %rdx
	movq	-80(%rbp), %rax
	movq	%rax, %rsi
	movq	%rcx, %rdi
	call	_ZNSt7__cxx1112basic_stringIcSt11char_traitsIcESaIcEE13_S_copy_charsIPKcEEvPcT_S9_
	movq	$0, -48(%rbp)
	movq	-56(%rbp), %rdx
	movq	-72(%rbp), %rax
	movq	%rdx, %rsi
	movq	%rax, %rdi
	call	_ZNSt7__cxx1112basic_stringIcSt11char_traitsIcESaIcEE13_M_set_lengthEm
	leaq	-48(%rbp), %rax
	movq	%rax, %rdi
	call	_ZZNSt7__cxx1112basic_stringIcSt11char_traitsIcESaIcEE12_M_constructIPKcEEvT_S8_St20forward_iterator_tagEN6_GuardD1Ev
	movq	-8(%rbp), %rax
	subq	%fs:40, %rax
	je	.L336
	call	__stack_chk_fail@PLT
.L336:
	leave
	.cfi_def_cfa 7, 8
	ret
	.cfi_endproc
.LFE3525:
	.size	_ZNSt7__cxx1112basic_stringIcSt11char_traitsIcESaIcEE12_M_constructIPKcEEvT_S8_St20forward_iterator_tag, .-_ZNSt7__cxx1112basic_stringIcSt11char_traitsIcESaIcEE12_M_constructIPKcEEvT_S8_St20forward_iterator_tag
	.section	.text._ZNSt12_Vector_baseImSaImEE17_Vector_impl_dataC2Ev,"axG",@progbits,_ZNSt12_Vector_baseImSaImEE17_Vector_impl_dataC5Ev,comdat
	.align 2
	.weak	_ZNSt12_Vector_baseImSaImEE17_Vector_impl_dataC2Ev
	.type	_ZNSt12_Vector_baseImSaImEE17_Vector_impl_dataC2Ev, @function
_ZNSt12_Vector_baseImSaImEE17_Vector_impl_dataC2Ev:
.LFB3596:
	.cfi_startproc
	pushq	%rbp
	.cfi_def_cfa_offset 16
	.cfi_offset 6, -16
	movq	%rsp, %rbp
	.cfi_def_cfa_register 6
	movq	%rdi, -8(%rbp)
	movq	-8(%rbp), %rax
	movq	$0, (%rax)
	movq	-8(%rbp), %rax
	movq	$0, 8(%rax)
	movq	-8(%rbp), %rax
	movq	$0, 16(%rax)
	nop
	popq	%rbp
	.cfi_def_cfa 7, 8
	ret
	.cfi_endproc
.LFE3596:
	.size	_ZNSt12_Vector_baseImSaImEE17_Vector_impl_dataC2Ev, .-_ZNSt12_Vector_baseImSaImEE17_Vector_impl_dataC2Ev
	.weak	_ZNSt12_Vector_baseImSaImEE17_Vector_impl_dataC1Ev
	.set	_ZNSt12_Vector_baseImSaImEE17_Vector_impl_dataC1Ev,_ZNSt12_Vector_baseImSaImEE17_Vector_impl_dataC2Ev
	.section	.text._ZNSt15__new_allocatorImED2Ev,"axG",@progbits,_ZNSt15__new_allocatorImED5Ev,comdat
	.align 2
	.weak	_ZNSt15__new_allocatorImED2Ev
	.type	_ZNSt15__new_allocatorImED2Ev, @function
_ZNSt15__new_allocatorImED2Ev:
.LFB3599:
	.cfi_startproc
	pushq	%rbp
	.cfi_def_cfa_offset 16
	.cfi_offset 6, -16
	movq	%rsp, %rbp
	.cfi_def_cfa_register 6
	movq	%rdi, -8(%rbp)
	nop
	popq	%rbp
	.cfi_def_cfa 7, 8
	ret
	.cfi_endproc
.LFE3599:
	.size	_ZNSt15__new_allocatorImED2Ev, .-_ZNSt15__new_allocatorImED2Ev
	.weak	_ZNSt15__new_allocatorImED1Ev
	.set	_ZNSt15__new_allocatorImED1Ev,_ZNSt15__new_allocatorImED2Ev
	.section	.text._ZNSt12_Vector_baseImSaImEE13_M_deallocateEPmm,"axG",@progbits,_ZNSt12_Vector_baseImSaImEE13_M_deallocateEPmm,comdat
	.align 2
	.weak	_ZNSt12_Vector_baseImSaImEE13_M_deallocateEPmm
	.type	_ZNSt12_Vector_baseImSaImEE13_M_deallocateEPmm, @function
_ZNSt12_Vector_baseImSaImEE13_M_deallocateEPmm:
.LFB3601:
	.cfi_startproc
	pushq	%rbp
	.cfi_def_cfa_offset 16
	.cfi_offset 6, -16
	movq	%rsp, %rbp
	.cfi_def_cfa_register 6
	subq	$64, %rsp
	movq	%rdi, -40(%rbp)
	movq	%rsi, -48(%rbp)
	movq	%rdx, -56(%rbp)
	cmpq	$0, -48(%rbp)
	je	.L341
	movq	-40(%rbp), %rax
	movq	%rax, -24(%rbp)
	movq	-48(%rbp), %rax
	movq	%rax, -16(%rbp)
	movq	-56(%rbp), %rax
	movq	%rax, -8(%rbp)
	movq	-8(%rbp), %rdx
	movq	-16(%rbp), %rcx
	movq	-24(%rbp), %rax
	movq	%rcx, %rsi
	movq	%rax, %rdi
	call	_ZNSt15__new_allocatorImE10deallocateEPmm
	nop
.L341:
	nop
	leave
	.cfi_def_cfa 7, 8
	ret
	.cfi_endproc
.LFE3601:
	.size	_ZNSt12_Vector_baseImSaImEE13_M_deallocateEPmm, .-_ZNSt12_Vector_baseImSaImEE13_M_deallocateEPmm
	.section	.text._ZNSt12_Vector_baseImSaImEE19_M_get_Tp_allocatorEv,"axG",@progbits,_ZNSt12_Vector_baseImSaImEE19_M_get_Tp_allocatorEv,comdat
	.align 2
	.weak	_ZNSt12_Vector_baseImSaImEE19_M_get_Tp_allocatorEv
	.type	_ZNSt12_Vector_baseImSaImEE19_M_get_Tp_allocatorEv, @function
_ZNSt12_Vector_baseImSaImEE19_M_get_Tp_allocatorEv:
.LFB3602:
	.cfi_startproc
	pushq	%rbp
	.cfi_def_cfa_offset 16
	.cfi_offset 6, -16
	movq	%rsp, %rbp
	.cfi_def_cfa_register 6
	movq	%rdi, -8(%rbp)
	movq	-8(%rbp), %rax
	popq	%rbp
	.cfi_def_cfa 7, 8
	ret
	.cfi_endproc
.LFE3602:
	.size	_ZNSt12_Vector_baseImSaImEE19_M_get_Tp_allocatorEv, .-_ZNSt12_Vector_baseImSaImEE19_M_get_Tp_allocatorEv
	.section	.text._ZNSt6vectorImSaImEE12emplace_backIJmEEERmDpOT_,"axG",@progbits,_ZNSt6vectorImSaImEE12emplace_backIJmEEERmDpOT_,comdat
	.align 2
	.weak	_ZNSt6vectorImSaImEE12emplace_backIJmEEERmDpOT_
	.type	_ZNSt6vectorImSaImEE12emplace_backIJmEEERmDpOT_, @function
_ZNSt6vectorImSaImEE12emplace_backIJmEEERmDpOT_:
.LFB3605:
	.cfi_startproc
	pushq	%rbp
	.cfi_def_cfa_offset 16
	.cfi_offset 6, -16
	movq	%rsp, %rbp
	.cfi_def_cfa_register 6
	pushq	%rbx
	subq	$104, %rsp
	.cfi_offset 3, -24
	movq	%rdi, -104(%rbp)
	movq	%rsi, -112(%rbp)
	movq	-104(%rbp), %rax
	movq	8(%rax), %rdx
	movq	-104(%rbp), %rax
	movq	16(%rax), %rax
	cmpq	%rax, %rdx
	je	.L345
	movq	-112(%rbp), %rax
	movq	%rax, -32(%rbp)
	movq	-32(%rbp), %rax
	movq	-104(%rbp), %rdx
	movq	8(%rdx), %rdx
	movq	-104(%rbp), %rcx
	movq	%rcx, -96(%rbp)
	movq	%rdx, -88(%rbp)
	movq	%rax, -80(%rbp)
	movq	-80(%rbp), %rax
	movq	%rax, -72(%rbp)
	movq	-72(%rbp), %rax
	movq	-88(%rbp), %rdx
	movq	%rdx, -64(%rbp)
	movq	%rax, -56(%rbp)
	movq	-96(%rbp), %rax
	movq	%rax, -48(%rbp)
	movq	-64(%rbp), %rbx
	movq	%rbx, %rsi
	movl	$8, %edi
	call	_ZnwmPv
	movq	-56(%rbp), %rdx
	movq	%rdx, -40(%rbp)
	movq	-40(%rbp), %rdx
	movq	(%rdx), %rdx
	movq	%rdx, (%rax)
	movl	$0, %edx
	testb	%dl, %dl
	je	.L349
	movq	%rbx, %rsi
	movq	%rax, %rdi
	call	_ZdlPvS_
.L349:
	nop
	nop
	movq	-104(%rbp), %rax
	movq	8(%rax), %rax
	leaq	8(%rax), %rdx
	movq	-104(%rbp), %rax
	movq	%rdx, 8(%rax)
	jmp	.L350
.L345:
	movq	-112(%rbp), %rax
	movq	%rax, -24(%rbp)
	movq	-24(%rbp), %rdx
	movq	-104(%rbp), %rax
	movq	%rdx, %rsi
	movq	%rax, %rdi
	call	_ZNSt6vectorImSaImEE17_M_realloc_appendIJmEEEvDpOT_
.L350:
	movq	-104(%rbp), %rax
	movq	%rax, %rdi
	call	_ZNSt6vectorImSaImEE4backEv
	movq	-8(%rbp), %rbx
	leave
	.cfi_def_cfa 7, 8
	ret
	.cfi_endproc
.LFE3605:
	.size	_ZNSt6vectorImSaImEE12emplace_backIJmEEERmDpOT_, .-_ZNSt6vectorImSaImEE12emplace_backIJmEEERmDpOT_
	.section	.text._ZNKSt16initializer_listImE5beginEv,"axG",@progbits,_ZNKSt16initializer_listImE5beginEv,comdat
	.align 2
	.weak	_ZNKSt16initializer_listImE5beginEv
	.type	_ZNKSt16initializer_listImE5beginEv, @function
_ZNKSt16initializer_listImE5beginEv:
.LFB3606:
	.cfi_startproc
	pushq	%rbp
	.cfi_def_cfa_offset 16
	.cfi_offset 6, -16
	movq	%rsp, %rbp
	.cfi_def_cfa_register 6
	movq	%rdi, -8(%rbp)
	movq	-8(%rbp), %rax
	movq	(%rax), %rax
	popq	%rbp
	.cfi_def_cfa 7, 8
	ret
	.cfi_endproc
.LFE3606:
	.size	_ZNKSt16initializer_listImE5beginEv, .-_ZNKSt16initializer_listImE5beginEv
	.section	.text._ZNKSt16initializer_listImE3endEv,"axG",@progbits,_ZNKSt16initializer_listImE3endEv,comdat
	.align 2
	.weak	_ZNKSt16initializer_listImE3endEv
	.type	_ZNKSt16initializer_listImE3endEv, @function
_ZNKSt16initializer_listImE3endEv:
.LFB3607:
	.cfi_startproc
	pushq	%rbp
	.cfi_def_cfa_offset 16
	.cfi_offset 6, -16
	movq	%rsp, %rbp
	.cfi_def_cfa_register 6
	pushq	%rbx
	subq	$24, %rsp
	.cfi_offset 3, -24
	movq	%rdi, -24(%rbp)
	movq	-24(%rbp), %rax
	movq	%rax, %rdi
	call	_ZNKSt16initializer_listImE5beginEv
	movq	%rax, %rbx
	movq	-24(%rbp), %rax
	movq	%rax, %rdi
	call	_ZNKSt16initializer_listImE4sizeEv
	salq	$3, %rax
	addq	%rbx, %rax
	movq	-8(%rbp), %rbx
	leave
	.cfi_def_cfa 7, 8
	ret
	.cfi_endproc
.LFE3607:
	.size	_ZNKSt16initializer_listImE3endEv, .-_ZNKSt16initializer_listImE3endEv
	.section	.text._ZNSt6vectorImSaImEE13_M_assign_auxIPKmEEvT_S5_St20forward_iterator_tag,"axG",@progbits,_ZNSt6vectorImSaImEE13_M_assign_auxIPKmEEvT_S5_St20forward_iterator_tag,comdat
	.align 2
	.weak	_ZNSt6vectorImSaImEE13_M_assign_auxIPKmEEvT_S5_St20forward_iterator_tag
	.type	_ZNSt6vectorImSaImEE13_M_assign_auxIPKmEEvT_S5_St20forward_iterator_tag, @function
_ZNSt6vectorImSaImEE13_M_assign_auxIPKmEEvT_S5_St20forward_iterator_tag:
.LFB3608:
	.cfi_startproc
	pushq	%rbp
	.cfi_def_cfa_offset 16
	.cfi_offset 6, -16
	movq	%rsp, %rbp
	.cfi_def_cfa_register 6
	subq	$160, %rsp
	movq	%rdi, -136(%rbp)
	movq	%rsi, -144(%rbp)
	movq	%rdx, -152(%rbp)
	movq	%fs:40, %rax
	movq	%rax, -8(%rbp)
	xorl	%eax, %eax
	movq	-136(%rbp), %rax
	movq	%rax, %rdi
	call	_ZNKSt6vectorImSaImEE4sizeEv
	movq	%rax, -112(%rbp)
	movq	-144(%rbp), %rax
	movq	%rax, -120(%rbp)
	movq	-152(%rbp), %rax
	movq	%rax, -80(%rbp)
	nop
	movq	-120(%rbp), %rax
	movq	%rax, -72(%rbp)
	movq	-80(%rbp), %rax
	movq	%rax, -64(%rbp)
	movq	-64(%rbp), %rax
	subq	-72(%rbp), %rax
	sarq	$3, %rax
	nop
	movq	%rax, -104(%rbp)
	movq	-136(%rbp), %rax
	movq	%rax, %rdi
	call	_ZNKSt6vectorImSaImEE8capacityEv
	cmpq	-104(%rbp), %rax
	setb	%al
	testb	%al, %al
	je	.L361
	movq	-104(%rbp), %rax
	cmpq	%rax, -112(%rbp)
	movq	-136(%rbp), %rax
	movq	%rax, %rdi
	call	_ZNSt12_Vector_baseImSaImEE19_M_get_Tp_allocatorEv
	movq	%rax, %rdx
	movq	-104(%rbp), %rax
	movq	%rdx, %rsi
	movq	%rax, %rdi
	call	_ZNSt6vectorImSaImEE17_S_check_init_lenEmRKS0_
	movq	-152(%rbp), %rcx
	movq	-144(%rbp), %rdx
	movq	-104(%rbp), %rsi
	movq	-136(%rbp), %rax
	movq	%rax, %rdi
	call	_ZNSt6vectorImSaImEE20_M_allocate_and_copyIPKmEEPmmT_S6_
	movq	%rax, -88(%rbp)
	movq	-136(%rbp), %rax
	movq	%rax, %rdi
	call	_ZNSt12_Vector_baseImSaImEE19_M_get_Tp_allocatorEv
	movq	-136(%rbp), %rdx
	movq	8(%rdx), %rdx
	movq	-136(%rbp), %rcx
	movq	(%rcx), %rcx
	movq	%rcx, -56(%rbp)
	movq	%rdx, -48(%rbp)
	movq	%rax, -40(%rbp)
	movq	-48(%rbp), %rdx
	movq	-56(%rbp), %rax
	movq	%rdx, %rsi
	movq	%rax, %rdi
	call	_ZSt8_DestroyIPmEvT_S1_
	nop
	movq	-136(%rbp), %rax
	movq	-136(%rbp), %rdx
	movq	16(%rdx), %rcx
	movq	-136(%rbp), %rdx
	movq	(%rdx), %rdx
	subq	%rdx, %rcx
	sarq	$3, %rcx
	movq	%rcx, %rdx
	movq	%rdx, %rsi
	movq	-136(%rbp), %rdx
	movq	(%rdx), %rcx
	movq	%rsi, %rdx
	movq	%rcx, %rsi
	movq	%rax, %rdi
	call	_ZNSt12_Vector_baseImSaImEE13_M_deallocateEPmm
	movq	-136(%rbp), %rax
	movq	-88(%rbp), %rdx
	movq	%rdx, (%rax)
	movq	-136(%rbp), %rax
	movq	(%rax), %rax
	movq	-104(%rbp), %rdx
	salq	$3, %rdx
	addq	%rax, %rdx
	movq	-136(%rbp), %rax
	movq	%rdx, 8(%rax)
	movq	-136(%rbp), %rax
	movq	8(%rax), %rdx
	movq	-136(%rbp), %rax
	movq	%rdx, 16(%rax)
	jmp	.L367
.L361:
	movq	-112(%rbp), %rax
	cmpq	-104(%rbp), %rax
	jb	.L364
	movq	-136(%rbp), %rax
	movq	(%rax), %rdx
	movq	-152(%rbp), %rcx
	movq	-144(%rbp), %rax
	movq	%rcx, %rsi
	movq	%rax, %rdi
	call	_ZSt4copyIPKmPmET0_T_S4_S3_
	movq	%rax, %rdx
	movq	-136(%rbp), %rax
	movq	%rdx, %rsi
	movq	%rax, %rdi
	call	_ZNSt6vectorImSaImEE15_M_erase_at_endEPm
	jmp	.L367
.L364:
	movq	-144(%rbp), %rax
	movq	%rax, -120(%rbp)
	movq	-112(%rbp), %rax
	movq	%rax, -32(%rbp)
	movq	-32(%rbp), %rax
	movq	%rax, -24(%rbp)
	leaq	-120(%rbp), %rax
	movq	%rax, -16(%rbp)
	nop
	movq	-24(%rbp), %rdx
	leaq	-120(%rbp), %rax
	movq	%rdx, %rsi
	movq	%rax, %rdi
	call	_ZSt9__advanceIPKmlEvRT_T0_St26random_access_iterator_tag
	nop
	movq	-136(%rbp), %rax
	movq	(%rax), %rdx
	movq	-120(%rbp), %rcx
	movq	-144(%rbp), %rax
	movq	%rcx, %rsi
	movq	%rax, %rdi
	call	_ZSt4copyIPKmPmET0_T_S4_S3_
	movq	-104(%rbp), %rax
	subq	-112(%rbp), %rax
	movq	%rax, -96(%rbp)
	movq	-136(%rbp), %rax
	movq	%rax, %rdi
	call	_ZNSt12_Vector_baseImSaImEE19_M_get_Tp_allocatorEv
	movq	%rax, %rcx
	movq	-136(%rbp), %rax
	movq	8(%rax), %rdx
	movq	-120(%rbp), %rax
	movq	-152(%rbp), %rsi
	movq	%rax, %rdi
	call	_ZSt22__uninitialized_copy_aIPKmS1_PmmET1_T_T0_S3_RSaIT2_E
	movq	-136(%rbp), %rdx
	movq	%rax, 8(%rdx)
.L367:
	nop
	movq	-8(%rbp), %rax
	subq	%fs:40, %rax
	je	.L366
	call	__stack_chk_fail@PLT
.L366:
	leave
	.cfi_def_cfa 7, 8
	ret
	.cfi_endproc
.LFE3608:
	.size	_ZNSt6vectorImSaImEE13_M_assign_auxIPKmEEvT_S5_St20forward_iterator_tag, .-_ZNSt6vectorImSaImEE13_M_assign_auxIPKmEEvT_S5_St20forward_iterator_tag
	.section	.text._ZNKSt7__cxx1112basic_stringIcSt11char_traitsIcESaIcEE4findEPKcmm,"axG",@progbits,_ZNKSt7__cxx1112basic_stringIcSt11char_traitsIcESaIcEE4findEPKcmm,comdat
	.align 2
	.weak	_ZNKSt7__cxx1112basic_stringIcSt11char_traitsIcESaIcEE4findEPKcmm
	.type	_ZNKSt7__cxx1112basic_stringIcSt11char_traitsIcESaIcEE4findEPKcmm, @function
_ZNKSt7__cxx1112basic_stringIcSt11char_traitsIcESaIcEE4findEPKcmm:
.LFB3631:
	.cfi_startproc
	.cfi_personality 0x9b,DW.ref.__gxx_personality_v0
	.cfi_lsda 0x1b,.LLSDA3631
	pushq	%rbp
	.cfi_def_cfa_offset 16
	.cfi_offset 6, -16
	movq	%rsp, %rbp
	.cfi_def_cfa_register 6
	subq	$96, %rsp
	movq	%rdi, -72(%rbp)
	movq	%rsi, -80(%rbp)
	movq	%rdx, -88(%rbp)
	movq	%rcx, -96(%rbp)
	movq	%fs:40, %rax
	movq	%rax, -8(%rbp)
	xorl	%eax, %eax
	movq	-72(%rbp), %rax
	movq	%rax, %rdi
	call	_ZNKSt7__cxx1112basic_stringIcSt11char_traitsIcESaIcEE4sizeEv
	movq	%rax, -32(%rbp)
	cmpq	$0, -96(%rbp)
	jne	.L369
	movq	-88(%rbp), %rax
	cmpq	%rax, -32(%rbp)
	jb	.L370
	leaq	-88(%rbp), %rax
	movq	(%rax), %rax
	jmp	.L378
.L370:
	movq	$-1, %rax
	jmp	.L378
.L369:
	movq	-88(%rbp), %rax
	cmpq	-32(%rbp), %rax
	jb	.L373
	movq	$-1, %rax
	jmp	.L378
.L373:
	movq	-80(%rbp), %rax
	movzbl	(%rax), %eax
	movb	%al, -49(%rbp)
	movq	-72(%rbp), %rax
	movq	%rax, %rdi
	call	_ZNKSt7__cxx1112basic_stringIcSt11char_traitsIcESaIcEE4dataEv
	movq	%rax, -24(%rbp)
	movq	-88(%rbp), %rdx
	movq	-24(%rbp), %rax
	addq	%rdx, %rax
	movq	%rax, -48(%rbp)
	movq	-24(%rbp), %rdx
	movq	-32(%rbp), %rax
	addq	%rdx, %rax
	movq	%rax, -16(%rbp)
	movq	-88(%rbp), %rax
	movq	-32(%rbp), %rdx
	subq	%rax, %rdx
	movq	%rdx, -40(%rbp)
	jmp	.L374
.L377:
	movq	-40(%rbp), %rax
	subq	-96(%rbp), %rax
	leaq	1(%rax), %rcx
	leaq	-49(%rbp), %rdx
	movq	-48(%rbp), %rax
	movq	%rcx, %rsi
	movq	%rax, %rdi
	call	_ZNSt11char_traitsIcE4findEPKcmRS1_
	movq	%rax, -48(%rbp)
	cmpq	$0, -48(%rbp)
	jne	.L375
	movq	$-1, %rax
	jmp	.L378
.L375:
	movq	-96(%rbp), %rdx
	movq	-80(%rbp), %rcx
	movq	-48(%rbp), %rax
	movq	%rcx, %rsi
	movq	%rax, %rdi
	call	_ZNSt11char_traitsIcE7compareEPKcS2_m
	testl	%eax, %eax
	sete	%al
	testb	%al, %al
	je	.L376
	movq	-48(%rbp), %rax
	subq	-24(%rbp), %rax
	jmp	.L378
.L376:
	addq	$1, -48(%rbp)
	movq	-16(%rbp), %rax
	subq	-48(%rbp), %rax
	movq	%rax, -40(%rbp)
.L374:
	movq	-40(%rbp), %rax
	cmpq	-96(%rbp), %rax
	jnb	.L377
	movq	$-1, %rax
.L378:
	movq	-8(%rbp), %rdx
	subq	%fs:40, %rdx
	je	.L379
	call	__stack_chk_fail@PLT
.L379:
	leave
	.cfi_def_cfa 7, 8
	ret
	.cfi_endproc
.LFE3631:
	.section	.gcc_except_table
.LLSDA3631:
	.byte	0xff
	.byte	0xff
	.byte	0x1
	.uleb128 .LLSDACSE3631-.LLSDACSB3631
.LLSDACSB3631:
.LLSDACSE3631:
	.section	.text._ZNKSt7__cxx1112basic_stringIcSt11char_traitsIcESaIcEE4findEPKcmm,"axG",@progbits,_ZNKSt7__cxx1112basic_stringIcSt11char_traitsIcESaIcEE4findEPKcmm,comdat
	.size	_ZNKSt7__cxx1112basic_stringIcSt11char_traitsIcESaIcEE4findEPKcmm, .-_ZNKSt7__cxx1112basic_stringIcSt11char_traitsIcESaIcEE4findEPKcmm
	.section	.rodata
	.align 8
.LC61:
	.string	"%s: __pos (which is %zu) > this->size() (which is %zu)"
	.section	.text._ZNKSt7__cxx1112basic_stringIcSt11char_traitsIcESaIcEE8_M_checkEmPKc,"axG",@progbits,_ZNKSt7__cxx1112basic_stringIcSt11char_traitsIcESaIcEE8_M_checkEmPKc,comdat
	.align 2
	.weak	_ZNKSt7__cxx1112basic_stringIcSt11char_traitsIcESaIcEE8_M_checkEmPKc
	.type	_ZNKSt7__cxx1112basic_stringIcSt11char_traitsIcESaIcEE8_M_checkEmPKc, @function
_ZNKSt7__cxx1112basic_stringIcSt11char_traitsIcESaIcEE8_M_checkEmPKc:
.LFB3632:
	.cfi_startproc
	pushq	%rbp
	.cfi_def_cfa_offset 16
	.cfi_offset 6, -16
	movq	%rsp, %rbp
	.cfi_def_cfa_register 6
	subq	$32, %rsp
	movq	%rdi, -8(%rbp)
	movq	%rsi, -16(%rbp)
	movq	%rdx, -24(%rbp)
	movq	-8(%rbp), %rax
	movq	%rax, %rdi
	call	_ZNKSt7__cxx1112basic_stringIcSt11char_traitsIcESaIcEE4sizeEv
	cmpq	-16(%rbp), %rax
	setb	%al
	testb	%al, %al
	je	.L381
	movq	-8(%rbp), %rax
	movq	%rax, %rdi
	call	_ZNKSt7__cxx1112basic_stringIcSt11char_traitsIcESaIcEE4sizeEv
	movq	%rax, %rcx
	movq	-16(%rbp), %rdx
	movq	-24(%rbp), %rax
	leaq	.LC61(%rip), %rdi
	movq	%rax, %rsi
	movl	$0, %eax
	call	_ZSt24__throw_out_of_range_fmtPKcz@PLT
.L381:
	movq	-16(%rbp), %rax
	leave
	.cfi_def_cfa 7, 8
	ret
	.cfi_endproc
.LFE3632:
	.size	_ZNKSt7__cxx1112basic_stringIcSt11char_traitsIcESaIcEE8_M_checkEmPKc, .-_ZNKSt7__cxx1112basic_stringIcSt11char_traitsIcESaIcEE8_M_checkEmPKc
	.section	.rodata
.LC62:
	.string	"basic_string::basic_string"
	.section	.text._ZNSt7__cxx1112basic_stringIcSt11char_traitsIcESaIcEEC2ERKS4_mm,"axG",@progbits,_ZNSt7__cxx1112basic_stringIcSt11char_traitsIcESaIcEEC5ERKS4_mm,comdat
	.align 2
	.weak	_ZNSt7__cxx1112basic_stringIcSt11char_traitsIcESaIcEEC2ERKS4_mm
	.type	_ZNSt7__cxx1112basic_stringIcSt11char_traitsIcESaIcEEC2ERKS4_mm, @function
_ZNSt7__cxx1112basic_stringIcSt11char_traitsIcESaIcEEC2ERKS4_mm:
.LFB3634:
	.cfi_startproc
	.cfi_personality 0x9b,DW.ref.__gxx_personality_v0
	.cfi_lsda 0x1b,.LLSDA3634
	pushq	%rbp
	.cfi_def_cfa_offset 16
	.cfi_offset 6, -16
	movq	%rsp, %rbp
	.cfi_def_cfa_register 6
	pushq	%rbx
	subq	$72, %rsp
	.cfi_offset 3, -24
	movq	%rdi, -56(%rbp)
	movq	%rsi, -64(%rbp)
	movq	%rdx, -72(%rbp)
	movq	%rcx, -80(%rbp)
	movq	%fs:40, %rax
	movq	%rax, -24(%rbp)
	xorl	%eax, %eax
	movq	-56(%rbp), %rbx
	leaq	-41(%rbp), %rax
	movq	%rax, -32(%rbp)
	nop
	nop
	movq	-56(%rbp), %rax
	movq	%rax, %rdi
	call	_ZNSt7__cxx1112basic_stringIcSt11char_traitsIcESaIcEE13_M_local_dataEv
	movq	%rax, %rcx
	leaq	-41(%rbp), %rax
	movq	%rax, %rdx
	movq	%rcx, %rsi
	movq	%rbx, %rdi
	call	_ZNSt7__cxx1112basic_stringIcSt11char_traitsIcESaIcEE12_Alloc_hiderC1EPcOS3_
	leaq	-41(%rbp), %rax
	movq	%rax, %rdi
	call	_ZNSt15__new_allocatorIcED2Ev
	nop
	movq	-64(%rbp), %rax
	movq	%rax, %rdi
	call	_ZNKSt7__cxx1112basic_stringIcSt11char_traitsIcESaIcEE7_M_dataEv
	movq	%rax, %rbx
	leaq	.LC62(%rip), %rdx
	movq	-72(%rbp), %rcx
	movq	-64(%rbp), %rax
	movq	%rcx, %rsi
	movq	%rax, %rdi
.LEHB20:
	call	_ZNKSt7__cxx1112basic_stringIcSt11char_traitsIcESaIcEE8_M_checkEmPKc
	addq	%rbx, %rax
	movq	%rax, -40(%rbp)
	movq	-80(%rbp), %rdx
	movq	-72(%rbp), %rcx
	movq	-64(%rbp), %rax
	movq	%rcx, %rsi
	movq	%rax, %rdi
	call	_ZNKSt7__cxx1112basic_stringIcSt11char_traitsIcESaIcEE8_M_limitEmm
	movq	-40(%rbp), %rdx
	addq	%rax, %rdx
	movq	-40(%rbp), %rcx
	movq	-56(%rbp), %rax
	movq	%rcx, %rsi
	movq	%rax, %rdi
	call	_ZNSt7__cxx1112basic_stringIcSt11char_traitsIcESaIcEE12_M_constructIPKcEEvT_S8_St20forward_iterator_tag
.LEHE20:
	jmp	.L388
.L387:
	movq	%rax, %rbx
	movq	-56(%rbp), %rax
	movq	%rax, %rdi
	call	_ZNSt7__cxx1112basic_stringIcSt11char_traitsIcESaIcEE12_Alloc_hiderD1Ev
	movq	%rbx, %rax
	movq	-24(%rbp), %rdx
	subq	%fs:40, %rdx
	je	.L385
	call	__stack_chk_fail@PLT
.L385:
	movq	%rax, %rdi
.LEHB21:
	call	_Unwind_Resume@PLT
.LEHE21:
.L388:
	movq	-24(%rbp), %rax
	subq	%fs:40, %rax
	je	.L386
	call	__stack_chk_fail@PLT
.L386:
	movq	-8(%rbp), %rbx
	leave
	.cfi_def_cfa 7, 8
	ret
	.cfi_endproc
.LFE3634:
	.section	.gcc_except_table
.LLSDA3634:
	.byte	0xff
	.byte	0xff
	.byte	0x1
	.uleb128 .LLSDACSE3634-.LLSDACSB3634
.LLSDACSB3634:
	.uleb128 .LEHB20-.LFB3634
	.uleb128 .LEHE20-.LEHB20
	.uleb128 .L387-.LFB3634
	.uleb128 0
	.uleb128 .LEHB21-.LFB3634
	.uleb128 .LEHE21-.LEHB21
	.uleb128 0
	.uleb128 0
.LLSDACSE3634:
	.section	.text._ZNSt7__cxx1112basic_stringIcSt11char_traitsIcESaIcEEC2ERKS4_mm,"axG",@progbits,_ZNSt7__cxx1112basic_stringIcSt11char_traitsIcESaIcEEC5ERKS4_mm,comdat
	.size	_ZNSt7__cxx1112basic_stringIcSt11char_traitsIcESaIcEEC2ERKS4_mm, .-_ZNSt7__cxx1112basic_stringIcSt11char_traitsIcESaIcEEC2ERKS4_mm
	.weak	_ZNSt7__cxx1112basic_stringIcSt11char_traitsIcESaIcEEC1ERKS4_mm
	.set	_ZNSt7__cxx1112basic_stringIcSt11char_traitsIcESaIcEEC1ERKS4_mm,_ZNSt7__cxx1112basic_stringIcSt11char_traitsIcESaIcEEC2ERKS4_mm
	.section	.text._ZNSt7__cxx1112basic_stringIcSt11char_traitsIcESaIcEE10_M_destroyEm,"axG",@progbits,_ZNSt7__cxx1112basic_stringIcSt11char_traitsIcESaIcEE10_M_destroyEm,comdat
	.align 2
	.weak	_ZNSt7__cxx1112basic_stringIcSt11char_traitsIcESaIcEE10_M_destroyEm
	.type	_ZNSt7__cxx1112basic_stringIcSt11char_traitsIcESaIcEE10_M_destroyEm, @function
_ZNSt7__cxx1112basic_stringIcSt11char_traitsIcESaIcEE10_M_destroyEm:
.LFB3637:
	.cfi_startproc
	pushq	%rbp
	.cfi_def_cfa_offset 16
	.cfi_offset 6, -16
	movq	%rsp, %rbp
	.cfi_def_cfa_register 6
	pushq	%r12
	pushq	%rbx
	subq	$48, %rsp
	.cfi_offset 12, -24
	.cfi_offset 3, -32
	movq	%rdi, -56(%rbp)
	movq	%rsi, -64(%rbp)
	movq	-64(%rbp), %rax
	leaq	1(%rax), %r12
	movq	-56(%rbp), %rax
	movq	%rax, %rdi
	call	_ZNKSt7__cxx1112basic_stringIcSt11char_traitsIcESaIcEE7_M_dataEv
	movq	%rax, %rbx
	movq	-56(%rbp), %rax
	movq	%rax, %rdi
	call	_ZNSt7__cxx1112basic_stringIcSt11char_traitsIcESaIcEE16_M_get_allocatorEv
	movq	%rax, -40(%rbp)
	movq	%rbx, -32(%rbp)
	movq	%r12, -24(%rbp)
	movq	-24(%rbp), %rdx
	movq	-32(%rbp), %rcx
	movq	-40(%rbp), %rax
	movq	%rcx, %rsi
	movq	%rax, %rdi
	call	_ZNSt15__new_allocatorIcE10deallocateEPcm
	nop
	nop
	addq	$48, %rsp
	popq	%rbx
	popq	%r12
	popq	%rbp
	.cfi_def_cfa 7, 8
	ret
	.cfi_endproc
.LFE3637:
	.size	_ZNSt7__cxx1112basic_stringIcSt11char_traitsIcESaIcEE10_M_destroyEm, .-_ZNSt7__cxx1112basic_stringIcSt11char_traitsIcESaIcEE10_M_destroyEm
	.section	.text._ZNSt7__cxx1112basic_stringIcSt11char_traitsIcESaIcEE7_S_copyEPcPKcm,"axG",@progbits,_ZNSt7__cxx1112basic_stringIcSt11char_traitsIcESaIcEE7_S_copyEPcPKcm,comdat
	.weak	_ZNSt7__cxx1112basic_stringIcSt11char_traitsIcESaIcEE7_S_copyEPcPKcm
	.type	_ZNSt7__cxx1112basic_stringIcSt11char_traitsIcESaIcEE7_S_copyEPcPKcm, @function
_ZNSt7__cxx1112basic_stringIcSt11char_traitsIcESaIcEE7_S_copyEPcPKcm:
.LFB3640:
	.cfi_startproc
	pushq	%rbp
	.cfi_def_cfa_offset 16
	.cfi_offset 6, -16
	movq	%rsp, %rbp
	.cfi_def_cfa_register 6
	subq	$32, %rsp
	movq	%rdi, -8(%rbp)
	movq	%rsi, -16(%rbp)
	movq	%rdx, -24(%rbp)
	cmpq	$1, -24(%rbp)
	jne	.L391
	movq	-16(%rbp), %rdx
	movq	-8(%rbp), %rax
	movq	%rdx, %rsi
	movq	%rax, %rdi
	call	_ZNSt11char_traitsIcE6assignERcRKc
	jmp	.L393
.L391:
	movq	-24(%rbp), %rdx
	movq	-16(%rbp), %rcx
	movq	-8(%rbp), %rax
	movq	%rcx, %rsi
	movq	%rax, %rdi
	call	_ZNSt11char_traitsIcE4copyEPcPKcm
.L393:
	nop
	leave
	.cfi_def_cfa 7, 8
	ret
	.cfi_endproc
.LFE3640:
	.size	_ZNSt7__cxx1112basic_stringIcSt11char_traitsIcESaIcEE7_S_copyEPcPKcm, .-_ZNSt7__cxx1112basic_stringIcSt11char_traitsIcESaIcEE7_S_copyEPcPKcm
	.section	.text._ZNSt7__cxx1112basic_stringIcSt11char_traitsIcESaIcEE9_M_assignERKS4_,"axG",@progbits,_ZNSt7__cxx1112basic_stringIcSt11char_traitsIcESaIcEE9_M_assignERKS4_,comdat
	.align 2
	.weak	_ZNSt7__cxx1112basic_stringIcSt11char_traitsIcESaIcEE9_M_assignERKS4_
	.type	_ZNSt7__cxx1112basic_stringIcSt11char_traitsIcESaIcEE9_M_assignERKS4_, @function
_ZNSt7__cxx1112basic_stringIcSt11char_traitsIcESaIcEE9_M_assignERKS4_:
.LFB3641:
	.cfi_startproc
	pushq	%rbp
	.cfi_def_cfa_offset 16
	.cfi_offset 6, -16
	movq	%rsp, %rbp
	.cfi_def_cfa_register 6
	pushq	%rbx
	subq	$72, %rsp
	.cfi_offset 3, -24
	movq	%rdi, -72(%rbp)
	movq	%rsi, -80(%rbp)
	movq	%fs:40, %rax
	movq	%rax, -24(%rbp)
	xorl	%eax, %eax
	movq	-80(%rbp), %rax
	movq	%rax, -32(%rbp)
	movq	-32(%rbp), %rax
	cmpq	%rax, -72(%rbp)
	setne	%al
	testb	%al, %al
	je	.L400
	movq	-80(%rbp), %rax
	movq	%rax, %rdi
	call	_ZNKSt7__cxx1112basic_stringIcSt11char_traitsIcESaIcEE6lengthEv
	movq	%rax, -56(%rbp)
	movq	-72(%rbp), %rax
	movq	%rax, %rdi
	call	_ZNKSt7__cxx1112basic_stringIcSt11char_traitsIcESaIcEE8capacityEv
	movq	%rax, -48(%rbp)
	movq	-56(%rbp), %rax
	cmpq	%rax, -48(%rbp)
	jnb	.L397
	movq	-56(%rbp), %rax
	movq	%rax, -64(%rbp)
	movq	-48(%rbp), %rdx
	leaq	-64(%rbp), %rcx
	movq	-72(%rbp), %rax
	movq	%rcx, %rsi
	movq	%rax, %rdi
	call	_ZNSt7__cxx1112basic_stringIcSt11char_traitsIcESaIcEE9_M_createERmm
	movq	%rax, -40(%rbp)
	movq	-72(%rbp), %rax
	movq	%rax, %rdi
	call	_ZNSt7__cxx1112basic_stringIcSt11char_traitsIcESaIcEE10_M_disposeEv
	movq	-40(%rbp), %rdx
	movq	-72(%rbp), %rax
	movq	%rdx, %rsi
	movq	%rax, %rdi
	call	_ZNSt7__cxx1112basic_stringIcSt11char_traitsIcESaIcEE7_M_dataEPc
	movq	-64(%rbp), %rdx
	movq	-72(%rbp), %rax
	movq	%rdx, %rsi
	movq	%rax, %rdi
	call	_ZNSt7__cxx1112basic_stringIcSt11char_traitsIcESaIcEE11_M_capacityEm
.L397:
	cmpq	$0, -56(%rbp)
	je	.L398
	movq	-80(%rbp), %rax
	movq	%rax, %rdi
	call	_ZNKSt7__cxx1112basic_stringIcSt11char_traitsIcESaIcEE7_M_dataEv
	movq	%rax, %rbx
	movq	-72(%rbp), %rax
	movq	%rax, %rdi
	call	_ZNKSt7__cxx1112basic_stringIcSt11char_traitsIcESaIcEE7_M_dataEv
	movq	%rax, %rcx
	movq	-56(%rbp), %rax
	movq	%rax, %rdx
	movq	%rbx, %rsi
	movq	%rcx, %rdi
	call	_ZNSt7__cxx1112basic_stringIcSt11char_traitsIcESaIcEE7_S_copyEPcPKcm
.L398:
	movq	-56(%rbp), %rdx
	movq	-72(%rbp), %rax
	movq	%rdx, %rsi
	movq	%rax, %rdi
	call	_ZNSt7__cxx1112basic_stringIcSt11char_traitsIcESaIcEE13_M_set_lengthEm
.L400:
	nop
	movq	-24(%rbp), %rax
	subq	%fs:40, %rax
	je	.L399
	call	__stack_chk_fail@PLT
.L399:
	movq	-8(%rbp), %rbx
	leave
	.cfi_def_cfa 7, 8
	ret
	.cfi_endproc
.LFE3641:
	.size	_ZNSt7__cxx1112basic_stringIcSt11char_traitsIcESaIcEE9_M_assignERKS4_, .-_ZNSt7__cxx1112basic_stringIcSt11char_traitsIcESaIcEE9_M_assignERKS4_
	.section	.text._ZNSt7__cxx1112basic_stringIcSt11char_traitsIcESaIcEE5clearEv,"axG",@progbits,_ZNSt7__cxx1112basic_stringIcSt11char_traitsIcESaIcEE5clearEv,comdat
	.align 2
	.weak	_ZNSt7__cxx1112basic_stringIcSt11char_traitsIcESaIcEE5clearEv
	.type	_ZNSt7__cxx1112basic_stringIcSt11char_traitsIcESaIcEE5clearEv, @function
_ZNSt7__cxx1112basic_stringIcSt11char_traitsIcESaIcEE5clearEv:
.LFB3642:
	.cfi_startproc
	pushq	%rbp
	.cfi_def_cfa_offset 16
	.cfi_offset 6, -16
	movq	%rsp, %rbp
	.cfi_def_cfa_register 6
	subq	$16, %rsp
	movq	%rdi, -8(%rbp)
	movq	-8(%rbp), %rax
	movl	$0, %esi
	movq	%rax, %rdi
	call	_ZNSt7__cxx1112basic_stringIcSt11char_traitsIcESaIcEE13_M_set_lengthEm
	nop
	leave
	.cfi_def_cfa 7, 8
	ret
	.cfi_endproc
.LFE3642:
	.size	_ZNSt7__cxx1112basic_stringIcSt11char_traitsIcESaIcEE5clearEv, .-_ZNSt7__cxx1112basic_stringIcSt11char_traitsIcESaIcEE5clearEv
	.section	.text._ZNSt7__cxx1112basic_stringIcSt11char_traitsIcESaIcEE6assignEPKc,"axG",@progbits,_ZNSt7__cxx1112basic_stringIcSt11char_traitsIcESaIcEE6assignEPKc,comdat
	.align 2
	.weak	_ZNSt7__cxx1112basic_stringIcSt11char_traitsIcESaIcEE6assignEPKc
	.type	_ZNSt7__cxx1112basic_stringIcSt11char_traitsIcESaIcEE6assignEPKc, @function
_ZNSt7__cxx1112basic_stringIcSt11char_traitsIcESaIcEE6assignEPKc:
.LFB3643:
	.cfi_startproc
	pushq	%rbp
	.cfi_def_cfa_offset 16
	.cfi_offset 6, -16
	movq	%rsp, %rbp
	.cfi_def_cfa_register 6
	pushq	%rbx
	subq	$24, %rsp
	.cfi_offset 3, -24
	movq	%rdi, -24(%rbp)
	movq	%rsi, -32(%rbp)
	movq	-32(%rbp), %rax
	movq	%rax, %rdi
	call	_ZNSt11char_traitsIcE6lengthEPKc
	movq	%rax, %rbx
	movq	-24(%rbp), %rax
	movq	%rax, %rdi
	call	_ZNKSt7__cxx1112basic_stringIcSt11char_traitsIcESaIcEE4sizeEv
	movq	%rax, %rsi
	movq	-32(%rbp), %rdx
	movq	-24(%rbp), %rax
	movq	%rbx, %r8
	movq	%rdx, %rcx
	movq	%rsi, %rdx
	movl	$0, %esi
	movq	%rax, %rdi
	call	_ZNSt7__cxx1112basic_stringIcSt11char_traitsIcESaIcEE10_M_replaceEmmPKcm
	movq	-8(%rbp), %rbx
	leave
	.cfi_def_cfa 7, 8
	ret
	.cfi_endproc
.LFE3643:
	.size	_ZNSt7__cxx1112basic_stringIcSt11char_traitsIcESaIcEE6assignEPKc, .-_ZNSt7__cxx1112basic_stringIcSt11char_traitsIcESaIcEE6assignEPKc
	.section	.rodata
.LC63:
	.string	"__pos <= size()"
	.align 8
.LC64:
	.ascii	"std::__cxx11::bas"
	.string	"ic_string<_CharT, _Traits, _Alloc>::reference std::__cxx11::basic_string<_CharT, _Traits, _Alloc>::operator[](size_type) [with _CharT = char; _Traits = std::char_traits<char>; _Alloc = std::allocator<char>; reference = char&; size_type = long unsigned int]"
	.section	.text._ZNSt7__cxx1112basic_stringIcSt11char_traitsIcESaIcEEixEm,"axG",@progbits,_ZNSt7__cxx1112basic_stringIcSt11char_traitsIcESaIcEEixEm,comdat
	.align 2
	.weak	_ZNSt7__cxx1112basic_stringIcSt11char_traitsIcESaIcEEixEm
	.type	_ZNSt7__cxx1112basic_stringIcSt11char_traitsIcESaIcEEixEm, @function
_ZNSt7__cxx1112basic_stringIcSt11char_traitsIcESaIcEEixEm:
.LFB3644:
	.cfi_startproc
	pushq	%rbp
	.cfi_def_cfa_offset 16
	.cfi_offset 6, -16
	movq	%rsp, %rbp
	.cfi_def_cfa_register 6
	subq	$16, %rsp
	movq	%rdi, -8(%rbp)
	movq	%rsi, -16(%rbp)
	movq	-8(%rbp), %rax
	movq	%rax, %rdi
	call	_ZNKSt7__cxx1112basic_stringIcSt11char_traitsIcESaIcEE4sizeEv
	cmpq	-16(%rbp), %rax
	setb	%al
	movzbl	%al, %eax
	testq	%rax, %rax
	setne	%al
	testb	%al, %al
	je	.L405
	leaq	.LC63(%rip), %rcx
	leaq	.LC64(%rip), %rdx
	leaq	.LC59(%rip), %rax
	movl	$1369, %esi
	movq	%rax, %rdi
	call	_ZSt21__glibcxx_assert_failPKciS0_S0_@PLT
.L405:
	movq	-8(%rbp), %rax
	movq	%rax, %rdi
	call	_ZNKSt7__cxx1112basic_stringIcSt11char_traitsIcESaIcEE7_M_dataEv
	movq	-16(%rbp), %rdx
	addq	%rdx, %rax
	leave
	.cfi_def_cfa 7, 8
	ret
	.cfi_endproc
.LFE3644:
	.size	_ZNSt7__cxx1112basic_stringIcSt11char_traitsIcESaIcEEixEm, .-_ZNSt7__cxx1112basic_stringIcSt11char_traitsIcESaIcEEixEm
	.section	.text._ZNSt7__cxx1112basic_stringIcSt11char_traitsIcESaIcEE8_M_eraseEmm,"axG",@progbits,_ZNSt7__cxx1112basic_stringIcSt11char_traitsIcESaIcEE8_M_eraseEmm,comdat
	.align 2
	.weak	_ZNSt7__cxx1112basic_stringIcSt11char_traitsIcESaIcEE8_M_eraseEmm
	.type	_ZNSt7__cxx1112basic_stringIcSt11char_traitsIcESaIcEE8_M_eraseEmm, @function
_ZNSt7__cxx1112basic_stringIcSt11char_traitsIcESaIcEE8_M_eraseEmm:
.LFB3645:
	.cfi_startproc
	pushq	%rbp
	.cfi_def_cfa_offset 16
	.cfi_offset 6, -16
	movq	%rsp, %rbp
	.cfi_def_cfa_register 6
	pushq	%rbx
	subq	$56, %rsp
	.cfi_offset 3, -24
	movq	%rdi, -40(%rbp)
	movq	%rsi, -48(%rbp)
	movq	%rdx, -56(%rbp)
	movq	-40(%rbp), %rax
	movq	%rax, %rdi
	call	_ZNKSt7__cxx1112basic_stringIcSt11char_traitsIcESaIcEE6lengthEv
	subq	-48(%rbp), %rax
	subq	-56(%rbp), %rax
	movq	%rax, -24(%rbp)
	cmpq	$0, -24(%rbp)
	je	.L408
	cmpq	$0, -56(%rbp)
	je	.L408
	movq	-40(%rbp), %rax
	movq	%rax, %rdi
	call	_ZNKSt7__cxx1112basic_stringIcSt11char_traitsIcESaIcEE7_M_dataEv
	movq	-48(%rbp), %rcx
	movq	-56(%rbp), %rdx
	addq	%rcx, %rdx
	leaq	(%rax,%rdx), %rbx
	movq	-40(%rbp), %rax
	movq	%rax, %rdi
	call	_ZNKSt7__cxx1112basic_stringIcSt11char_traitsIcESaIcEE7_M_dataEv
	movq	-48(%rbp), %rdx
	leaq	(%rax,%rdx), %rcx
	movq	-24(%rbp), %rax
	movq	%rax, %rdx
	movq	%rbx, %rsi
	movq	%rcx, %rdi
	call	_ZNSt7__cxx1112basic_stringIcSt11char_traitsIcESaIcEE7_S_moveEPcPKcm
.L408:
	movq	-40(%rbp), %rax
	movq	%rax, %rdi
	call	_ZNKSt7__cxx1112basic_stringIcSt11char_traitsIcESaIcEE6lengthEv
	subq	-56(%rbp), %rax
	movq	%rax, %rdx
	movq	-40(%rbp), %rax
	movq	%rdx, %rsi
	movq	%rax, %rdi
	call	_ZNSt7__cxx1112basic_stringIcSt11char_traitsIcESaIcEE13_M_set_lengthEm
	nop
	movq	-8(%rbp), %rbx
	leave
	.cfi_def_cfa 7, 8
	ret
	.cfi_endproc
.LFE3645:
	.size	_ZNSt7__cxx1112basic_stringIcSt11char_traitsIcESaIcEE8_M_eraseEmm, .-_ZNSt7__cxx1112basic_stringIcSt11char_traitsIcESaIcEE8_M_eraseEmm
	.section	.text._ZNSt6chrono8durationIdSt5ratioILl1ELl1EEEC2IlS1_ILl1ELl1000000000EEvEERKNS0_IT_T0_EE,"axG",@progbits,_ZNSt6chrono8durationIdSt5ratioILl1ELl1EEEC5IlS1_ILl1ELl1000000000EEvEERKNS0_IT_T0_EE,comdat
	.align 2
	.weak	_ZNSt6chrono8durationIdSt5ratioILl1ELl1EEEC2IlS1_ILl1ELl1000000000EEvEERKNS0_IT_T0_EE
	.type	_ZNSt6chrono8durationIdSt5ratioILl1ELl1EEEC2IlS1_ILl1ELl1000000000EEvEERKNS0_IT_T0_EE, @function
_ZNSt6chrono8durationIdSt5ratioILl1ELl1EEEC2IlS1_ILl1ELl1000000000EEvEERKNS0_IT_T0_EE:
.LFB3650:
	.cfi_startproc
	pushq	%rbp
	.cfi_def_cfa_offset 16
	.cfi_offset 6, -16
	movq	%rsp, %rbp
	.cfi_def_cfa_register 6
	subq	$32, %rsp
	movq	%rdi, -24(%rbp)
	movq	%rsi, -32(%rbp)
	movq	%fs:40, %rax
	movq	%rax, -8(%rbp)
	xorl	%eax, %eax
	movq	-32(%rbp), %rax
	movq	%rax, %rdi
	call	_ZNSt6chrono13duration_castINS_8durationIdSt5ratioILl1ELl1EEEElS2_ILl1ELl1000000000EEEENSt9enable_ifIXsrNS_13__is_durationIT_EE5valueES8_E4typeERKNS1_IT0_T1_EE
	movsd	%xmm0, -16(%rbp)
	leaq	-16(%rbp), %rax
	movq	%rax, %rdi
	call	_ZNKSt6chrono8durationIdSt5ratioILl1ELl1EEE5countEv
	movq	%xmm0, %rax
	movq	-24(%rbp), %rdx
	movq	%rax, (%rdx)
	nop
	movq	-8(%rbp), %rax
	subq	%fs:40, %rax
	je	.L410
	call	__stack_chk_fail@PLT
.L410:
	leave
	.cfi_def_cfa 7, 8
	ret
	.cfi_endproc
.LFE3650:
	.size	_ZNSt6chrono8durationIdSt5ratioILl1ELl1EEEC2IlS1_ILl1ELl1000000000EEvEERKNS0_IT_T0_EE, .-_ZNSt6chrono8durationIdSt5ratioILl1ELl1EEEC2IlS1_ILl1ELl1000000000EEvEERKNS0_IT_T0_EE
	.weak	_ZNSt6chrono8durationIdSt5ratioILl1ELl1EEEC1IlS1_ILl1ELl1000000000EEvEERKNS0_IT_T0_EE
	.set	_ZNSt6chrono8durationIdSt5ratioILl1ELl1EEEC1IlS1_ILl1ELl1000000000EEvEERKNS0_IT_T0_EE,_ZNSt6chrono8durationIdSt5ratioILl1ELl1EEEC2IlS1_ILl1ELl1000000000EEvEERKNS0_IT_T0_EE
	.section	.text._ZNSt6chronomiIlSt5ratioILl1ELl1000000000EElS2_EENSt11common_typeIJNS_8durationIT_T0_EENS4_IT1_T2_EEEE4typeERKS7_RKSA_,"axG",@progbits,_ZNSt6chronomiIlSt5ratioILl1ELl1000000000EElS2_EENSt11common_typeIJNS_8durationIT_T0_EENS4_IT1_T2_EEEE4typeERKS7_RKSA_,comdat
	.weak	_ZNSt6chronomiIlSt5ratioILl1ELl1000000000EElS2_EENSt11common_typeIJNS_8durationIT_T0_EENS4_IT1_T2_EEEE4typeERKS7_RKSA_
	.type	_ZNSt6chronomiIlSt5ratioILl1ELl1000000000EElS2_EENSt11common_typeIJNS_8durationIT_T0_EENS4_IT1_T2_EEEE4typeERKS7_RKSA_, @function
_ZNSt6chronomiIlSt5ratioILl1ELl1000000000EElS2_EENSt11common_typeIJNS_8durationIT_T0_EENS4_IT1_T2_EEEE4typeERKS7_RKSA_:
.LFB3652:
	.cfi_startproc
	pushq	%rbp
	.cfi_def_cfa_offset 16
	.cfi_offset 6, -16
	movq	%rsp, %rbp
	.cfi_def_cfa_register 6
	pushq	%rbx
	subq	$72, %rsp
	.cfi_offset 3, -24
	movq	%rdi, -72(%rbp)
	movq	%rsi, -80(%rbp)
	movq	%fs:40, %rax
	movq	%rax, -24(%rbp)
	xorl	%eax, %eax
	movq	-72(%rbp), %rax
	movq	(%rax), %rax
	movq	%rax, -56(%rbp)
	leaq	-56(%rbp), %rax
	movq	%rax, %rdi
	call	_ZNKSt6chrono8durationIlSt5ratioILl1ELl1000000000EEE5countEv
	movq	%rax, %rbx
	movq	-80(%rbp), %rax
	movq	(%rax), %rax
	movq	%rax, -48(%rbp)
	leaq	-48(%rbp), %rax
	movq	%rax, %rdi
	call	_ZNKSt6chrono8durationIlSt5ratioILl1ELl1000000000EEE5countEv
	subq	%rax, %rbx
	movq	%rbx, %rdx
	movq	%rdx, -40(%rbp)
	leaq	-40(%rbp), %rdx
	leaq	-32(%rbp), %rax
	movq	%rdx, %rsi
	movq	%rax, %rdi
	call	_ZNSt6chrono8durationIlSt5ratioILl1ELl1000000000EEEC1IlvEERKT_
	movq	-32(%rbp), %rax
	movq	-24(%rbp), %rdx
	subq	%fs:40, %rdx
	je	.L413
	call	__stack_chk_fail@PLT
.L413:
	movq	-8(%rbp), %rbx
	leave
	.cfi_def_cfa 7, 8
	ret
	.cfi_endproc
.LFE3652:
	.size	_ZNSt6chronomiIlSt5ratioILl1ELl1000000000EElS2_EENSt11common_typeIJNS_8durationIT_T0_EENS4_IT1_T2_EEEE4typeERKS7_RKSA_, .-_ZNSt6chronomiIlSt5ratioILl1ELl1000000000EElS2_EENSt11common_typeIJNS_8durationIT_T0_EENS4_IT1_T2_EEEE4typeERKS7_RKSA_
	.section	.text._ZNKSt6chrono8durationIdSt5ratioILl1ELl1EEE5countEv,"axG",@progbits,_ZNKSt6chrono8durationIdSt5ratioILl1ELl1EEE5countEv,comdat
	.align 2
	.weak	_ZNKSt6chrono8durationIdSt5ratioILl1ELl1EEE5countEv
	.type	_ZNKSt6chrono8durationIdSt5ratioILl1ELl1EEE5countEv, @function
_ZNKSt6chrono8durationIdSt5ratioILl1ELl1EEE5countEv:
.LFB3653:
	.cfi_startproc
	pushq	%rbp
	.cfi_def_cfa_offset 16
	.cfi_offset 6, -16
	movq	%rsp, %rbp
	.cfi_def_cfa_register 6
	movq	%rdi, -8(%rbp)
	movq	-8(%rbp), %rax
	movsd	(%rax), %xmm0
	popq	%rbp
	.cfi_def_cfa 7, 8
	ret
	.cfi_endproc
.LFE3653:
	.size	_ZNKSt6chrono8durationIdSt5ratioILl1ELl1EEE5countEv, .-_ZNKSt6chrono8durationIdSt5ratioILl1ELl1EEE5countEv
	.section	.text._ZNSt19__ptr_traits_ptr_toIPccLb0EE10pointer_toERc,"axG",@progbits,_ZNSt19__ptr_traits_ptr_toIPccLb0EE10pointer_toERc,comdat
	.weak	_ZNSt19__ptr_traits_ptr_toIPccLb0EE10pointer_toERc
	.type	_ZNSt19__ptr_traits_ptr_toIPccLb0EE10pointer_toERc, @function
_ZNSt19__ptr_traits_ptr_toIPccLb0EE10pointer_toERc:
.LFB3654:
	.cfi_startproc
	pushq	%rbp
	.cfi_def_cfa_offset 16
	.cfi_offset 6, -16
	movq	%rsp, %rbp
	.cfi_def_cfa_register 6
	movq	%rdi, -24(%rbp)
	movq	-24(%rbp), %rax
	movq	%rax, -16(%rbp)
	movq	-16(%rbp), %rax
	movq	%rax, -8(%rbp)
	movq	-8(%rbp), %rax
	nop
	popq	%rbp
	.cfi_def_cfa 7, 8
	ret
	.cfi_endproc
.LFE3654:
	.size	_ZNSt19__ptr_traits_ptr_toIPccLb0EE10pointer_toERc, .-_ZNSt19__ptr_traits_ptr_toIPccLb0EE10pointer_toERc
	.section	.text._ZNKSt7__cxx1112basic_stringIcSt11char_traitsIcESaIcEE8capacityEv,"axG",@progbits,_ZNKSt7__cxx1112basic_stringIcSt11char_traitsIcESaIcEE8capacityEv,comdat
	.align 2
	.weak	_ZNKSt7__cxx1112basic_stringIcSt11char_traitsIcESaIcEE8capacityEv
	.type	_ZNKSt7__cxx1112basic_stringIcSt11char_traitsIcESaIcEE8capacityEv, @function
_ZNKSt7__cxx1112basic_stringIcSt11char_traitsIcESaIcEE8capacityEv:
.LFB3658:
	.cfi_startproc
	pushq	%rbp
	.cfi_def_cfa_offset 16
	.cfi_offset 6, -16
	movq	%rsp, %rbp
	.cfi_def_cfa_register 6
	subq	$32, %rsp
	movq	%rdi, -24(%rbp)
	movq	-24(%rbp), %rax
	movq	%rax, %rdi
	call	_ZNKSt7__cxx1112basic_stringIcSt11char_traitsIcESaIcEE11_M_is_localEv
	testb	%al, %al
	je	.L421
	movq	$15, -8(%rbp)
	jmp	.L422
.L421:
	movq	-24(%rbp), %rax
	movq	16(%rax), %rax
	movq	%rax, -8(%rbp)
.L422:
	cmpq	$14, -8(%rbp)
	jbe	.L423
	movq	-24(%rbp), %rax
	movq	%rax, %rdi
	call	_ZNKSt7__cxx1112basic_stringIcSt11char_traitsIcESaIcEE8max_sizeEv
	cmpq	-8(%rbp), %rax
	jnb	.L424
.L423:
	movl	$1, %eax
	jmp	.L425
.L424:
	movl	$0, %eax
.L425:
	testb	%al, %al
	movq	-8(%rbp), %rax
	leave
	.cfi_def_cfa 7, 8
	ret
	.cfi_endproc
.LFE3658:
	.size	_ZNKSt7__cxx1112basic_stringIcSt11char_traitsIcESaIcEE8capacityEv, .-_ZNKSt7__cxx1112basic_stringIcSt11char_traitsIcESaIcEE8capacityEv
	.section	.rodata
.LC65:
	.string	"basic_string::_M_create"
	.section	.text._ZNSt7__cxx1112basic_stringIcSt11char_traitsIcESaIcEE9_M_createERmm,"axG",@progbits,_ZNSt7__cxx1112basic_stringIcSt11char_traitsIcESaIcEE9_M_createERmm,comdat
	.align 2
	.weak	_ZNSt7__cxx1112basic_stringIcSt11char_traitsIcESaIcEE9_M_createERmm
	.type	_ZNSt7__cxx1112basic_stringIcSt11char_traitsIcESaIcEE9_M_createERmm, @function
_ZNSt7__cxx1112basic_stringIcSt11char_traitsIcESaIcEE9_M_createERmm:
.LFB3659:
	.cfi_startproc
	pushq	%rbp
	.cfi_def_cfa_offset 16
	.cfi_offset 6, -16
	movq	%rsp, %rbp
	.cfi_def_cfa_register 6
	pushq	%rbx
	subq	$40, %rsp
	.cfi_offset 3, -24
	movq	%rdi, -24(%rbp)
	movq	%rsi, -32(%rbp)
	movq	%rdx, -40(%rbp)
	movq	-32(%rbp), %rax
	movq	(%rax), %rbx
	movq	-24(%rbp), %rax
	movq	%rax, %rdi
	call	_ZNKSt7__cxx1112basic_stringIcSt11char_traitsIcESaIcEE8max_sizeEv
	cmpq	%rbx, %rax
	setb	%al
	testb	%al, %al
	je	.L429
	leaq	.LC65(%rip), %rax
	movq	%rax, %rdi
	call	_ZSt20__throw_length_errorPKc@PLT
.L429:
	movq	-32(%rbp), %rax
	movq	(%rax), %rax
	cmpq	%rax, -40(%rbp)
	jnb	.L430
	movq	-32(%rbp), %rax
	movq	(%rax), %rdx
	movq	-40(%rbp), %rax
	addq	%rax, %rax
	cmpq	%rax, %rdx
	jnb	.L430
	movq	-40(%rbp), %rax
	leaq	(%rax,%rax), %rdx
	movq	-32(%rbp), %rax
	movq	%rdx, (%rax)
	movq	-32(%rbp), %rax
	movq	(%rax), %rbx
	movq	-24(%rbp), %rax
	movq	%rax, %rdi
	call	_ZNKSt7__cxx1112basic_stringIcSt11char_traitsIcESaIcEE8max_sizeEv
	cmpq	%rbx, %rax
	setb	%al
	testb	%al, %al
	je	.L430
	movq	-24(%rbp), %rax
	movq	%rax, %rdi
	call	_ZNKSt7__cxx1112basic_stringIcSt11char_traitsIcESaIcEE8max_sizeEv
	movq	-32(%rbp), %rdx
	movq	%rax, (%rdx)
.L430:
	movq	-32(%rbp), %rax
	movq	(%rax), %rax
	leaq	1(%rax), %rbx
	movq	-24(%rbp), %rax
	movq	%rax, %rdi
	call	_ZNSt7__cxx1112basic_stringIcSt11char_traitsIcESaIcEE16_M_get_allocatorEv
	movq	%rbx, %rsi
	movq	%rax, %rdi
	call	_ZNSt7__cxx1112basic_stringIcSt11char_traitsIcESaIcEE11_S_allocateERS3_m
	movq	-8(%rbp), %rbx
	leave
	.cfi_def_cfa 7, 8
	ret
	.cfi_endproc
.LFE3659:
	.size	_ZNSt7__cxx1112basic_stringIcSt11char_traitsIcESaIcEE9_M_createERmm, .-_ZNSt7__cxx1112basic_stringIcSt11char_traitsIcESaIcEE9_M_createERmm
	.section	.text._ZNKSt7__cxx1112basic_stringIcSt11char_traitsIcESaIcEE13_M_local_dataEv,"axG",@progbits,_ZNKSt7__cxx1112basic_stringIcSt11char_traitsIcESaIcEE13_M_local_dataEv,comdat
	.align 2
	.weak	_ZNKSt7__cxx1112basic_stringIcSt11char_traitsIcESaIcEE13_M_local_dataEv
	.type	_ZNKSt7__cxx1112basic_stringIcSt11char_traitsIcESaIcEE13_M_local_dataEv, @function
_ZNKSt7__cxx1112basic_stringIcSt11char_traitsIcESaIcEE13_M_local_dataEv:
.LFB3660:
	.cfi_startproc
	pushq	%rbp
	.cfi_def_cfa_offset 16
	.cfi_offset 6, -16
	movq	%rsp, %rbp
	.cfi_def_cfa_register 6
	subq	$16, %rsp
	movq	%rdi, -8(%rbp)
	movq	-8(%rbp), %rax
	addq	$16, %rax
	movq	%rax, %rdi
	call	_ZNSt19__ptr_traits_ptr_toIPKcS0_Lb0EE10pointer_toERS0_
	leave
	.cfi_def_cfa 7, 8
	ret
	.cfi_endproc
.LFE3660:
	.size	_ZNKSt7__cxx1112basic_stringIcSt11char_traitsIcESaIcEE13_M_local_dataEv, .-_ZNKSt7__cxx1112basic_stringIcSt11char_traitsIcESaIcEE13_M_local_dataEv
	.section	.text._ZSt3minImERKT_S2_S2_,"axG",@progbits,_ZSt3minImERKT_S2_S2_,comdat
	.weak	_ZSt3minImERKT_S2_S2_
	.type	_ZSt3minImERKT_S2_S2_, @function
_ZSt3minImERKT_S2_S2_:
.LFB3683:
	.cfi_startproc
	pushq	%rbp
	.cfi_def_cfa_offset 16
	.cfi_offset 6, -16
	movq	%rsp, %rbp
	.cfi_def_cfa_register 6
	movq	%rdi, -8(%rbp)
	movq	%rsi, -16(%rbp)
	movq	-16(%rbp), %rax
	movq	(%rax), %rdx
	movq	-8(%rbp), %rax
	movq	(%rax), %rax
	cmpq	%rax, %rdx
	jnb	.L435
	movq	-16(%rbp), %rax
	jmp	.L436
.L435:
	movq	-8(%rbp), %rax
.L436:
	popq	%rbp
	.cfi_def_cfa 7, 8
	ret
	.cfi_endproc
.LFE3683:
	.size	_ZSt3minImERKT_S2_S2_, .-_ZSt3minImERKT_S2_S2_
	.section	.text._ZNKSt7__cxx1112basic_stringIcSt11char_traitsIcESaIcEE8max_sizeEv,"axG",@progbits,_ZNKSt7__cxx1112basic_stringIcSt11char_traitsIcESaIcEE8max_sizeEv,comdat
	.align 2
	.weak	_ZNKSt7__cxx1112basic_stringIcSt11char_traitsIcESaIcEE8max_sizeEv
	.type	_ZNKSt7__cxx1112basic_stringIcSt11char_traitsIcESaIcEE8max_sizeEv, @function
_ZNKSt7__cxx1112basic_stringIcSt11char_traitsIcESaIcEE8max_sizeEv:
.LFB3682:
	.cfi_startproc
	pushq	%rbp
	.cfi_def_cfa_offset 16
	.cfi_offset 6, -16
	movq	%rsp, %rbp
	.cfi_def_cfa_register 6
	subq	$64, %rsp
	movq	%rdi, -56(%rbp)
	movq	%fs:40, %rax
	movq	%rax, -8(%rbp)
	xorl	%eax, %eax
	movabsq	$9223372036854775807, %rax
	movq	%rax, -48(%rbp)
	movq	-56(%rbp), %rax
	movq	%rax, %rdi
	call	_ZNKSt7__cxx1112basic_stringIcSt11char_traitsIcESaIcEE16_M_get_allocatorEv
	movq	%rax, -32(%rbp)
	movq	-32(%rbp), %rax
	movq	%rax, -24(%rbp)
	movq	-24(%rbp), %rax
	movq	%rax, -16(%rbp)
	movabsq	$9223372036854775807, %rax
	nop
	nop
	movq	%rax, -40(%rbp)
	leaq	-40(%rbp), %rdx
	leaq	-48(%rbp), %rax
	movq	%rdx, %rsi
	movq	%rax, %rdi
	call	_ZSt3minImERKT_S2_S2_
	movq	(%rax), %rax
	subq	$1, %rax
	movq	-8(%rbp), %rdx
	subq	%fs:40, %rdx
	je	.L442
	call	__stack_chk_fail@PLT
.L442:
	leave
	.cfi_def_cfa 7, 8
	ret
	.cfi_endproc
.LFE3682:
	.size	_ZNKSt7__cxx1112basic_stringIcSt11char_traitsIcESaIcEE8max_sizeEv, .-_ZNKSt7__cxx1112basic_stringIcSt11char_traitsIcESaIcEE8max_sizeEv
	.section	.text._ZNSt7__cxx1112basic_stringIcSt11char_traitsIcESaIcEE13_S_copy_charsIPKcEEvPcT_S9_,"axG",@progbits,_ZNSt7__cxx1112basic_stringIcSt11char_traitsIcESaIcEE13_S_copy_charsIPKcEEvPcT_S9_,comdat
	.weak	_ZNSt7__cxx1112basic_stringIcSt11char_traitsIcESaIcEE13_S_copy_charsIPKcEEvPcT_S9_
	.type	_ZNSt7__cxx1112basic_stringIcSt11char_traitsIcESaIcEE13_S_copy_charsIPKcEEvPcT_S9_, @function
_ZNSt7__cxx1112basic_stringIcSt11char_traitsIcESaIcEE13_S_copy_charsIPKcEEvPcT_S9_:
.LFB3684:
	.cfi_startproc
	pushq	%rbp
	.cfi_def_cfa_offset 16
	.cfi_offset 6, -16
	movq	%rsp, %rbp
	.cfi_def_cfa_register 6
	subq	$48, %rsp
	movq	%rdi, -24(%rbp)
	movq	%rsi, -32(%rbp)
	movq	%rdx, -40(%rbp)
	movq	-40(%rbp), %rax
	subq	-32(%rbp), %rax
	movq	%rax, %rdx
	movq	-32(%rbp), %rax
	movq	%rax, -8(%rbp)
	movq	-8(%rbp), %rcx
	movq	-24(%rbp), %rax
	movq	%rcx, %rsi
	movq	%rax, %rdi
	call	_ZNSt7__cxx1112basic_stringIcSt11char_traitsIcESaIcEE7_S_copyEPcPKcm
	nop
	leave
	.cfi_def_cfa 7, 8
	ret
	.cfi_endproc
.LFE3684:
	.size	_ZNSt7__cxx1112basic_stringIcSt11char_traitsIcESaIcEE13_S_copy_charsIPKcEEvPcT_S9_, .-_ZNSt7__cxx1112basic_stringIcSt11char_traitsIcESaIcEE13_S_copy_charsIPKcEEvPcT_S9_
	.section	.text._ZSt8_DestroyIPmEvT_S1_,"axG",@progbits,_ZSt8_DestroyIPmEvT_S1_,comdat
	.weak	_ZSt8_DestroyIPmEvT_S1_
	.type	_ZSt8_DestroyIPmEvT_S1_, @function
_ZSt8_DestroyIPmEvT_S1_:
.LFB3727:
	.cfi_startproc
	pushq	%rbp
	.cfi_def_cfa_offset 16
	.cfi_offset 6, -16
	movq	%rsp, %rbp
	.cfi_def_cfa_register 6
	movq	%rdi, -8(%rbp)
	movq	%rsi, -16(%rbp)
	nop
	popq	%rbp
	.cfi_def_cfa 7, 8
	ret
	.cfi_endproc
.LFE3727:
	.size	_ZSt8_DestroyIPmEvT_S1_, .-_ZSt8_DestroyIPmEvT_S1_
	.section	.rodata
.LC66:
	.string	"vector::_M_realloc_append"
	.section	.text._ZNSt6vectorImSaImEE17_M_realloc_appendIJmEEEvDpOT_,"axG",@progbits,_ZNSt6vectorImSaImEE17_M_realloc_appendIJmEEEvDpOT_,comdat
	.align 2
	.weak	_ZNSt6vectorImSaImEE17_M_realloc_appendIJmEEEvDpOT_
	.type	_ZNSt6vectorImSaImEE17_M_realloc_appendIJmEEEvDpOT_, @function
_ZNSt6vectorImSaImEE17_M_realloc_appendIJmEEEvDpOT_:
.LFB3730:
	.cfi_startproc
	pushq	%rbp
	.cfi_def_cfa_offset 16
	.cfi_offset 6, -16
	movq	%rsp, %rbp
	.cfi_def_cfa_register 6
	pushq	%rbx
	subq	$216, %rsp
	.cfi_offset 3, -24
	movq	%rdi, -216(%rbp)
	movq	%rsi, -224(%rbp)
	movq	%fs:40, %rax
	movq	%rax, -24(%rbp)
	xorl	%eax, %eax
	leaq	.LC66(%rip), %rdx
	movq	-216(%rbp), %rax
	movl	$1, %esi
	movq	%rax, %rdi
	call	_ZNKSt6vectorImSaImEE12_M_check_lenEmPKc
	movq	%rax, -192(%rbp)
	cmpq	$0, -192(%rbp)
	movq	-216(%rbp), %rax
	movq	(%rax), %rax
	movq	%rax, -184(%rbp)
	movq	-216(%rbp), %rax
	movq	8(%rax), %rax
	movq	%rax, -176(%rbp)
	movq	-216(%rbp), %rax
	movq	%rax, %rdi
	call	_ZNSt6vectorImSaImEE5beginEv
	movq	%rax, -48(%rbp)
	movq	-216(%rbp), %rax
	movq	%rax, %rdi
	call	_ZNSt6vectorImSaImEE3endEv
	movq	%rax, -200(%rbp)
	leaq	-200(%rbp), %rax
	movq	%rax, -64(%rbp)
	movq	-64(%rbp), %rax
	movq	(%rax), %rdx
	leaq	-48(%rbp), %rax
	movq	%rax, -56(%rbp)
	movq	-56(%rbp), %rax
	movq	(%rax), %rax
	subq	%rax, %rdx
	movq	%rdx, %rax
	sarq	$3, %rax
	movq	%rax, -168(%rbp)
	movq	-216(%rbp), %rax
	movq	-192(%rbp), %rdx
	movq	%rdx, %rsi
	movq	%rax, %rdi
	call	_ZNSt12_Vector_baseImSaImEE11_M_allocateEm
	movq	%rax, -160(%rbp)
	movq	-160(%rbp), %rax
	movq	%rax, -152(%rbp)
	movq	-216(%rbp), %rcx
	movq	-192(%rbp), %rdx
	movq	-160(%rbp), %rsi
	leaq	-48(%rbp), %rax
	movq	%rax, %rdi
	call	_ZNSt6vectorImSaImEE12_Guard_allocC1EPmmRSt12_Vector_baseImS0_E
	movq	-224(%rbp), %rax
	movq	%rax, -72(%rbp)
	movq	-72(%rbp), %rax
	movq	-168(%rbp), %rdx
	leaq	0(,%rdx,8), %rcx
	movq	-160(%rbp), %rdx
	addq	%rcx, %rdx
	movq	%rdx, -80(%rbp)
	movq	-80(%rbp), %rdx
	movq	-216(%rbp), %rcx
	movq	%rcx, -144(%rbp)
	movq	%rdx, -136(%rbp)
	movq	%rax, -128(%rbp)
	movq	-128(%rbp), %rax
	movq	%rax, -120(%rbp)
	movq	-120(%rbp), %rax
	movq	-136(%rbp), %rdx
	movq	%rdx, -112(%rbp)
	movq	%rax, -104(%rbp)
	movq	-144(%rbp), %rax
	movq	%rax, -96(%rbp)
	movq	-112(%rbp), %rbx
	movq	%rbx, %rsi
	movl	$8, %edi
	call	_ZnwmPv
	movq	-104(%rbp), %rdx
	movq	%rdx, -88(%rbp)
	movq	-88(%rbp), %rdx
	movq	(%rdx), %rdx
	movq	%rdx, (%rax)
	movl	$0, %edx
	testb	%dl, %dl
	je	.L455
	movq	%rbx, %rsi
	movq	%rax, %rdi
	call	_ZdlPvS_
.L455:
	nop
	nop
	movq	-216(%rbp), %rax
	movq	%rax, %rdi
	call	_ZNSt12_Vector_baseImSaImEE19_M_get_Tp_allocatorEv
	movq	%rax, %rcx
	movq	-160(%rbp), %rdx
	movq	-176(%rbp), %rsi
	movq	-184(%rbp), %rax
	movq	%rax, %rdi
	call	_ZNSt6vectorImSaImEE11_S_relocateEPmS2_S2_RS0_
	movq	%rax, -152(%rbp)
	addq	$8, -152(%rbp)
	movq	-184(%rbp), %rax
	movq	%rax, -48(%rbp)
	movq	-216(%rbp), %rax
	movq	16(%rax), %rax
	subq	-184(%rbp), %rax
	sarq	$3, %rax
	movq	%rax, -40(%rbp)
	leaq	-48(%rbp), %rax
	movq	%rax, %rdi
	call	_ZNSt6vectorImSaImEE12_Guard_allocD1Ev
	movq	-216(%rbp), %rax
	movq	-160(%rbp), %rdx
	movq	%rdx, (%rax)
	movq	-216(%rbp), %rax
	movq	-152(%rbp), %rdx
	movq	%rdx, 8(%rax)
	movq	-192(%rbp), %rax
	leaq	0(,%rax,8), %rdx
	movq	-160(%rbp), %rax
	addq	%rax, %rdx
	movq	-216(%rbp), %rax
	movq	%rdx, 16(%rax)
	nop
	movq	-24(%rbp), %rax
	subq	%fs:40, %rax
	je	.L456
	call	__stack_chk_fail@PLT
.L456:
	movq	-8(%rbp), %rbx
	leave
	.cfi_def_cfa 7, 8
	ret
	.cfi_endproc
.LFE3730:
	.size	_ZNSt6vectorImSaImEE17_M_realloc_appendIJmEEEvDpOT_, .-_ZNSt6vectorImSaImEE17_M_realloc_appendIJmEEEvDpOT_
	.section	.rodata
.LC67:
	.string	"!this->empty()"
	.align 8
.LC68:
	.string	"std::vector<_Tp, _Alloc>::reference std::vector<_Tp, _Alloc>::back() [with _Tp = long unsigned int; _Alloc = std::allocator<long unsigned int>; reference = long unsigned int&]"
	.align 8
.LC69:
	.string	"/usr/include/c++/15.2.1/bits/stl_vector.h"
	.section	.text._ZNSt6vectorImSaImEE4backEv,"axG",@progbits,_ZNSt6vectorImSaImEE4backEv,comdat
	.align 2
	.weak	_ZNSt6vectorImSaImEE4backEv
	.type	_ZNSt6vectorImSaImEE4backEv, @function
_ZNSt6vectorImSaImEE4backEv:
.LFB3734:
	.cfi_startproc
	pushq	%rbp
	.cfi_def_cfa_offset 16
	.cfi_offset 6, -16
	movq	%rsp, %rbp
	.cfi_def_cfa_register 6
	subq	$64, %rsp
	movq	%rdi, -56(%rbp)
	movq	%fs:40, %rax
	movq	%rax, -8(%rbp)
	xorl	%eax, %eax
	movq	-56(%rbp), %rax
	movq	%rax, %rdi
	call	_ZNKSt6vectorImSaImEE5emptyEv
	movzbl	%al, %eax
	testq	%rax, %rax
	setne	%al
	testb	%al, %al
	je	.L458
	leaq	.LC67(%rip), %rcx
	leaq	.LC68(%rip), %rdx
	leaq	.LC69(%rip), %rax
	movl	$1370, %esi
	movq	%rax, %rdi
	call	_ZSt21__glibcxx_assert_failPKciS0_S0_@PLT
.L458:
	movq	-56(%rbp), %rax
	movq	%rax, %rdi
	call	_ZNSt6vectorImSaImEE3endEv
	movq	%rax, -40(%rbp)
	movq	$1, -16(%rbp)
	movq	-40(%rbp), %rax
	movq	-16(%rbp), %rdx
	salq	$3, %rdx
	negq	%rdx
	addq	%rdx, %rax
	movq	%rax, -32(%rbp)
	movq	-32(%rbp), %rax
	movq	%rax, -24(%rbp)
	nop
	movq	-24(%rbp), %rax
	movq	%rax, -24(%rbp)
	movq	-24(%rbp), %rax
	movq	-8(%rbp), %rdx
	subq	%fs:40, %rdx
	je	.L462
	call	__stack_chk_fail@PLT
.L462:
	leave
	.cfi_def_cfa 7, 8
	ret
	.cfi_endproc
.LFE3734:
	.size	_ZNSt6vectorImSaImEE4backEv, .-_ZNSt6vectorImSaImEE4backEv
	.section	.text._ZNKSt16initializer_listImE4sizeEv,"axG",@progbits,_ZNKSt16initializer_listImE4sizeEv,comdat
	.align 2
	.weak	_ZNKSt16initializer_listImE4sizeEv
	.type	_ZNKSt16initializer_listImE4sizeEv, @function
_ZNKSt16initializer_listImE4sizeEv:
.LFB3735:
	.cfi_startproc
	pushq	%rbp
	.cfi_def_cfa_offset 16
	.cfi_offset 6, -16
	movq	%rsp, %rbp
	.cfi_def_cfa_register 6
	movq	%rdi, -8(%rbp)
	movq	-8(%rbp), %rax
	movq	8(%rax), %rax
	popq	%rbp
	.cfi_def_cfa 7, 8
	ret
	.cfi_endproc
.LFE3735:
	.size	_ZNKSt16initializer_listImE4sizeEv, .-_ZNKSt16initializer_listImE4sizeEv
	.section	.text._ZNKSt6vectorImSaImEE4sizeEv,"axG",@progbits,_ZNKSt6vectorImSaImEE4sizeEv,comdat
	.align 2
	.weak	_ZNKSt6vectorImSaImEE4sizeEv
	.type	_ZNKSt6vectorImSaImEE4sizeEv, @function
_ZNKSt6vectorImSaImEE4sizeEv:
.LFB3736:
	.cfi_startproc
	pushq	%rbp
	.cfi_def_cfa_offset 16
	.cfi_offset 6, -16
	movq	%rsp, %rbp
	.cfi_def_cfa_register 6
	movq	%rdi, -24(%rbp)
	movq	-24(%rbp), %rax
	movq	8(%rax), %rdx
	movq	-24(%rbp), %rax
	movq	(%rax), %rax
	subq	%rax, %rdx
	movq	%rdx, %rax
	sarq	$3, %rax
	movq	%rax, -8(%rbp)
	cmpq	$0, -8(%rbp)
	movq	-8(%rbp), %rax
	popq	%rbp
	.cfi_def_cfa 7, 8
	ret
	.cfi_endproc
.LFE3736:
	.size	_ZNKSt6vectorImSaImEE4sizeEv, .-_ZNKSt6vectorImSaImEE4sizeEv
	.section	.text._ZNKSt6vectorImSaImEE8capacityEv,"axG",@progbits,_ZNKSt6vectorImSaImEE8capacityEv,comdat
	.align 2
	.weak	_ZNKSt6vectorImSaImEE8capacityEv
	.type	_ZNKSt6vectorImSaImEE8capacityEv, @function
_ZNKSt6vectorImSaImEE8capacityEv:
.LFB3739:
	.cfi_startproc
	pushq	%rbp
	.cfi_def_cfa_offset 16
	.cfi_offset 6, -16
	movq	%rsp, %rbp
	.cfi_def_cfa_register 6
	movq	%rdi, -24(%rbp)
	movq	-24(%rbp), %rax
	movq	16(%rax), %rdx
	movq	-24(%rbp), %rax
	movq	(%rax), %rax
	subq	%rax, %rdx
	movq	%rdx, %rax
	sarq	$3, %rax
	movq	%rax, -8(%rbp)
	cmpq	$0, -8(%rbp)
	movq	-8(%rbp), %rax
	popq	%rbp
	.cfi_def_cfa 7, 8
	ret
	.cfi_endproc
.LFE3739:
	.size	_ZNKSt6vectorImSaImEE8capacityEv, .-_ZNKSt6vectorImSaImEE8capacityEv
	.section	.rodata
	.align 8
.LC70:
	.string	"cannot create std::vector larger than max_size()"
	.section	.text._ZNSt6vectorImSaImEE17_S_check_init_lenEmRKS0_,"axG",@progbits,_ZNSt6vectorImSaImEE17_S_check_init_lenEmRKS0_,comdat
	.weak	_ZNSt6vectorImSaImEE17_S_check_init_lenEmRKS0_
	.type	_ZNSt6vectorImSaImEE17_S_check_init_lenEmRKS0_, @function
_ZNSt6vectorImSaImEE17_S_check_init_lenEmRKS0_:
.LFB3740:
	.cfi_startproc
	pushq	%rbp
	.cfi_def_cfa_offset 16
	.cfi_offset 6, -16
	movq	%rsp, %rbp
	.cfi_def_cfa_register 6
	pushq	%rbx
	subq	$72, %rsp
	.cfi_offset 3, -24
	movq	%rdi, -72(%rbp)
	movq	%rsi, -80(%rbp)
	movq	%fs:40, %rax
	movq	%rax, -24(%rbp)
	xorl	%eax, %eax
	movq	-80(%rbp), %rax
	movq	%rax, -48(%rbp)
	leaq	-49(%rbp), %rax
	movq	%rax, -40(%rbp)
	movq	-48(%rbp), %rax
	movq	%rax, -32(%rbp)
	nop
	nop
	leaq	-49(%rbp), %rax
	movq	%rax, %rdi
	call	_ZNSt6vectorImSaImEE11_S_max_sizeERKS0_
	cmpq	-72(%rbp), %rax
	setb	%bl
	leaq	-49(%rbp), %rax
	movq	%rax, %rdi
	call	_ZNSt15__new_allocatorImED2Ev
	nop
	testb	%bl, %bl
	je	.L472
	movq	-24(%rbp), %rax
	subq	%fs:40, %rax
	je	.L473
	call	__stack_chk_fail@PLT
.L473:
	leaq	.LC70(%rip), %rax
	movq	%rax, %rdi
	call	_ZSt20__throw_length_errorPKc@PLT
.L472:
	movq	-72(%rbp), %rax
	movq	-24(%rbp), %rdx
	subq	%fs:40, %rdx
	je	.L475
	call	__stack_chk_fail@PLT
.L475:
	movq	-8(%rbp), %rbx
	leave
	.cfi_def_cfa 7, 8
	ret
	.cfi_endproc
.LFE3740:
	.size	_ZNSt6vectorImSaImEE17_S_check_init_lenEmRKS0_, .-_ZNSt6vectorImSaImEE17_S_check_init_lenEmRKS0_
	.section	.text._ZNSt6vectorImSaImEE20_M_allocate_and_copyIPKmEEPmmT_S6_,"axG",@progbits,_ZNSt6vectorImSaImEE20_M_allocate_and_copyIPKmEEPmmT_S6_,comdat
	.align 2
	.weak	_ZNSt6vectorImSaImEE20_M_allocate_and_copyIPKmEEPmmT_S6_
	.type	_ZNSt6vectorImSaImEE20_M_allocate_and_copyIPKmEEPmmT_S6_, @function
_ZNSt6vectorImSaImEE20_M_allocate_and_copyIPKmEEPmmT_S6_:
.LFB3741:
	.cfi_startproc
	.cfi_personality 0x9b,DW.ref.__gxx_personality_v0
	.cfi_lsda 0x1b,.LLSDA3741
	pushq	%rbp
	.cfi_def_cfa_offset 16
	.cfi_offset 6, -16
	movq	%rsp, %rbp
	.cfi_def_cfa_register 6
	pushq	%rbx
	subq	$72, %rsp
	.cfi_offset 3, -24
	movq	%rdi, -56(%rbp)
	movq	%rsi, -64(%rbp)
	movq	%rdx, -72(%rbp)
	movq	%rcx, -80(%rbp)
	movq	%fs:40, %rax
	movq	%rax, -24(%rbp)
	xorl	%eax, %eax
	movq	-56(%rbp), %rbx
	movq	-56(%rbp), %rax
	movq	-64(%rbp), %rdx
	movq	%rdx, %rsi
	movq	%rax, %rdi
.LEHB22:
	call	_ZNSt12_Vector_baseImSaImEE11_M_allocateEm
.LEHE22:
	movq	%rax, %rsi
	movq	-64(%rbp), %rdx
	leaq	-48(%rbp), %rax
	movq	%rbx, %rcx
	movq	%rax, %rdi
	call	_ZNSt6vectorImSaImEE12_Guard_allocC1EPmmRSt12_Vector_baseImS0_E
	movq	-56(%rbp), %rax
	movq	%rax, %rdi
	call	_ZNSt12_Vector_baseImSaImEE19_M_get_Tp_allocatorEv
	movq	%rax, %rcx
	movq	-48(%rbp), %rdx
	movq	-80(%rbp), %rsi
	movq	-72(%rbp), %rax
	movq	%rax, %rdi
.LEHB23:
	call	_ZSt22__uninitialized_copy_aIPKmS1_PmmET1_T_T0_S3_RSaIT2_E
.LEHE23:
	leaq	-48(%rbp), %rax
	movq	%rax, %rdi
	call	_ZNSt6vectorImSaImEE12_Guard_alloc10_M_releaseEv
	movq	%rax, %rbx
	nop
	leaq	-48(%rbp), %rax
	movq	%rax, %rdi
	call	_ZNSt6vectorImSaImEE12_Guard_allocD1Ev
	movq	%rbx, %rax
	movq	-24(%rbp), %rdx
	subq	%fs:40, %rdx
	je	.L480
	jmp	.L482
.L481:
	movq	%rax, %rbx
	leaq	-48(%rbp), %rax
	movq	%rax, %rdi
	call	_ZNSt6vectorImSaImEE12_Guard_allocD1Ev
	movq	%rbx, %rax
	movq	-24(%rbp), %rdx
	subq	%fs:40, %rdx
	je	.L479
	call	__stack_chk_fail@PLT
.L479:
	movq	%rax, %rdi
.LEHB24:
	call	_Unwind_Resume@PLT
.LEHE24:
.L482:
	call	__stack_chk_fail@PLT
.L480:
	movq	-8(%rbp), %rbx
	leave
	.cfi_def_cfa 7, 8
	ret
	.cfi_endproc
.LFE3741:
	.section	.gcc_except_table
.LLSDA3741:
	.byte	0xff
	.byte	0xff
	.byte	0x1
	.uleb128 .LLSDACSE3741-.LLSDACSB3741
.LLSDACSB3741:
	.uleb128 .LEHB22-.LFB3741
	.uleb128 .LEHE22-.LEHB22
	.uleb128 0
	.uleb128 0
	.uleb128 .LEHB23-.LFB3741
	.uleb128 .LEHE23-.LEHB23
	.uleb128 .L481-.LFB3741
	.uleb128 0
	.uleb128 .LEHB24-.LFB3741
	.uleb128 .LEHE24-.LEHB24
	.uleb128 0
	.uleb128 0
.LLSDACSE3741:
	.section	.text._ZNSt6vectorImSaImEE20_M_allocate_and_copyIPKmEEPmmT_S6_,"axG",@progbits,_ZNSt6vectorImSaImEE20_M_allocate_and_copyIPKmEEPmmT_S6_,comdat
	.size	_ZNSt6vectorImSaImEE20_M_allocate_and_copyIPKmEEPmmT_S6_, .-_ZNSt6vectorImSaImEE20_M_allocate_and_copyIPKmEEPmmT_S6_
	.section	.text._ZNSt6vectorImSaImEE15_M_erase_at_endEPm,"axG",@progbits,_ZNSt6vectorImSaImEE15_M_erase_at_endEPm,comdat
	.align 2
	.weak	_ZNSt6vectorImSaImEE15_M_erase_at_endEPm
	.type	_ZNSt6vectorImSaImEE15_M_erase_at_endEPm, @function
_ZNSt6vectorImSaImEE15_M_erase_at_endEPm:
.LFB3742:
	.cfi_startproc
	pushq	%rbp
	.cfi_def_cfa_offset 16
	.cfi_offset 6, -16
	movq	%rsp, %rbp
	.cfi_def_cfa_register 6
	subq	$48, %rsp
	movq	%rdi, -40(%rbp)
	movq	%rsi, -48(%rbp)
	movq	-40(%rbp), %rax
	movq	8(%rax), %rax
	subq	-48(%rbp), %rax
	sarq	$3, %rax
	movq	%rax, -32(%rbp)
	cmpq	$0, -32(%rbp)
	je	.L485
	movq	-40(%rbp), %rax
	movq	%rax, %rdi
	call	_ZNSt12_Vector_baseImSaImEE19_M_get_Tp_allocatorEv
	movq	-40(%rbp), %rdx
	movq	8(%rdx), %rdx
	movq	-48(%rbp), %rcx
	movq	%rcx, -24(%rbp)
	movq	%rdx, -16(%rbp)
	movq	%rax, -8(%rbp)
	movq	-16(%rbp), %rdx
	movq	-24(%rbp), %rax
	movq	%rdx, %rsi
	movq	%rax, %rdi
	call	_ZSt8_DestroyIPmEvT_S1_
	nop
	movq	-40(%rbp), %rax
	movq	-48(%rbp), %rdx
	movq	%rdx, 8(%rax)
.L485:
	nop
	leave
	.cfi_def_cfa 7, 8
	ret
	.cfi_endproc
.LFE3742:
	.size	_ZNSt6vectorImSaImEE15_M_erase_at_endEPm, .-_ZNSt6vectorImSaImEE15_M_erase_at_endEPm
	.section	.text._ZSt4copyIPKmPmET0_T_S4_S3_,"axG",@progbits,_ZSt4copyIPKmPmET0_T_S4_S3_,comdat
	.weak	_ZSt4copyIPKmPmET0_T_S4_S3_
	.type	_ZSt4copyIPKmPmET0_T_S4_S3_, @function
_ZSt4copyIPKmPmET0_T_S4_S3_:
.LFB3743:
	.cfi_startproc
	pushq	%rbp
	.cfi_def_cfa_offset 16
	.cfi_offset 6, -16
	movq	%rsp, %rbp
	.cfi_def_cfa_register 6
	pushq	%rbx
	subq	$136, %rsp
	.cfi_offset 3, -24
	movq	%rdi, -120(%rbp)
	movq	%rsi, -128(%rbp)
	movq	%rdx, -136(%rbp)
	movq	%fs:40, %rax
	movq	%rax, -24(%rbp)
	xorl	%eax, %eax
	movq	-128(%rbp), %rax
	movq	%rax, %rdi
	call	_ZSt12__miter_baseIPKmET_S2_
	movq	%rax, %rbx
	movq	-120(%rbp), %rax
	movq	%rax, %rdi
	call	_ZSt12__miter_baseIPKmET_S2_
	movq	%rax, -96(%rbp)
	movq	%rbx, -88(%rbp)
	movq	-136(%rbp), %rax
	movq	%rax, -104(%rbp)
	movq	-104(%rbp), %rax
	movq	%rax, -80(%rbp)
	movq	-80(%rbp), %rax
	movq	-88(%rbp), %rdx
	movq	%rdx, -72(%rbp)
	movq	-72(%rbp), %rdx
	movq	-96(%rbp), %rcx
	movq	%rcx, -64(%rbp)
	movq	-64(%rbp), %rcx
	movq	%rcx, -56(%rbp)
	movq	%rdx, -48(%rbp)
	movq	%rax, -40(%rbp)
	movq	-40(%rbp), %rdx
	movq	-48(%rbp), %rcx
	movq	-56(%rbp), %rax
	movq	%rcx, %rsi
	movq	%rax, %rdi
	call	_ZSt14__copy_move_a2ILb0EPKmS1_PmET2_T0_T1_S3_
	nop
	movq	%rax, -32(%rbp)
	movq	-32(%rbp), %rax
	nop
	movq	-24(%rbp), %rdx
	subq	%fs:40, %rdx
	je	.L494
	call	__stack_chk_fail@PLT
.L494:
	movq	-8(%rbp), %rbx
	leave
	.cfi_def_cfa 7, 8
	ret
	.cfi_endproc
.LFE3743:
	.size	_ZSt4copyIPKmPmET0_T_S4_S3_, .-_ZSt4copyIPKmPmET0_T_S4_S3_
	.section	.text._ZSt22__uninitialized_copy_aIPKmS1_PmmET1_T_T0_S3_RSaIT2_E,"axG",@progbits,_ZSt22__uninitialized_copy_aIPKmS1_PmmET1_T_T0_S3_RSaIT2_E,comdat
	.weak	_ZSt22__uninitialized_copy_aIPKmS1_PmmET1_T_T0_S3_RSaIT2_E
	.type	_ZSt22__uninitialized_copy_aIPKmS1_PmmET1_T_T0_S3_RSaIT2_E, @function
_ZSt22__uninitialized_copy_aIPKmS1_PmmET1_T_T0_S3_RSaIT2_E:
.LFB3745:
	.cfi_startproc
	pushq	%rbp
	.cfi_def_cfa_offset 16
	.cfi_offset 6, -16
	movq	%rsp, %rbp
	.cfi_def_cfa_register 6
	subq	$32, %rsp
	movq	%rdi, -8(%rbp)
	movq	%rsi, -16(%rbp)
	movq	%rdx, -24(%rbp)
	movq	%rcx, -32(%rbp)
	movq	-24(%rbp), %rdx
	movq	-16(%rbp), %rcx
	movq	-8(%rbp), %rax
	movq	%rcx, %rsi
	movq	%rax, %rdi
	call	_ZSt18uninitialized_copyIPKmPmET0_T_S4_S3_
	leave
	.cfi_def_cfa 7, 8
	ret
	.cfi_endproc
.LFE3745:
	.size	_ZSt22__uninitialized_copy_aIPKmS1_PmmET1_T_T0_S3_RSaIT2_E, .-_ZSt22__uninitialized_copy_aIPKmS1_PmmET1_T_T0_S3_RSaIT2_E
	.section	.text._ZNKSt7__cxx1112basic_stringIcSt11char_traitsIcESaIcEE8_M_limitEmm,"axG",@progbits,_ZNKSt7__cxx1112basic_stringIcSt11char_traitsIcESaIcEE8_M_limitEmm,comdat
	.align 2
	.weak	_ZNKSt7__cxx1112basic_stringIcSt11char_traitsIcESaIcEE8_M_limitEmm
	.type	_ZNKSt7__cxx1112basic_stringIcSt11char_traitsIcESaIcEE8_M_limitEmm, @function
_ZNKSt7__cxx1112basic_stringIcSt11char_traitsIcESaIcEE8_M_limitEmm:
.LFB3751:
	.cfi_startproc
	pushq	%rbp
	.cfi_def_cfa_offset 16
	.cfi_offset 6, -16
	movq	%rsp, %rbp
	.cfi_def_cfa_register 6
	subq	$48, %rsp
	movq	%rdi, -24(%rbp)
	movq	%rsi, -32(%rbp)
	movq	%rdx, -40(%rbp)
	movq	-24(%rbp), %rax
	movq	%rax, %rdi
	call	_ZNKSt7__cxx1112basic_stringIcSt11char_traitsIcESaIcEE4sizeEv
	subq	-32(%rbp), %rax
	cmpq	%rax, -40(%rbp)
	setb	%al
	movb	%al, -1(%rbp)
	cmpb	$0, -1(%rbp)
	je	.L498
	movq	-40(%rbp), %rax
	jmp	.L500
.L498:
	movq	-24(%rbp), %rax
	movq	%rax, %rdi
	call	_ZNKSt7__cxx1112basic_stringIcSt11char_traitsIcESaIcEE4sizeEv
	subq	-32(%rbp), %rax
.L500:
	leave
	.cfi_def_cfa 7, 8
	ret
	.cfi_endproc
.LFE3751:
	.size	_ZNKSt7__cxx1112basic_stringIcSt11char_traitsIcESaIcEE8_M_limitEmm, .-_ZNKSt7__cxx1112basic_stringIcSt11char_traitsIcESaIcEE8_M_limitEmm
	.section	.rodata
.LC71:
	.string	"basic_string::_M_replace"
	.section	.text._ZNSt7__cxx1112basic_stringIcSt11char_traitsIcESaIcEE10_M_replaceEmmPKcm,"axG",@progbits,_ZNSt7__cxx1112basic_stringIcSt11char_traitsIcESaIcEE10_M_replaceEmmPKcm,comdat
	.align 2
	.weak	_ZNSt7__cxx1112basic_stringIcSt11char_traitsIcESaIcEE10_M_replaceEmmPKcm
	.type	_ZNSt7__cxx1112basic_stringIcSt11char_traitsIcESaIcEE10_M_replaceEmmPKcm, @function
_ZNSt7__cxx1112basic_stringIcSt11char_traitsIcESaIcEE10_M_replaceEmmPKcm:
.LFB3754:
	.cfi_startproc
	pushq	%rbp
	.cfi_def_cfa_offset 16
	.cfi_offset 6, -16
	movq	%rsp, %rbp
	.cfi_def_cfa_register 6
	subq	$80, %rsp
	movq	%rdi, -40(%rbp)
	movq	%rsi, -48(%rbp)
	movq	%rdx, -56(%rbp)
	movq	%rcx, -64(%rbp)
	movq	%r8, -72(%rbp)
	leaq	.LC71(%rip), %rcx
	movq	-72(%rbp), %rdx
	movq	-56(%rbp), %rsi
	movq	-40(%rbp), %rax
	movq	%rax, %rdi
	call	_ZNKSt7__cxx1112basic_stringIcSt11char_traitsIcESaIcEE15_M_check_lengthEmmPKc
	movq	-40(%rbp), %rax
	movq	%rax, %rdi
	call	_ZNKSt7__cxx1112basic_stringIcSt11char_traitsIcESaIcEE4sizeEv
	movq	%rax, -32(%rbp)
	movq	-32(%rbp), %rdx
	movq	-72(%rbp), %rax
	addq	%rdx, %rax
	subq	-56(%rbp), %rax
	movq	%rax, -24(%rbp)
	movq	-40(%rbp), %rax
	movq	%rax, %rdi
	call	_ZNKSt7__cxx1112basic_stringIcSt11char_traitsIcESaIcEE8capacityEv
	cmpq	-24(%rbp), %rax
	setnb	%al
	testb	%al, %al
	je	.L502
	movq	-40(%rbp), %rax
	movq	%rax, %rdi
	call	_ZNKSt7__cxx1112basic_stringIcSt11char_traitsIcESaIcEE7_M_dataEv
	movq	-48(%rbp), %rdx
	addq	%rdx, %rax
	movq	%rax, -16(%rbp)
	movq	-32(%rbp), %rax
	subq	-48(%rbp), %rax
	subq	-56(%rbp), %rax
	movq	%rax, -8(%rbp)
	movq	-64(%rbp), %rdx
	movq	-40(%rbp), %rax
	movq	%rdx, %rsi
	movq	%rax, %rdi
	call	_ZNKSt7__cxx1112basic_stringIcSt11char_traitsIcESaIcEE11_M_disjunctEPKc
	movzbl	%al, %eax
	testq	%rax, %rax
	setne	%al
	testb	%al, %al
	je	.L503
	cmpq	$0, -8(%rbp)
	je	.L504
	movq	-56(%rbp), %rax
	cmpq	-72(%rbp), %rax
	je	.L504
	movq	-16(%rbp), %rdx
	movq	-56(%rbp), %rax
	leaq	(%rdx,%rax), %rsi
	movq	-16(%rbp), %rdx
	movq	-72(%rbp), %rax
	leaq	(%rdx,%rax), %rcx
	movq	-8(%rbp), %rax
	movq	%rax, %rdx
	movq	%rcx, %rdi
	call	_ZNSt7__cxx1112basic_stringIcSt11char_traitsIcESaIcEE7_S_moveEPcPKcm
.L504:
	cmpq	$0, -72(%rbp)
	je	.L505
	movq	-72(%rbp), %rdx
	movq	-64(%rbp), %rcx
	movq	-16(%rbp), %rax
	movq	%rcx, %rsi
	movq	%rax, %rdi
	call	_ZNSt7__cxx1112basic_stringIcSt11char_traitsIcESaIcEE7_S_copyEPcPKcm
	jmp	.L505
.L503:
	movq	-8(%rbp), %r8
	movq	-72(%rbp), %rdi
	movq	-64(%rbp), %rcx
	movq	-56(%rbp), %rdx
	movq	-16(%rbp), %rsi
	movq	-40(%rbp), %rax
	movq	%r8, %r9
	movq	%rdi, %r8
	movq	%rax, %rdi
	call	_ZNSt7__cxx1112basic_stringIcSt11char_traitsIcESaIcEE15_M_replace_coldEPcmPKcmm
	jmp	.L505
.L502:
	movq	-72(%rbp), %rdi
	movq	-64(%rbp), %rcx
	movq	-56(%rbp), %rdx
	movq	-48(%rbp), %rsi
	movq	-40(%rbp), %rax
	movq	%rdi, %r8
	movq	%rax, %rdi
	call	_ZNSt7__cxx1112basic_stringIcSt11char_traitsIcESaIcEE9_M_mutateEmmPKcm
.L505:
	movq	-24(%rbp), %rdx
	movq	-40(%rbp), %rax
	movq	%rdx, %rsi
	movq	%rax, %rdi
	call	_ZNSt7__cxx1112basic_stringIcSt11char_traitsIcESaIcEE13_M_set_lengthEm
	movq	-40(%rbp), %rax
	leave
	.cfi_def_cfa 7, 8
	ret
	.cfi_endproc
.LFE3754:
	.size	_ZNSt7__cxx1112basic_stringIcSt11char_traitsIcESaIcEE10_M_replaceEmmPKcm, .-_ZNSt7__cxx1112basic_stringIcSt11char_traitsIcESaIcEE10_M_replaceEmmPKcm
	.section	.text._ZNSt7__cxx1112basic_stringIcSt11char_traitsIcESaIcEE7_S_moveEPcPKcm,"axG",@progbits,_ZNSt7__cxx1112basic_stringIcSt11char_traitsIcESaIcEE7_S_moveEPcPKcm,comdat
	.weak	_ZNSt7__cxx1112basic_stringIcSt11char_traitsIcESaIcEE7_S_moveEPcPKcm
	.type	_ZNSt7__cxx1112basic_stringIcSt11char_traitsIcESaIcEE7_S_moveEPcPKcm, @function
_ZNSt7__cxx1112basic_stringIcSt11char_traitsIcESaIcEE7_S_moveEPcPKcm:
.LFB3755:
	.cfi_startproc
	pushq	%rbp
	.cfi_def_cfa_offset 16
	.cfi_offset 6, -16
	movq	%rsp, %rbp
	.cfi_def_cfa_register 6
	subq	$32, %rsp
	movq	%rdi, -8(%rbp)
	movq	%rsi, -16(%rbp)
	movq	%rdx, -24(%rbp)
	cmpq	$1, -24(%rbp)
	jne	.L508
	movq	-16(%rbp), %rdx
	movq	-8(%rbp), %rax
	movq	%rdx, %rsi
	movq	%rax, %rdi
	call	_ZNSt11char_traitsIcE6assignERcRKc
	jmp	.L510
.L508:
	movq	-24(%rbp), %rdx
	movq	-16(%rbp), %rcx
	movq	-8(%rbp), %rax
	movq	%rcx, %rsi
	movq	%rax, %rdi
	call	_ZNSt11char_traitsIcE4moveEPcPKcm
.L510:
	nop
	leave
	.cfi_def_cfa 7, 8
	ret
	.cfi_endproc
.LFE3755:
	.size	_ZNSt7__cxx1112basic_stringIcSt11char_traitsIcESaIcEE7_S_moveEPcPKcm, .-_ZNSt7__cxx1112basic_stringIcSt11char_traitsIcESaIcEE7_S_moveEPcPKcm
	.section	.text._ZNSt6chrono13duration_castINS_8durationIdSt5ratioILl1ELl1EEEElS2_ILl1ELl1000000000EEEENSt9enable_ifIXsrNS_13__is_durationIT_EE5valueES8_E4typeERKNS1_IT0_T1_EE,"axG",@progbits,_ZNSt6chrono13duration_castINS_8durationIdSt5ratioILl1ELl1EEEElS2_ILl1ELl1000000000EEEENSt9enable_ifIXsrNS_13__is_durationIT_EE5valueES8_E4typeERKNS1_IT0_T1_EE,comdat
	.weak	_ZNSt6chrono13duration_castINS_8durationIdSt5ratioILl1ELl1EEEElS2_ILl1ELl1000000000EEEENSt9enable_ifIXsrNS_13__is_durationIT_EE5valueES8_E4typeERKNS1_IT0_T1_EE
	.type	_ZNSt6chrono13duration_castINS_8durationIdSt5ratioILl1ELl1EEEElS2_ILl1ELl1000000000EEEENSt9enable_ifIXsrNS_13__is_durationIT_EE5valueES8_E4typeERKNS1_IT0_T1_EE, @function
_ZNSt6chrono13duration_castINS_8durationIdSt5ratioILl1ELl1EEEElS2_ILl1ELl1000000000EEEENSt9enable_ifIXsrNS_13__is_durationIT_EE5valueES8_E4typeERKNS1_IT0_T1_EE:
.LFB3756:
	.cfi_startproc
	pushq	%rbp
	.cfi_def_cfa_offset 16
	.cfi_offset 6, -16
	movq	%rsp, %rbp
	.cfi_def_cfa_register 6
	subq	$16, %rsp
	movq	%rdi, -8(%rbp)
	movq	-8(%rbp), %rax
	movq	%rax, %rdi
	call	_ZNSt6chrono20__duration_cast_implINS_8durationIdSt5ratioILl1ELl1EEEES2_ILl1ELl1000000000EEdLb1ELb0EE6__castIlS5_EES4_RKNS1_IT_T0_EE
	leave
	.cfi_def_cfa 7, 8
	ret
	.cfi_endproc
.LFE3756:
	.size	_ZNSt6chrono13duration_castINS_8durationIdSt5ratioILl1ELl1EEEElS2_ILl1ELl1000000000EEEENSt9enable_ifIXsrNS_13__is_durationIT_EE5valueES8_E4typeERKNS1_IT0_T1_EE, .-_ZNSt6chrono13duration_castINS_8durationIdSt5ratioILl1ELl1EEEElS2_ILl1ELl1000000000EEEENSt9enable_ifIXsrNS_13__is_durationIT_EE5valueES8_E4typeERKNS1_IT0_T1_EE
	.section	.text._ZNSt7__cxx1112basic_stringIcSt11char_traitsIcESaIcEE11_S_allocateERS3_m,"axG",@progbits,_ZNSt7__cxx1112basic_stringIcSt11char_traitsIcESaIcEE11_S_allocateERS3_m,comdat
	.weak	_ZNSt7__cxx1112basic_stringIcSt11char_traitsIcESaIcEE11_S_allocateERS3_m
	.type	_ZNSt7__cxx1112basic_stringIcSt11char_traitsIcESaIcEE11_S_allocateERS3_m, @function
_ZNSt7__cxx1112basic_stringIcSt11char_traitsIcESaIcEE11_S_allocateERS3_m:
.LFB3761:
	.cfi_startproc
	pushq	%rbp
	.cfi_def_cfa_offset 16
	.cfi_offset 6, -16
	movq	%rsp, %rbp
	.cfi_def_cfa_register 6
	subq	$48, %rsp
	movq	%rdi, -40(%rbp)
	movq	%rsi, -48(%rbp)
	movq	-40(%rbp), %rax
	movq	%rax, -16(%rbp)
	movq	-48(%rbp), %rax
	movq	%rax, -8(%rbp)
	movq	-8(%rbp), %rcx
	movq	-16(%rbp), %rax
	movl	$0, %edx
	movq	%rcx, %rsi
	movq	%rax, %rdi
	call	_ZNSt15__new_allocatorIcE8allocateEmPKv
	nop
	movq	%rax, -24(%rbp)
	movq	-24(%rbp), %rax
	leave
	.cfi_def_cfa 7, 8
	ret
	.cfi_endproc
.LFE3761:
	.size	_ZNSt7__cxx1112basic_stringIcSt11char_traitsIcESaIcEE11_S_allocateERS3_m, .-_ZNSt7__cxx1112basic_stringIcSt11char_traitsIcESaIcEE11_S_allocateERS3_m
	.section	.text._ZNSt19__ptr_traits_ptr_toIPKcS0_Lb0EE10pointer_toERS0_,"axG",@progbits,_ZNSt19__ptr_traits_ptr_toIPKcS0_Lb0EE10pointer_toERS0_,comdat
	.weak	_ZNSt19__ptr_traits_ptr_toIPKcS0_Lb0EE10pointer_toERS0_
	.type	_ZNSt19__ptr_traits_ptr_toIPKcS0_Lb0EE10pointer_toERS0_, @function
_ZNSt19__ptr_traits_ptr_toIPKcS0_Lb0EE10pointer_toERS0_:
.LFB3762:
	.cfi_startproc
	pushq	%rbp
	.cfi_def_cfa_offset 16
	.cfi_offset 6, -16
	movq	%rsp, %rbp
	.cfi_def_cfa_register 6
	movq	%rdi, -24(%rbp)
	movq	-24(%rbp), %rax
	movq	%rax, -16(%rbp)
	movq	-16(%rbp), %rax
	movq	%rax, -8(%rbp)
	movq	-8(%rbp), %rax
	nop
	popq	%rbp
	.cfi_def_cfa 7, 8
	ret
	.cfi_endproc
.LFE3762:
	.size	_ZNSt19__ptr_traits_ptr_toIPKcS0_Lb0EE10pointer_toERS0_, .-_ZNSt19__ptr_traits_ptr_toIPKcS0_Lb0EE10pointer_toERS0_
	.section	.text._ZNKSt7__cxx1112basic_stringIcSt11char_traitsIcESaIcEE16_M_get_allocatorEv,"axG",@progbits,_ZNKSt7__cxx1112basic_stringIcSt11char_traitsIcESaIcEE16_M_get_allocatorEv,comdat
	.align 2
	.weak	_ZNKSt7__cxx1112basic_stringIcSt11char_traitsIcESaIcEE16_M_get_allocatorEv
	.type	_ZNKSt7__cxx1112basic_stringIcSt11char_traitsIcESaIcEE16_M_get_allocatorEv, @function
_ZNKSt7__cxx1112basic_stringIcSt11char_traitsIcESaIcEE16_M_get_allocatorEv:
.LFB3776:
	.cfi_startproc
	pushq	%rbp
	.cfi_def_cfa_offset 16
	.cfi_offset 6, -16
	movq	%rsp, %rbp
	.cfi_def_cfa_register 6
	movq	%rdi, -8(%rbp)
	movq	-8(%rbp), %rax
	popq	%rbp
	.cfi_def_cfa 7, 8
	ret
	.cfi_endproc
.LFE3776:
	.size	_ZNKSt7__cxx1112basic_stringIcSt11char_traitsIcESaIcEE16_M_get_allocatorEv, .-_ZNKSt7__cxx1112basic_stringIcSt11char_traitsIcESaIcEE16_M_get_allocatorEv
	.section	.text._ZNSt15__new_allocatorImE10deallocateEPmm,"axG",@progbits,_ZNSt15__new_allocatorImE10deallocateEPmm,comdat
	.align 2
	.weak	_ZNSt15__new_allocatorImE10deallocateEPmm
	.type	_ZNSt15__new_allocatorImE10deallocateEPmm, @function
_ZNSt15__new_allocatorImE10deallocateEPmm:
.LFB3814:
	.cfi_startproc
	pushq	%rbp
	.cfi_def_cfa_offset 16
	.cfi_offset 6, -16
	movq	%rsp, %rbp
	.cfi_def_cfa_register 6
	subq	$32, %rsp
	movq	%rdi, -8(%rbp)
	movq	%rsi, -16(%rbp)
	movq	%rdx, -24(%rbp)
	movq	-24(%rbp), %rax
	leaq	0(,%rax,8), %rdx
	movq	-16(%rbp), %rax
	movq	%rdx, %rsi
	movq	%rax, %rdi
	call	_ZdlPvm@PLT
	leave
	.cfi_def_cfa 7, 8
	ret
	.cfi_endproc
.LFE3814:
	.size	_ZNSt15__new_allocatorImE10deallocateEPmm, .-_ZNSt15__new_allocatorImE10deallocateEPmm
	.section	.text._ZNKSt6vectorImSaImEE12_M_check_lenEmPKc,"axG",@progbits,_ZNKSt6vectorImSaImEE12_M_check_lenEmPKc,comdat
	.align 2
	.weak	_ZNKSt6vectorImSaImEE12_M_check_lenEmPKc
	.type	_ZNKSt6vectorImSaImEE12_M_check_lenEmPKc, @function
_ZNKSt6vectorImSaImEE12_M_check_lenEmPKc:
.LFB3816:
	.cfi_startproc
	pushq	%rbp
	.cfi_def_cfa_offset 16
	.cfi_offset 6, -16
	movq	%rsp, %rbp
	.cfi_def_cfa_register 6
	pushq	%rbx
	subq	$72, %rsp
	.cfi_offset 3, -24
	movq	%rdi, -56(%rbp)
	movq	%rsi, -64(%rbp)
	movq	%rdx, -72(%rbp)
	movq	%fs:40, %rax
	movq	%rax, -24(%rbp)
	xorl	%eax, %eax
	movq	-56(%rbp), %rax
	movq	%rax, %rdi
	call	_ZNKSt6vectorImSaImEE8max_sizeEv
	movq	%rax, %rbx
	movq	-56(%rbp), %rax
	movq	%rax, %rdi
	call	_ZNKSt6vectorImSaImEE4sizeEv
	subq	%rax, %rbx
	movq	%rbx, %rdx
	movq	-64(%rbp), %rax
	cmpq	%rax, %rdx
	setb	%al
	testb	%al, %al
	je	.L525
	movq	-24(%rbp), %rax
	subq	%fs:40, %rax
	je	.L526
	call	__stack_chk_fail@PLT
.L526:
	movq	-72(%rbp), %rax
	movq	%rax, %rdi
	call	_ZSt20__throw_length_errorPKc@PLT
.L525:
	movq	-56(%rbp), %rax
	movq	%rax, %rdi
	call	_ZNKSt6vectorImSaImEE4sizeEv
	movq	%rax, %rbx
	movq	-56(%rbp), %rax
	movq	%rax, %rdi
	call	_ZNKSt6vectorImSaImEE4sizeEv
	movq	%rax, -40(%rbp)
	leaq	-64(%rbp), %rdx
	leaq	-40(%rbp), %rax
	movq	%rdx, %rsi
	movq	%rax, %rdi
	call	_ZSt3maxImERKT_S2_S2_
	movq	(%rax), %rax
	addq	%rbx, %rax
	movq	%rax, -32(%rbp)
	movq	-56(%rbp), %rax
	movq	%rax, %rdi
	call	_ZNKSt6vectorImSaImEE4sizeEv
	cmpq	%rax, -32(%rbp)
	jb	.L527
	movq	-56(%rbp), %rax
	movq	%rax, %rdi
	call	_ZNKSt6vectorImSaImEE8max_sizeEv
	cmpq	-32(%rbp), %rax
	jnb	.L528
.L527:
	movq	-56(%rbp), %rax
	movq	%rax, %rdi
	call	_ZNKSt6vectorImSaImEE8max_sizeEv
	jmp	.L530
.L528:
	movq	-32(%rbp), %rax
.L530:
	movq	-24(%rbp), %rdx
	subq	%fs:40, %rdx
	je	.L531
	call	__stack_chk_fail@PLT
.L531:
	movq	-8(%rbp), %rbx
	leave
	.cfi_def_cfa 7, 8
	ret
	.cfi_endproc
.LFE3816:
	.size	_ZNKSt6vectorImSaImEE12_M_check_lenEmPKc, .-_ZNKSt6vectorImSaImEE12_M_check_lenEmPKc
	.section	.text._ZNSt12_Vector_baseImSaImEE11_M_allocateEm,"axG",@progbits,_ZNSt12_Vector_baseImSaImEE11_M_allocateEm,comdat
	.align 2
	.weak	_ZNSt12_Vector_baseImSaImEE11_M_allocateEm
	.type	_ZNSt12_Vector_baseImSaImEE11_M_allocateEm, @function
_ZNSt12_Vector_baseImSaImEE11_M_allocateEm:
.LFB3818:
	.cfi_startproc
	pushq	%rbp
	.cfi_def_cfa_offset 16
	.cfi_offset 6, -16
	movq	%rsp, %rbp
	.cfi_def_cfa_register 6
	subq	$32, %rsp
	movq	%rdi, -24(%rbp)
	movq	%rsi, -32(%rbp)
	cmpq	$0, -32(%rbp)
	je	.L533
	movq	-24(%rbp), %rax
	movq	%rax, -16(%rbp)
	movq	-32(%rbp), %rax
	movq	%rax, -8(%rbp)
	movq	-8(%rbp), %rcx
	movq	-16(%rbp), %rax
	movl	$0, %edx
	movq	%rcx, %rsi
	movq	%rax, %rdi
	call	_ZNSt15__new_allocatorImE8allocateEmPKv
	nop
	jmp	.L535
.L533:
	movl	$0, %eax
.L535:
	leave
	.cfi_def_cfa 7, 8
	ret
	.cfi_endproc
.LFE3818:
	.size	_ZNSt12_Vector_baseImSaImEE11_M_allocateEm, .-_ZNSt12_Vector_baseImSaImEE11_M_allocateEm
	.section	.text._ZNSt6vectorImSaImEE12_Guard_allocC2EPmmRSt12_Vector_baseImS0_E,"axG",@progbits,_ZNSt6vectorImSaImEE12_Guard_allocC5EPmmRSt12_Vector_baseImS0_E,comdat
	.align 2
	.weak	_ZNSt6vectorImSaImEE12_Guard_allocC2EPmmRSt12_Vector_baseImS0_E
	.type	_ZNSt6vectorImSaImEE12_Guard_allocC2EPmmRSt12_Vector_baseImS0_E, @function
_ZNSt6vectorImSaImEE12_Guard_allocC2EPmmRSt12_Vector_baseImS0_E:
.LFB3820:
	.cfi_startproc
	pushq	%rbp
	.cfi_def_cfa_offset 16
	.cfi_offset 6, -16
	movq	%rsp, %rbp
	.cfi_def_cfa_register 6
	movq	%rdi, -8(%rbp)
	movq	%rsi, -16(%rbp)
	movq	%rdx, -24(%rbp)
	movq	%rcx, -32(%rbp)
	movq	-8(%rbp), %rax
	movq	-16(%rbp), %rdx
	movq	%rdx, (%rax)
	movq	-8(%rbp), %rax
	movq	-24(%rbp), %rdx
	movq	%rdx, 8(%rax)
	movq	-8(%rbp), %rax
	movq	-32(%rbp), %rdx
	movq	%rdx, 16(%rax)
	nop
	popq	%rbp
	.cfi_def_cfa 7, 8
	ret
	.cfi_endproc
.LFE3820:
	.size	_ZNSt6vectorImSaImEE12_Guard_allocC2EPmmRSt12_Vector_baseImS0_E, .-_ZNSt6vectorImSaImEE12_Guard_allocC2EPmmRSt12_Vector_baseImS0_E
	.weak	_ZNSt6vectorImSaImEE12_Guard_allocC1EPmmRSt12_Vector_baseImS0_E
	.set	_ZNSt6vectorImSaImEE12_Guard_allocC1EPmmRSt12_Vector_baseImS0_E,_ZNSt6vectorImSaImEE12_Guard_allocC2EPmmRSt12_Vector_baseImS0_E
	.section	.text._ZNSt6vectorImSaImEE12_Guard_allocD2Ev,"axG",@progbits,_ZNSt6vectorImSaImEE12_Guard_allocD5Ev,comdat
	.align 2
	.weak	_ZNSt6vectorImSaImEE12_Guard_allocD2Ev
	.type	_ZNSt6vectorImSaImEE12_Guard_allocD2Ev, @function
_ZNSt6vectorImSaImEE12_Guard_allocD2Ev:
.LFB3823:
	.cfi_startproc
	pushq	%rbp
	.cfi_def_cfa_offset 16
	.cfi_offset 6, -16
	movq	%rsp, %rbp
	.cfi_def_cfa_register 6
	subq	$16, %rsp
	movq	%rdi, -8(%rbp)
	movq	-8(%rbp), %rax
	movq	(%rax), %rax
	testq	%rax, %rax
	je	.L540
	movq	-8(%rbp), %rax
	movq	16(%rax), %rax
	movq	-8(%rbp), %rdx
	movq	8(%rdx), %rdx
	movq	-8(%rbp), %rcx
	movq	(%rcx), %rcx
	movq	%rcx, %rsi
	movq	%rax, %rdi
	call	_ZNSt12_Vector_baseImSaImEE13_M_deallocateEPmm
.L540:
	nop
	leave
	.cfi_def_cfa 7, 8
	ret
	.cfi_endproc
.LFE3823:
	.size	_ZNSt6vectorImSaImEE12_Guard_allocD2Ev, .-_ZNSt6vectorImSaImEE12_Guard_allocD2Ev
	.weak	_ZNSt6vectorImSaImEE12_Guard_allocD1Ev
	.set	_ZNSt6vectorImSaImEE12_Guard_allocD1Ev,_ZNSt6vectorImSaImEE12_Guard_allocD2Ev
	.section	.text._ZNSt6vectorImSaImEE11_S_relocateEPmS2_S2_RS0_,"axG",@progbits,_ZNSt6vectorImSaImEE11_S_relocateEPmS2_S2_RS0_,comdat
	.weak	_ZNSt6vectorImSaImEE11_S_relocateEPmS2_S2_RS0_
	.type	_ZNSt6vectorImSaImEE11_S_relocateEPmS2_S2_RS0_, @function
_ZNSt6vectorImSaImEE11_S_relocateEPmS2_S2_RS0_:
.LFB3826:
	.cfi_startproc
	pushq	%rbp
	.cfi_def_cfa_offset 16
	.cfi_offset 6, -16
	movq	%rsp, %rbp
	.cfi_def_cfa_register 6
	subq	$32, %rsp
	movq	%rdi, -8(%rbp)
	movq	%rsi, -16(%rbp)
	movq	%rdx, -24(%rbp)
	movq	%rcx, -32(%rbp)
	movq	-32(%rbp), %rcx
	movq	-24(%rbp), %rdx
	movq	-16(%rbp), %rsi
	movq	-8(%rbp), %rax
	movq	%rax, %rdi
	call	_ZSt12__relocate_aIPmS0_SaImEET0_T_S3_S2_RT1_
	leave
	.cfi_def_cfa 7, 8
	ret
	.cfi_endproc
.LFE3826:
	.size	_ZNSt6vectorImSaImEE11_S_relocateEPmS2_S2_RS0_, .-_ZNSt6vectorImSaImEE11_S_relocateEPmS2_S2_RS0_
	.section	.text._ZNKSt6vectorImSaImEE5emptyEv,"axG",@progbits,_ZNKSt6vectorImSaImEE5emptyEv,comdat
	.align 2
	.weak	_ZNKSt6vectorImSaImEE5emptyEv
	.type	_ZNKSt6vectorImSaImEE5emptyEv, @function
_ZNKSt6vectorImSaImEE5emptyEv:
.LFB3827:
	.cfi_startproc
	pushq	%rbp
	.cfi_def_cfa_offset 16
	.cfi_offset 6, -16
	movq	%rsp, %rbp
	.cfi_def_cfa_register 6
	subq	$64, %rsp
	movq	%rdi, -56(%rbp)
	movq	%fs:40, %rax
	movq	%rax, -8(%rbp)
	xorl	%eax, %eax
	movq	-56(%rbp), %rax
	movq	%rax, %rdi
	call	_ZNKSt6vectorImSaImEE3endEv
	movq	%rax, -32(%rbp)
	movq	-56(%rbp), %rax
	movq	%rax, %rdi
	call	_ZNKSt6vectorImSaImEE5beginEv
	movq	%rax, -40(%rbp)
	leaq	-40(%rbp), %rax
	movq	%rax, -24(%rbp)
	movq	-24(%rbp), %rax
	movq	(%rax), %rdx
	leaq	-32(%rbp), %rax
	movq	%rax, -16(%rbp)
	movq	-16(%rbp), %rax
	movq	(%rax), %rax
	cmpq	%rax, %rdx
	sete	%al
	movq	-8(%rbp), %rdx
	subq	%fs:40, %rdx
	je	.L548
	call	__stack_chk_fail@PLT
.L548:
	leave
	.cfi_def_cfa 7, 8
	ret
	.cfi_endproc
.LFE3827:
	.size	_ZNKSt6vectorImSaImEE5emptyEv, .-_ZNKSt6vectorImSaImEE5emptyEv
	.section	.text._ZNSt6vectorImSaImEE11_S_max_sizeERKS0_,"axG",@progbits,_ZNSt6vectorImSaImEE11_S_max_sizeERKS0_,comdat
	.weak	_ZNSt6vectorImSaImEE11_S_max_sizeERKS0_
	.type	_ZNSt6vectorImSaImEE11_S_max_sizeERKS0_, @function
_ZNSt6vectorImSaImEE11_S_max_sizeERKS0_:
.LFB3829:
	.cfi_startproc
	pushq	%rbp
	.cfi_def_cfa_offset 16
	.cfi_offset 6, -16
	movq	%rsp, %rbp
	.cfi_def_cfa_register 6
	subq	$64, %rsp
	movq	%rdi, -56(%rbp)
	movq	%fs:40, %rax
	movq	%rax, -8(%rbp)
	xorl	%eax, %eax
	movabsq	$1152921504606846975, %rax
	movq	%rax, -48(%rbp)
	movq	-56(%rbp), %rax
	movq	%rax, -32(%rbp)
	movq	-32(%rbp), %rax
	movq	%rax, -24(%rbp)
	movq	-24(%rbp), %rax
	movq	%rax, -16(%rbp)
	movabsq	$1152921504606846975, %rax
	nop
	nop
	movq	%rax, -40(%rbp)
	leaq	-40(%rbp), %rdx
	leaq	-48(%rbp), %rax
	movq	%rdx, %rsi
	movq	%rax, %rdi
	call	_ZSt3minImERKT_S2_S2_
	movq	(%rax), %rax
	movq	-8(%rbp), %rdx
	subq	%fs:40, %rdx
	je	.L554
	call	__stack_chk_fail@PLT
.L554:
	leave
	.cfi_def_cfa 7, 8
	ret
	.cfi_endproc
.LFE3829:
	.size	_ZNSt6vectorImSaImEE11_S_max_sizeERKS0_, .-_ZNSt6vectorImSaImEE11_S_max_sizeERKS0_
	.section	.text._ZNSt6vectorImSaImEE12_Guard_alloc10_M_releaseEv,"axG",@progbits,_ZNSt6vectorImSaImEE12_Guard_alloc10_M_releaseEv,comdat
	.align 2
	.weak	_ZNSt6vectorImSaImEE12_Guard_alloc10_M_releaseEv
	.type	_ZNSt6vectorImSaImEE12_Guard_alloc10_M_releaseEv, @function
_ZNSt6vectorImSaImEE12_Guard_alloc10_M_releaseEv:
.LFB3833:
	.cfi_startproc
	pushq	%rbp
	.cfi_def_cfa_offset 16
	.cfi_offset 6, -16
	movq	%rsp, %rbp
	.cfi_def_cfa_register 6
	movq	%rdi, -24(%rbp)
	movq	-24(%rbp), %rax
	movq	(%rax), %rax
	movq	%rax, -8(%rbp)
	movq	-24(%rbp), %rax
	movq	$0, (%rax)
	movq	-8(%rbp), %rax
	popq	%rbp
	.cfi_def_cfa 7, 8
	ret
	.cfi_endproc
.LFE3833:
	.size	_ZNSt6vectorImSaImEE12_Guard_alloc10_M_releaseEv, .-_ZNSt6vectorImSaImEE12_Guard_alloc10_M_releaseEv
	.section	.text._ZSt12__miter_baseIPKmET_S2_,"axG",@progbits,_ZSt12__miter_baseIPKmET_S2_,comdat
	.weak	_ZSt12__miter_baseIPKmET_S2_
	.type	_ZSt12__miter_baseIPKmET_S2_, @function
_ZSt12__miter_baseIPKmET_S2_:
.LFB3834:
	.cfi_startproc
	pushq	%rbp
	.cfi_def_cfa_offset 16
	.cfi_offset 6, -16
	movq	%rsp, %rbp
	.cfi_def_cfa_register 6
	movq	%rdi, -8(%rbp)
	movq	-8(%rbp), %rax
	popq	%rbp
	.cfi_def_cfa 7, 8
	ret
	.cfi_endproc
.LFE3834:
	.size	_ZSt12__miter_baseIPKmET_S2_, .-_ZSt12__miter_baseIPKmET_S2_
	.section	.text._ZSt9__advanceIPKmlEvRT_T0_St26random_access_iterator_tag,"axG",@progbits,_ZSt9__advanceIPKmlEvRT_T0_St26random_access_iterator_tag,comdat
	.weak	_ZSt9__advanceIPKmlEvRT_T0_St26random_access_iterator_tag
	.type	_ZSt9__advanceIPKmlEvRT_T0_St26random_access_iterator_tag, @function
_ZSt9__advanceIPKmlEvRT_T0_St26random_access_iterator_tag:
.LFB3837:
	.cfi_startproc
	pushq	%rbp
	.cfi_def_cfa_offset 16
	.cfi_offset 6, -16
	movq	%rsp, %rbp
	.cfi_def_cfa_register 6
	movq	%rdi, -8(%rbp)
	movq	%rsi, -16(%rbp)
	movq	-8(%rbp), %rax
	movq	(%rax), %rax
	movq	-16(%rbp), %rdx
	salq	$3, %rdx
	addq	%rax, %rdx
	movq	-8(%rbp), %rax
	movq	%rdx, (%rax)
	nop
	popq	%rbp
	.cfi_def_cfa 7, 8
	ret
	.cfi_endproc
.LFE3837:
	.size	_ZSt9__advanceIPKmlEvRT_T0_St26random_access_iterator_tag, .-_ZSt9__advanceIPKmlEvRT_T0_St26random_access_iterator_tag
	.section	.text._ZSt18uninitialized_copyIPKmPmET0_T_S4_S3_,"axG",@progbits,_ZSt18uninitialized_copyIPKmPmET0_T_S4_S3_,comdat
	.weak	_ZSt18uninitialized_copyIPKmPmET0_T_S4_S3_
	.type	_ZSt18uninitialized_copyIPKmPmET0_T_S4_S3_, @function
_ZSt18uninitialized_copyIPKmPmET0_T_S4_S3_:
.LFB3838:
	.cfi_startproc
	pushq	%rbp
	.cfi_def_cfa_offset 16
	.cfi_offset 6, -16
	movq	%rsp, %rbp
	.cfi_def_cfa_register 6
	subq	$64, %rsp
	movq	%rdi, -40(%rbp)
	movq	%rsi, -48(%rbp)
	movq	%rdx, -56(%rbp)
	movq	-48(%rbp), %rax
	subq	-40(%rbp), %rax
	sarq	$3, %rax
	movq	%rax, -24(%rbp)
	cmpq	$0, -24(%rbp)
	jle	.L561
	movq	-24(%rbp), %rax
	leaq	0(,%rax,8), %rsi
	movq	-40(%rbp), %rax
	movq	%rax, -8(%rbp)
	movq	-8(%rbp), %rdx
	movq	-56(%rbp), %rax
	movq	%rax, -16(%rbp)
	movq	-16(%rbp), %rax
	movq	%rdx, %rcx
	movq	%rsi, %rdx
	movq	%rcx, %rsi
	movq	%rax, %rdi
	call	memcpy@PLT
	movq	-24(%rbp), %rax
	salq	$3, %rax
	addq	%rax, -56(%rbp)
.L561:
	movq	-56(%rbp), %rax
	leave
	.cfi_def_cfa 7, 8
	ret
	.cfi_endproc
.LFE3838:
	.size	_ZSt18uninitialized_copyIPKmPmET0_T_S4_S3_, .-_ZSt18uninitialized_copyIPKmPmET0_T_S4_S3_
	.section	.text._ZNSt15__new_allocatorIcE10deallocateEPcm,"axG",@progbits,_ZNSt15__new_allocatorIcE10deallocateEPcm,comdat
	.align 2
	.weak	_ZNSt15__new_allocatorIcE10deallocateEPcm
	.type	_ZNSt15__new_allocatorIcE10deallocateEPcm, @function
_ZNSt15__new_allocatorIcE10deallocateEPcm:
.LFB3839:
	.cfi_startproc
	pushq	%rbp
	.cfi_def_cfa_offset 16
	.cfi_offset 6, -16
	movq	%rsp, %rbp
	.cfi_def_cfa_register 6
	subq	$32, %rsp
	movq	%rdi, -8(%rbp)
	movq	%rsi, -16(%rbp)
	movq	%rdx, -24(%rbp)
	movq	-24(%rbp), %rdx
	movq	-16(%rbp), %rax
	movq	%rdx, %rsi
	movq	%rax, %rdi
	call	_ZdlPvm@PLT
	leave
	.cfi_def_cfa 7, 8
	ret
	.cfi_endproc
.LFE3839:
	.size	_ZNSt15__new_allocatorIcE10deallocateEPcm, .-_ZNSt15__new_allocatorIcE10deallocateEPcm
	.section	.text._ZNKSt7__cxx1112basic_stringIcSt11char_traitsIcESaIcEE15_M_check_lengthEmmPKc,"axG",@progbits,_ZNKSt7__cxx1112basic_stringIcSt11char_traitsIcESaIcEE15_M_check_lengthEmmPKc,comdat
	.align 2
	.weak	_ZNKSt7__cxx1112basic_stringIcSt11char_traitsIcESaIcEE15_M_check_lengthEmmPKc
	.type	_ZNKSt7__cxx1112basic_stringIcSt11char_traitsIcESaIcEE15_M_check_lengthEmmPKc, @function
_ZNKSt7__cxx1112basic_stringIcSt11char_traitsIcESaIcEE15_M_check_lengthEmmPKc:
.LFB3840:
	.cfi_startproc
	pushq	%rbp
	.cfi_def_cfa_offset 16
	.cfi_offset 6, -16
	movq	%rsp, %rbp
	.cfi_def_cfa_register 6
	pushq	%rbx
	subq	$40, %rsp
	.cfi_offset 3, -24
	movq	%rdi, -24(%rbp)
	movq	%rsi, -32(%rbp)
	movq	%rdx, -40(%rbp)
	movq	%rcx, -48(%rbp)
	movq	-24(%rbp), %rax
	movq	%rax, %rdi
	call	_ZNKSt7__cxx1112basic_stringIcSt11char_traitsIcESaIcEE8max_sizeEv
	movq	%rax, %rbx
	movq	-24(%rbp), %rax
	movq	%rax, %rdi
	call	_ZNKSt7__cxx1112basic_stringIcSt11char_traitsIcESaIcEE4sizeEv
	movq	-32(%rbp), %rdx
	subq	%rax, %rdx
	leaq	(%rbx,%rdx), %rax
	cmpq	-40(%rbp), %rax
	setb	%al
	testb	%al, %al
	je	.L569
	movq	-48(%rbp), %rax
	movq	%rax, %rdi
	call	_ZSt20__throw_length_errorPKc@PLT
.L569:
	nop
	movq	-8(%rbp), %rbx
	leave
	.cfi_def_cfa 7, 8
	ret
	.cfi_endproc
.LFE3840:
	.size	_ZNKSt7__cxx1112basic_stringIcSt11char_traitsIcESaIcEE15_M_check_lengthEmmPKc, .-_ZNKSt7__cxx1112basic_stringIcSt11char_traitsIcESaIcEE15_M_check_lengthEmmPKc
	.section	.text._ZNKSt7__cxx1112basic_stringIcSt11char_traitsIcESaIcEE11_M_disjunctEPKc,"axG",@progbits,_ZNKSt7__cxx1112basic_stringIcSt11char_traitsIcESaIcEE11_M_disjunctEPKc,comdat
	.align 2
	.weak	_ZNKSt7__cxx1112basic_stringIcSt11char_traitsIcESaIcEE11_M_disjunctEPKc
	.type	_ZNKSt7__cxx1112basic_stringIcSt11char_traitsIcESaIcEE11_M_disjunctEPKc, @function
_ZNKSt7__cxx1112basic_stringIcSt11char_traitsIcESaIcEE11_M_disjunctEPKc:
.LFB3841:
	.cfi_startproc
	pushq	%rbp
	.cfi_def_cfa_offset 16
	.cfi_offset 6, -16
	movq	%rsp, %rbp
	.cfi_def_cfa_register 6
	pushq	%rbx
	subq	$40, %rsp
	.cfi_offset 3, -24
	movq	%rdi, -40(%rbp)
	movq	%rsi, -48(%rbp)
	movq	%fs:40, %rax
	movq	%rax, -24(%rbp)
	xorl	%eax, %eax
	movq	-40(%rbp), %rax
	movq	%rax, %rdi
	call	_ZNKSt7__cxx1112basic_stringIcSt11char_traitsIcESaIcEE7_M_dataEv
	movq	%rax, %rdx
	movq	-48(%rbp), %rcx
	leaq	-26(%rbp), %rax
	movq	%rcx, %rsi
	movq	%rax, %rdi
	call	_ZNKSt4lessIPKcEclES1_S1_
	testb	%al, %al
	jne	.L571
	movq	-40(%rbp), %rax
	movq	%rax, %rdi
	call	_ZNKSt7__cxx1112basic_stringIcSt11char_traitsIcESaIcEE7_M_dataEv
	movq	%rax, %rbx
	movq	-40(%rbp), %rax
	movq	%rax, %rdi
	call	_ZNKSt7__cxx1112basic_stringIcSt11char_traitsIcESaIcEE4sizeEv
	leaq	(%rbx,%rax), %rcx
	movq	-48(%rbp), %rdx
	leaq	-25(%rbp), %rax
	movq	%rcx, %rsi
	movq	%rax, %rdi
	call	_ZNKSt4lessIPKcEclES1_S1_
	testb	%al, %al
	je	.L572
.L571:
	movl	$1, %eax
	jmp	.L573
.L572:
	movl	$0, %eax
.L573:
	movq	-24(%rbp), %rdx
	subq	%fs:40, %rdx
	je	.L575
	call	__stack_chk_fail@PLT
.L575:
	movq	-8(%rbp), %rbx
	leave
	.cfi_def_cfa 7, 8
	ret
	.cfi_endproc
.LFE3841:
	.size	_ZNKSt7__cxx1112basic_stringIcSt11char_traitsIcESaIcEE11_M_disjunctEPKc, .-_ZNKSt7__cxx1112basic_stringIcSt11char_traitsIcESaIcEE11_M_disjunctEPKc
	.section	.text._ZNSt7__cxx1112basic_stringIcSt11char_traitsIcESaIcEE15_M_replace_coldEPcmPKcmm,"axG",@progbits,_ZNSt7__cxx1112basic_stringIcSt11char_traitsIcESaIcEE15_M_replace_coldEPcmPKcmm,comdat
	.align 2
	.weak	_ZNSt7__cxx1112basic_stringIcSt11char_traitsIcESaIcEE15_M_replace_coldEPcmPKcmm
	.type	_ZNSt7__cxx1112basic_stringIcSt11char_traitsIcESaIcEE15_M_replace_coldEPcmPKcmm, @function
_ZNSt7__cxx1112basic_stringIcSt11char_traitsIcESaIcEE15_M_replace_coldEPcmPKcmm:
.LFB3842:
	.cfi_startproc
	pushq	%rbp
	.cfi_def_cfa_offset 16
	.cfi_offset 6, -16
	movq	%rsp, %rbp
	.cfi_def_cfa_register 6
	subq	$64, %rsp
	movq	%rdi, -24(%rbp)
	movq	%rsi, -32(%rbp)
	movq	%rdx, -40(%rbp)
	movq	%rcx, -48(%rbp)
	movq	%r8, -56(%rbp)
	movq	%r9, -64(%rbp)
	cmpq	$0, -56(%rbp)
	je	.L577
	movq	-56(%rbp), %rax
	cmpq	%rax, -40(%rbp)
	jb	.L577
	movq	-56(%rbp), %rdx
	movq	-48(%rbp), %rcx
	movq	-32(%rbp), %rax
	movq	%rcx, %rsi
	movq	%rax, %rdi
	call	_ZNSt7__cxx1112basic_stringIcSt11char_traitsIcESaIcEE7_S_moveEPcPKcm
.L577:
	cmpq	$0, -64(%rbp)
	je	.L578
	movq	-40(%rbp), %rax
	cmpq	-56(%rbp), %rax
	je	.L578
	movq	-32(%rbp), %rdx
	movq	-40(%rbp), %rax
	leaq	(%rdx,%rax), %rsi
	movq	-32(%rbp), %rdx
	movq	-56(%rbp), %rax
	leaq	(%rdx,%rax), %rcx
	movq	-64(%rbp), %rax
	movq	%rax, %rdx
	movq	%rcx, %rdi
	call	_ZNSt7__cxx1112basic_stringIcSt11char_traitsIcESaIcEE7_S_moveEPcPKcm
.L578:
	movq	-56(%rbp), %rax
	cmpq	%rax, -40(%rbp)
	jnb	.L582
	movq	-48(%rbp), %rdx
	movq	-56(%rbp), %rax
	addq	%rdx, %rax
	movq	-32(%rbp), %rcx
	movq	-40(%rbp), %rdx
	addq	%rcx, %rdx
	cmpq	%rax, %rdx
	jb	.L580
	movq	-56(%rbp), %rdx
	movq	-48(%rbp), %rcx
	movq	-32(%rbp), %rax
	movq	%rcx, %rsi
	movq	%rax, %rdi
	call	_ZNSt7__cxx1112basic_stringIcSt11char_traitsIcESaIcEE7_S_moveEPcPKcm
	jmp	.L582
.L580:
	movq	-32(%rbp), %rdx
	movq	-40(%rbp), %rax
	addq	%rdx, %rax
	cmpq	%rax, -48(%rbp)
	jb	.L581
	movq	-48(%rbp), %rax
	subq	-32(%rbp), %rax
	movq	%rax, %rdx
	movq	-56(%rbp), %rax
	subq	-40(%rbp), %rax
	addq	%rdx, %rax
	movq	%rax, -8(%rbp)
	movq	-32(%rbp), %rdx
	movq	-8(%rbp), %rax
	leaq	(%rdx,%rax), %rcx
	movq	-56(%rbp), %rdx
	movq	-32(%rbp), %rax
	movq	%rcx, %rsi
	movq	%rax, %rdi
	call	_ZNSt7__cxx1112basic_stringIcSt11char_traitsIcESaIcEE7_S_copyEPcPKcm
	jmp	.L582
.L581:
	movq	-32(%rbp), %rdx
	movq	-40(%rbp), %rax
	addq	%rdx, %rax
	subq	-48(%rbp), %rax
	movq	%rax, -16(%rbp)
	movq	-16(%rbp), %rdx
	movq	-48(%rbp), %rcx
	movq	-32(%rbp), %rax
	movq	%rcx, %rsi
	movq	%rax, %rdi
	call	_ZNSt7__cxx1112basic_stringIcSt11char_traitsIcESaIcEE7_S_moveEPcPKcm
	movq	-56(%rbp), %rax
	subq	-16(%rbp), %rax
	movq	-32(%rbp), %rcx
	movq	-56(%rbp), %rdx
	leaq	(%rcx,%rdx), %rsi
	movq	-32(%rbp), %rcx
	movq	-16(%rbp), %rdx
	addq	%rdx, %rcx
	movq	%rax, %rdx
	movq	%rcx, %rdi
	call	_ZNSt7__cxx1112basic_stringIcSt11char_traitsIcESaIcEE7_S_copyEPcPKcm
.L582:
	nop
	leave
	.cfi_def_cfa 7, 8
	ret
	.cfi_endproc
.LFE3842:
	.size	_ZNSt7__cxx1112basic_stringIcSt11char_traitsIcESaIcEE15_M_replace_coldEPcmPKcmm, .-_ZNSt7__cxx1112basic_stringIcSt11char_traitsIcESaIcEE15_M_replace_coldEPcmPKcmm
	.section	.text._ZNSt7__cxx1112basic_stringIcSt11char_traitsIcESaIcEE9_M_mutateEmmPKcm,"axG",@progbits,_ZNSt7__cxx1112basic_stringIcSt11char_traitsIcESaIcEE9_M_mutateEmmPKcm,comdat
	.align 2
	.weak	_ZNSt7__cxx1112basic_stringIcSt11char_traitsIcESaIcEE9_M_mutateEmmPKcm
	.type	_ZNSt7__cxx1112basic_stringIcSt11char_traitsIcESaIcEE9_M_mutateEmmPKcm, @function
_ZNSt7__cxx1112basic_stringIcSt11char_traitsIcESaIcEE9_M_mutateEmmPKcm:
.LFB3843:
	.cfi_startproc
	pushq	%rbp
	.cfi_def_cfa_offset 16
	.cfi_offset 6, -16
	movq	%rsp, %rbp
	.cfi_def_cfa_register 6
	subq	$80, %rsp
	movq	%rdi, -40(%rbp)
	movq	%rsi, -48(%rbp)
	movq	%rdx, -56(%rbp)
	movq	%rcx, -64(%rbp)
	movq	%r8, -72(%rbp)
	movq	%fs:40, %rax
	movq	%rax, -8(%rbp)
	xorl	%eax, %eax
	movq	-40(%rbp), %rax
	movq	%rax, %rdi
	call	_ZNKSt7__cxx1112basic_stringIcSt11char_traitsIcESaIcEE6lengthEv
	subq	-48(%rbp), %rax
	subq	-56(%rbp), %rax
	movq	%rax, -24(%rbp)
	movq	-40(%rbp), %rax
	movq	%rax, %rdi
	call	_ZNKSt7__cxx1112basic_stringIcSt11char_traitsIcESaIcEE6lengthEv
	movq	-72(%rbp), %rdx
	addq	%rdx, %rax
	subq	-56(%rbp), %rax
	movq	%rax, -32(%rbp)
	movq	-40(%rbp), %rax
	movq	%rax, %rdi
	call	_ZNKSt7__cxx1112basic_stringIcSt11char_traitsIcESaIcEE8capacityEv
	movq	%rax, %rdx
	leaq	-32(%rbp), %rcx
	movq	-40(%rbp), %rax
	movq	%rcx, %rsi
	movq	%rax, %rdi
	call	_ZNSt7__cxx1112basic_stringIcSt11char_traitsIcESaIcEE9_M_createERmm
	movq	%rax, -16(%rbp)
	cmpq	$0, -48(%rbp)
	je	.L584
	movq	-40(%rbp), %rax
	movq	%rax, %rdi
	call	_ZNKSt7__cxx1112basic_stringIcSt11char_traitsIcESaIcEE7_M_dataEv
	movq	%rax, %rcx
	movq	-48(%rbp), %rdx
	movq	-16(%rbp), %rax
	movq	%rcx, %rsi
	movq	%rax, %rdi
	call	_ZNSt7__cxx1112basic_stringIcSt11char_traitsIcESaIcEE7_S_copyEPcPKcm
.L584:
	cmpq	$0, -64(%rbp)
	je	.L585
	cmpq	$0, -72(%rbp)
	je	.L585
	movq	-16(%rbp), %rdx
	movq	-48(%rbp), %rax
	leaq	(%rdx,%rax), %rcx
	movq	-72(%rbp), %rdx
	movq	-64(%rbp), %rax
	movq	%rax, %rsi
	movq	%rcx, %rdi
	call	_ZNSt7__cxx1112basic_stringIcSt11char_traitsIcESaIcEE7_S_copyEPcPKcm
.L585:
	cmpq	$0, -24(%rbp)
	je	.L586
	movq	-40(%rbp), %rax
	movq	%rax, %rdi
	call	_ZNKSt7__cxx1112basic_stringIcSt11char_traitsIcESaIcEE7_M_dataEv
	movq	-48(%rbp), %rcx
	movq	-56(%rbp), %rdx
	addq	%rcx, %rdx
	leaq	(%rax,%rdx), %rsi
	movq	-48(%rbp), %rdx
	movq	-72(%rbp), %rax
	addq	%rax, %rdx
	movq	-16(%rbp), %rax
	leaq	(%rdx,%rax), %rcx
	movq	-24(%rbp), %rax
	movq	%rax, %rdx
	movq	%rcx, %rdi
	call	_ZNSt7__cxx1112basic_stringIcSt11char_traitsIcESaIcEE7_S_copyEPcPKcm
.L586:
	movq	-40(%rbp), %rax
	movq	%rax, %rdi
	call	_ZNSt7__cxx1112basic_stringIcSt11char_traitsIcESaIcEE10_M_disposeEv
	movq	-16(%rbp), %rdx
	movq	-40(%rbp), %rax
	movq	%rdx, %rsi
	movq	%rax, %rdi
	call	_ZNSt7__cxx1112basic_stringIcSt11char_traitsIcESaIcEE7_M_dataEPc
	movq	-32(%rbp), %rdx
	movq	-40(%rbp), %rax
	movq	%rdx, %rsi
	movq	%rax, %rdi
	call	_ZNSt7__cxx1112basic_stringIcSt11char_traitsIcESaIcEE11_M_capacityEm
	nop
	movq	-8(%rbp), %rax
	subq	%fs:40, %rax
	je	.L587
	call	__stack_chk_fail@PLT
.L587:
	leave
	.cfi_def_cfa 7, 8
	ret
	.cfi_endproc
.LFE3843:
	.size	_ZNSt7__cxx1112basic_stringIcSt11char_traitsIcESaIcEE9_M_mutateEmmPKcm, .-_ZNSt7__cxx1112basic_stringIcSt11char_traitsIcESaIcEE9_M_mutateEmmPKcm
	.section	.text._ZNSt6chrono20__duration_cast_implINS_8durationIdSt5ratioILl1ELl1EEEES2_ILl1ELl1000000000EEdLb1ELb0EE6__castIlS5_EES4_RKNS1_IT_T0_EE,"axG",@progbits,_ZNSt6chrono20__duration_cast_implINS_8durationIdSt5ratioILl1ELl1EEEES2_ILl1ELl1000000000EEdLb1ELb0EE6__castIlS5_EES4_RKNS1_IT_T0_EE,comdat
	.weak	_ZNSt6chrono20__duration_cast_implINS_8durationIdSt5ratioILl1ELl1EEEES2_ILl1ELl1000000000EEdLb1ELb0EE6__castIlS5_EES4_RKNS1_IT_T0_EE
	.type	_ZNSt6chrono20__duration_cast_implINS_8durationIdSt5ratioILl1ELl1EEEES2_ILl1ELl1000000000EEdLb1ELb0EE6__castIlS5_EES4_RKNS1_IT_T0_EE, @function
_ZNSt6chrono20__duration_cast_implINS_8durationIdSt5ratioILl1ELl1EEEES2_ILl1ELl1000000000EEdLb1ELb0EE6__castIlS5_EES4_RKNS1_IT_T0_EE:
.LFB3844:
	.cfi_startproc
	pushq	%rbp
	.cfi_def_cfa_offset 16
	.cfi_offset 6, -16
	movq	%rsp, %rbp
	.cfi_def_cfa_register 6
	subq	$48, %rsp
	movq	%rdi, -40(%rbp)
	movq	%fs:40, %rax
	movq	%rax, -8(%rbp)
	xorl	%eax, %eax
	movq	-40(%rbp), %rax
	movq	%rax, %rdi
	call	_ZNKSt6chrono8durationIlSt5ratioILl1ELl1000000000EEE5countEv
	pxor	%xmm0, %xmm0
	cvtsi2sdq	%rax, %xmm0
	movsd	.LC72(%rip), %xmm1
	divsd	%xmm1, %xmm0
	movsd	%xmm0, -24(%rbp)
	leaq	-24(%rbp), %rdx
	leaq	-16(%rbp), %rax
	movq	%rdx, %rsi
	movq	%rax, %rdi
	call	_ZNSt6chrono8durationIdSt5ratioILl1ELl1EEEC1IdvEERKT_
	movsd	-16(%rbp), %xmm0
	movq	-8(%rbp), %rax
	subq	%fs:40, %rax
	je	.L590
	call	__stack_chk_fail@PLT
.L590:
	leave
	.cfi_def_cfa 7, 8
	ret
	.cfi_endproc
.LFE3844:
	.size	_ZNSt6chrono20__duration_cast_implINS_8durationIdSt5ratioILl1ELl1EEEES2_ILl1ELl1000000000EEdLb1ELb0EE6__castIlS5_EES4_RKNS1_IT_T0_EE, .-_ZNSt6chrono20__duration_cast_implINS_8durationIdSt5ratioILl1ELl1EEEES2_ILl1ELl1000000000EEdLb1ELb0EE6__castIlS5_EES4_RKNS1_IT_T0_EE
	.section	.text._ZNKSt6vectorImSaImEE8max_sizeEv,"axG",@progbits,_ZNKSt6vectorImSaImEE8max_sizeEv,comdat
	.align 2
	.weak	_ZNKSt6vectorImSaImEE8max_sizeEv
	.type	_ZNKSt6vectorImSaImEE8max_sizeEv, @function
_ZNKSt6vectorImSaImEE8max_sizeEv:
.LFB3869:
	.cfi_startproc
	pushq	%rbp
	.cfi_def_cfa_offset 16
	.cfi_offset 6, -16
	movq	%rsp, %rbp
	.cfi_def_cfa_register 6
	subq	$16, %rsp
	movq	%rdi, -8(%rbp)
	movq	-8(%rbp), %rax
	movq	%rax, %rdi
	call	_ZNKSt12_Vector_baseImSaImEE19_M_get_Tp_allocatorEv
	movq	%rax, %rdi
	call	_ZNSt6vectorImSaImEE11_S_max_sizeERKS0_
	leave
	.cfi_def_cfa 7, 8
	ret
	.cfi_endproc
.LFE3869:
	.size	_ZNKSt6vectorImSaImEE8max_sizeEv, .-_ZNKSt6vectorImSaImEE8max_sizeEv
	.section	.text._ZSt3maxImERKT_S2_S2_,"axG",@progbits,_ZSt3maxImERKT_S2_S2_,comdat
