	.section	__TEXT,__text,regular,pure_instructions
	.build_version macos, 26, 0	sdk_version 26, 2
	.globl	_main                           ; -- Begin function main
	.p2align	2
_main:                                  ; @main
Lfunc_begin0:
	.cfi_startproc
	.cfi_personality 155, ___gxx_personality_v0
	.cfi_lsda 16, Lexception0
; %bb.0:
	stp	x28, x27, [sp, #-32]!           ; 16-byte Folded Spill
	stp	x29, x30, [sp, #16]             ; 16-byte Folded Spill
	add	x29, sp, #16
	sub	sp, sp, #3520
	.cfi_def_cfa w29, 16
	.cfi_offset w30, -8
	.cfi_offset w29, -16
	.cfi_offset w27, -24
	.cfi_offset w28, -32
	adrp	x8, ___stack_chk_guard@GOTPAGE
	ldr	x8, [x8, ___stack_chk_guard@GOTPAGEOFF]
	ldr	x8, [x8]
	stur	x8, [x29, #-24]
	str	wzr, [sp, #1356]
	str	w0, [sp, #1352]
	str	x1, [sp, #1344]
	mov	x8, #61568                      ; =0xf080
	movk	x8, #762, lsl #16
	str	x8, [sp, #1336]
	ldr	w8, [sp, #1352]
	subs	w8, w8, #2
	b.lt	LBB0_5
	b	LBB0_1
LBB0_1:
	ldr	x8, [sp, #1344]
	ldr	x1, [x8, #8]
Ltmp0:
	add	x0, sp, #1312
	bl	__ZNSt3__112basic_stringIcNS_11char_traitsIcEENS_9allocatorIcEEEC1B8ne200100ILi0EEEPKc
Ltmp1:
	b	LBB0_2
LBB0_2:
Ltmp2:
	add	x0, sp, #1312
	mov	x1, #0                          ; =0x0
	mov	w2, #10                         ; =0xa
	bl	__ZNSt3__15stollERKNS_12basic_stringIcNS_11char_traitsIcEENS_9allocatorIcEEEEPmi
	str	x0, [sp, #608]                  ; 8-byte Folded Spill
Ltmp3:
	b	LBB0_3
LBB0_3:
	ldr	x8, [sp, #608]                  ; 8-byte Folded Reload
	str	x8, [sp, #1336]
	add	x0, sp, #1312
	bl	__ZNSt3__112basic_stringIcNS_11char_traitsIcEENS_9allocatorIcEEED1Ev
	b	LBB0_5
LBB0_4:
Ltmp4:
	str	x0, [sp, #1304]
	mov	x8, x1
	str	w8, [sp, #1300]
	add	x0, sp, #1312
	bl	__ZNSt3__112basic_stringIcNS_11char_traitsIcEENS_9allocatorIcEEED1Ev
	b	LBB0_171
LBB0_5:
	ldr	x8, [sp, #1336]
	subs	x8, x8, #0
	b.gt	LBB0_8
	b	LBB0_6
LBB0_6:
Ltmp222:
	adrp	x0, __ZNSt3__14cerrE@GOTPAGE
	ldr	x0, [x0, __ZNSt3__14cerrE@GOTPAGEOFF]
	adrp	x1, l_.str@PAGE
	add	x1, x1, l_.str@PAGEOFF
	bl	__ZNSt3__1lsB8ne200100INS_11char_traitsIcEEEERNS_13basic_ostreamIcT_EES6_PKc
Ltmp223:
	b	LBB0_7
LBB0_7:
	mov	w8, #1                          ; =0x1
	str	w8, [sp, #1356]
	b	LBB0_168
LBB0_8:
	add	x0, sp, #1272
	bl	__ZNSt3__16vectorIxNS_9allocatorIxEEEC1B8ne200100Ev
	ldr	w8, [sp, #1352]
	subs	w8, w8, #3
	b.lt	LBB0_15
	b	LBB0_9
LBB0_9:
	ldr	x8, [sp, #1344]
	ldr	x1, [x8, #16]
Ltmp7:
	add	x0, sp, #1240
	bl	__ZNSt3__112basic_stringIcNS_11char_traitsIcEENS_9allocatorIcEEEC1B8ne200100ILi0EEEPKc
Ltmp8:
	b	LBB0_10
LBB0_10:
Ltmp10:
	add	x0, sp, #1240
	mov	x1, #0                          ; =0x0
	mov	w2, #10                         ; =0xa
	bl	__ZNSt3__15stollERKNS_12basic_stringIcNS_11char_traitsIcEENS_9allocatorIcEEEEPmi
	str	x0, [sp, #600]                  ; 8-byte Folded Spill
Ltmp11:
	b	LBB0_11
LBB0_11:
	ldr	x8, [sp, #600]                  ; 8-byte Folded Reload
	add	x1, sp, #1264
	str	x8, [sp, #1264]
Ltmp12:
	add	x0, sp, #1272
	bl	__ZNSt3__16vectorIxNS_9allocatorIxEEE9push_backB8ne200100EOx
Ltmp13:
	b	LBB0_12
LBB0_12:
	add	x0, sp, #1240
	bl	__ZNSt3__112basic_stringIcNS_11char_traitsIcEENS_9allocatorIcEEED1Ev
	b	LBB0_17
LBB0_13:
Ltmp9:
	str	x0, [sp, #1304]
	mov	x8, x1
	str	w8, [sp, #1300]
	b	LBB0_167
LBB0_14:
Ltmp14:
	str	x0, [sp, #1304]
	mov	x8, x1
	str	w8, [sp, #1300]
	add	x0, sp, #1240
	bl	__ZNSt3__112basic_stringIcNS_11char_traitsIcEENS_9allocatorIcEEED1Ev
	b	LBB0_167
LBB0_15:
	sub	x0, x29, #72
	str	x0, [sp, #592]                  ; 8-byte Folded Spill
	mov	x2, #48                         ; =0x30
	adrp	x1, l_constinit@PAGE
	add	x1, x1, l_constinit@PAGEOFF
	bl	_memcpy
	ldr	x8, [sp, #592]                  ; 8-byte Folded Reload
	str	x8, [sp, #1224]
	mov	x8, #6                          ; =0x6
	str	x8, [sp, #1232]
	ldr	x1, [sp, #1224]
	ldr	x2, [sp, #1232]
Ltmp5:
	add	x0, sp, #1272
	bl	__ZNSt3__16vectorIxNS_9allocatorIxEEEaSB8ne200100ESt16initializer_listIxE
Ltmp6:
	b	LBB0_16
LBB0_16:
	b	LBB0_17
LBB0_17:
	mov	x8, #3                          ; =0x3
	str	x8, [sp, #576]                  ; 8-byte Folded Spill
	str	x8, [sp, #1216]
	add	x0, sp, #1192
	str	x0, [sp, #584]                  ; 8-byte Folded Spill
	bl	__ZNSt3__16vectorI6ResultNS_9allocatorIS1_EEEC1B8ne200100Ev
	add	x0, sp, #1272
	bl	__ZNKSt3__16vectorIxNS_9allocatorIxEEE4sizeB8ne200100Ev
	ldr	x9, [sp, #576]                  ; 8-byte Folded Reload
	mov	x8, x0
	ldr	x0, [sp, #584]                  ; 8-byte Folded Reload
	mul	x1, x8, x9
Ltmp15:
	bl	__ZNSt3__16vectorI6ResultNS_9allocatorIS1_EEE7reserveEm
Ltmp16:
	b	LBB0_18
LBB0_18:
	add	x0, sp, #1168
	bl	__ZNSt3__112basic_stringIcNS_11char_traitsIcEENS_9allocatorIcEEEC1B8ne200100Ev
	add	x0, sp, #1144
	bl	__ZNSt3__112basic_stringIcNS_11char_traitsIcEENS_9allocatorIcEEEC1B8ne200100Ev
	add	x0, sp, #1120
	bl	__ZNSt3__112basic_stringIcNS_11char_traitsIcEENS_9allocatorIcEEEC1B8ne200100Ev
	add	x0, sp, #1096
	bl	__ZNSt3__112basic_stringIcNS_11char_traitsIcEENS_9allocatorIcEEEC1B8ne200100Ev
	add	x0, sp, #1072
	bl	__ZNSt3__112basic_stringIcNS_11char_traitsIcEENS_9allocatorIcEEEC1B8ne200100Ev
Ltmp18:
	add	x0, sp, #2888
	adrp	x1, l_.str.1@PAGE
	add	x1, x1, l_.str.1@PAGEOFF
	mov	w2, #8                          ; =0x8
	bl	__ZNSt3__114basic_ifstreamIcNS_11char_traitsIcEEEC1EPKcj
Ltmp19:
	b	LBB0_19
LBB0_19:
	add	x0, sp, #1048
	bl	__ZNSt3__112basic_stringIcNS_11char_traitsIcEENS_9allocatorIcEEEC1B8ne200100Ev
	b	LBB0_20
LBB0_20:                                ; =>This Inner Loop Header: Depth=1
Ltmp20:
	add	x0, sp, #2888
	add	x1, sp, #1048
	bl	__ZNSt3__17getlineB8ne200100IcNS_11char_traitsIcEENS_9allocatorIcEEEERNS_13basic_istreamIT_T0_EES9_RNS_12basic_stringIS6_S7_T1_EE
	str	x0, [sp, #568]                  ; 8-byte Folded Spill
Ltmp21:
	b	LBB0_21
LBB0_21:                                ;   in Loop: Header=BB0_20 Depth=1
	ldr	x8, [sp, #568]                  ; 8-byte Folded Reload
	ldr	x9, [x8]
	ldur	x9, [x9, #-24]
	add	x0, x8, x9
Ltmp22:
	bl	__ZNKSt3__19basic_iosIcNS_11char_traitsIcEEEcvbB8ne200100Ev
	str	w0, [sp, #564]                  ; 4-byte Folded Spill
Ltmp23:
	b	LBB0_22
LBB0_22:                                ;   in Loop: Header=BB0_20 Depth=1
	ldr	w8, [sp, #564]                  ; 4-byte Folded Reload
	tbz	w8, #0, LBB0_33
	b	LBB0_23
LBB0_23:                                ;   in Loop: Header=BB0_20 Depth=1
	add	x0, sp, #1048
	adrp	x1, l_.str.2@PAGE
	add	x1, x1, l_.str.2@PAGEOFF
	mov	x2, #0                          ; =0x0
	bl	__ZNKSt3__112basic_stringIcNS_11char_traitsIcEENS_9allocatorIcEEE4findB8ne200100EPKcm
	adds	x8, x0, #1
	b.eq	LBB0_29
	b	LBB0_24
LBB0_24:                                ;   in Loop: Header=BB0_20 Depth=1
	add	x0, sp, #1048
	str	x0, [sp, #552]                  ; 8-byte Folded Spill
	adrp	x1, l_.str.3@PAGE
	add	x1, x1, l_.str.3@PAGEOFF
	mov	x2, #0                          ; =0x0
	bl	__ZNKSt3__112basic_stringIcNS_11char_traitsIcEENS_9allocatorIcEEE4findB8ne200100EPKcm
	mov	x8, x0
	ldr	x0, [sp, #552]                  ; 8-byte Folded Reload
	add	x1, x8, #2
Ltmp217:
	add	x8, sp, #1024
	mov	x2, #-1                         ; =0xffffffffffffffff
	bl	__ZNKSt3__112basic_stringIcNS_11char_traitsIcEENS_9allocatorIcEEE6substrB8ne200100Emm
Ltmp218:
	b	LBB0_25
LBB0_25:                                ;   in Loop: Header=BB0_20 Depth=1
	add	x0, sp, #1168
	add	x1, sp, #1024
	str	x1, [sp, #544]                  ; 8-byte Folded Spill
	bl	__ZNSt3__112basic_stringIcNS_11char_traitsIcEENS_9allocatorIcEEEaSB8ne200100EOS5_
	ldr	x0, [sp, #544]                  ; 8-byte Folded Reload
	bl	__ZNSt3__112basic_stringIcNS_11char_traitsIcEENS_9allocatorIcEEED1Ev
	b	LBB0_29
LBB0_26:
Ltmp17:
	str	x0, [sp, #1304]
	mov	x8, x1
	str	w8, [sp, #1300]
	b	LBB0_166
LBB0_27:
Ltmp216:
	str	x0, [sp, #1304]
	mov	x8, x1
	str	w8, [sp, #1300]
	b	LBB0_165
LBB0_28:
Ltmp221:
	str	x0, [sp, #1304]
	mov	x8, x1
	str	w8, [sp, #1300]
	add	x0, sp, #1048
	bl	__ZNSt3__112basic_stringIcNS_11char_traitsIcEENS_9allocatorIcEEED1Ev
	add	x0, sp, #2888
	bl	__ZNSt3__114basic_ifstreamIcNS_11char_traitsIcEEED1Ev
	b	LBB0_165
LBB0_29:                                ;   in Loop: Header=BB0_20 Depth=1
	add	x0, sp, #1048
	adrp	x1, l_.str.4@PAGE
	add	x1, x1, l_.str.4@PAGEOFF
	mov	x2, #0                          ; =0x0
	bl	__ZNKSt3__112basic_stringIcNS_11char_traitsIcEENS_9allocatorIcEEE4findB8ne200100EPKcm
	adds	x8, x0, #1
	b.eq	LBB0_32
	b	LBB0_30
LBB0_30:                                ;   in Loop: Header=BB0_20 Depth=1
	add	x0, sp, #1048
	str	x0, [sp, #536]                  ; 8-byte Folded Spill
	adrp	x1, l_.str.3@PAGE
	add	x1, x1, l_.str.3@PAGEOFF
	mov	x2, #0                          ; =0x0
	bl	__ZNKSt3__112basic_stringIcNS_11char_traitsIcEENS_9allocatorIcEEE4findB8ne200100EPKcm
	mov	x8, x0
	ldr	x0, [sp, #536]                  ; 8-byte Folded Reload
	add	x1, x8, #2
Ltmp219:
	add	x8, sp, #1000
	mov	x2, #-1                         ; =0xffffffffffffffff
	bl	__ZNKSt3__112basic_stringIcNS_11char_traitsIcEENS_9allocatorIcEEE6substrB8ne200100Emm
Ltmp220:
	b	LBB0_31
LBB0_31:                                ;   in Loop: Header=BB0_20 Depth=1
	add	x0, sp, #1144
	add	x1, sp, #1000
	str	x1, [sp, #528]                  ; 8-byte Folded Spill
	bl	__ZNSt3__112basic_stringIcNS_11char_traitsIcEENS_9allocatorIcEEEaSB8ne200100EOS5_
	ldr	x0, [sp, #528]                  ; 8-byte Folded Reload
	bl	__ZNSt3__112basic_stringIcNS_11char_traitsIcEENS_9allocatorIcEEED1Ev
	b	LBB0_32
LBB0_32:                                ;   in Loop: Header=BB0_20 Depth=1
	b	LBB0_20
LBB0_33:
	add	x0, sp, #1048
	bl	__ZNSt3__112basic_stringIcNS_11char_traitsIcEENS_9allocatorIcEEED1Ev
	add	x0, sp, #2888
	bl	__ZNSt3__114basic_ifstreamIcNS_11char_traitsIcEEED1Ev
Ltmp24:
	add	x0, sp, #2312
	adrp	x1, l_.str.5@PAGE
	add	x1, x1, l_.str.5@PAGEOFF
	mov	w2, #8                          ; =0x8
	bl	__ZNSt3__114basic_ifstreamIcNS_11char_traitsIcEEEC1EPKcj
Ltmp25:
	b	LBB0_34
LBB0_34:
	add	x0, sp, #976
	str	x0, [sp, #512]                  ; 8-byte Folded Spill
	bl	__ZNSt3__112basic_stringIcNS_11char_traitsIcEENS_9allocatorIcEEEC1B8ne200100Ev
	ldr	x1, [sp, #512]                  ; 8-byte Folded Reload
Ltmp26:
	add	x0, sp, #2312
	bl	__ZNSt3__17getlineB8ne200100IcNS_11char_traitsIcEENS_9allocatorIcEEEERNS_13basic_istreamIT_T0_EES9_RNS_12basic_stringIS6_S7_T1_EE
	str	x0, [sp, #520]                  ; 8-byte Folded Spill
Ltmp27:
	b	LBB0_35
LBB0_35:
	ldr	x8, [sp, #520]                  ; 8-byte Folded Reload
	ldr	x9, [x8]
	ldur	x9, [x9, #-24]
	add	x0, x8, x9
Ltmp28:
	bl	__ZNKSt3__19basic_iosIcNS_11char_traitsIcEEEcvbB8ne200100Ev
	str	w0, [sp, #508]                  ; 4-byte Folded Spill
Ltmp29:
	b	LBB0_36
LBB0_36:
	ldr	w8, [sp, #508]                  ; 4-byte Folded Reload
	tbz	w8, #0, LBB0_42
	b	LBB0_37
LBB0_37:
	add	x0, sp, #976
	adrp	x1, l_.str.6@PAGE
	add	x1, x1, l_.str.6@PAGEOFF
	mov	x2, #0                          ; =0x0
	bl	__ZNKSt3__112basic_stringIcNS_11char_traitsIcEENS_9allocatorIcEEE4findB8ne200100EPKcm
	adds	x8, x0, #1
	b.eq	LBB0_41
	b	LBB0_38
LBB0_38:
	add	x0, sp, #976
	str	x0, [sp, #496]                  ; 8-byte Folded Spill
	adrp	x1, l_.str.3@PAGE
	add	x1, x1, l_.str.3@PAGEOFF
	mov	x2, #0                          ; =0x0
	bl	__ZNKSt3__112basic_stringIcNS_11char_traitsIcEENS_9allocatorIcEEE4findB8ne200100EPKcm
	mov	x8, x0
	ldr	x0, [sp, #496]                  ; 8-byte Folded Reload
	add	x1, x8, #2
Ltmp30:
	add	x8, sp, #952
	mov	x2, #-1                         ; =0xffffffffffffffff
	bl	__ZNKSt3__112basic_stringIcNS_11char_traitsIcEENS_9allocatorIcEEE6substrB8ne200100Emm
Ltmp31:
	b	LBB0_39
LBB0_39:
	add	x0, sp, #1120
	add	x1, sp, #952
	str	x1, [sp, #488]                  ; 8-byte Folded Spill
	bl	__ZNSt3__112basic_stringIcNS_11char_traitsIcEENS_9allocatorIcEEEaSB8ne200100EOS5_
	ldr	x0, [sp, #488]                  ; 8-byte Folded Reload
	bl	__ZNSt3__112basic_stringIcNS_11char_traitsIcEENS_9allocatorIcEEED1Ev
	b	LBB0_41
LBB0_40:
Ltmp32:
	str	x0, [sp, #1304]
	mov	x8, x1
	str	w8, [sp, #1300]
	add	x0, sp, #976
	bl	__ZNSt3__112basic_stringIcNS_11char_traitsIcEENS_9allocatorIcEEED1Ev
	add	x0, sp, #2312
	bl	__ZNSt3__114basic_ifstreamIcNS_11char_traitsIcEEED1Ev
	b	LBB0_165
LBB0_41:
	b	LBB0_42
LBB0_42:
	add	x0, sp, #976
	bl	__ZNSt3__112basic_stringIcNS_11char_traitsIcEENS_9allocatorIcEEED1Ev
	add	x0, sp, #2312
	bl	__ZNSt3__114basic_ifstreamIcNS_11char_traitsIcEEED1Ev
Ltmp33:
	add	x0, sp, #2056
	mov	x1, #256                        ; =0x100
	bl	_gethostname
	str	w0, [sp, #484]                  ; 4-byte Folded Spill
Ltmp34:
	b	LBB0_43
LBB0_43:
	ldr	w8, [sp, #484]                  ; 4-byte Folded Reload
	cbnz	w8, LBB0_46
	b	LBB0_44
LBB0_44:
Ltmp35:
	add	x0, sp, #1096
	add	x1, sp, #2056
	bl	__ZNSt3__112basic_stringIcNS_11char_traitsIcEENS_9allocatorIcEEEaSB8ne200100EPKc
Ltmp36:
	b	LBB0_45
LBB0_45:
	b	LBB0_46
LBB0_46:
Ltmp37:
	adrp	x0, l_.str.7@PAGE
	add	x0, x0, l_.str.7@PAGEOFF
	adrp	x1, l_.str.8@PAGE
	add	x1, x1, l_.str.8@PAGEOFF
	bl	_popen
	str	x0, [sp, #472]                  ; 8-byte Folded Spill
Ltmp38:
	b	LBB0_47
LBB0_47:
	ldr	x8, [sp, #472]                  ; 8-byte Folded Reload
	str	x8, [sp, #944]
	ldr	x8, [sp, #944]
	cbz	x8, LBB0_58
	b	LBB0_48
LBB0_48:
	ldr	x2, [sp, #944]
Ltmp39:
	add	x0, sp, #1928
	mov	w1, #128                        ; =0x80
	bl	_fgets
	str	x0, [sp, #464]                  ; 8-byte Folded Spill
Ltmp40:
	b	LBB0_49
LBB0_49:
	ldr	x8, [sp, #464]                  ; 8-byte Folded Reload
	cbz	x8, LBB0_56
	b	LBB0_50
LBB0_50:
Ltmp41:
	add	x0, sp, #920
	add	x1, sp, #1928
	bl	__ZNSt3__112basic_stringIcNS_11char_traitsIcEENS_9allocatorIcEEEC1B8ne200100ILi0EEEPKc
Ltmp42:
	b	LBB0_51
LBB0_51:
	add	x0, sp, #1072
	str	x0, [sp, #456]                  ; 8-byte Folded Spill
	add	x1, sp, #920
	str	x1, [sp, #448]                  ; 8-byte Folded Spill
	bl	__ZNSt3__112basic_stringIcNS_11char_traitsIcEENS_9allocatorIcEEEaSB8ne200100EOS5_
	ldr	x0, [sp, #448]                  ; 8-byte Folded Reload
	bl	__ZNSt3__112basic_stringIcNS_11char_traitsIcEENS_9allocatorIcEEED1Ev
	ldr	x0, [sp, #456]                  ; 8-byte Folded Reload
	bl	__ZNKSt3__112basic_stringIcNS_11char_traitsIcEENS_9allocatorIcEEE5emptyB8ne200100Ev
	tbnz	w0, #0, LBB0_55
	b	LBB0_52
LBB0_52:
	add	x0, sp, #1072
	bl	__ZNSt3__112basic_stringIcNS_11char_traitsIcEENS_9allocatorIcEEE4backB8ne200100Ev
	ldrsb	w8, [x0]
	subs	w8, w8, #10
	b.ne	LBB0_55
	b	LBB0_53
LBB0_53:
Ltmp43:
	add	x0, sp, #1072
	bl	__ZNSt3__112basic_stringIcNS_11char_traitsIcEENS_9allocatorIcEEE8pop_backB8ne200100Ev
Ltmp44:
	b	LBB0_54
LBB0_54:
	b	LBB0_55
LBB0_55:
	b	LBB0_56
LBB0_56:
	ldr	x0, [sp, #944]
Ltmp45:
	bl	_pclose
Ltmp46:
	b	LBB0_57
LBB0_57:
	b	LBB0_58
LBB0_58:
Ltmp47:
	adrp	x0, __ZNSt3__14coutE@GOTPAGE
	ldr	x0, [x0, __ZNSt3__14coutE@GOTPAGEOFF]
	adrp	x1, __ZNSt3__15fixedB8ne200100ERNS_8ios_baseE@PAGE
	add	x1, x1, __ZNSt3__15fixedB8ne200100ERNS_8ios_baseE@PAGEOFF
	bl	__ZNSt3__113basic_ostreamIcNS_11char_traitsIcEEElsB8ne200100EPFRNS_8ios_baseES5_E
	str	x0, [sp, #440]                  ; 8-byte Folded Spill
Ltmp48:
	b	LBB0_59
LBB0_59:
Ltmp49:
	mov	w0, #6                          ; =0x6
	bl	__ZNSt3__112setprecisionB8ne200100Ei
	str	w0, [sp, #436]                  ; 4-byte Folded Spill
Ltmp50:
	b	LBB0_60
LBB0_60:
	ldr	x0, [sp, #440]                  ; 8-byte Folded Reload
	ldr	w8, [sp, #436]                  ; 4-byte Folded Reload
	add	x1, sp, #916
	str	w8, [sp, #916]
Ltmp51:
	bl	__ZNSt3__1lsB8ne200100IcNS_11char_traitsIcEEEERNS_13basic_ostreamIT_T0_EES7_RKNS_8__iom_t5E
Ltmp52:
	b	LBB0_61
LBB0_61:
Ltmp53:
	adrp	x0, __ZNSt3__14coutE@GOTPAGE
	ldr	x0, [x0, __ZNSt3__14coutE@GOTPAGEOFF]
	adrp	x1, l_.str.9@PAGE
	add	x1, x1, l_.str.9@PAGEOFF
	bl	__ZNSt3__1lsB8ne200100INS_11char_traitsIcEEEERNS_13basic_ostreamIcT_EES6_PKc
Ltmp54:
	b	LBB0_62
LBB0_62:
Ltmp55:
	adrp	x0, __ZNSt3__14coutE@GOTPAGE
	ldr	x0, [x0, __ZNSt3__14coutE@GOTPAGEOFF]
	adrp	x1, l_.str.10@PAGE
	add	x1, x1, l_.str.10@PAGEOFF
	bl	__ZNSt3__1lsB8ne200100INS_11char_traitsIcEEEERNS_13basic_ostreamIcT_EES6_PKc
Ltmp56:
	b	LBB0_63
LBB0_63:
Ltmp57:
	adrp	x0, __ZNSt3__14coutE@GOTPAGE
	ldr	x0, [x0, __ZNSt3__14coutE@GOTPAGEOFF]
	adrp	x1, l_.str.9@PAGE
	add	x1, x1, l_.str.9@PAGEOFF
	bl	__ZNSt3__1lsB8ne200100INS_11char_traitsIcEEEERNS_13basic_ostreamIcT_EES6_PKc
Ltmp58:
	b	LBB0_64
LBB0_64:
Ltmp59:
	adrp	x0, __ZNSt3__14coutE@GOTPAGE
	ldr	x0, [x0, __ZNSt3__14coutE@GOTPAGEOFF]
	adrp	x1, l_.str.11@PAGE
	add	x1, x1, l_.str.11@PAGEOFF
	bl	__ZNSt3__1lsB8ne200100INS_11char_traitsIcEEEERNS_13basic_ostreamIcT_EES6_PKc
Ltmp60:
	b	LBB0_65
LBB0_65:
Ltmp61:
	adrp	x0, __ZNSt3__14coutE@GOTPAGE
	ldr	x0, [x0, __ZNSt3__14coutE@GOTPAGEOFF]
	adrp	x1, l_.str.12@PAGE
	add	x1, x1, l_.str.12@PAGEOFF
	bl	__ZNSt3__1lsB8ne200100INS_11char_traitsIcEEEERNS_13basic_ostreamIcT_EES6_PKc
	str	x0, [sp, #424]                  ; 8-byte Folded Spill
Ltmp62:
	b	LBB0_66
LBB0_66:
Ltmp63:
	ldr	x0, [sp, #424]                  ; 8-byte Folded Reload
	add	x1, sp, #1096
	bl	__ZNSt3__1lsB8ne200100IcNS_11char_traitsIcEENS_9allocatorIcEEEERNS_13basic_ostreamIT_T0_EES9_RKNS_12basic_stringIS6_S7_T1_EE
	str	x0, [sp, #416]                  ; 8-byte Folded Spill
Ltmp64:
	b	LBB0_67
LBB0_67:
Ltmp65:
	ldr	x0, [sp, #416]                  ; 8-byte Folded Reload
	adrp	x1, l_.str.13@PAGE
	add	x1, x1, l_.str.13@PAGEOFF
	bl	__ZNSt3__1lsB8ne200100INS_11char_traitsIcEEEERNS_13basic_ostreamIcT_EES6_PKc
Ltmp66:
	b	LBB0_68
LBB0_68:
Ltmp67:
	adrp	x0, __ZNSt3__14coutE@GOTPAGE
	ldr	x0, [x0, __ZNSt3__14coutE@GOTPAGEOFF]
	adrp	x1, l_.str.14@PAGE
	add	x1, x1, l_.str.14@PAGEOFF
	bl	__ZNSt3__1lsB8ne200100INS_11char_traitsIcEEEERNS_13basic_ostreamIcT_EES6_PKc
	str	x0, [sp, #408]                  ; 8-byte Folded Spill
Ltmp68:
	b	LBB0_69
LBB0_69:
Ltmp69:
	ldr	x0, [sp, #408]                  ; 8-byte Folded Reload
	add	x1, sp, #1072
	bl	__ZNSt3__1lsB8ne200100IcNS_11char_traitsIcEENS_9allocatorIcEEEERNS_13basic_ostreamIT_T0_EES9_RKNS_12basic_stringIS6_S7_T1_EE
	str	x0, [sp, #400]                  ; 8-byte Folded Spill
Ltmp70:
	b	LBB0_70
LBB0_70:
Ltmp71:
	ldr	x0, [sp, #400]                  ; 8-byte Folded Reload
	adrp	x1, l_.str.13@PAGE
	add	x1, x1, l_.str.13@PAGEOFF
	bl	__ZNSt3__1lsB8ne200100INS_11char_traitsIcEEEERNS_13basic_ostreamIcT_EES6_PKc
Ltmp72:
	b	LBB0_71
LBB0_71:
Ltmp73:
	adrp	x0, __ZNSt3__14coutE@GOTPAGE
	ldr	x0, [x0, __ZNSt3__14coutE@GOTPAGEOFF]
	adrp	x1, l_.str.15@PAGE
	add	x1, x1, l_.str.15@PAGEOFF
	bl	__ZNSt3__1lsB8ne200100INS_11char_traitsIcEEEERNS_13basic_ostreamIcT_EES6_PKc
	str	x0, [sp, #392]                  ; 8-byte Folded Spill
Ltmp74:
	b	LBB0_72
LBB0_72:
Ltmp75:
	ldr	x0, [sp, #392]                  ; 8-byte Folded Reload
	add	x1, sp, #1168
	bl	__ZNSt3__1lsB8ne200100IcNS_11char_traitsIcEENS_9allocatorIcEEEERNS_13basic_ostreamIT_T0_EES9_RKNS_12basic_stringIS6_S7_T1_EE
	str	x0, [sp, #384]                  ; 8-byte Folded Spill
Ltmp76:
	b	LBB0_73
LBB0_73:
Ltmp77:
	ldr	x0, [sp, #384]                  ; 8-byte Folded Reload
	adrp	x1, l_.str.13@PAGE
	add	x1, x1, l_.str.13@PAGEOFF
	bl	__ZNSt3__1lsB8ne200100INS_11char_traitsIcEEEERNS_13basic_ostreamIcT_EES6_PKc
Ltmp78:
	b	LBB0_74
LBB0_74:
Ltmp79:
	adrp	x0, __ZNSt3__14coutE@GOTPAGE
	ldr	x0, [x0, __ZNSt3__14coutE@GOTPAGEOFF]
	adrp	x1, l_.str.16@PAGE
	add	x1, x1, l_.str.16@PAGEOFF
	bl	__ZNSt3__1lsB8ne200100INS_11char_traitsIcEEEERNS_13basic_ostreamIcT_EES6_PKc
	str	x0, [sp, #376]                  ; 8-byte Folded Spill
Ltmp80:
	b	LBB0_75
LBB0_75:
Ltmp81:
	ldr	x0, [sp, #376]                  ; 8-byte Folded Reload
	add	x1, sp, #1144
	bl	__ZNSt3__1lsB8ne200100IcNS_11char_traitsIcEENS_9allocatorIcEEEERNS_13basic_ostreamIT_T0_EES9_RKNS_12basic_stringIS6_S7_T1_EE
	str	x0, [sp, #368]                  ; 8-byte Folded Spill
Ltmp82:
	b	LBB0_76
LBB0_76:
Ltmp83:
	ldr	x0, [sp, #368]                  ; 8-byte Folded Reload
	adrp	x1, l_.str.13@PAGE
	add	x1, x1, l_.str.13@PAGEOFF
	bl	__ZNSt3__1lsB8ne200100INS_11char_traitsIcEEEERNS_13basic_ostreamIcT_EES6_PKc
Ltmp84:
	b	LBB0_77
LBB0_77:
Ltmp85:
	adrp	x0, __ZNSt3__14coutE@GOTPAGE
	ldr	x0, [x0, __ZNSt3__14coutE@GOTPAGEOFF]
	adrp	x1, l_.str.17@PAGE
	add	x1, x1, l_.str.17@PAGEOFF
	bl	__ZNSt3__1lsB8ne200100INS_11char_traitsIcEEEERNS_13basic_ostreamIcT_EES6_PKc
	str	x0, [sp, #360]                  ; 8-byte Folded Spill
Ltmp86:
	b	LBB0_78
LBB0_78:
Ltmp87:
	ldr	x0, [sp, #360]                  ; 8-byte Folded Reload
	add	x1, sp, #1120
	bl	__ZNSt3__1lsB8ne200100IcNS_11char_traitsIcEENS_9allocatorIcEEEERNS_13basic_ostreamIT_T0_EES9_RKNS_12basic_stringIS6_S7_T1_EE
	str	x0, [sp, #352]                  ; 8-byte Folded Spill
Ltmp88:
	b	LBB0_79
LBB0_79:
Ltmp89:
	ldr	x0, [sp, #352]                  ; 8-byte Folded Reload
	adrp	x1, l_.str.13@PAGE
	add	x1, x1, l_.str.13@PAGEOFF
	bl	__ZNSt3__1lsB8ne200100INS_11char_traitsIcEEEERNS_13basic_ostreamIcT_EES6_PKc
Ltmp90:
	b	LBB0_80
LBB0_80:
Ltmp91:
	adrp	x0, __ZNSt3__14coutE@GOTPAGE
	ldr	x0, [x0, __ZNSt3__14coutE@GOTPAGEOFF]
	adrp	x1, l_.str.18@PAGE
	add	x1, x1, l_.str.18@PAGEOFF
	bl	__ZNSt3__1lsB8ne200100INS_11char_traitsIcEEEERNS_13basic_ostreamIcT_EES6_PKc
Ltmp92:
	b	LBB0_81
LBB0_81:
Ltmp93:
	adrp	x0, __ZNSt3__14coutE@GOTPAGE
	ldr	x0, [x0, __ZNSt3__14coutE@GOTPAGEOFF]
	adrp	x1, l_.str.19@PAGE
	add	x1, x1, l_.str.19@PAGEOFF
	bl	__ZNSt3__1lsB8ne200100INS_11char_traitsIcEEEERNS_13basic_ostreamIcT_EES6_PKc
	str	x0, [sp, #344]                  ; 8-byte Folded Spill
Ltmp94:
	b	LBB0_82
LBB0_82:
	ldr	x0, [sp, #344]                  ; 8-byte Folded Reload
	ldr	x1, [sp, #1336]
Ltmp95:
	bl	__ZNSt3__113basic_ostreamIcNS_11char_traitsIcEEElsEx
	str	x0, [sp, #336]                  ; 8-byte Folded Spill
Ltmp96:
	b	LBB0_83
LBB0_83:
Ltmp97:
	ldr	x0, [sp, #336]                  ; 8-byte Folded Reload
	adrp	x1, l_.str.13@PAGE
	add	x1, x1, l_.str.13@PAGEOFF
	bl	__ZNSt3__1lsB8ne200100INS_11char_traitsIcEEEERNS_13basic_ostreamIcT_EES6_PKc
Ltmp98:
	b	LBB0_84
LBB0_84:
Ltmp99:
	adrp	x0, __ZNSt3__14coutE@GOTPAGE
	ldr	x0, [x0, __ZNSt3__14coutE@GOTPAGEOFF]
	adrp	x1, l_.str.20@PAGE
	add	x1, x1, l_.str.20@PAGEOFF
	bl	__ZNSt3__1lsB8ne200100INS_11char_traitsIcEEEERNS_13basic_ostreamIcT_EES6_PKc
	str	x0, [sp, #328]                  ; 8-byte Folded Spill
Ltmp100:
	b	LBB0_85
LBB0_85:
	ldr	x0, [sp, #328]                  ; 8-byte Folded Reload
	ldr	x1, [sp, #1216]
Ltmp101:
	bl	__ZNSt3__113basic_ostreamIcNS_11char_traitsIcEEElsEx
	str	x0, [sp, #320]                  ; 8-byte Folded Spill
Ltmp102:
	b	LBB0_86
LBB0_86:
Ltmp103:
	ldr	x0, [sp, #320]                  ; 8-byte Folded Reload
	adrp	x1, l_.str.21@PAGE
	add	x1, x1, l_.str.21@PAGEOFF
	bl	__ZNSt3__1lsB8ne200100INS_11char_traitsIcEEEERNS_13basic_ostreamIcT_EES6_PKc
Ltmp104:
	b	LBB0_87
LBB0_87:
Ltmp105:
	adrp	x0, __ZNSt3__14coutE@GOTPAGE
	ldr	x0, [x0, __ZNSt3__14coutE@GOTPAGEOFF]
	adrp	x1, l_.str.22@PAGE
	add	x1, x1, l_.str.22@PAGEOFF
	bl	__ZNSt3__1lsB8ne200100INS_11char_traitsIcEEEERNS_13basic_ostreamIcT_EES6_PKc
Ltmp106:
	b	LBB0_88
LBB0_88:
	add	x8, sp, #1272
	str	x8, [sp, #904]
	ldr	x0, [sp, #904]
	bl	__ZNSt3__16vectorIxNS_9allocatorIxEEE5beginB8ne200100Ev
	str	x0, [sp, #896]
	ldr	x0, [sp, #904]
	bl	__ZNSt3__16vectorIxNS_9allocatorIxEEE3endB8ne200100Ev
	str	x0, [sp, #888]
	b	LBB0_89
LBB0_89:                                ; =>This Inner Loop Header: Depth=1
	add	x0, sp, #896
	add	x1, sp, #888
	bl	__ZNSt3__1neB8ne200100IPxEEbRKNS_11__wrap_iterIT_EES6_
	tbz	w0, #0, LBB0_133
	b	LBB0_90
LBB0_90:                                ;   in Loop: Header=BB0_89 Depth=1
	add	x0, sp, #896
	bl	__ZNKSt3__111__wrap_iterIPxEdeB8ne200100Ev
	ldr	x8, [x0]
	str	x8, [sp, #880]
Ltmp148:
	adrp	x0, __ZNSt3__14coutE@GOTPAGE
	ldr	x0, [x0, __ZNSt3__14coutE@GOTPAGEOFF]
	adrp	x1, l_.str.23@PAGE
	add	x1, x1, l_.str.23@PAGEOFF
	bl	__ZNSt3__1lsB8ne200100INS_11char_traitsIcEEEERNS_13basic_ostreamIcT_EES6_PKc
	str	x0, [sp, #312]                  ; 8-byte Folded Spill
Ltmp149:
	b	LBB0_91
LBB0_91:                                ;   in Loop: Header=BB0_89 Depth=1
	ldr	x0, [sp, #312]                  ; 8-byte Folded Reload
	ldr	x1, [sp, #880]
Ltmp150:
	bl	__ZNSt3__113basic_ostreamIcNS_11char_traitsIcEEElsEx
	str	x0, [sp, #304]                  ; 8-byte Folded Spill
Ltmp151:
	b	LBB0_92
LBB0_92:                                ;   in Loop: Header=BB0_89 Depth=1
Ltmp152:
	ldr	x0, [sp, #304]                  ; 8-byte Folded Reload
	adrp	x1, l_.str.13@PAGE
	add	x1, x1, l_.str.13@PAGEOFF
	bl	__ZNSt3__1lsB8ne200100INS_11char_traitsIcEEEERNS_13basic_ostreamIcT_EES6_PKc
Ltmp153:
	b	LBB0_93
LBB0_93:                                ;   in Loop: Header=BB0_89 Depth=1
	add	x8, sp, #872
	str	xzr, [sp, #872]
	add	x0, sp, #840
	str	x8, [sp, #840]
	add	x8, sp, #880
	str	x8, [sp, #848]
	add	x8, sp, #1216
	str	x8, [sp, #856]
	ldr	x1, [sp, #1336]
Ltmp154:
	bl	__Z9time_loopIZ4mainE3$_0EdOT_x
	str	d0, [sp, #296]                  ; 8-byte Folded Spill
Ltmp155:
	b	LBB0_94
LBB0_94:                                ;   in Loop: Header=BB0_89 Depth=1
	ldr	d0, [sp, #296]                  ; 8-byte Folded Reload
	str	d0, [sp, #864]
	ldr	x8, [sp, #880]
	add	x1, sp, #808
	str	x8, [sp, #808]
	ldr	x8, [sp, #1336]
	str	x8, [sp, #816]
	adrp	x8, l_.str.24@PAGE
	add	x8, x8, l_.str.24@PAGEOFF
	str	x8, [sp, #824]
	ldr	d0, [sp, #864]
	str	d0, [sp, #832]
Ltmp156:
	add	x0, sp, #1192
	bl	__ZNSt3__16vectorI6ResultNS_9allocatorIS1_EEE9push_backB8ne200100EOS1_
Ltmp157:
	b	LBB0_95
LBB0_95:                                ;   in Loop: Header=BB0_89 Depth=1
	add	x8, sp, #800
	str	xzr, [sp, #800]
	add	x0, sp, #768
	str	x8, [sp, #768]
	add	x8, sp, #880
	str	x8, [sp, #776]
	add	x8, sp, #1216
	str	x8, [sp, #784]
	ldr	x1, [sp, #1336]
Ltmp158:
	bl	__Z9time_loopIZ4mainE3$_1EdOT_x
	str	d0, [sp, #288]                  ; 8-byte Folded Spill
Ltmp159:
	b	LBB0_96
LBB0_96:                                ;   in Loop: Header=BB0_89 Depth=1
	ldr	d0, [sp, #288]                  ; 8-byte Folded Reload
	str	d0, [sp, #792]
	ldr	x8, [sp, #880]
	add	x1, sp, #736
	str	x8, [sp, #736]
	ldr	x8, [sp, #1336]
	str	x8, [sp, #744]
	adrp	x8, l_.str.25@PAGE
	add	x8, x8, l_.str.25@PAGEOFF
	str	x8, [sp, #752]
	ldr	d0, [sp, #792]
	str	d0, [sp, #760]
Ltmp160:
	add	x0, sp, #1192
	bl	__ZNSt3__16vectorI6ResultNS_9allocatorIS1_EEE9push_backB8ne200100EOS1_
Ltmp161:
	b	LBB0_97
LBB0_97:                                ;   in Loop: Header=BB0_89 Depth=1
	add	x8, sp, #728
	str	xzr, [sp, #728]
	add	x0, sp, #696
	str	x8, [sp, #696]
	add	x8, sp, #880
	str	x8, [sp, #704]
	add	x8, sp, #1216
	str	x8, [sp, #712]
	ldr	x1, [sp, #1336]
Ltmp162:
	bl	__Z9time_loopIZ4mainE3$_2EdOT_x
	str	d0, [sp, #280]                  ; 8-byte Folded Spill
Ltmp163:
	b	LBB0_98
LBB0_98:                                ;   in Loop: Header=BB0_89 Depth=1
	ldr	d0, [sp, #280]                  ; 8-byte Folded Reload
	str	d0, [sp, #720]
	ldr	x8, [sp, #880]
	add	x1, sp, #664
	str	x8, [sp, #664]
	ldr	x8, [sp, #1336]
	str	x8, [sp, #672]
	adrp	x8, l_.str.26@PAGE
	add	x8, x8, l_.str.26@PAGEOFF
	str	x8, [sp, #680]
	ldr	d0, [sp, #720]
	str	d0, [sp, #688]
Ltmp164:
	add	x0, sp, #1192
	bl	__ZNSt3__16vectorI6ResultNS_9allocatorIS1_EEE9push_backB8ne200100EOS1_
Ltmp165:
	b	LBB0_99
LBB0_99:                                ;   in Loop: Header=BB0_89 Depth=1
Ltmp166:
	adrp	x0, __ZNSt3__14coutE@GOTPAGE
	ldr	x0, [x0, __ZNSt3__14coutE@GOTPAGEOFF]
	adrp	x1, l_.str.27@PAGE
	add	x1, x1, l_.str.27@PAGEOFF
	bl	__ZNSt3__1lsB8ne200100INS_11char_traitsIcEEEERNS_13basic_ostreamIcT_EES6_PKc
	str	x0, [sp, #272]                  ; 8-byte Folded Spill
Ltmp167:
	b	LBB0_100
LBB0_100:                               ;   in Loop: Header=BB0_89 Depth=1
	ldr	x0, [sp, #272]                  ; 8-byte Folded Reload
	ldr	d0, [sp, #864]
Ltmp168:
	bl	__ZNSt3__113basic_ostreamIcNS_11char_traitsIcEEElsEd
	str	x0, [sp, #264]                  ; 8-byte Folded Spill
Ltmp169:
	b	LBB0_101
LBB0_101:                               ;   in Loop: Header=BB0_89 Depth=1
Ltmp170:
	ldr	x0, [sp, #264]                  ; 8-byte Folded Reload
	adrp	x1, l_.str.28@PAGE
	add	x1, x1, l_.str.28@PAGEOFF
	bl	__ZNSt3__1lsB8ne200100INS_11char_traitsIcEEEERNS_13basic_ostreamIcT_EES6_PKc
Ltmp171:
	b	LBB0_102
LBB0_102:                               ;   in Loop: Header=BB0_89 Depth=1
Ltmp172:
	adrp	x0, __ZNSt3__14coutE@GOTPAGE
	ldr	x0, [x0, __ZNSt3__14coutE@GOTPAGEOFF]
	adrp	x1, l_.str.29@PAGE
	add	x1, x1, l_.str.29@PAGEOFF
	bl	__ZNSt3__1lsB8ne200100INS_11char_traitsIcEEEERNS_13basic_ostreamIcT_EES6_PKc
	str	x0, [sp, #256]                  ; 8-byte Folded Spill
Ltmp173:
	b	LBB0_103
LBB0_103:                               ;   in Loop: Header=BB0_89 Depth=1
	ldr	x0, [sp, #256]                  ; 8-byte Folded Reload
	ldr	d0, [sp, #792]
Ltmp174:
	bl	__ZNSt3__113basic_ostreamIcNS_11char_traitsIcEEElsEd
	str	x0, [sp, #248]                  ; 8-byte Folded Spill
Ltmp175:
	b	LBB0_104
LBB0_104:                               ;   in Loop: Header=BB0_89 Depth=1
Ltmp176:
	ldr	x0, [sp, #248]                  ; 8-byte Folded Reload
	adrp	x1, l_.str.28@PAGE
	add	x1, x1, l_.str.28@PAGEOFF
	bl	__ZNSt3__1lsB8ne200100INS_11char_traitsIcEEEERNS_13basic_ostreamIcT_EES6_PKc
Ltmp177:
	b	LBB0_105
LBB0_105:                               ;   in Loop: Header=BB0_89 Depth=1
Ltmp178:
	adrp	x0, __ZNSt3__14coutE@GOTPAGE
	ldr	x0, [x0, __ZNSt3__14coutE@GOTPAGEOFF]
	adrp	x1, l_.str.30@PAGE
	add	x1, x1, l_.str.30@PAGEOFF
	bl	__ZNSt3__1lsB8ne200100INS_11char_traitsIcEEEERNS_13basic_ostreamIcT_EES6_PKc
	str	x0, [sp, #240]                  ; 8-byte Folded Spill
Ltmp179:
	b	LBB0_106
LBB0_106:                               ;   in Loop: Header=BB0_89 Depth=1
	ldr	x0, [sp, #240]                  ; 8-byte Folded Reload
	ldr	d0, [sp, #720]
Ltmp180:
	bl	__ZNSt3__113basic_ostreamIcNS_11char_traitsIcEEElsEd
	str	x0, [sp, #232]                  ; 8-byte Folded Spill
Ltmp181:
	b	LBB0_107
LBB0_107:                               ;   in Loop: Header=BB0_89 Depth=1
Ltmp182:
	ldr	x0, [sp, #232]                  ; 8-byte Folded Reload
	adrp	x1, l_.str.28@PAGE
	add	x1, x1, l_.str.28@PAGEOFF
	bl	__ZNSt3__1lsB8ne200100INS_11char_traitsIcEEEERNS_13basic_ostreamIcT_EES6_PKc
Ltmp183:
	b	LBB0_108
LBB0_108:                               ;   in Loop: Header=BB0_89 Depth=1
	ldr	d0, [sp, #792]
	fcmp	d0, #0.0
	b.le	LBB0_113
	b	LBB0_109
LBB0_109:                               ;   in Loop: Header=BB0_89 Depth=1
Ltmp184:
	adrp	x0, __ZNSt3__14coutE@GOTPAGE
	ldr	x0, [x0, __ZNSt3__14coutE@GOTPAGEOFF]
	adrp	x1, l_.str.31@PAGE
	add	x1, x1, l_.str.31@PAGEOFF
	bl	__ZNSt3__1lsB8ne200100INS_11char_traitsIcEEEERNS_13basic_ostreamIcT_EES6_PKc
	str	x0, [sp, #224]                  ; 8-byte Folded Spill
Ltmp185:
	b	LBB0_110
LBB0_110:                               ;   in Loop: Header=BB0_89 Depth=1
	ldr	x0, [sp, #224]                  ; 8-byte Folded Reload
	ldr	d0, [sp, #864]
	ldr	d1, [sp, #792]
	fdiv	d0, d0, d1
Ltmp186:
	bl	__ZNSt3__113basic_ostreamIcNS_11char_traitsIcEEElsEd
	str	x0, [sp, #216]                  ; 8-byte Folded Spill
Ltmp187:
	b	LBB0_111
LBB0_111:                               ;   in Loop: Header=BB0_89 Depth=1
Ltmp188:
	ldr	x0, [sp, #216]                  ; 8-byte Folded Reload
	adrp	x1, l_.str.32@PAGE
	add	x1, x1, l_.str.32@PAGEOFF
	bl	__ZNSt3__1lsB8ne200100INS_11char_traitsIcEEEERNS_13basic_ostreamIcT_EES6_PKc
Ltmp189:
	b	LBB0_112
LBB0_112:                               ;   in Loop: Header=BB0_89 Depth=1
	b	LBB0_113
LBB0_113:                               ;   in Loop: Header=BB0_89 Depth=1
	ldr	d0, [sp, #720]
	fcmp	d0, #0.0
	b.le	LBB0_118
	b	LBB0_114
LBB0_114:                               ;   in Loop: Header=BB0_89 Depth=1
Ltmp190:
	adrp	x0, __ZNSt3__14coutE@GOTPAGE
	ldr	x0, [x0, __ZNSt3__14coutE@GOTPAGEOFF]
	adrp	x1, l_.str.33@PAGE
	add	x1, x1, l_.str.33@PAGEOFF
	bl	__ZNSt3__1lsB8ne200100INS_11char_traitsIcEEEERNS_13basic_ostreamIcT_EES6_PKc
	str	x0, [sp, #208]                  ; 8-byte Folded Spill
Ltmp191:
	b	LBB0_115
LBB0_115:                               ;   in Loop: Header=BB0_89 Depth=1
	ldr	x0, [sp, #208]                  ; 8-byte Folded Reload
	ldr	d0, [sp, #864]
	ldr	d1, [sp, #720]
	fdiv	d0, d0, d1
Ltmp192:
	bl	__ZNSt3__113basic_ostreamIcNS_11char_traitsIcEEElsEd
	str	x0, [sp, #200]                  ; 8-byte Folded Spill
Ltmp193:
	b	LBB0_116
LBB0_116:                               ;   in Loop: Header=BB0_89 Depth=1
Ltmp194:
	ldr	x0, [sp, #200]                  ; 8-byte Folded Reload
	adrp	x1, l_.str.32@PAGE
	add	x1, x1, l_.str.32@PAGEOFF
	bl	__ZNSt3__1lsB8ne200100INS_11char_traitsIcEEEERNS_13basic_ostreamIcT_EES6_PKc
Ltmp195:
	b	LBB0_117
LBB0_117:                               ;   in Loop: Header=BB0_89 Depth=1
	b	LBB0_118
LBB0_118:                               ;   in Loop: Header=BB0_89 Depth=1
	ldr	d0, [sp, #792]
	fcmp	d0, #0.0
	b.le	LBB0_124
	b	LBB0_119
LBB0_119:                               ;   in Loop: Header=BB0_89 Depth=1
	ldr	d0, [sp, #720]
	fcmp	d0, #0.0
	b.le	LBB0_124
	b	LBB0_120
LBB0_120:                               ;   in Loop: Header=BB0_89 Depth=1
Ltmp196:
	adrp	x0, __ZNSt3__14coutE@GOTPAGE
	ldr	x0, [x0, __ZNSt3__14coutE@GOTPAGEOFF]
	adrp	x1, l_.str.34@PAGE
	add	x1, x1, l_.str.34@PAGEOFF
	bl	__ZNSt3__1lsB8ne200100INS_11char_traitsIcEEEERNS_13basic_ostreamIcT_EES6_PKc
	str	x0, [sp, #192]                  ; 8-byte Folded Spill
Ltmp197:
	b	LBB0_121
LBB0_121:                               ;   in Loop: Header=BB0_89 Depth=1
	ldr	x0, [sp, #192]                  ; 8-byte Folded Reload
	ldr	d0, [sp, #792]
	ldr	d1, [sp, #720]
	fdiv	d0, d0, d1
Ltmp198:
	bl	__ZNSt3__113basic_ostreamIcNS_11char_traitsIcEEElsEd
	str	x0, [sp, #184]                  ; 8-byte Folded Spill
Ltmp199:
	b	LBB0_122
LBB0_122:                               ;   in Loop: Header=BB0_89 Depth=1
Ltmp200:
	ldr	x0, [sp, #184]                  ; 8-byte Folded Reload
	adrp	x1, l_.str.32@PAGE
	add	x1, x1, l_.str.32@PAGEOFF
	bl	__ZNSt3__1lsB8ne200100INS_11char_traitsIcEEEERNS_13basic_ostreamIcT_EES6_PKc
Ltmp201:
	b	LBB0_123
LBB0_123:                               ;   in Loop: Header=BB0_89 Depth=1
	b	LBB0_124
LBB0_124:                               ;   in Loop: Header=BB0_89 Depth=1
Ltmp202:
	adrp	x0, __ZNSt3__14coutE@GOTPAGE
	ldr	x0, [x0, __ZNSt3__14coutE@GOTPAGEOFF]
	adrp	x1, l_.str.35@PAGE
	add	x1, x1, l_.str.35@PAGEOFF
	bl	__ZNSt3__1lsB8ne200100INS_11char_traitsIcEEEERNS_13basic_ostreamIcT_EES6_PKc
	str	x0, [sp, #176]                  ; 8-byte Folded Spill
Ltmp203:
	b	LBB0_125
LBB0_125:                               ;   in Loop: Header=BB0_89 Depth=1
	ldr	x0, [sp, #176]                  ; 8-byte Folded Reload
	ldr	x1, [sp, #872]
Ltmp204:
	bl	__ZNSt3__113basic_ostreamIcNS_11char_traitsIcEEElsEy
	str	x0, [sp, #168]                  ; 8-byte Folded Spill
Ltmp205:
	b	LBB0_126
LBB0_126:                               ;   in Loop: Header=BB0_89 Depth=1
Ltmp206:
	ldr	x0, [sp, #168]                  ; 8-byte Folded Reload
	adrp	x1, l_.str.36@PAGE
	add	x1, x1, l_.str.36@PAGEOFF
	bl	__ZNSt3__1lsB8ne200100INS_11char_traitsIcEEEERNS_13basic_ostreamIcT_EES6_PKc
	str	x0, [sp, #160]                  ; 8-byte Folded Spill
Ltmp207:
	b	LBB0_127
LBB0_127:                               ;   in Loop: Header=BB0_89 Depth=1
	ldr	x0, [sp, #160]                  ; 8-byte Folded Reload
	ldr	x1, [sp, #800]
Ltmp208:
	bl	__ZNSt3__113basic_ostreamIcNS_11char_traitsIcEEElsEx
	str	x0, [sp, #152]                  ; 8-byte Folded Spill
Ltmp209:
	b	LBB0_128
LBB0_128:                               ;   in Loop: Header=BB0_89 Depth=1
Ltmp210:
	ldr	x0, [sp, #152]                  ; 8-byte Folded Reload
	adrp	x1, l_.str.36@PAGE
	add	x1, x1, l_.str.36@PAGEOFF
	bl	__ZNSt3__1lsB8ne200100INS_11char_traitsIcEEEERNS_13basic_ostreamIcT_EES6_PKc
	str	x0, [sp, #144]                  ; 8-byte Folded Spill
Ltmp211:
	b	LBB0_129
LBB0_129:                               ;   in Loop: Header=BB0_89 Depth=1
	ldr	x0, [sp, #144]                  ; 8-byte Folded Reload
	ldr	x1, [sp, #728]
Ltmp212:
	bl	__ZNSt3__113basic_ostreamIcNS_11char_traitsIcEEElsEx
	str	x0, [sp, #136]                  ; 8-byte Folded Spill
Ltmp213:
	b	LBB0_130
LBB0_130:                               ;   in Loop: Header=BB0_89 Depth=1
Ltmp214:
	ldr	x0, [sp, #136]                  ; 8-byte Folded Reload
	adrp	x1, l_.str.21@PAGE
	add	x1, x1, l_.str.21@PAGEOFF
	bl	__ZNSt3__1lsB8ne200100INS_11char_traitsIcEEEERNS_13basic_ostreamIcT_EES6_PKc
Ltmp215:
	b	LBB0_131
LBB0_131:                               ;   in Loop: Header=BB0_89 Depth=1
	b	LBB0_132
LBB0_132:                               ;   in Loop: Header=BB0_89 Depth=1
	add	x0, sp, #896
	bl	__ZNSt3__111__wrap_iterIPxEppB8ne200100Ev
	b	LBB0_89
LBB0_133:
	adrp	x8, l_.str.37@PAGE
	add	x8, x8, l_.str.37@PAGEOFF
	str	x8, [sp, #656]
	ldr	x1, [sp, #656]
Ltmp107:
	add	x0, sp, #1360
	mov	w2, #16                         ; =0x10
	bl	__ZNSt3__114basic_ofstreamIcNS_11char_traitsIcEEEC1EPKcj
Ltmp108:
	b	LBB0_134
LBB0_134:
	add	x8, sp, #1360
	ldr	x9, [sp, #1360]
	ldur	x9, [x9, #-24]
	add	x0, x8, x9
Ltmp109:
	bl	__ZNKSt3__19basic_iosIcNS_11char_traitsIcEEEcvbB8ne200100Ev
	str	w0, [sp, #132]                  ; 4-byte Folded Spill
Ltmp110:
	b	LBB0_135
LBB0_135:
	ldr	w8, [sp, #132]                  ; 4-byte Folded Reload
	tbz	w8, #0, LBB0_160
	b	LBB0_136
LBB0_136:
Ltmp117:
	add	x0, sp, #1360
	adrp	x1, l_.str.38@PAGE
	add	x1, x1, l_.str.38@PAGEOFF
	bl	__ZNSt3__1lsB8ne200100INS_11char_traitsIcEEEERNS_13basic_ostreamIcT_EES6_PKc
Ltmp118:
	b	LBB0_137
LBB0_137:
	add	x8, sp, #1192
	str	x8, [sp, #648]
	ldr	x0, [sp, #648]
	bl	__ZNSt3__16vectorI6ResultNS_9allocatorIS1_EEE5beginB8ne200100Ev
	str	x0, [sp, #640]
	ldr	x0, [sp, #648]
	bl	__ZNSt3__16vectorI6ResultNS_9allocatorIS1_EEE3endB8ne200100Ev
	str	x0, [sp, #632]
	b	LBB0_138
LBB0_138:                               ; =>This Inner Loop Header: Depth=1
	add	x0, sp, #640
	add	x1, sp, #632
	bl	__ZNSt3__1neB8ne200100IP6ResultEEbRKNS_11__wrap_iterIT_EES7_
	tbz	w0, #0, LBB0_155
	b	LBB0_139
LBB0_139:                               ;   in Loop: Header=BB0_138 Depth=1
	add	x0, sp, #640
	bl	__ZNKSt3__111__wrap_iterIP6ResultEdeB8ne200100Ev
	str	x0, [sp, #624]
	ldr	x8, [sp, #624]
	ldr	d0, [x8, #24]
	fcmp	d0, #0.0
	b.le	LBB0_141
	b	LBB0_140
LBB0_140:                               ;   in Loop: Header=BB0_138 Depth=1
	ldr	x8, [sp, #624]
	ldr	d0, [x8, #8]
	scvtf	d0, d0
	ldr	x8, [sp, #624]
	ldr	d1, [x8, #24]
	fdiv	d0, d0, d1
	str	d0, [sp, #120]                  ; 8-byte Folded Spill
	b	LBB0_142
LBB0_141:                               ;   in Loop: Header=BB0_138 Depth=1
	movi	d0, #0000000000000000
	str	d0, [sp, #120]                  ; 8-byte Folded Spill
	b	LBB0_142
LBB0_142:                               ;   in Loop: Header=BB0_138 Depth=1
	ldr	d0, [sp, #120]                  ; 8-byte Folded Reload
	str	d0, [sp, #616]
	ldr	x8, [sp, #624]
	ldr	x1, [x8]
Ltmp127:
	add	x0, sp, #1360
	bl	__ZNSt3__113basic_ostreamIcNS_11char_traitsIcEEElsEx
	str	x0, [sp, #112]                  ; 8-byte Folded Spill
Ltmp128:
	b	LBB0_143
LBB0_143:                               ;   in Loop: Header=BB0_138 Depth=1
Ltmp129:
	ldr	x0, [sp, #112]                  ; 8-byte Folded Reload
	adrp	x1, l_.str.39@PAGE
	add	x1, x1, l_.str.39@PAGEOFF
	bl	__ZNSt3__1lsB8ne200100INS_11char_traitsIcEEEERNS_13basic_ostreamIcT_EES6_PKc
	str	x0, [sp, #104]                  ; 8-byte Folded Spill
Ltmp130:
	b	LBB0_144
LBB0_144:                               ;   in Loop: Header=BB0_138 Depth=1
	ldr	x0, [sp, #104]                  ; 8-byte Folded Reload
	ldr	x8, [sp, #624]
	ldr	x1, [x8, #8]
Ltmp131:
	bl	__ZNSt3__113basic_ostreamIcNS_11char_traitsIcEEElsEx
	str	x0, [sp, #96]                   ; 8-byte Folded Spill
Ltmp132:
	b	LBB0_145
LBB0_145:                               ;   in Loop: Header=BB0_138 Depth=1
Ltmp133:
	ldr	x0, [sp, #96]                   ; 8-byte Folded Reload
	adrp	x1, l_.str.39@PAGE
	add	x1, x1, l_.str.39@PAGEOFF
	bl	__ZNSt3__1lsB8ne200100INS_11char_traitsIcEEEERNS_13basic_ostreamIcT_EES6_PKc
	str	x0, [sp, #88]                   ; 8-byte Folded Spill
Ltmp134:
	b	LBB0_146
LBB0_146:                               ;   in Loop: Header=BB0_138 Depth=1
	ldr	x0, [sp, #88]                   ; 8-byte Folded Reload
	ldr	x8, [sp, #624]
	ldr	x1, [x8, #16]
Ltmp135:
	bl	__ZNSt3__1lsB8ne200100INS_11char_traitsIcEEEERNS_13basic_ostreamIcT_EES6_PKc
	str	x0, [sp, #80]                   ; 8-byte Folded Spill
Ltmp136:
	b	LBB0_147
LBB0_147:                               ;   in Loop: Header=BB0_138 Depth=1
Ltmp137:
	ldr	x0, [sp, #80]                   ; 8-byte Folded Reload
	adrp	x1, l_.str.39@PAGE
	add	x1, x1, l_.str.39@PAGEOFF
	bl	__ZNSt3__1lsB8ne200100INS_11char_traitsIcEEEERNS_13basic_ostreamIcT_EES6_PKc
	str	x0, [sp, #72]                   ; 8-byte Folded Spill
Ltmp138:
	b	LBB0_148
LBB0_148:                               ;   in Loop: Header=BB0_138 Depth=1
	ldr	x0, [sp, #72]                   ; 8-byte Folded Reload
	ldr	x8, [sp, #624]
	ldr	d0, [x8, #24]
Ltmp139:
	bl	__ZNSt3__113basic_ostreamIcNS_11char_traitsIcEEElsEd
	str	x0, [sp, #64]                   ; 8-byte Folded Spill
Ltmp140:
	b	LBB0_149
LBB0_149:                               ;   in Loop: Header=BB0_138 Depth=1
Ltmp141:
	ldr	x0, [sp, #64]                   ; 8-byte Folded Reload
	adrp	x1, l_.str.39@PAGE
	add	x1, x1, l_.str.39@PAGEOFF
	bl	__ZNSt3__1lsB8ne200100INS_11char_traitsIcEEEERNS_13basic_ostreamIcT_EES6_PKc
	str	x0, [sp, #56]                   ; 8-byte Folded Spill
Ltmp142:
	b	LBB0_150
LBB0_150:                               ;   in Loop: Header=BB0_138 Depth=1
	ldr	x0, [sp, #56]                   ; 8-byte Folded Reload
	ldr	d0, [sp, #616]
Ltmp143:
	bl	__ZNSt3__113basic_ostreamIcNS_11char_traitsIcEEElsEd
	str	x0, [sp, #48]                   ; 8-byte Folded Spill
Ltmp144:
	b	LBB0_151
LBB0_151:                               ;   in Loop: Header=BB0_138 Depth=1
Ltmp145:
	ldr	x0, [sp, #48]                   ; 8-byte Folded Reload
	adrp	x1, l_.str.13@PAGE
	add	x1, x1, l_.str.13@PAGEOFF
	bl	__ZNSt3__1lsB8ne200100INS_11char_traitsIcEEEERNS_13basic_ostreamIcT_EES6_PKc
Ltmp146:
	b	LBB0_152
LBB0_152:                               ;   in Loop: Header=BB0_138 Depth=1
	b	LBB0_153
LBB0_153:                               ;   in Loop: Header=BB0_138 Depth=1
	add	x0, sp, #640
	bl	__ZNSt3__111__wrap_iterIP6ResultEppB8ne200100Ev
	b	LBB0_138
LBB0_154:
Ltmp147:
	str	x0, [sp, #1304]
	mov	x8, x1
	str	w8, [sp, #1300]
	add	x0, sp, #1360
	bl	__ZNSt3__114basic_ofstreamIcNS_11char_traitsIcEEED1Ev
	b	LBB0_165
LBB0_155:
Ltmp119:
	add	x0, sp, #1360
	bl	__ZNSt3__114basic_ofstreamIcNS_11char_traitsIcEEE5closeEv
Ltmp120:
	b	LBB0_156
LBB0_156:
Ltmp121:
	adrp	x0, __ZNSt3__14coutE@GOTPAGE
	ldr	x0, [x0, __ZNSt3__14coutE@GOTPAGEOFF]
	adrp	x1, l_.str.40@PAGE
	add	x1, x1, l_.str.40@PAGEOFF
	bl	__ZNSt3__1lsB8ne200100INS_11char_traitsIcEEEERNS_13basic_ostreamIcT_EES6_PKc
	str	x0, [sp, #40]                   ; 8-byte Folded Spill
Ltmp122:
	b	LBB0_157
LBB0_157:
	ldr	x0, [sp, #40]                   ; 8-byte Folded Reload
	ldr	x1, [sp, #656]
Ltmp123:
	bl	__ZNSt3__1lsB8ne200100INS_11char_traitsIcEEEERNS_13basic_ostreamIcT_EES6_PKc
	str	x0, [sp, #32]                   ; 8-byte Folded Spill
Ltmp124:
	b	LBB0_158
LBB0_158:
Ltmp125:
	ldr	x0, [sp, #32]                   ; 8-byte Folded Reload
	adrp	x1, l_.str.13@PAGE
	add	x1, x1, l_.str.13@PAGEOFF
	bl	__ZNSt3__1lsB8ne200100INS_11char_traitsIcEEEERNS_13basic_ostreamIcT_EES6_PKc
Ltmp126:
	b	LBB0_159
LBB0_159:
	b	LBB0_164
LBB0_160:
Ltmp111:
	adrp	x0, __ZNSt3__14cerrE@GOTPAGE
	ldr	x0, [x0, __ZNSt3__14cerrE@GOTPAGEOFF]
	adrp	x1, l_.str.41@PAGE
	add	x1, x1, l_.str.41@PAGEOFF
	bl	__ZNSt3__1lsB8ne200100INS_11char_traitsIcEEEERNS_13basic_ostreamIcT_EES6_PKc
	str	x0, [sp, #24]                   ; 8-byte Folded Spill
Ltmp112:
	b	LBB0_161
LBB0_161:
	ldr	x0, [sp, #24]                   ; 8-byte Folded Reload
	ldr	x1, [sp, #656]
Ltmp113:
	bl	__ZNSt3__1lsB8ne200100INS_11char_traitsIcEEEERNS_13basic_ostreamIcT_EES6_PKc
	str	x0, [sp, #16]                   ; 8-byte Folded Spill
Ltmp114:
	b	LBB0_162
LBB0_162:
Ltmp115:
	ldr	x0, [sp, #16]                   ; 8-byte Folded Reload
	adrp	x1, l_.str.13@PAGE
	add	x1, x1, l_.str.13@PAGEOFF
	bl	__ZNSt3__1lsB8ne200100INS_11char_traitsIcEEEERNS_13basic_ostreamIcT_EES6_PKc
Ltmp116:
	b	LBB0_163
LBB0_163:
	b	LBB0_164
LBB0_164:
	str	wzr, [sp, #1356]
	add	x0, sp, #1360
	bl	__ZNSt3__114basic_ofstreamIcNS_11char_traitsIcEEED1Ev
	add	x0, sp, #1072
	bl	__ZNSt3__112basic_stringIcNS_11char_traitsIcEENS_9allocatorIcEEED1Ev
	add	x0, sp, #1096
	bl	__ZNSt3__112basic_stringIcNS_11char_traitsIcEENS_9allocatorIcEEED1Ev
	add	x0, sp, #1120
	bl	__ZNSt3__112basic_stringIcNS_11char_traitsIcEENS_9allocatorIcEEED1Ev
	add	x0, sp, #1144
	bl	__ZNSt3__112basic_stringIcNS_11char_traitsIcEENS_9allocatorIcEEED1Ev
	add	x0, sp, #1168
	bl	__ZNSt3__112basic_stringIcNS_11char_traitsIcEENS_9allocatorIcEEED1Ev
	add	x0, sp, #1192
	bl	__ZNSt3__16vectorI6ResultNS_9allocatorIS1_EEED1B8ne200100Ev
	add	x0, sp, #1272
	bl	__ZNSt3__16vectorIxNS_9allocatorIxEEED1B8ne200100Ev
	b	LBB0_168
LBB0_165:
	add	x0, sp, #1072
	bl	__ZNSt3__112basic_stringIcNS_11char_traitsIcEENS_9allocatorIcEEED1Ev
	add	x0, sp, #1096
	bl	__ZNSt3__112basic_stringIcNS_11char_traitsIcEENS_9allocatorIcEEED1Ev
	add	x0, sp, #1120
	bl	__ZNSt3__112basic_stringIcNS_11char_traitsIcEENS_9allocatorIcEEED1Ev
	add	x0, sp, #1144
	bl	__ZNSt3__112basic_stringIcNS_11char_traitsIcEENS_9allocatorIcEEED1Ev
	add	x0, sp, #1168
	bl	__ZNSt3__112basic_stringIcNS_11char_traitsIcEENS_9allocatorIcEEED1Ev
	b	LBB0_166
LBB0_166:
	add	x0, sp, #1192
	bl	__ZNSt3__16vectorI6ResultNS_9allocatorIS1_EEED1B8ne200100Ev
	b	LBB0_167
LBB0_167:
	add	x0, sp, #1272
	bl	__ZNSt3__16vectorIxNS_9allocatorIxEEED1B8ne200100Ev
	b	LBB0_171
LBB0_168:
	ldr	w8, [sp, #1356]
	str	w8, [sp, #12]                   ; 4-byte Folded Spill
	ldur	x9, [x29, #-24]
	adrp	x8, ___stack_chk_guard@GOTPAGE
	ldr	x8, [x8, ___stack_chk_guard@GOTPAGEOFF]
	ldr	x8, [x8]
	subs	x8, x8, x9
	b.eq	LBB0_170
	b	LBB0_169
LBB0_169:
	bl	___stack_chk_fail
LBB0_170:
	ldr	w0, [sp, #12]                   ; 4-byte Folded Reload
	add	sp, sp, #3520
	ldp	x29, x30, [sp, #16]             ; 16-byte Folded Reload
	ldp	x28, x27, [sp], #32             ; 16-byte Folded Reload
	ret
LBB0_171:
	ldr	x0, [sp, #1304]
	str	x0, [sp]                        ; 8-byte Folded Spill
	b	LBB0_173
LBB0_172:
Ltmp224:
	str	x0, [sp]                        ; 8-byte Folded Spill
	b	LBB0_173
LBB0_173:
	ldr	x0, [sp]                        ; 8-byte Folded Reload
	bl	__Unwind_Resume
Lfunc_end0:
	.cfi_endproc
	.section	__TEXT,__gcc_except_tab
	.p2align	2, 0x0
GCC_except_table0:
Lexception0:
	.byte	255                             ; @LPStart Encoding = omit
	.byte	255                             ; @TType Encoding = omit
	.byte	1                               ; Call site Encoding = uleb128
	.uleb128 Lcst_end0-Lcst_begin0
Lcst_begin0:
	.uleb128 Ltmp0-Lfunc_begin0             ; >> Call Site 1 <<
	.uleb128 Ltmp1-Ltmp0                    ;   Call between Ltmp0 and Ltmp1
	.uleb128 Ltmp224-Lfunc_begin0           ;     jumps to Ltmp224
	.byte	0                               ;   On action: cleanup
	.uleb128 Ltmp2-Lfunc_begin0             ; >> Call Site 2 <<
	.uleb128 Ltmp3-Ltmp2                    ;   Call between Ltmp2 and Ltmp3
	.uleb128 Ltmp4-Lfunc_begin0             ;     jumps to Ltmp4
	.byte	0                               ;   On action: cleanup
	.uleb128 Ltmp222-Lfunc_begin0           ; >> Call Site 3 <<
	.uleb128 Ltmp223-Ltmp222                ;   Call between Ltmp222 and Ltmp223
	.uleb128 Ltmp224-Lfunc_begin0           ;     jumps to Ltmp224
	.byte	0                               ;   On action: cleanup
	.uleb128 Ltmp7-Lfunc_begin0             ; >> Call Site 4 <<
	.uleb128 Ltmp8-Ltmp7                    ;   Call between Ltmp7 and Ltmp8
	.uleb128 Ltmp9-Lfunc_begin0             ;     jumps to Ltmp9
	.byte	0                               ;   On action: cleanup
	.uleb128 Ltmp10-Lfunc_begin0            ; >> Call Site 5 <<
	.uleb128 Ltmp13-Ltmp10                  ;   Call between Ltmp10 and Ltmp13
	.uleb128 Ltmp14-Lfunc_begin0            ;     jumps to Ltmp14
	.byte	0                               ;   On action: cleanup
	.uleb128 Ltmp13-Lfunc_begin0            ; >> Call Site 6 <<
	.uleb128 Ltmp5-Ltmp13                   ;   Call between Ltmp13 and Ltmp5
	.byte	0                               ;     has no landing pad
	.byte	0                               ;   On action: cleanup
	.uleb128 Ltmp5-Lfunc_begin0             ; >> Call Site 7 <<
	.uleb128 Ltmp6-Ltmp5                    ;   Call between Ltmp5 and Ltmp6
	.uleb128 Ltmp9-Lfunc_begin0             ;     jumps to Ltmp9
	.byte	0                               ;   On action: cleanup
	.uleb128 Ltmp15-Lfunc_begin0            ; >> Call Site 8 <<
	.uleb128 Ltmp16-Ltmp15                  ;   Call between Ltmp15 and Ltmp16
	.uleb128 Ltmp17-Lfunc_begin0            ;     jumps to Ltmp17
	.byte	0                               ;   On action: cleanup
	.uleb128 Ltmp18-Lfunc_begin0            ; >> Call Site 9 <<
	.uleb128 Ltmp19-Ltmp18                  ;   Call between Ltmp18 and Ltmp19
	.uleb128 Ltmp216-Lfunc_begin0           ;     jumps to Ltmp216
	.byte	0                               ;   On action: cleanup
	.uleb128 Ltmp20-Lfunc_begin0            ; >> Call Site 10 <<
	.uleb128 Ltmp220-Ltmp20                 ;   Call between Ltmp20 and Ltmp220
	.uleb128 Ltmp221-Lfunc_begin0           ;     jumps to Ltmp221
	.byte	0                               ;   On action: cleanup
	.uleb128 Ltmp24-Lfunc_begin0            ; >> Call Site 11 <<
	.uleb128 Ltmp25-Ltmp24                  ;   Call between Ltmp24 and Ltmp25
	.uleb128 Ltmp216-Lfunc_begin0           ;     jumps to Ltmp216
	.byte	0                               ;   On action: cleanup
	.uleb128 Ltmp26-Lfunc_begin0            ; >> Call Site 12 <<
	.uleb128 Ltmp31-Ltmp26                  ;   Call between Ltmp26 and Ltmp31
	.uleb128 Ltmp32-Lfunc_begin0            ;     jumps to Ltmp32
	.byte	0                               ;   On action: cleanup
	.uleb128 Ltmp33-Lfunc_begin0            ; >> Call Site 13 <<
	.uleb128 Ltmp108-Ltmp33                 ;   Call between Ltmp33 and Ltmp108
	.uleb128 Ltmp216-Lfunc_begin0           ;     jumps to Ltmp216
	.byte	0                               ;   On action: cleanup
	.uleb128 Ltmp109-Lfunc_begin0           ; >> Call Site 14 <<
	.uleb128 Ltmp116-Ltmp109                ;   Call between Ltmp109 and Ltmp116
	.uleb128 Ltmp147-Lfunc_begin0           ;     jumps to Ltmp147
	.byte	0                               ;   On action: cleanup
	.uleb128 Ltmp116-Lfunc_begin0           ; >> Call Site 15 <<
	.uleb128 Lfunc_end0-Ltmp116             ;   Call between Ltmp116 and Lfunc_end0
	.byte	0                               ;     has no landing pad
	.byte	0                               ;   On action: cleanup
Lcst_end0:
	.p2align	2, 0x0
                                        ; -- End function
	.section	__TEXT,__text,regular,pure_instructions
	.globl	__ZNSt3__112basic_stringIcNS_11char_traitsIcEENS_9allocatorIcEEEC1B8ne200100ILi0EEEPKc ; -- Begin function _ZNSt3__112basic_stringIcNS_11char_traitsIcEENS_9allocatorIcEEEC1B8ne200100ILi0EEEPKc
	.weak_def_can_be_hidden	__ZNSt3__112basic_stringIcNS_11char_traitsIcEENS_9allocatorIcEEEC1B8ne200100ILi0EEEPKc
	.p2align	2
__ZNSt3__112basic_stringIcNS_11char_traitsIcEENS_9allocatorIcEEEC1B8ne200100ILi0EEEPKc: ; @_ZNSt3__112basic_stringIcNS_11char_traitsIcEENS_9allocatorIcEEEC1B8ne200100ILi0EEEPKc
	.cfi_startproc
; %bb.0:
	sub	sp, sp, #48
	stp	x29, x30, [sp, #32]             ; 16-byte Folded Spill
	add	x29, sp, #32
	.cfi_def_cfa w29, 16
	.cfi_offset w30, -8
	.cfi_offset w29, -16
	stur	x0, [x29, #-8]
	str	x1, [sp, #16]
	ldur	x0, [x29, #-8]
	str	x0, [sp, #8]                    ; 8-byte Folded Spill
	ldr	x1, [sp, #16]
	bl	__ZNSt3__112basic_stringIcNS_11char_traitsIcEENS_9allocatorIcEEEC2B8ne200100ILi0EEEPKc
	ldr	x0, [sp, #8]                    ; 8-byte Folded Reload
	ldp	x29, x30, [sp, #32]             ; 16-byte Folded Reload
	add	sp, sp, #48
	ret
	.cfi_endproc
                                        ; -- End function
	.private_extern	__ZNSt3__1lsB8ne200100INS_11char_traitsIcEEEERNS_13basic_ostreamIcT_EES6_PKc ; -- Begin function _ZNSt3__1lsB8ne200100INS_11char_traitsIcEEEERNS_13basic_ostreamIcT_EES6_PKc
	.globl	__ZNSt3__1lsB8ne200100INS_11char_traitsIcEEEERNS_13basic_ostreamIcT_EES6_PKc
	.weak_definition	__ZNSt3__1lsB8ne200100INS_11char_traitsIcEEEERNS_13basic_ostreamIcT_EES6_PKc
	.p2align	2
__ZNSt3__1lsB8ne200100INS_11char_traitsIcEEEERNS_13basic_ostreamIcT_EES6_PKc: ; @_ZNSt3__1lsB8ne200100INS_11char_traitsIcEEEERNS_13basic_ostreamIcT_EES6_PKc
	.cfi_startproc
; %bb.0:
	sub	sp, sp, #48
	stp	x29, x30, [sp, #32]             ; 16-byte Folded Spill
	add	x29, sp, #32
	.cfi_def_cfa w29, 16
	.cfi_offset w30, -8
	.cfi_offset w29, -16
	stur	x0, [x29, #-8]
	str	x1, [sp, #16]
	ldur	x8, [x29, #-8]
	str	x8, [sp, #8]                    ; 8-byte Folded Spill
	ldr	x8, [sp, #16]
	str	x8, [sp]                        ; 8-byte Folded Spill
	ldr	x0, [sp, #16]
	bl	__ZNSt3__111char_traitsIcE6lengthB8ne200100EPKc
	ldr	x1, [sp]                        ; 8-byte Folded Reload
	mov	x2, x0
	ldr	x0, [sp, #8]                    ; 8-byte Folded Reload
	bl	__ZNSt3__124__put_character_sequenceB8ne200100IcNS_11char_traitsIcEEEERNS_13basic_ostreamIT_T0_EES7_PKS4_m
	ldp	x29, x30, [sp, #32]             ; 16-byte Folded Reload
	add	sp, sp, #48
	ret
	.cfi_endproc
                                        ; -- End function
	.private_extern	__ZNSt3__16vectorIxNS_9allocatorIxEEEC1B8ne200100Ev ; -- Begin function _ZNSt3__16vectorIxNS_9allocatorIxEEEC1B8ne200100Ev
	.globl	__ZNSt3__16vectorIxNS_9allocatorIxEEEC1B8ne200100Ev
	.weak_def_can_be_hidden	__ZNSt3__16vectorIxNS_9allocatorIxEEEC1B8ne200100Ev
	.p2align	2
__ZNSt3__16vectorIxNS_9allocatorIxEEEC1B8ne200100Ev: ; @_ZNSt3__16vectorIxNS_9allocatorIxEEEC1B8ne200100Ev
	.cfi_startproc
; %bb.0:
	sub	sp, sp, #32
	stp	x29, x30, [sp, #16]             ; 16-byte Folded Spill
	add	x29, sp, #16
	.cfi_def_cfa w29, 16
	.cfi_offset w30, -8
	.cfi_offset w29, -16
	str	x0, [sp, #8]
	ldr	x0, [sp, #8]
	str	x0, [sp]                        ; 8-byte Folded Spill
	bl	__ZNSt3__16vectorIxNS_9allocatorIxEEEC2B8ne200100Ev
	ldr	x0, [sp]                        ; 8-byte Folded Reload
	ldp	x29, x30, [sp, #16]             ; 16-byte Folded Reload
	add	sp, sp, #32
	ret
	.cfi_endproc
                                        ; -- End function
	.private_extern	__ZNSt3__16vectorIxNS_9allocatorIxEEE9push_backB8ne200100EOx ; -- Begin function _ZNSt3__16vectorIxNS_9allocatorIxEEE9push_backB8ne200100EOx
	.globl	__ZNSt3__16vectorIxNS_9allocatorIxEEE9push_backB8ne200100EOx
	.weak_definition	__ZNSt3__16vectorIxNS_9allocatorIxEEE9push_backB8ne200100EOx
	.p2align	2
__ZNSt3__16vectorIxNS_9allocatorIxEEE9push_backB8ne200100EOx: ; @_ZNSt3__16vectorIxNS_9allocatorIxEEE9push_backB8ne200100EOx
	.cfi_startproc
; %bb.0:
	sub	sp, sp, #32
	stp	x29, x30, [sp, #16]             ; 16-byte Folded Spill
	add	x29, sp, #16
	.cfi_def_cfa w29, 16
	.cfi_offset w30, -8
	.cfi_offset w29, -16
	str	x0, [sp, #8]
	str	x1, [sp]
	ldr	x0, [sp, #8]
	ldr	x1, [sp]
	bl	__ZNSt3__16vectorIxNS_9allocatorIxEEE12emplace_backIJxEEEvDpOT_
	ldp	x29, x30, [sp, #16]             ; 16-byte Folded Reload
	add	sp, sp, #32
	ret
	.cfi_endproc
                                        ; -- End function
	.private_extern	__ZNSt3__16vectorIxNS_9allocatorIxEEEaSB8ne200100ESt16initializer_listIxE ; -- Begin function _ZNSt3__16vectorIxNS_9allocatorIxEEEaSB8ne200100ESt16initializer_listIxE
	.globl	__ZNSt3__16vectorIxNS_9allocatorIxEEEaSB8ne200100ESt16initializer_listIxE
	.weak_definition	__ZNSt3__16vectorIxNS_9allocatorIxEEEaSB8ne200100ESt16initializer_listIxE
	.p2align	2
__ZNSt3__16vectorIxNS_9allocatorIxEEEaSB8ne200100ESt16initializer_listIxE: ; @_ZNSt3__16vectorIxNS_9allocatorIxEEEaSB8ne200100ESt16initializer_listIxE
	.cfi_startproc
; %bb.0:
	sub	sp, sp, #64
	stp	x29, x30, [sp, #48]             ; 16-byte Folded Spill
	add	x29, sp, #48
	.cfi_def_cfa w29, 16
	.cfi_offset w30, -8
	.cfi_offset w29, -16
	mov	x8, x0
	sub	x0, x29, #16
	str	x0, [sp]                        ; 8-byte Folded Spill
	stur	x1, [x29, #-16]
	stur	x2, [x29, #-8]
	str	x8, [sp, #24]
	ldr	x8, [sp, #24]
	str	x8, [sp, #16]                   ; 8-byte Folded Spill
	bl	__ZNKSt16initializer_listIxE5beginB8ne200100Ev
	mov	x1, x0
	ldr	x0, [sp]                        ; 8-byte Folded Reload
	str	x1, [sp, #8]                    ; 8-byte Folded Spill
	bl	__ZNKSt16initializer_listIxE3endB8ne200100Ev
	ldr	x1, [sp, #8]                    ; 8-byte Folded Reload
	mov	x2, x0
	ldr	x0, [sp, #16]                   ; 8-byte Folded Reload
	bl	__ZNSt3__16vectorIxNS_9allocatorIxEEE6assignB8ne200100IPKxLi0EEEvT_S7_
	ldr	x0, [sp, #16]                   ; 8-byte Folded Reload
	ldp	x29, x30, [sp, #48]             ; 16-byte Folded Reload
	add	sp, sp, #64
	ret
	.cfi_endproc
                                        ; -- End function
	.private_extern	__ZNSt3__16vectorI6ResultNS_9allocatorIS1_EEEC1B8ne200100Ev ; -- Begin function _ZNSt3__16vectorI6ResultNS_9allocatorIS1_EEEC1B8ne200100Ev
	.globl	__ZNSt3__16vectorI6ResultNS_9allocatorIS1_EEEC1B8ne200100Ev
	.weak_def_can_be_hidden	__ZNSt3__16vectorI6ResultNS_9allocatorIS1_EEEC1B8ne200100Ev
	.p2align	2
__ZNSt3__16vectorI6ResultNS_9allocatorIS1_EEEC1B8ne200100Ev: ; @_ZNSt3__16vectorI6ResultNS_9allocatorIS1_EEEC1B8ne200100Ev
	.cfi_startproc
; %bb.0:
	sub	sp, sp, #32
	stp	x29, x30, [sp, #16]             ; 16-byte Folded Spill
	add	x29, sp, #16
	.cfi_def_cfa w29, 16
	.cfi_offset w30, -8
	.cfi_offset w29, -16
	str	x0, [sp, #8]
	ldr	x0, [sp, #8]
	str	x0, [sp]                        ; 8-byte Folded Spill
	bl	__ZNSt3__16vectorI6ResultNS_9allocatorIS1_EEEC2B8ne200100Ev
	ldr	x0, [sp]                        ; 8-byte Folded Reload
	ldp	x29, x30, [sp, #16]             ; 16-byte Folded Reload
	add	sp, sp, #32
	ret
	.cfi_endproc
                                        ; -- End function
	.private_extern	__ZNSt3__16vectorI6ResultNS_9allocatorIS1_EEE7reserveEm ; -- Begin function _ZNSt3__16vectorI6ResultNS_9allocatorIS1_EEE7reserveEm
	.globl	__ZNSt3__16vectorI6ResultNS_9allocatorIS1_EEE7reserveEm
	.weak_definition	__ZNSt3__16vectorI6ResultNS_9allocatorIS1_EEE7reserveEm
	.p2align	2
__ZNSt3__16vectorI6ResultNS_9allocatorIS1_EEE7reserveEm: ; @_ZNSt3__16vectorI6ResultNS_9allocatorIS1_EEE7reserveEm
Lfunc_begin1:
	.cfi_startproc
	.cfi_personality 155, ___gxx_personality_v0
	.cfi_lsda 16, Lexception1
; %bb.0:
	sub	sp, sp, #128
	stp	x29, x30, [sp, #112]            ; 16-byte Folded Spill
	add	x29, sp, #112
	.cfi_def_cfa w29, 16
	.cfi_offset w30, -8
	.cfi_offset w29, -16
	stur	x0, [x29, #-8]
	stur	x1, [x29, #-16]
	ldur	x0, [x29, #-8]
	str	x0, [sp, #24]                   ; 8-byte Folded Spill
	ldur	x8, [x29, #-16]
	str	x8, [sp, #32]                   ; 8-byte Folded Spill
	bl	__ZNKSt3__16vectorI6ResultNS_9allocatorIS1_EEE8capacityB8ne200100Ev
	ldr	x8, [sp, #32]                   ; 8-byte Folded Reload
	subs	x8, x8, x0
	b.ls	LBB7_6
	b	LBB7_1
LBB7_1:
	ldr	x0, [sp, #24]                   ; 8-byte Folded Reload
	ldur	x8, [x29, #-16]
	str	x8, [sp, #16]                   ; 8-byte Folded Spill
	bl	__ZNKSt3__16vectorI6ResultNS_9allocatorIS1_EEE8max_sizeB8ne200100Ev
	ldr	x8, [sp, #16]                   ; 8-byte Folded Reload
	subs	x8, x8, x0
	b.ls	LBB7_3
	b	LBB7_2
LBB7_2:
	bl	__ZNSt3__16vectorI6ResultNS_9allocatorIS1_EEE20__throw_length_errorB8ne200100Ev
LBB7_3:
	ldr	x0, [sp, #24]                   ; 8-byte Folded Reload
	ldur	x8, [x29, #-16]
	str	x8, [sp]                        ; 8-byte Folded Spill
	bl	__ZNKSt3__16vectorI6ResultNS_9allocatorIS1_EEE4sizeB8ne200100Ev
	ldr	x1, [sp]                        ; 8-byte Folded Reload
	ldr	x8, [sp, #24]                   ; 8-byte Folded Reload
	mov	x2, x0
	add	x3, x8, #16
	add	x0, sp, #56
	str	x0, [sp, #8]                    ; 8-byte Folded Spill
	bl	__ZNSt3__114__split_bufferI6ResultRNS_9allocatorIS1_EEEC1EmmS4_
	ldr	x0, [sp, #24]                   ; 8-byte Folded Reload
	ldr	x1, [sp, #8]                    ; 8-byte Folded Reload
Ltmp225:
	bl	__ZNSt3__16vectorI6ResultNS_9allocatorIS1_EEE26__swap_out_circular_bufferERNS_14__split_bufferIS1_RS3_EE
Ltmp226:
	b	LBB7_4
LBB7_4:
	add	x0, sp, #56
	bl	__ZNSt3__114__split_bufferI6ResultRNS_9allocatorIS1_EEED1Ev
	b	LBB7_6
LBB7_5:
Ltmp227:
	str	x0, [sp, #48]
	mov	x8, x1
	str	w8, [sp, #44]
	add	x0, sp, #56
	bl	__ZNSt3__114__split_bufferI6ResultRNS_9allocatorIS1_EEED1Ev
	b	LBB7_7
LBB7_6:
	ldp	x29, x30, [sp, #112]            ; 16-byte Folded Reload
	add	sp, sp, #128
	ret
LBB7_7:
	ldr	x0, [sp, #48]
	bl	__Unwind_Resume
Lfunc_end1:
	.cfi_endproc
	.section	__TEXT,__gcc_except_tab
	.p2align	2, 0x0
GCC_except_table7:
Lexception1:
	.byte	255                             ; @LPStart Encoding = omit
	.byte	255                             ; @TType Encoding = omit
	.byte	1                               ; Call site Encoding = uleb128
	.uleb128 Lcst_end1-Lcst_begin1
Lcst_begin1:
	.uleb128 Lfunc_begin1-Lfunc_begin1      ; >> Call Site 1 <<
	.uleb128 Ltmp225-Lfunc_begin1           ;   Call between Lfunc_begin1 and Ltmp225
	.byte	0                               ;     has no landing pad
	.byte	0                               ;   On action: cleanup
	.uleb128 Ltmp225-Lfunc_begin1           ; >> Call Site 2 <<
	.uleb128 Ltmp226-Ltmp225                ;   Call between Ltmp225 and Ltmp226
	.uleb128 Ltmp227-Lfunc_begin1           ;     jumps to Ltmp227
	.byte	0                               ;   On action: cleanup
	.uleb128 Ltmp226-Lfunc_begin1           ; >> Call Site 3 <<
	.uleb128 Lfunc_end1-Ltmp226             ;   Call between Ltmp226 and Lfunc_end1
	.byte	0                               ;     has no landing pad
	.byte	0                               ;   On action: cleanup
Lcst_end1:
	.p2align	2, 0x0
                                        ; -- End function
	.section	__TEXT,__text,regular,pure_instructions
	.private_extern	__ZNKSt3__16vectorIxNS_9allocatorIxEEE4sizeB8ne200100Ev ; -- Begin function _ZNKSt3__16vectorIxNS_9allocatorIxEEE4sizeB8ne200100Ev
	.globl	__ZNKSt3__16vectorIxNS_9allocatorIxEEE4sizeB8ne200100Ev
	.weak_definition	__ZNKSt3__16vectorIxNS_9allocatorIxEEE4sizeB8ne200100Ev
	.p2align	2
__ZNKSt3__16vectorIxNS_9allocatorIxEEE4sizeB8ne200100Ev: ; @_ZNKSt3__16vectorIxNS_9allocatorIxEEE4sizeB8ne200100Ev
	.cfi_startproc
; %bb.0:
	sub	sp, sp, #16
	.cfi_def_cfa_offset 16
	str	x0, [sp, #8]
	ldr	x9, [sp, #8]
	ldr	x8, [x9, #8]
	ldr	x9, [x9]
	subs	x8, x8, x9
	mov	x9, #8                          ; =0x8
	sdiv	x0, x8, x9
	add	sp, sp, #16
	ret
	.cfi_endproc
                                        ; -- End function
	.private_extern	__ZNSt3__112basic_stringIcNS_11char_traitsIcEENS_9allocatorIcEEEC1B8ne200100Ev ; -- Begin function _ZNSt3__112basic_stringIcNS_11char_traitsIcEENS_9allocatorIcEEEC1B8ne200100Ev
	.globl	__ZNSt3__112basic_stringIcNS_11char_traitsIcEENS_9allocatorIcEEEC1B8ne200100Ev
	.weak_def_can_be_hidden	__ZNSt3__112basic_stringIcNS_11char_traitsIcEENS_9allocatorIcEEEC1B8ne200100Ev
	.p2align	2
__ZNSt3__112basic_stringIcNS_11char_traitsIcEENS_9allocatorIcEEEC1B8ne200100Ev: ; @_ZNSt3__112basic_stringIcNS_11char_traitsIcEENS_9allocatorIcEEEC1B8ne200100Ev
	.cfi_startproc
; %bb.0:
	sub	sp, sp, #32
	stp	x29, x30, [sp, #16]             ; 16-byte Folded Spill
	add	x29, sp, #16
	.cfi_def_cfa w29, 16
	.cfi_offset w30, -8
	.cfi_offset w29, -16
	str	x0, [sp, #8]
	ldr	x0, [sp, #8]
	str	x0, [sp]                        ; 8-byte Folded Spill
	bl	__ZNSt3__112basic_stringIcNS_11char_traitsIcEENS_9allocatorIcEEEC2B8ne200100Ev
	ldr	x0, [sp]                        ; 8-byte Folded Reload
	ldp	x29, x30, [sp, #16]             ; 16-byte Folded Reload
	add	sp, sp, #32
	ret
	.cfi_endproc
                                        ; -- End function
	.private_extern	__ZNSt3__114basic_ifstreamIcNS_11char_traitsIcEEEC1EPKcj ; -- Begin function _ZNSt3__114basic_ifstreamIcNS_11char_traitsIcEEEC1EPKcj
	.globl	__ZNSt3__114basic_ifstreamIcNS_11char_traitsIcEEEC1EPKcj
	.weak_def_can_be_hidden	__ZNSt3__114basic_ifstreamIcNS_11char_traitsIcEEEC1EPKcj
	.p2align	2
__ZNSt3__114basic_ifstreamIcNS_11char_traitsIcEEEC1EPKcj: ; @_ZNSt3__114basic_ifstreamIcNS_11char_traitsIcEEEC1EPKcj
Lfunc_begin2:
	.cfi_startproc
	.cfi_personality 155, ___gxx_personality_v0
	.cfi_lsda 16, Lexception2
; %bb.0:
	sub	sp, sp, #96
	stp	x29, x30, [sp, #80]             ; 16-byte Folded Spill
	add	x29, sp, #80
	.cfi_def_cfa w29, 16
	.cfi_offset w30, -8
	.cfi_offset w29, -16
	stur	x0, [x29, #-16]
	stur	x1, [x29, #-24]
	stur	w2, [x29, #-28]
	ldur	x8, [x29, #-16]
	str	x8, [sp, #24]                   ; 8-byte Folded Spill
	mov	x9, x8
	stur	x9, [x29, #-8]
	add	x0, x8, #424
	bl	__ZNSt3__19basic_iosIcNS_11char_traitsIcEEEC2B8ne200100Ev
	ldr	x8, [sp, #24]                   ; 8-byte Folded Reload
	adrp	x9, __ZTVNSt3__114basic_ifstreamIcNS_11char_traitsIcEEEE@GOTPAGE
	ldr	x9, [x9, __ZTVNSt3__114basic_ifstreamIcNS_11char_traitsIcEEEE@GOTPAGEOFF]
	add	x10, x9, #24
	str	x10, [x8]
	add	x9, x9, #64
	str	x9, [x8, #424]
Ltmp229:
	mov	x0, x8
	adrp	x9, __ZTTNSt3__114basic_ifstreamIcNS_11char_traitsIcEEEE@GOTPAGE
	ldr	x9, [x9, __ZTTNSt3__114basic_ifstreamIcNS_11char_traitsIcEEEE@GOTPAGEOFF]
	add	x1, x9, #8
	add	x2, x8, #16
	bl	__ZNSt3__113basic_istreamIcNS_11char_traitsIcEEEC2B8ne200100EPNS_15basic_streambufIcS2_EE
Ltmp230:
	b	LBB10_1
LBB10_1:
	ldr	x8, [sp, #24]                   ; 8-byte Folded Reload
	adrp	x9, __ZTVNSt3__114basic_ifstreamIcNS_11char_traitsIcEEEE@GOTPAGE
	ldr	x9, [x9, __ZTVNSt3__114basic_ifstreamIcNS_11char_traitsIcEEEE@GOTPAGEOFF]
	add	x10, x9, #24
	str	x10, [x8]
	add	x9, x9, #64
	str	x9, [x8, #424]
	add	x0, x8, #16
	str	x0, [sp, #16]                   ; 8-byte Folded Spill
Ltmp232:
	bl	__ZNSt3__113basic_filebufIcNS_11char_traitsIcEEEC1Ev
Ltmp233:
	b	LBB10_2
LBB10_2:
	ldr	x8, [sp, #24]                   ; 8-byte Folded Reload
	add	x0, x8, #16
	ldur	x1, [x29, #-24]
	ldur	w8, [x29, #-28]
	orr	w2, w8, #0x8
Ltmp235:
	bl	__ZNSt3__113basic_filebufIcNS_11char_traitsIcEEE4openEPKcj
	str	x0, [sp, #8]                    ; 8-byte Folded Spill
Ltmp236:
	b	LBB10_3
LBB10_3:
	ldr	x8, [sp, #8]                    ; 8-byte Folded Reload
	cbnz	x8, LBB10_9
	b	LBB10_4
LBB10_4:
	ldr	x8, [sp, #24]                   ; 8-byte Folded Reload
	ldr	x9, [x8]
	ldur	x9, [x9, #-24]
	add	x0, x8, x9
Ltmp237:
	mov	w1, #4                          ; =0x4
	bl	__ZNSt3__19basic_iosIcNS_11char_traitsIcEEE8setstateB8ne200100Ej
Ltmp238:
	b	LBB10_5
LBB10_5:
	b	LBB10_9
LBB10_6:
Ltmp231:
	str	x0, [sp, #40]
	mov	x8, x1
	str	w8, [sp, #36]
	b	LBB10_11
LBB10_7:
Ltmp234:
	str	x0, [sp, #40]
	mov	x8, x1
	str	w8, [sp, #36]
	b	LBB10_10
LBB10_8:
Ltmp239:
	mov	x8, x0
	ldr	x0, [sp, #16]                   ; 8-byte Folded Reload
	str	x8, [sp, #40]
	mov	x8, x1
	str	w8, [sp, #36]
	bl	__ZNSt3__113basic_filebufIcNS_11char_traitsIcEEED1Ev
	b	LBB10_10
LBB10_9:
	ldur	x0, [x29, #-8]
	ldp	x29, x30, [sp, #80]             ; 16-byte Folded Reload
	add	sp, sp, #96
	ret
LBB10_10:
	ldr	x0, [sp, #24]                   ; 8-byte Folded Reload
	adrp	x8, __ZTTNSt3__114basic_ifstreamIcNS_11char_traitsIcEEEE@GOTPAGE
	ldr	x8, [x8, __ZTTNSt3__114basic_ifstreamIcNS_11char_traitsIcEEEE@GOTPAGEOFF]
	add	x1, x8, #8
	bl	__ZNSt3__113basic_istreamIcNS_11char_traitsIcEEED2Ev
	b	LBB10_11
LBB10_11:
	ldr	x8, [sp, #24]                   ; 8-byte Folded Reload
	add	x0, x8, #424
	bl	__ZNSt3__19basic_iosIcNS_11char_traitsIcEEED2Ev
	b	LBB10_12
LBB10_12:
	ldr	x0, [sp, #40]
	bl	__Unwind_Resume
Lfunc_end2:
	.cfi_endproc
	.section	__TEXT,__gcc_except_tab
	.p2align	2, 0x0
GCC_except_table10:
Lexception2:
	.byte	255                             ; @LPStart Encoding = omit
	.byte	255                             ; @TType Encoding = omit
	.byte	1                               ; Call site Encoding = uleb128
	.uleb128 Lcst_end2-Lcst_begin2
Lcst_begin2:
	.uleb128 Lfunc_begin2-Lfunc_begin2      ; >> Call Site 1 <<
	.uleb128 Ltmp229-Lfunc_begin2           ;   Call between Lfunc_begin2 and Ltmp229
	.byte	0                               ;     has no landing pad
	.byte	0                               ;   On action: cleanup
	.uleb128 Ltmp229-Lfunc_begin2           ; >> Call Site 2 <<
	.uleb128 Ltmp230-Ltmp229                ;   Call between Ltmp229 and Ltmp230
	.uleb128 Ltmp231-Lfunc_begin2           ;     jumps to Ltmp231
	.byte	0                               ;   On action: cleanup
	.uleb128 Ltmp232-Lfunc_begin2           ; >> Call Site 3 <<
	.uleb128 Ltmp233-Ltmp232                ;   Call between Ltmp232 and Ltmp233
	.uleb128 Ltmp234-Lfunc_begin2           ;     jumps to Ltmp234
	.byte	0                               ;   On action: cleanup
	.uleb128 Ltmp235-Lfunc_begin2           ; >> Call Site 4 <<
	.uleb128 Ltmp238-Ltmp235                ;   Call between Ltmp235 and Ltmp238
	.uleb128 Ltmp239-Lfunc_begin2           ;     jumps to Ltmp239
	.byte	0                               ;   On action: cleanup
	.uleb128 Ltmp238-Lfunc_begin2           ; >> Call Site 5 <<
	.uleb128 Lfunc_end2-Ltmp238             ;   Call between Ltmp238 and Lfunc_end2
	.byte	0                               ;     has no landing pad
	.byte	0                               ;   On action: cleanup
Lcst_end2:
	.p2align	2, 0x0
                                        ; -- End function
	.section	__TEXT,__text,regular,pure_instructions
	.private_extern	__ZNSt3__17getlineB8ne200100IcNS_11char_traitsIcEENS_9allocatorIcEEEERNS_13basic_istreamIT_T0_EES9_RNS_12basic_stringIS6_S7_T1_EE ; -- Begin function _ZNSt3__17getlineB8ne200100IcNS_11char_traitsIcEENS_9allocatorIcEEEERNS_13basic_istreamIT_T0_EES9_RNS_12basic_stringIS6_S7_T1_EE
	.globl	__ZNSt3__17getlineB8ne200100IcNS_11char_traitsIcEENS_9allocatorIcEEEERNS_13basic_istreamIT_T0_EES9_RNS_12basic_stringIS6_S7_T1_EE
	.weak_definition	__ZNSt3__17getlineB8ne200100IcNS_11char_traitsIcEENS_9allocatorIcEEEERNS_13basic_istreamIT_T0_EES9_RNS_12basic_stringIS6_S7_T1_EE
	.p2align	2
__ZNSt3__17getlineB8ne200100IcNS_11char_traitsIcEENS_9allocatorIcEEEERNS_13basic_istreamIT_T0_EES9_RNS_12basic_stringIS6_S7_T1_EE: ; @_ZNSt3__17getlineB8ne200100IcNS_11char_traitsIcEENS_9allocatorIcEEEERNS_13basic_istreamIT_T0_EES9_RNS_12basic_stringIS6_S7_T1_EE
	.cfi_startproc
; %bb.0:
	sub	sp, sp, #48
	stp	x29, x30, [sp, #32]             ; 16-byte Folded Spill
	add	x29, sp, #32
	.cfi_def_cfa w29, 16
	.cfi_offset w30, -8
	.cfi_offset w29, -16
	stur	x0, [x29, #-8]
	str	x1, [sp, #16]
	ldur	x8, [x29, #-8]
	str	x8, [sp, #8]                    ; 8-byte Folded Spill
	ldr	x8, [sp, #16]
	str	x8, [sp]                        ; 8-byte Folded Spill
	ldur	x8, [x29, #-8]
	ldr	x9, [x8]
	ldur	x9, [x9, #-24]
	add	x0, x8, x9
	mov	w1, #10                         ; =0xa
	bl	__ZNKSt3__19basic_iosIcNS_11char_traitsIcEEE5widenB8ne200100Ec
	ldr	x1, [sp]                        ; 8-byte Folded Reload
	mov	x2, x0
	ldr	x0, [sp, #8]                    ; 8-byte Folded Reload
	bl	__ZNSt3__17getlineB8ne200100IcNS_11char_traitsIcEENS_9allocatorIcEEEERNS_13basic_istreamIT_T0_EES9_RNS_12basic_stringIS6_S7_T1_EES6_
	ldp	x29, x30, [sp, #32]             ; 16-byte Folded Reload
	add	sp, sp, #48
	ret
	.cfi_endproc
                                        ; -- End function
	.private_extern	__ZNKSt3__19basic_iosIcNS_11char_traitsIcEEEcvbB8ne200100Ev ; -- Begin function _ZNKSt3__19basic_iosIcNS_11char_traitsIcEEEcvbB8ne200100Ev
	.globl	__ZNKSt3__19basic_iosIcNS_11char_traitsIcEEEcvbB8ne200100Ev
	.weak_definition	__ZNKSt3__19basic_iosIcNS_11char_traitsIcEEEcvbB8ne200100Ev
	.p2align	2
__ZNKSt3__19basic_iosIcNS_11char_traitsIcEEEcvbB8ne200100Ev: ; @_ZNKSt3__19basic_iosIcNS_11char_traitsIcEEEcvbB8ne200100Ev
	.cfi_startproc
; %bb.0:
	sub	sp, sp, #32
	stp	x29, x30, [sp, #16]             ; 16-byte Folded Spill
	add	x29, sp, #16
	.cfi_def_cfa w29, 16
	.cfi_offset w30, -8
	.cfi_offset w29, -16
	str	x0, [sp, #8]
	ldr	x0, [sp, #8]
	bl	__ZNKSt3__19basic_iosIcNS_11char_traitsIcEEE4failB8ne200100Ev
	eor	w0, w0, #0x1
	ldp	x29, x30, [sp, #16]             ; 16-byte Folded Reload
	add	sp, sp, #32
	ret
	.cfi_endproc
                                        ; -- End function
	.private_extern	__ZNKSt3__112basic_stringIcNS_11char_traitsIcEENS_9allocatorIcEEE4findB8ne200100EPKcm ; -- Begin function _ZNKSt3__112basic_stringIcNS_11char_traitsIcEENS_9allocatorIcEEE4findB8ne200100EPKcm
	.globl	__ZNKSt3__112basic_stringIcNS_11char_traitsIcEENS_9allocatorIcEEE4findB8ne200100EPKcm
	.weak_definition	__ZNKSt3__112basic_stringIcNS_11char_traitsIcEENS_9allocatorIcEEE4findB8ne200100EPKcm
	.p2align	2
__ZNKSt3__112basic_stringIcNS_11char_traitsIcEENS_9allocatorIcEEE4findB8ne200100EPKcm: ; @_ZNKSt3__112basic_stringIcNS_11char_traitsIcEENS_9allocatorIcEEE4findB8ne200100EPKcm
	.cfi_startproc
; %bb.0:
	sub	sp, sp, #80
	stp	x29, x30, [sp, #64]             ; 16-byte Folded Spill
	add	x29, sp, #64
	.cfi_def_cfa w29, 16
	.cfi_offset w30, -8
	.cfi_offset w29, -16
	stur	x0, [x29, #-8]
	stur	x1, [x29, #-16]
	stur	x2, [x29, #-24]
	ldur	x0, [x29, #-8]
	str	x0, [sp]                        ; 8-byte Folded Spill
	bl	__ZNKSt3__112basic_stringIcNS_11char_traitsIcEENS_9allocatorIcEEE4dataB8ne200100Ev
	mov	x1, x0
	ldr	x0, [sp]                        ; 8-byte Folded Reload
	str	x1, [sp, #32]                   ; 8-byte Folded Spill
	bl	__ZNKSt3__112basic_stringIcNS_11char_traitsIcEENS_9allocatorIcEEE4sizeB8ne200100Ev
	str	x0, [sp, #8]                    ; 8-byte Folded Spill
	ldur	x8, [x29, #-16]
	str	x8, [sp, #16]                   ; 8-byte Folded Spill
	ldur	x8, [x29, #-24]
	str	x8, [sp, #24]                   ; 8-byte Folded Spill
	ldur	x0, [x29, #-16]
	bl	__ZNSt3__111char_traitsIcE6lengthB8ne200100EPKc
	ldr	x1, [sp, #8]                    ; 8-byte Folded Reload
	ldr	x2, [sp, #16]                   ; 8-byte Folded Reload
	ldr	x3, [sp, #24]                   ; 8-byte Folded Reload
	mov	x4, x0
	ldr	x0, [sp, #32]                   ; 8-byte Folded Reload
	bl	__ZNSt3__110__str_findB8ne200100IcmNS_11char_traitsIcEELm18446744073709551615EEET0_PKT_S3_S6_S3_S3_
	ldp	x29, x30, [sp, #64]             ; 16-byte Folded Reload
	add	sp, sp, #80
	ret
	.cfi_endproc
                                        ; -- End function
	.private_extern	__ZNKSt3__112basic_stringIcNS_11char_traitsIcEENS_9allocatorIcEEE6substrB8ne200100Emm ; -- Begin function _ZNKSt3__112basic_stringIcNS_11char_traitsIcEENS_9allocatorIcEEE6substrB8ne200100Emm
	.globl	__ZNKSt3__112basic_stringIcNS_11char_traitsIcEENS_9allocatorIcEEE6substrB8ne200100Emm
	.weak_definition	__ZNKSt3__112basic_stringIcNS_11char_traitsIcEENS_9allocatorIcEEE6substrB8ne200100Emm
	.p2align	2
__ZNKSt3__112basic_stringIcNS_11char_traitsIcEENS_9allocatorIcEEE6substrB8ne200100Emm: ; @_ZNKSt3__112basic_stringIcNS_11char_traitsIcEENS_9allocatorIcEEE6substrB8ne200100Emm
	.cfi_startproc
; %bb.0:
	sub	sp, sp, #96
	stp	x29, x30, [sp, #80]             ; 16-byte Folded Spill
	add	x29, sp, #80
	.cfi_def_cfa w29, 16
	.cfi_offset w30, -8
	.cfi_offset w29, -16
	str	x8, [sp]                        ; 8-byte Folded Spill
	stur	x8, [x29, #-8]
	stur	x0, [x29, #-16]
	stur	x1, [x29, #-24]
	stur	x2, [x29, #-32]
	ldur	x8, [x29, #-16]
	str	x8, [sp, #8]                    ; 8-byte Folded Spill
	ldur	x8, [x29, #-24]
	str	x8, [sp, #16]                   ; 8-byte Folded Spill
	ldur	x8, [x29, #-32]
	str	x8, [sp, #24]                   ; 8-byte Folded Spill
	sub	x0, x29, #33
	str	x0, [sp, #32]                   ; 8-byte Folded Spill
	bl	__ZNSt3__19allocatorIcEC1B8ne200100Ev
	ldr	x0, [sp]                        ; 8-byte Folded Reload
	ldr	x1, [sp, #8]                    ; 8-byte Folded Reload
	ldr	x2, [sp, #16]                   ; 8-byte Folded Reload
	ldr	x3, [sp, #24]                   ; 8-byte Folded Reload
	ldr	x4, [sp, #32]                   ; 8-byte Folded Reload
	bl	__ZNSt3__112basic_stringIcNS_11char_traitsIcEENS_9allocatorIcEEEC1ERKS5_mmRKS4_
	ldp	x29, x30, [sp, #80]             ; 16-byte Folded Reload
	add	sp, sp, #96
	ret
	.cfi_endproc
                                        ; -- End function
	.private_extern	__ZNSt3__112basic_stringIcNS_11char_traitsIcEENS_9allocatorIcEEEaSB8ne200100EOS5_ ; -- Begin function _ZNSt3__112basic_stringIcNS_11char_traitsIcEENS_9allocatorIcEEEaSB8ne200100EOS5_
	.globl	__ZNSt3__112basic_stringIcNS_11char_traitsIcEENS_9allocatorIcEEEaSB8ne200100EOS5_
	.weak_definition	__ZNSt3__112basic_stringIcNS_11char_traitsIcEENS_9allocatorIcEEEaSB8ne200100EOS5_
	.p2align	2
__ZNSt3__112basic_stringIcNS_11char_traitsIcEENS_9allocatorIcEEEaSB8ne200100EOS5_: ; @_ZNSt3__112basic_stringIcNS_11char_traitsIcEENS_9allocatorIcEEEaSB8ne200100EOS5_
	.cfi_startproc
; %bb.0:
	sub	sp, sp, #48
	stp	x29, x30, [sp, #32]             ; 16-byte Folded Spill
	add	x29, sp, #32
	.cfi_def_cfa w29, 16
	.cfi_offset w30, -8
	.cfi_offset w29, -16
	stur	x0, [x29, #-8]
	str	x1, [sp, #16]
	ldur	x0, [x29, #-8]
	str	x0, [sp]                        ; 8-byte Folded Spill
	ldr	x1, [sp, #16]
	bl	__ZNSt3__112basic_stringIcNS_11char_traitsIcEENS_9allocatorIcEEE13__move_assignB8ne200100ERS5_NS_17integral_constantIbLb1EEE
	ldr	x0, [sp]                        ; 8-byte Folded Reload
	ldp	x29, x30, [sp, #32]             ; 16-byte Folded Reload
	add	sp, sp, #48
	ret
	.cfi_endproc
                                        ; -- End function
	.globl	__ZNSt3__114basic_ifstreamIcNS_11char_traitsIcEEED1Ev ; -- Begin function _ZNSt3__114basic_ifstreamIcNS_11char_traitsIcEEED1Ev
	.weak_def_can_be_hidden	__ZNSt3__114basic_ifstreamIcNS_11char_traitsIcEEED1Ev
	.p2align	2
__ZNSt3__114basic_ifstreamIcNS_11char_traitsIcEEED1Ev: ; @_ZNSt3__114basic_ifstreamIcNS_11char_traitsIcEEED1Ev
	.cfi_startproc
; %bb.0:
	sub	sp, sp, #32
	stp	x29, x30, [sp, #16]             ; 16-byte Folded Spill
	add	x29, sp, #16
	.cfi_def_cfa w29, 16
	.cfi_offset w30, -8
	.cfi_offset w29, -16
	str	x0, [sp, #8]
	ldr	x0, [sp, #8]
	str	x0, [sp]                        ; 8-byte Folded Spill
	adrp	x1, __ZTTNSt3__114basic_ifstreamIcNS_11char_traitsIcEEEE@GOTPAGE
	ldr	x1, [x1, __ZTTNSt3__114basic_ifstreamIcNS_11char_traitsIcEEEE@GOTPAGEOFF]
	bl	__ZNSt3__114basic_ifstreamIcNS_11char_traitsIcEEED2Ev
	ldr	x8, [sp]                        ; 8-byte Folded Reload
	add	x0, x8, #424
	bl	__ZNSt3__19basic_iosIcNS_11char_traitsIcEEED2Ev
	ldr	x0, [sp]                        ; 8-byte Folded Reload
	ldp	x29, x30, [sp, #16]             ; 16-byte Folded Reload
	add	sp, sp, #32
	ret
	.cfi_endproc
                                        ; -- End function
	.private_extern	__ZNSt3__112basic_stringIcNS_11char_traitsIcEENS_9allocatorIcEEEaSB8ne200100EPKc ; -- Begin function _ZNSt3__112basic_stringIcNS_11char_traitsIcEENS_9allocatorIcEEEaSB8ne200100EPKc
	.globl	__ZNSt3__112basic_stringIcNS_11char_traitsIcEENS_9allocatorIcEEEaSB8ne200100EPKc
	.weak_definition	__ZNSt3__112basic_stringIcNS_11char_traitsIcEENS_9allocatorIcEEEaSB8ne200100EPKc
	.p2align	2
__ZNSt3__112basic_stringIcNS_11char_traitsIcEENS_9allocatorIcEEEaSB8ne200100EPKc: ; @_ZNSt3__112basic_stringIcNS_11char_traitsIcEENS_9allocatorIcEEEaSB8ne200100EPKc
	.cfi_startproc
; %bb.0:
	sub	sp, sp, #32
	stp	x29, x30, [sp, #16]             ; 16-byte Folded Spill
	add	x29, sp, #16
	.cfi_def_cfa w29, 16
	.cfi_offset w30, -8
	.cfi_offset w29, -16
	str	x0, [sp, #8]
	str	x1, [sp]
	ldr	x0, [sp, #8]
	ldr	x1, [sp]
	bl	__ZNSt3__112basic_stringIcNS_11char_traitsIcEENS_9allocatorIcEEE6assignEPKc
	ldp	x29, x30, [sp, #16]             ; 16-byte Folded Reload
	add	sp, sp, #32
	ret
	.cfi_endproc
                                        ; -- End function
	.private_extern	__ZNKSt3__112basic_stringIcNS_11char_traitsIcEENS_9allocatorIcEEE5emptyB8ne200100Ev ; -- Begin function _ZNKSt3__112basic_stringIcNS_11char_traitsIcEENS_9allocatorIcEEE5emptyB8ne200100Ev
	.globl	__ZNKSt3__112basic_stringIcNS_11char_traitsIcEENS_9allocatorIcEEE5emptyB8ne200100Ev
	.weak_definition	__ZNKSt3__112basic_stringIcNS_11char_traitsIcEENS_9allocatorIcEEE5emptyB8ne200100Ev
	.p2align	2
__ZNKSt3__112basic_stringIcNS_11char_traitsIcEENS_9allocatorIcEEE5emptyB8ne200100Ev: ; @_ZNKSt3__112basic_stringIcNS_11char_traitsIcEENS_9allocatorIcEEE5emptyB8ne200100Ev
	.cfi_startproc
; %bb.0:
	sub	sp, sp, #32
	stp	x29, x30, [sp, #16]             ; 16-byte Folded Spill
	add	x29, sp, #16
	.cfi_def_cfa w29, 16
	.cfi_offset w30, -8
	.cfi_offset w29, -16
	str	x0, [sp, #8]
	ldr	x0, [sp, #8]
	bl	__ZNKSt3__112basic_stringIcNS_11char_traitsIcEENS_9allocatorIcEEE4sizeB8ne200100Ev
	subs	x8, x0, #0
	cset	w0, eq
	ldp	x29, x30, [sp, #16]             ; 16-byte Folded Reload
	add	sp, sp, #32
	ret
	.cfi_endproc
                                        ; -- End function
	.private_extern	__ZNSt3__112basic_stringIcNS_11char_traitsIcEENS_9allocatorIcEEE4backB8ne200100Ev ; -- Begin function _ZNSt3__112basic_stringIcNS_11char_traitsIcEENS_9allocatorIcEEE4backB8ne200100Ev
	.globl	__ZNSt3__112basic_stringIcNS_11char_traitsIcEENS_9allocatorIcEEE4backB8ne200100Ev
	.weak_definition	__ZNSt3__112basic_stringIcNS_11char_traitsIcEENS_9allocatorIcEEE4backB8ne200100Ev
	.p2align	2
__ZNSt3__112basic_stringIcNS_11char_traitsIcEENS_9allocatorIcEEE4backB8ne200100Ev: ; @_ZNSt3__112basic_stringIcNS_11char_traitsIcEENS_9allocatorIcEEE4backB8ne200100Ev
	.cfi_startproc
; %bb.0:
	sub	sp, sp, #48
	stp	x29, x30, [sp, #32]             ; 16-byte Folded Spill
	add	x29, sp, #32
	.cfi_def_cfa w29, 16
	.cfi_offset w30, -8
	.cfi_offset w29, -16
	stur	x0, [x29, #-8]
	ldur	x0, [x29, #-8]
	str	x0, [sp, #8]                    ; 8-byte Folded Spill
	bl	__ZNSt3__112basic_stringIcNS_11char_traitsIcEENS_9allocatorIcEEE13__get_pointerB8ne200100Ev
	mov	x8, x0
	ldr	x0, [sp, #8]                    ; 8-byte Folded Reload
	str	x8, [sp, #16]                   ; 8-byte Folded Spill
	bl	__ZNKSt3__112basic_stringIcNS_11char_traitsIcEENS_9allocatorIcEEE4sizeB8ne200100Ev
	mov	x8, x0
	ldr	x0, [sp, #16]                   ; 8-byte Folded Reload
	add	x8, x0, x8
	subs	x0, x8, #1
	ldp	x29, x30, [sp, #32]             ; 16-byte Folded Reload
	add	sp, sp, #48
	ret
	.cfi_endproc
                                        ; -- End function
	.private_extern	__ZNSt3__112basic_stringIcNS_11char_traitsIcEENS_9allocatorIcEEE8pop_backB8ne200100Ev ; -- Begin function _ZNSt3__112basic_stringIcNS_11char_traitsIcEENS_9allocatorIcEEE8pop_backB8ne200100Ev
	.globl	__ZNSt3__112basic_stringIcNS_11char_traitsIcEENS_9allocatorIcEEE8pop_backB8ne200100Ev
	.weak_definition	__ZNSt3__112basic_stringIcNS_11char_traitsIcEENS_9allocatorIcEEE8pop_backB8ne200100Ev
	.p2align	2
__ZNSt3__112basic_stringIcNS_11char_traitsIcEENS_9allocatorIcEEE8pop_backB8ne200100Ev: ; @_ZNSt3__112basic_stringIcNS_11char_traitsIcEENS_9allocatorIcEEE8pop_backB8ne200100Ev
	.cfi_startproc
; %bb.0:
	sub	sp, sp, #32
	stp	x29, x30, [sp, #16]             ; 16-byte Folded Spill
	add	x29, sp, #16
	.cfi_def_cfa w29, 16
	.cfi_offset w30, -8
	.cfi_offset w29, -16
	str	x0, [sp, #8]
	ldr	x0, [sp, #8]
	str	x0, [sp]                        ; 8-byte Folded Spill
	bl	__ZNKSt3__112basic_stringIcNS_11char_traitsIcEENS_9allocatorIcEEE4sizeB8ne200100Ev
	mov	x8, x0
	ldr	x0, [sp]                        ; 8-byte Folded Reload
	subs	x1, x8, #1
	bl	__ZNSt3__112basic_stringIcNS_11char_traitsIcEENS_9allocatorIcEEE14__erase_to_endB8ne200100Em
	ldp	x29, x30, [sp, #16]             ; 16-byte Folded Reload
	add	sp, sp, #32
	ret
	.cfi_endproc
                                        ; -- End function
	.private_extern	__ZNSt3__1lsB8ne200100IcNS_11char_traitsIcEEEERNS_13basic_ostreamIT_T0_EES7_RKNS_8__iom_t5E ; -- Begin function _ZNSt3__1lsB8ne200100IcNS_11char_traitsIcEEEERNS_13basic_ostreamIT_T0_EES7_RKNS_8__iom_t5E
	.globl	__ZNSt3__1lsB8ne200100IcNS_11char_traitsIcEEEERNS_13basic_ostreamIT_T0_EES7_RKNS_8__iom_t5E
	.weak_definition	__ZNSt3__1lsB8ne200100IcNS_11char_traitsIcEEEERNS_13basic_ostreamIT_T0_EES7_RKNS_8__iom_t5E
	.p2align	2
__ZNSt3__1lsB8ne200100IcNS_11char_traitsIcEEEERNS_13basic_ostreamIT_T0_EES7_RKNS_8__iom_t5E: ; @_ZNSt3__1lsB8ne200100IcNS_11char_traitsIcEEEERNS_13basic_ostreamIT_T0_EES7_RKNS_8__iom_t5E
	.cfi_startproc
; %bb.0:
	sub	sp, sp, #32
	stp	x29, x30, [sp, #16]             ; 16-byte Folded Spill
	add	x29, sp, #16
	.cfi_def_cfa w29, 16
	.cfi_offset w30, -8
	.cfi_offset w29, -16
	str	x0, [sp, #8]
	str	x1, [sp]
	ldr	x8, [sp, #8]
	ldr	x9, [x8]
	ldur	x9, [x9, #-24]
	ldr	x10, [sp]
	ldrsw	x1, [x10]
	add	x0, x8, x9
	bl	__ZNSt3__18ios_base9precisionB8ne200100El
	ldr	x0, [sp, #8]
	ldp	x29, x30, [sp, #16]             ; 16-byte Folded Reload
	add	sp, sp, #32
	ret
	.cfi_endproc
                                        ; -- End function
	.private_extern	__ZNSt3__113basic_ostreamIcNS_11char_traitsIcEEElsB8ne200100EPFRNS_8ios_baseES5_E ; -- Begin function _ZNSt3__113basic_ostreamIcNS_11char_traitsIcEEElsB8ne200100EPFRNS_8ios_baseES5_E
	.globl	__ZNSt3__113basic_ostreamIcNS_11char_traitsIcEEElsB8ne200100EPFRNS_8ios_baseES5_E
	.weak_definition	__ZNSt3__113basic_ostreamIcNS_11char_traitsIcEEElsB8ne200100EPFRNS_8ios_baseES5_E
	.p2align	2
__ZNSt3__113basic_ostreamIcNS_11char_traitsIcEEElsB8ne200100EPFRNS_8ios_baseES5_E: ; @_ZNSt3__113basic_ostreamIcNS_11char_traitsIcEEElsB8ne200100EPFRNS_8ios_baseES5_E
	.cfi_startproc
; %bb.0:
	sub	sp, sp, #48
	stp	x29, x30, [sp, #32]             ; 16-byte Folded Spill
	add	x29, sp, #32
	.cfi_def_cfa w29, 16
	.cfi_offset w30, -8
	.cfi_offset w29, -16
	stur	x0, [x29, #-8]
	str	x1, [sp, #16]
	ldur	x9, [x29, #-8]
	str	x9, [sp, #8]                    ; 8-byte Folded Spill
	ldr	x8, [sp, #16]
	ldr	x10, [x9]
	ldur	x10, [x10, #-24]
	add	x0, x9, x10
	blr	x8
	ldr	x0, [sp, #8]                    ; 8-byte Folded Reload
	ldp	x29, x30, [sp, #32]             ; 16-byte Folded Reload
	add	sp, sp, #48
	ret
	.cfi_endproc
                                        ; -- End function
	.private_extern	__ZNSt3__15fixedB8ne200100ERNS_8ios_baseE ; -- Begin function _ZNSt3__15fixedB8ne200100ERNS_8ios_baseE
	.globl	__ZNSt3__15fixedB8ne200100ERNS_8ios_baseE
	.weak_definition	__ZNSt3__15fixedB8ne200100ERNS_8ios_baseE
	.p2align	2
__ZNSt3__15fixedB8ne200100ERNS_8ios_baseE: ; @_ZNSt3__15fixedB8ne200100ERNS_8ios_baseE
	.cfi_startproc
; %bb.0:
	sub	sp, sp, #32
	stp	x29, x30, [sp, #16]             ; 16-byte Folded Spill
	add	x29, sp, #16
	.cfi_def_cfa w29, 16
	.cfi_offset w30, -8
	.cfi_offset w29, -16
	str	x0, [sp, #8]
	ldr	x0, [sp, #8]
	mov	w1, #4                          ; =0x4
	mov	w2, #260                        ; =0x104
	bl	__ZNSt3__18ios_base4setfB8ne200100Ejj
	ldr	x0, [sp, #8]
	ldp	x29, x30, [sp, #16]             ; 16-byte Folded Reload
	add	sp, sp, #32
	ret
	.cfi_endproc
                                        ; -- End function
	.private_extern	__ZNSt3__112setprecisionB8ne200100Ei ; -- Begin function _ZNSt3__112setprecisionB8ne200100Ei
	.globl	__ZNSt3__112setprecisionB8ne200100Ei
	.weak_definition	__ZNSt3__112setprecisionB8ne200100Ei
	.p2align	2
__ZNSt3__112setprecisionB8ne200100Ei:   ; @_ZNSt3__112setprecisionB8ne200100Ei
	.cfi_startproc
; %bb.0:
	sub	sp, sp, #32
	stp	x29, x30, [sp, #16]             ; 16-byte Folded Spill
	add	x29, sp, #16
	.cfi_def_cfa w29, 16
	.cfi_offset w30, -8
	.cfi_offset w29, -16
	str	w0, [sp, #8]
	ldr	w1, [sp, #8]
	sub	x0, x29, #4
	bl	__ZNSt3__18__iom_t5C1B8ne200100Ei
	ldur	w0, [x29, #-4]
	ldp	x29, x30, [sp, #16]             ; 16-byte Folded Reload
	add	sp, sp, #32
	ret
	.cfi_endproc
                                        ; -- End function
	.private_extern	__ZNSt3__1lsB8ne200100IcNS_11char_traitsIcEENS_9allocatorIcEEEERNS_13basic_ostreamIT_T0_EES9_RKNS_12basic_stringIS6_S7_T1_EE ; -- Begin function _ZNSt3__1lsB8ne200100IcNS_11char_traitsIcEENS_9allocatorIcEEEERNS_13basic_ostreamIT_T0_EES9_RKNS_12basic_stringIS6_S7_T1_EE
	.globl	__ZNSt3__1lsB8ne200100IcNS_11char_traitsIcEENS_9allocatorIcEEEERNS_13basic_ostreamIT_T0_EES9_RKNS_12basic_stringIS6_S7_T1_EE
	.weak_definition	__ZNSt3__1lsB8ne200100IcNS_11char_traitsIcEENS_9allocatorIcEEEERNS_13basic_ostreamIT_T0_EES9_RKNS_12basic_stringIS6_S7_T1_EE
	.p2align	2
__ZNSt3__1lsB8ne200100IcNS_11char_traitsIcEENS_9allocatorIcEEEERNS_13basic_ostreamIT_T0_EES9_RKNS_12basic_stringIS6_S7_T1_EE: ; @_ZNSt3__1lsB8ne200100IcNS_11char_traitsIcEENS_9allocatorIcEEEERNS_13basic_ostreamIT_T0_EES9_RKNS_12basic_stringIS6_S7_T1_EE
	.cfi_startproc
; %bb.0:
	sub	sp, sp, #48
	stp	x29, x30, [sp, #32]             ; 16-byte Folded Spill
	add	x29, sp, #32
	.cfi_def_cfa w29, 16
	.cfi_offset w30, -8
	.cfi_offset w29, -16
	stur	x0, [x29, #-8]
	str	x1, [sp, #16]
	ldur	x8, [x29, #-8]
	str	x8, [sp, #8]                    ; 8-byte Folded Spill
	ldr	x0, [sp, #16]
	bl	__ZNKSt3__112basic_stringIcNS_11char_traitsIcEENS_9allocatorIcEEE4dataB8ne200100Ev
	str	x0, [sp]                        ; 8-byte Folded Spill
	ldr	x0, [sp, #16]
	bl	__ZNKSt3__112basic_stringIcNS_11char_traitsIcEENS_9allocatorIcEEE4sizeB8ne200100Ev
	ldr	x1, [sp]                        ; 8-byte Folded Reload
	mov	x2, x0
	ldr	x0, [sp, #8]                    ; 8-byte Folded Reload
	bl	__ZNSt3__124__put_character_sequenceB8ne200100IcNS_11char_traitsIcEEEERNS_13basic_ostreamIT_T0_EES7_PKS4_m
	ldp	x29, x30, [sp, #32]             ; 16-byte Folded Reload
	add	sp, sp, #48
	ret
	.cfi_endproc
                                        ; -- End function
	.private_extern	__ZNSt3__16vectorIxNS_9allocatorIxEEE5beginB8ne200100Ev ; -- Begin function _ZNSt3__16vectorIxNS_9allocatorIxEEE5beginB8ne200100Ev
	.globl	__ZNSt3__16vectorIxNS_9allocatorIxEEE5beginB8ne200100Ev
	.weak_definition	__ZNSt3__16vectorIxNS_9allocatorIxEEE5beginB8ne200100Ev
	.p2align	2
__ZNSt3__16vectorIxNS_9allocatorIxEEE5beginB8ne200100Ev: ; @_ZNSt3__16vectorIxNS_9allocatorIxEEE5beginB8ne200100Ev
	.cfi_startproc
; %bb.0:
	sub	sp, sp, #48
	stp	x29, x30, [sp, #32]             ; 16-byte Folded Spill
	add	x29, sp, #32
	.cfi_def_cfa w29, 16
	.cfi_offset w30, -8
	.cfi_offset w29, -16
	str	x0, [sp, #16]
	ldr	x8, [sp, #16]
	str	x8, [sp, #8]                    ; 8-byte Folded Spill
	ldr	x0, [x8]
	bl	__ZNSt3__16vectorIxNS_9allocatorIxEEE26__add_alignment_assumptionB8ne200100IPxLi0EEES5_T_
	mov	x1, x0
	ldr	x0, [sp, #8]                    ; 8-byte Folded Reload
	bl	__ZNSt3__16vectorIxNS_9allocatorIxEEE11__make_iterB8ne200100EPx
	stur	x0, [x29, #-8]
	ldur	x0, [x29, #-8]
	ldp	x29, x30, [sp, #32]             ; 16-byte Folded Reload
	add	sp, sp, #48
	ret
	.cfi_endproc
                                        ; -- End function
	.private_extern	__ZNSt3__16vectorIxNS_9allocatorIxEEE3endB8ne200100Ev ; -- Begin function _ZNSt3__16vectorIxNS_9allocatorIxEEE3endB8ne200100Ev
	.globl	__ZNSt3__16vectorIxNS_9allocatorIxEEE3endB8ne200100Ev
	.weak_definition	__ZNSt3__16vectorIxNS_9allocatorIxEEE3endB8ne200100Ev
	.p2align	2
__ZNSt3__16vectorIxNS_9allocatorIxEEE3endB8ne200100Ev: ; @_ZNSt3__16vectorIxNS_9allocatorIxEEE3endB8ne200100Ev
	.cfi_startproc
; %bb.0:
	sub	sp, sp, #48
	stp	x29, x30, [sp, #32]             ; 16-byte Folded Spill
	add	x29, sp, #32
	.cfi_def_cfa w29, 16
	.cfi_offset w30, -8
	.cfi_offset w29, -16
	str	x0, [sp, #16]
	ldr	x8, [sp, #16]
	str	x8, [sp, #8]                    ; 8-byte Folded Spill
	ldr	x0, [x8, #8]
	bl	__ZNSt3__16vectorIxNS_9allocatorIxEEE26__add_alignment_assumptionB8ne200100IPxLi0EEES5_T_
	mov	x1, x0
	ldr	x0, [sp, #8]                    ; 8-byte Folded Reload
	bl	__ZNSt3__16vectorIxNS_9allocatorIxEEE11__make_iterB8ne200100EPx
	stur	x0, [x29, #-8]
	ldur	x0, [x29, #-8]
	ldp	x29, x30, [sp, #32]             ; 16-byte Folded Reload
	add	sp, sp, #48
	ret
	.cfi_endproc
                                        ; -- End function
	.private_extern	__ZNSt3__1neB8ne200100IPxEEbRKNS_11__wrap_iterIT_EES6_ ; -- Begin function _ZNSt3__1neB8ne200100IPxEEbRKNS_11__wrap_iterIT_EES6_
	.globl	__ZNSt3__1neB8ne200100IPxEEbRKNS_11__wrap_iterIT_EES6_
	.weak_definition	__ZNSt3__1neB8ne200100IPxEEbRKNS_11__wrap_iterIT_EES6_
	.p2align	2
__ZNSt3__1neB8ne200100IPxEEbRKNS_11__wrap_iterIT_EES6_: ; @_ZNSt3__1neB8ne200100IPxEEbRKNS_11__wrap_iterIT_EES6_
	.cfi_startproc
; %bb.0:
	sub	sp, sp, #32
	stp	x29, x30, [sp, #16]             ; 16-byte Folded Spill
	add	x29, sp, #16
	.cfi_def_cfa w29, 16
	.cfi_offset w30, -8
	.cfi_offset w29, -16
	str	x0, [sp, #8]
	str	x1, [sp]
	ldr	x0, [sp, #8]
	ldr	x1, [sp]
	bl	__ZNSt3__1eqB8ne200100IPxEEbRKNS_11__wrap_iterIT_EES6_
	eor	w0, w0, #0x1
	ldp	x29, x30, [sp, #16]             ; 16-byte Folded Reload
	add	sp, sp, #32
	ret
	.cfi_endproc
                                        ; -- End function
	.private_extern	__ZNKSt3__111__wrap_iterIPxEdeB8ne200100Ev ; -- Begin function _ZNKSt3__111__wrap_iterIPxEdeB8ne200100Ev
	.globl	__ZNKSt3__111__wrap_iterIPxEdeB8ne200100Ev
	.weak_definition	__ZNKSt3__111__wrap_iterIPxEdeB8ne200100Ev
	.p2align	2
__ZNKSt3__111__wrap_iterIPxEdeB8ne200100Ev: ; @_ZNKSt3__111__wrap_iterIPxEdeB8ne200100Ev
	.cfi_startproc
; %bb.0:
	sub	sp, sp, #16
	.cfi_def_cfa_offset 16
	str	x0, [sp, #8]
	ldr	x8, [sp, #8]
	ldr	x0, [x8]
	add	sp, sp, #16
	ret
	.cfi_endproc
                                        ; -- End function
	.p2align	2                               ; -- Begin function _Z9time_loopIZ4mainE3$_0EdOT_x
__Z9time_loopIZ4mainE3$_0EdOT_x:        ; @"_Z9time_loopIZ4mainE3$_0EdOT_x"
	.cfi_startproc
; %bb.0:
	sub	sp, sp, #80
	stp	x29, x30, [sp, #64]             ; 16-byte Folded Spill
	add	x29, sp, #64
	.cfi_def_cfa w29, 16
	.cfi_offset w30, -8
	.cfi_offset w29, -16
	stur	x0, [x29, #-8]
	stur	x1, [x29, #-16]
	bl	__ZNSt3__16chrono12steady_clock3nowEv
	sub	x8, x29, #24
	str	x8, [sp]                        ; 8-byte Folded Spill
	stur	x0, [x29, #-24]
	ldur	x0, [x29, #-8]
	ldur	x1, [x29, #-16]
	bl	__ZZ4mainENK3$_0clEx
	bl	__ZNSt3__16chrono12steady_clock3nowEv
	ldr	x1, [sp]                        ; 8-byte Folded Reload
	mov	x8, x0
	add	x0, sp, #32
	str	x8, [sp, #32]
	bl	__ZNSt3__16chronomiB8ne200100INS0_12steady_clockENS0_8durationIxNS_5ratioILl1ELl1000000000EEEEES6_EENS_11common_typeIJT0_T1_EE4typeERKNS0_10time_pointIT_S8_EERKNSC_ISD_S9_EE
	add	x1, sp, #16
	str	x0, [sp, #16]
	add	x0, sp, #24
	str	x0, [sp, #8]                    ; 8-byte Folded Spill
	bl	__ZNSt3__16chrono8durationIdNS_5ratioILl1ELl1EEEEC1B8ne200100IxNS2_ILl1ELl1000000000EEELi0EEERKNS1_IT_T0_EE
	ldr	x0, [sp, #8]                    ; 8-byte Folded Reload
	bl	__ZNKSt3__16chrono8durationIdNS_5ratioILl1ELl1EEEE5countB8ne200100Ev
	ldp	x29, x30, [sp, #64]             ; 16-byte Folded Reload
	add	sp, sp, #80
	ret
	.cfi_endproc
                                        ; -- End function
	.private_extern	__ZNSt3__16vectorI6ResultNS_9allocatorIS1_EEE9push_backB8ne200100EOS1_ ; -- Begin function _ZNSt3__16vectorI6ResultNS_9allocatorIS1_EEE9push_backB8ne200100EOS1_
	.globl	__ZNSt3__16vectorI6ResultNS_9allocatorIS1_EEE9push_backB8ne200100EOS1_
	.weak_definition	__ZNSt3__16vectorI6ResultNS_9allocatorIS1_EEE9push_backB8ne200100EOS1_
	.p2align	2
__ZNSt3__16vectorI6ResultNS_9allocatorIS1_EEE9push_backB8ne200100EOS1_: ; @_ZNSt3__16vectorI6ResultNS_9allocatorIS1_EEE9push_backB8ne200100EOS1_
	.cfi_startproc
; %bb.0:
	sub	sp, sp, #32
	stp	x29, x30, [sp, #16]             ; 16-byte Folded Spill
	add	x29, sp, #16
	.cfi_def_cfa w29, 16
	.cfi_offset w30, -8
	.cfi_offset w29, -16
	str	x0, [sp, #8]
	str	x1, [sp]
	ldr	x0, [sp, #8]
	ldr	x1, [sp]
	bl	__ZNSt3__16vectorI6ResultNS_9allocatorIS1_EEE12emplace_backIJS1_EEEvDpOT_
	ldp	x29, x30, [sp, #16]             ; 16-byte Folded Reload
	add	sp, sp, #32
	ret
	.cfi_endproc
                                        ; -- End function
	.p2align	2                               ; -- Begin function _Z9time_loopIZ4mainE3$_1EdOT_x
__Z9time_loopIZ4mainE3$_1EdOT_x:        ; @"_Z9time_loopIZ4mainE3$_1EdOT_x"
	.cfi_startproc
; %bb.0:
	sub	sp, sp, #80
	stp	x29, x30, [sp, #64]             ; 16-byte Folded Spill
	add	x29, sp, #64
	.cfi_def_cfa w29, 16
	.cfi_offset w30, -8
	.cfi_offset w29, -16
	stur	x0, [x29, #-8]
	stur	x1, [x29, #-16]
	bl	__ZNSt3__16chrono12steady_clock3nowEv
	sub	x8, x29, #24
	str	x8, [sp]                        ; 8-byte Folded Spill
	stur	x0, [x29, #-24]
	ldur	x0, [x29, #-8]
	ldur	x1, [x29, #-16]
	bl	__ZZ4mainENK3$_1clEx
	bl	__ZNSt3__16chrono12steady_clock3nowEv
	ldr	x1, [sp]                        ; 8-byte Folded Reload
	mov	x8, x0
	add	x0, sp, #32
	str	x8, [sp, #32]
	bl	__ZNSt3__16chronomiB8ne200100INS0_12steady_clockENS0_8durationIxNS_5ratioILl1ELl1000000000EEEEES6_EENS_11common_typeIJT0_T1_EE4typeERKNS0_10time_pointIT_S8_EERKNSC_ISD_S9_EE
	add	x1, sp, #16
	str	x0, [sp, #16]
	add	x0, sp, #24
	str	x0, [sp, #8]                    ; 8-byte Folded Spill
	bl	__ZNSt3__16chrono8durationIdNS_5ratioILl1ELl1EEEEC1B8ne200100IxNS2_ILl1ELl1000000000EEELi0EEERKNS1_IT_T0_EE
	ldr	x0, [sp, #8]                    ; 8-byte Folded Reload
	bl	__ZNKSt3__16chrono8durationIdNS_5ratioILl1ELl1EEEE5countB8ne200100Ev
	ldp	x29, x30, [sp, #64]             ; 16-byte Folded Reload
	add	sp, sp, #80
	ret
	.cfi_endproc
                                        ; -- End function
	.p2align	2                               ; -- Begin function _Z9time_loopIZ4mainE3$_2EdOT_x
__Z9time_loopIZ4mainE3$_2EdOT_x:        ; @"_Z9time_loopIZ4mainE3$_2EdOT_x"
	.cfi_startproc
; %bb.0:
	sub	sp, sp, #80
	stp	x29, x30, [sp, #64]             ; 16-byte Folded Spill
	add	x29, sp, #64
	.cfi_def_cfa w29, 16
	.cfi_offset w30, -8
	.cfi_offset w29, -16
	stur	x0, [x29, #-8]
	stur	x1, [x29, #-16]
	bl	__ZNSt3__16chrono12steady_clock3nowEv
	sub	x8, x29, #24
	str	x8, [sp]                        ; 8-byte Folded Spill
	stur	x0, [x29, #-24]
	ldur	x0, [x29, #-8]
	ldur	x1, [x29, #-16]
	bl	__ZZ4mainENK3$_2clEx
	bl	__ZNSt3__16chrono12steady_clock3nowEv
	ldr	x1, [sp]                        ; 8-byte Folded Reload
	mov	x8, x0
	add	x0, sp, #32
	str	x8, [sp, #32]
	bl	__ZNSt3__16chronomiB8ne200100INS0_12steady_clockENS0_8durationIxNS_5ratioILl1ELl1000000000EEEEES6_EENS_11common_typeIJT0_T1_EE4typeERKNS0_10time_pointIT_S8_EERKNSC_ISD_S9_EE
	add	x1, sp, #16
	str	x0, [sp, #16]
	add	x0, sp, #24
	str	x0, [sp, #8]                    ; 8-byte Folded Spill
	bl	__ZNSt3__16chrono8durationIdNS_5ratioILl1ELl1EEEEC1B8ne200100IxNS2_ILl1ELl1000000000EEELi0EEERKNS1_IT_T0_EE
	ldr	x0, [sp, #8]                    ; 8-byte Folded Reload
	bl	__ZNKSt3__16chrono8durationIdNS_5ratioILl1ELl1EEEE5countB8ne200100Ev
	ldp	x29, x30, [sp, #64]             ; 16-byte Folded Reload
	add	sp, sp, #80
	ret
	.cfi_endproc
                                        ; -- End function
	.private_extern	__ZNSt3__111__wrap_iterIPxEppB8ne200100Ev ; -- Begin function _ZNSt3__111__wrap_iterIPxEppB8ne200100Ev
	.globl	__ZNSt3__111__wrap_iterIPxEppB8ne200100Ev
	.weak_definition	__ZNSt3__111__wrap_iterIPxEppB8ne200100Ev
	.p2align	2
__ZNSt3__111__wrap_iterIPxEppB8ne200100Ev: ; @_ZNSt3__111__wrap_iterIPxEppB8ne200100Ev
	.cfi_startproc
; %bb.0:
	sub	sp, sp, #16
	.cfi_def_cfa_offset 16
	str	x0, [sp, #8]
	ldr	x0, [sp, #8]
	ldr	x8, [x0]
	add	x8, x8, #8
	str	x8, [x0]
	add	sp, sp, #16
	ret
	.cfi_endproc
                                        ; -- End function
	.private_extern	__ZNSt3__114basic_ofstreamIcNS_11char_traitsIcEEEC1EPKcj ; -- Begin function _ZNSt3__114basic_ofstreamIcNS_11char_traitsIcEEEC1EPKcj
	.globl	__ZNSt3__114basic_ofstreamIcNS_11char_traitsIcEEEC1EPKcj
	.weak_def_can_be_hidden	__ZNSt3__114basic_ofstreamIcNS_11char_traitsIcEEEC1EPKcj
	.p2align	2
__ZNSt3__114basic_ofstreamIcNS_11char_traitsIcEEEC1EPKcj: ; @_ZNSt3__114basic_ofstreamIcNS_11char_traitsIcEEEC1EPKcj
Lfunc_begin3:
	.cfi_startproc
	.cfi_personality 155, ___gxx_personality_v0
	.cfi_lsda 16, Lexception3
; %bb.0:
	sub	sp, sp, #96
	stp	x29, x30, [sp, #80]             ; 16-byte Folded Spill
	add	x29, sp, #80
	.cfi_def_cfa w29, 16
	.cfi_offset w30, -8
	.cfi_offset w29, -16
	stur	x0, [x29, #-16]
	stur	x1, [x29, #-24]
	stur	w2, [x29, #-28]
	ldur	x8, [x29, #-16]
	str	x8, [sp, #24]                   ; 8-byte Folded Spill
	mov	x9, x8
	stur	x9, [x29, #-8]
	add	x0, x8, #416
	bl	__ZNSt3__19basic_iosIcNS_11char_traitsIcEEEC2B8ne200100Ev
	ldr	x8, [sp, #24]                   ; 8-byte Folded Reload
	adrp	x9, __ZTVNSt3__114basic_ofstreamIcNS_11char_traitsIcEEEE@GOTPAGE
	ldr	x9, [x9, __ZTVNSt3__114basic_ofstreamIcNS_11char_traitsIcEEEE@GOTPAGEOFF]
	add	x10, x9, #24
	str	x10, [x8]
	add	x9, x9, #64
	str	x9, [x8, #416]
Ltmp242:
	mov	x0, x8
	adrp	x9, __ZTTNSt3__114basic_ofstreamIcNS_11char_traitsIcEEEE@GOTPAGE
	ldr	x9, [x9, __ZTTNSt3__114basic_ofstreamIcNS_11char_traitsIcEEEE@GOTPAGEOFF]
	add	x1, x9, #8
	add	x2, x8, #8
	bl	__ZNSt3__113basic_ostreamIcNS_11char_traitsIcEEEC2B8ne200100EPNS_15basic_streambufIcS2_EE
Ltmp243:
	b	LBB35_1
LBB35_1:
	ldr	x8, [sp, #24]                   ; 8-byte Folded Reload
	adrp	x9, __ZTVNSt3__114basic_ofstreamIcNS_11char_traitsIcEEEE@GOTPAGE
	ldr	x9, [x9, __ZTVNSt3__114basic_ofstreamIcNS_11char_traitsIcEEEE@GOTPAGEOFF]
	add	x10, x9, #24
	str	x10, [x8]
	add	x9, x9, #64
	str	x9, [x8, #416]
	add	x0, x8, #8
	str	x0, [sp, #16]                   ; 8-byte Folded Spill
Ltmp245:
	bl	__ZNSt3__113basic_filebufIcNS_11char_traitsIcEEEC1Ev
Ltmp246:
	b	LBB35_2
LBB35_2:
	ldr	x8, [sp, #24]                   ; 8-byte Folded Reload
	add	x0, x8, #8
	ldur	x1, [x29, #-24]
	ldur	w8, [x29, #-28]
	orr	w2, w8, #0x10
Ltmp248:
	bl	__ZNSt3__113basic_filebufIcNS_11char_traitsIcEEE4openEPKcj
	str	x0, [sp, #8]                    ; 8-byte Folded Spill
Ltmp249:
	b	LBB35_3
LBB35_3:
	ldr	x8, [sp, #8]                    ; 8-byte Folded Reload
	cbnz	x8, LBB35_9
	b	LBB35_4
LBB35_4:
	ldr	x8, [sp, #24]                   ; 8-byte Folded Reload
	ldr	x9, [x8]
	ldur	x9, [x9, #-24]
	add	x0, x8, x9
Ltmp250:
	mov	w1, #4                          ; =0x4
	bl	__ZNSt3__19basic_iosIcNS_11char_traitsIcEEE8setstateB8ne200100Ej
Ltmp251:
	b	LBB35_5
LBB35_5:
	b	LBB35_9
LBB35_6:
Ltmp244:
	str	x0, [sp, #40]
	mov	x8, x1
	str	w8, [sp, #36]
	b	LBB35_11
LBB35_7:
Ltmp247:
	str	x0, [sp, #40]
	mov	x8, x1
	str	w8, [sp, #36]
	b	LBB35_10
LBB35_8:
Ltmp252:
	mov	x8, x0
	ldr	x0, [sp, #16]                   ; 8-byte Folded Reload
	str	x8, [sp, #40]
	mov	x8, x1
	str	w8, [sp, #36]
	bl	__ZNSt3__113basic_filebufIcNS_11char_traitsIcEEED1Ev
	b	LBB35_10
LBB35_9:
	ldur	x0, [x29, #-8]
	ldp	x29, x30, [sp, #80]             ; 16-byte Folded Reload
	add	sp, sp, #96
	ret
LBB35_10:
	ldr	x0, [sp, #24]                   ; 8-byte Folded Reload
	adrp	x8, __ZTTNSt3__114basic_ofstreamIcNS_11char_traitsIcEEEE@GOTPAGE
	ldr	x8, [x8, __ZTTNSt3__114basic_ofstreamIcNS_11char_traitsIcEEEE@GOTPAGEOFF]
	add	x1, x8, #8
	bl	__ZNSt3__113basic_ostreamIcNS_11char_traitsIcEEED2Ev
	b	LBB35_11
LBB35_11:
	ldr	x8, [sp, #24]                   ; 8-byte Folded Reload
	add	x0, x8, #416
	bl	__ZNSt3__19basic_iosIcNS_11char_traitsIcEEED2Ev
	b	LBB35_12
LBB35_12:
	ldr	x0, [sp, #40]
	bl	__Unwind_Resume
Lfunc_end3:
	.cfi_endproc
	.section	__TEXT,__gcc_except_tab
	.p2align	2, 0x0
GCC_except_table35:
Lexception3:
	.byte	255                             ; @LPStart Encoding = omit
	.byte	255                             ; @TType Encoding = omit
	.byte	1                               ; Call site Encoding = uleb128
	.uleb128 Lcst_end3-Lcst_begin3
Lcst_begin3:
	.uleb128 Lfunc_begin3-Lfunc_begin3      ; >> Call Site 1 <<
	.uleb128 Ltmp242-Lfunc_begin3           ;   Call between Lfunc_begin3 and Ltmp242
	.byte	0                               ;     has no landing pad
	.byte	0                               ;   On action: cleanup
	.uleb128 Ltmp242-Lfunc_begin3           ; >> Call Site 2 <<
	.uleb128 Ltmp243-Ltmp242                ;   Call between Ltmp242 and Ltmp243
	.uleb128 Ltmp244-Lfunc_begin3           ;     jumps to Ltmp244
	.byte	0                               ;   On action: cleanup
	.uleb128 Ltmp245-Lfunc_begin3           ; >> Call Site 3 <<
	.uleb128 Ltmp246-Ltmp245                ;   Call between Ltmp245 and Ltmp246
	.uleb128 Ltmp247-Lfunc_begin3           ;     jumps to Ltmp247
	.byte	0                               ;   On action: cleanup
	.uleb128 Ltmp248-Lfunc_begin3           ; >> Call Site 4 <<
	.uleb128 Ltmp251-Ltmp248                ;   Call between Ltmp248 and Ltmp251
	.uleb128 Ltmp252-Lfunc_begin3           ;     jumps to Ltmp252
	.byte	0                               ;   On action: cleanup
	.uleb128 Ltmp251-Lfunc_begin3           ; >> Call Site 5 <<
	.uleb128 Lfunc_end3-Ltmp251             ;   Call between Ltmp251 and Lfunc_end3
	.byte	0                               ;     has no landing pad
	.byte	0                               ;   On action: cleanup
Lcst_end3:
	.p2align	2, 0x0
                                        ; -- End function
	.section	__TEXT,__text,regular,pure_instructions
	.private_extern	__ZNSt3__16vectorI6ResultNS_9allocatorIS1_EEE5beginB8ne200100Ev ; -- Begin function _ZNSt3__16vectorI6ResultNS_9allocatorIS1_EEE5beginB8ne200100Ev
	.globl	__ZNSt3__16vectorI6ResultNS_9allocatorIS1_EEE5beginB8ne200100Ev
	.weak_definition	__ZNSt3__16vectorI6ResultNS_9allocatorIS1_EEE5beginB8ne200100Ev
	.p2align	2
__ZNSt3__16vectorI6ResultNS_9allocatorIS1_EEE5beginB8ne200100Ev: ; @_ZNSt3__16vectorI6ResultNS_9allocatorIS1_EEE5beginB8ne200100Ev
	.cfi_startproc
; %bb.0:
	sub	sp, sp, #48
	stp	x29, x30, [sp, #32]             ; 16-byte Folded Spill
	add	x29, sp, #32
	.cfi_def_cfa w29, 16
	.cfi_offset w30, -8
	.cfi_offset w29, -16
	str	x0, [sp, #16]
	ldr	x8, [sp, #16]
	str	x8, [sp, #8]                    ; 8-byte Folded Spill
	ldr	x0, [x8]
	bl	__ZNSt3__16vectorI6ResultNS_9allocatorIS1_EEE26__add_alignment_assumptionB8ne200100IPS1_Li0EEES6_T_
	mov	x1, x0
	ldr	x0, [sp, #8]                    ; 8-byte Folded Reload
	bl	__ZNSt3__16vectorI6ResultNS_9allocatorIS1_EEE11__make_iterB8ne200100EPS1_
	stur	x0, [x29, #-8]
	ldur	x0, [x29, #-8]
	ldp	x29, x30, [sp, #32]             ; 16-byte Folded Reload
	add	sp, sp, #48
	ret
	.cfi_endproc
                                        ; -- End function
	.private_extern	__ZNSt3__16vectorI6ResultNS_9allocatorIS1_EEE3endB8ne200100Ev ; -- Begin function _ZNSt3__16vectorI6ResultNS_9allocatorIS1_EEE3endB8ne200100Ev
	.globl	__ZNSt3__16vectorI6ResultNS_9allocatorIS1_EEE3endB8ne200100Ev
	.weak_definition	__ZNSt3__16vectorI6ResultNS_9allocatorIS1_EEE3endB8ne200100Ev
	.p2align	2
__ZNSt3__16vectorI6ResultNS_9allocatorIS1_EEE3endB8ne200100Ev: ; @_ZNSt3__16vectorI6ResultNS_9allocatorIS1_EEE3endB8ne200100Ev
	.cfi_startproc
; %bb.0:
	sub	sp, sp, #48
	stp	x29, x30, [sp, #32]             ; 16-byte Folded Spill
	add	x29, sp, #32
	.cfi_def_cfa w29, 16
	.cfi_offset w30, -8
	.cfi_offset w29, -16
	str	x0, [sp, #16]
	ldr	x8, [sp, #16]
	str	x8, [sp, #8]                    ; 8-byte Folded Spill
	ldr	x0, [x8, #8]
	bl	__ZNSt3__16vectorI6ResultNS_9allocatorIS1_EEE26__add_alignment_assumptionB8ne200100IPS1_Li0EEES6_T_
	mov	x1, x0
	ldr	x0, [sp, #8]                    ; 8-byte Folded Reload
	bl	__ZNSt3__16vectorI6ResultNS_9allocatorIS1_EEE11__make_iterB8ne200100EPS1_
	stur	x0, [x29, #-8]
	ldur	x0, [x29, #-8]
	ldp	x29, x30, [sp, #32]             ; 16-byte Folded Reload
	add	sp, sp, #48
	ret
	.cfi_endproc
                                        ; -- End function
	.private_extern	__ZNSt3__1neB8ne200100IP6ResultEEbRKNS_11__wrap_iterIT_EES7_ ; -- Begin function _ZNSt3__1neB8ne200100IP6ResultEEbRKNS_11__wrap_iterIT_EES7_
	.globl	__ZNSt3__1neB8ne200100IP6ResultEEbRKNS_11__wrap_iterIT_EES7_
	.weak_definition	__ZNSt3__1neB8ne200100IP6ResultEEbRKNS_11__wrap_iterIT_EES7_
	.p2align	2
__ZNSt3__1neB8ne200100IP6ResultEEbRKNS_11__wrap_iterIT_EES7_: ; @_ZNSt3__1neB8ne200100IP6ResultEEbRKNS_11__wrap_iterIT_EES7_
	.cfi_startproc
; %bb.0:
	sub	sp, sp, #32
	stp	x29, x30, [sp, #16]             ; 16-byte Folded Spill
	add	x29, sp, #16
	.cfi_def_cfa w29, 16
	.cfi_offset w30, -8
	.cfi_offset w29, -16
	str	x0, [sp, #8]
	str	x1, [sp]
	ldr	x0, [sp, #8]
	ldr	x1, [sp]
	bl	__ZNSt3__1eqB8ne200100IP6ResultEEbRKNS_11__wrap_iterIT_EES7_
	eor	w0, w0, #0x1
	ldp	x29, x30, [sp, #16]             ; 16-byte Folded Reload
	add	sp, sp, #32
	ret
	.cfi_endproc
                                        ; -- End function
	.private_extern	__ZNKSt3__111__wrap_iterIP6ResultEdeB8ne200100Ev ; -- Begin function _ZNKSt3__111__wrap_iterIP6ResultEdeB8ne200100Ev
	.globl	__ZNKSt3__111__wrap_iterIP6ResultEdeB8ne200100Ev
	.weak_definition	__ZNKSt3__111__wrap_iterIP6ResultEdeB8ne200100Ev
	.p2align	2
__ZNKSt3__111__wrap_iterIP6ResultEdeB8ne200100Ev: ; @_ZNKSt3__111__wrap_iterIP6ResultEdeB8ne200100Ev
	.cfi_startproc
; %bb.0:
	sub	sp, sp, #16
	.cfi_def_cfa_offset 16
	str	x0, [sp, #8]
	ldr	x8, [sp, #8]
	ldr	x0, [x8]
	add	sp, sp, #16
	ret
	.cfi_endproc
                                        ; -- End function
	.private_extern	__ZNSt3__111__wrap_iterIP6ResultEppB8ne200100Ev ; -- Begin function _ZNSt3__111__wrap_iterIP6ResultEppB8ne200100Ev
	.globl	__ZNSt3__111__wrap_iterIP6ResultEppB8ne200100Ev
	.weak_definition	__ZNSt3__111__wrap_iterIP6ResultEppB8ne200100Ev
	.p2align	2
__ZNSt3__111__wrap_iterIP6ResultEppB8ne200100Ev: ; @_ZNSt3__111__wrap_iterIP6ResultEppB8ne200100Ev
	.cfi_startproc
; %bb.0:
	sub	sp, sp, #16
	.cfi_def_cfa_offset 16
	str	x0, [sp, #8]
	ldr	x0, [sp, #8]
	ldr	x8, [x0]
	add	x8, x8, #32
	str	x8, [x0]
	add	sp, sp, #16
	ret
	.cfi_endproc
                                        ; -- End function
	.private_extern	__ZNSt3__114basic_ofstreamIcNS_11char_traitsIcEEE5closeEv ; -- Begin function _ZNSt3__114basic_ofstreamIcNS_11char_traitsIcEEE5closeEv
	.globl	__ZNSt3__114basic_ofstreamIcNS_11char_traitsIcEEE5closeEv
	.weak_definition	__ZNSt3__114basic_ofstreamIcNS_11char_traitsIcEEE5closeEv
	.p2align	2
__ZNSt3__114basic_ofstreamIcNS_11char_traitsIcEEE5closeEv: ; @_ZNSt3__114basic_ofstreamIcNS_11char_traitsIcEEE5closeEv
	.cfi_startproc
; %bb.0:
	sub	sp, sp, #32
	stp	x29, x30, [sp, #16]             ; 16-byte Folded Spill
	add	x29, sp, #16
	.cfi_def_cfa w29, 16
	.cfi_offset w30, -8
	.cfi_offset w29, -16
	str	x0, [sp, #8]
	ldr	x8, [sp, #8]
	str	x8, [sp]                        ; 8-byte Folded Spill
	add	x0, x8, #8
	bl	__ZNSt3__113basic_filebufIcNS_11char_traitsIcEEE5closeEv
	cbnz	x0, LBB41_2
	b	LBB41_1
LBB41_1:
	ldr	x8, [sp]                        ; 8-byte Folded Reload
	ldr	x9, [x8]
	ldur	x9, [x9, #-24]
	add	x0, x8, x9
	mov	w1, #4                          ; =0x4
	bl	__ZNSt3__19basic_iosIcNS_11char_traitsIcEEE8setstateB8ne200100Ej
	b	LBB41_2
LBB41_2:
	ldp	x29, x30, [sp, #16]             ; 16-byte Folded Reload
	add	sp, sp, #32
	ret
	.cfi_endproc
                                        ; -- End function
	.globl	__ZNSt3__114basic_ofstreamIcNS_11char_traitsIcEEED1Ev ; -- Begin function _ZNSt3__114basic_ofstreamIcNS_11char_traitsIcEEED1Ev
	.weak_def_can_be_hidden	__ZNSt3__114basic_ofstreamIcNS_11char_traitsIcEEED1Ev
	.p2align	2
__ZNSt3__114basic_ofstreamIcNS_11char_traitsIcEEED1Ev: ; @_ZNSt3__114basic_ofstreamIcNS_11char_traitsIcEEED1Ev
	.cfi_startproc
; %bb.0:
	sub	sp, sp, #32
	stp	x29, x30, [sp, #16]             ; 16-byte Folded Spill
	add	x29, sp, #16
	.cfi_def_cfa w29, 16
	.cfi_offset w30, -8
	.cfi_offset w29, -16
	str	x0, [sp, #8]
	ldr	x0, [sp, #8]
	str	x0, [sp]                        ; 8-byte Folded Spill
	adrp	x1, __ZTTNSt3__114basic_ofstreamIcNS_11char_traitsIcEEEE@GOTPAGE
	ldr	x1, [x1, __ZTTNSt3__114basic_ofstreamIcNS_11char_traitsIcEEEE@GOTPAGEOFF]
	bl	__ZNSt3__114basic_ofstreamIcNS_11char_traitsIcEEED2Ev
	ldr	x8, [sp]                        ; 8-byte Folded Reload
	add	x0, x8, #416
	bl	__ZNSt3__19basic_iosIcNS_11char_traitsIcEEED2Ev
	ldr	x0, [sp]                        ; 8-byte Folded Reload
	ldp	x29, x30, [sp, #16]             ; 16-byte Folded Reload
	add	sp, sp, #32
	ret
	.cfi_endproc
                                        ; -- End function
	.private_extern	__ZNSt3__16vectorI6ResultNS_9allocatorIS1_EEED1B8ne200100Ev ; -- Begin function _ZNSt3__16vectorI6ResultNS_9allocatorIS1_EEED1B8ne200100Ev
	.globl	__ZNSt3__16vectorI6ResultNS_9allocatorIS1_EEED1B8ne200100Ev
	.weak_def_can_be_hidden	__ZNSt3__16vectorI6ResultNS_9allocatorIS1_EEED1B8ne200100Ev
	.p2align	2
__ZNSt3__16vectorI6ResultNS_9allocatorIS1_EEED1B8ne200100Ev: ; @_ZNSt3__16vectorI6ResultNS_9allocatorIS1_EEED1B8ne200100Ev
	.cfi_startproc
; %bb.0:
	sub	sp, sp, #32
	stp	x29, x30, [sp, #16]             ; 16-byte Folded Spill
	add	x29, sp, #16
	.cfi_def_cfa w29, 16
	.cfi_offset w30, -8
	.cfi_offset w29, -16
	str	x0, [sp, #8]
	ldr	x0, [sp, #8]
	str	x0, [sp]                        ; 8-byte Folded Spill
	bl	__ZNSt3__16vectorI6ResultNS_9allocatorIS1_EEED2B8ne200100Ev
	ldr	x0, [sp]                        ; 8-byte Folded Reload
	ldp	x29, x30, [sp, #16]             ; 16-byte Folded Reload
	add	sp, sp, #32
	ret
	.cfi_endproc
                                        ; -- End function
	.private_extern	__ZNSt3__16vectorIxNS_9allocatorIxEEED1B8ne200100Ev ; -- Begin function _ZNSt3__16vectorIxNS_9allocatorIxEEED1B8ne200100Ev
	.globl	__ZNSt3__16vectorIxNS_9allocatorIxEEED1B8ne200100Ev
	.weak_def_can_be_hidden	__ZNSt3__16vectorIxNS_9allocatorIxEEED1B8ne200100Ev
	.p2align	2
__ZNSt3__16vectorIxNS_9allocatorIxEEED1B8ne200100Ev: ; @_ZNSt3__16vectorIxNS_9allocatorIxEEED1B8ne200100Ev
	.cfi_startproc
; %bb.0:
	sub	sp, sp, #32
	stp	x29, x30, [sp, #16]             ; 16-byte Folded Spill
	add	x29, sp, #16
	.cfi_def_cfa w29, 16
	.cfi_offset w30, -8
	.cfi_offset w29, -16
	str	x0, [sp, #8]
	ldr	x0, [sp, #8]
	str	x0, [sp]                        ; 8-byte Folded Spill
	bl	__ZNSt3__16vectorIxNS_9allocatorIxEEED2B8ne200100Ev
	ldr	x0, [sp]                        ; 8-byte Folded Reload
	ldp	x29, x30, [sp, #16]             ; 16-byte Folded Reload
	add	sp, sp, #32
	ret
	.cfi_endproc
                                        ; -- End function
	.globl	__ZNSt3__114basic_ifstreamIcNS_11char_traitsIcEEED2Ev ; -- Begin function _ZNSt3__114basic_ifstreamIcNS_11char_traitsIcEEED2Ev
	.weak_def_can_be_hidden	__ZNSt3__114basic_ifstreamIcNS_11char_traitsIcEEED2Ev
	.p2align	2
__ZNSt3__114basic_ifstreamIcNS_11char_traitsIcEEED2Ev: ; @_ZNSt3__114basic_ifstreamIcNS_11char_traitsIcEEED2Ev
	.cfi_startproc
; %bb.0:
	sub	sp, sp, #48
	stp	x29, x30, [sp, #32]             ; 16-byte Folded Spill
	add	x29, sp, #32
	.cfi_def_cfa w29, 16
	.cfi_offset w30, -8
	.cfi_offset w29, -16
	stur	x0, [x29, #-8]
	str	x1, [sp, #16]
	ldur	x8, [x29, #-8]
	str	x8, [sp, #8]                    ; 8-byte Folded Spill
	ldr	x9, [sp, #16]
	str	x9, [sp]                        ; 8-byte Folded Spill
	ldr	x10, [x9]
	str	x10, [x8]
	ldr	x9, [x9, #24]
	ldr	x10, [x8]
	ldur	x10, [x10, #-24]
	str	x9, [x8, x10]
	add	x0, x8, #16
	bl	__ZNSt3__113basic_filebufIcNS_11char_traitsIcEEED1Ev
	ldr	x0, [sp, #8]                    ; 8-byte Folded Reload
	ldr	x8, [sp]                        ; 8-byte Folded Reload
	add	x1, x8, #8
	bl	__ZNSt3__113basic_istreamIcNS_11char_traitsIcEEED2Ev
	ldr	x0, [sp, #8]                    ; 8-byte Folded Reload
	ldp	x29, x30, [sp, #32]             ; 16-byte Folded Reload
	add	sp, sp, #48
	ret
	.cfi_endproc
                                        ; -- End function
	.globl	__ZTv0_n24_NSt3__114basic_ifstreamIcNS_11char_traitsIcEEED1Ev ; -- Begin function _ZTv0_n24_NSt3__114basic_ifstreamIcNS_11char_traitsIcEEED1Ev
	.weak_def_can_be_hidden	__ZTv0_n24_NSt3__114basic_ifstreamIcNS_11char_traitsIcEEED1Ev
	.p2align	2
__ZTv0_n24_NSt3__114basic_ifstreamIcNS_11char_traitsIcEEED1Ev: ; @_ZTv0_n24_NSt3__114basic_ifstreamIcNS_11char_traitsIcEEED1Ev
	.cfi_startproc
; %bb.0:
	sub	sp, sp, #16
	.cfi_def_cfa_offset 16
	str	x0, [sp]
	ldr	x8, [sp]
	mov	x9, x8
	str	x9, [sp, #8]
	ldr	x9, [x8]
	ldur	x9, [x9, #-24]
	add	x0, x8, x9
	add	sp, sp, #16
	b	__ZNSt3__114basic_ifstreamIcNS_11char_traitsIcEEED1Ev
	.cfi_endproc
                                        ; -- End function
	.private_extern	__ZNSt3__18ios_base4setfB8ne200100Ejj ; -- Begin function _ZNSt3__18ios_base4setfB8ne200100Ejj
	.globl	__ZNSt3__18ios_base4setfB8ne200100Ejj
	.weak_definition	__ZNSt3__18ios_base4setfB8ne200100Ejj
	.p2align	2
__ZNSt3__18ios_base4setfB8ne200100Ejj:  ; @_ZNSt3__18ios_base4setfB8ne200100Ejj
	.cfi_startproc
; %bb.0:
	sub	sp, sp, #48
	stp	x29, x30, [sp, #32]             ; 16-byte Folded Spill
	add	x29, sp, #32
	.cfi_def_cfa w29, 16
	.cfi_offset w30, -8
	.cfi_offset w29, -16
	stur	x0, [x29, #-8]
	stur	w1, [x29, #-12]
	str	w2, [sp, #16]
	ldur	x0, [x29, #-8]
	str	x0, [sp]                        ; 8-byte Folded Spill
	ldr	w8, [x0, #8]
	str	w8, [sp, #12]
	ldr	w1, [sp, #16]
	bl	__ZNSt3__18ios_base6unsetfB8ne200100Ej
	ldr	x9, [sp]                        ; 8-byte Folded Reload
	ldur	w8, [x29, #-12]
	ldr	w10, [sp, #16]
	and	w10, w8, w10
	ldr	w8, [x9, #8]
	orr	w8, w8, w10
	str	w8, [x9, #8]
	ldr	w0, [sp, #12]
	ldp	x29, x30, [sp, #32]             ; 16-byte Folded Reload
	add	sp, sp, #48
	ret
	.cfi_endproc
                                        ; -- End function
	.private_extern	__ZNSt3__18ios_base6unsetfB8ne200100Ej ; -- Begin function _ZNSt3__18ios_base6unsetfB8ne200100Ej
	.globl	__ZNSt3__18ios_base6unsetfB8ne200100Ej
	.weak_definition	__ZNSt3__18ios_base6unsetfB8ne200100Ej
	.p2align	2
__ZNSt3__18ios_base6unsetfB8ne200100Ej: ; @_ZNSt3__18ios_base6unsetfB8ne200100Ej
	.cfi_startproc
; %bb.0:
	sub	sp, sp, #16
	.cfi_def_cfa_offset 16
	str	x0, [sp, #8]
	str	w1, [sp, #4]
	ldr	x9, [sp, #8]
	ldr	w10, [sp, #4]
	ldr	w8, [x9, #8]
	bic	w8, w8, w10
	str	w8, [x9, #8]
	add	sp, sp, #16
	ret
	.cfi_endproc
                                        ; -- End function
	.private_extern	__ZNSt3__18__iom_t5C1B8ne200100Ei ; -- Begin function _ZNSt3__18__iom_t5C1B8ne200100Ei
	.globl	__ZNSt3__18__iom_t5C1B8ne200100Ei
	.weak_def_can_be_hidden	__ZNSt3__18__iom_t5C1B8ne200100Ei
	.p2align	2
__ZNSt3__18__iom_t5C1B8ne200100Ei:      ; @_ZNSt3__18__iom_t5C1B8ne200100Ei
	.cfi_startproc
; %bb.0:
	sub	sp, sp, #48
	stp	x29, x30, [sp, #32]             ; 16-byte Folded Spill
	add	x29, sp, #32
	.cfi_def_cfa w29, 16
	.cfi_offset w30, -8
	.cfi_offset w29, -16
	stur	x0, [x29, #-8]
	stur	w1, [x29, #-12]
	ldur	x0, [x29, #-8]
	str	x0, [sp, #8]                    ; 8-byte Folded Spill
	ldur	w1, [x29, #-12]
	bl	__ZNSt3__18__iom_t5C2B8ne200100Ei
	ldr	x0, [sp, #8]                    ; 8-byte Folded Reload
	ldp	x29, x30, [sp, #32]             ; 16-byte Folded Reload
	add	sp, sp, #48
	ret
	.cfi_endproc
                                        ; -- End function
	.private_extern	__ZNSt3__18__iom_t5C2B8ne200100Ei ; -- Begin function _ZNSt3__18__iom_t5C2B8ne200100Ei
	.globl	__ZNSt3__18__iom_t5C2B8ne200100Ei
	.weak_def_can_be_hidden	__ZNSt3__18__iom_t5C2B8ne200100Ei
	.p2align	2
__ZNSt3__18__iom_t5C2B8ne200100Ei:      ; @_ZNSt3__18__iom_t5C2B8ne200100Ei
	.cfi_startproc
; %bb.0:
	sub	sp, sp, #16
	.cfi_def_cfa_offset 16
	str	x0, [sp, #8]
	str	w1, [sp, #4]
	ldr	x0, [sp, #8]
	ldr	w8, [sp, #4]
	str	w8, [x0]
	add	sp, sp, #16
	ret
	.cfi_endproc
                                        ; -- End function
	.private_extern	__ZNSt3__1eqB8ne200100IPxEEbRKNS_11__wrap_iterIT_EES6_ ; -- Begin function _ZNSt3__1eqB8ne200100IPxEEbRKNS_11__wrap_iterIT_EES6_
	.globl	__ZNSt3__1eqB8ne200100IPxEEbRKNS_11__wrap_iterIT_EES6_
	.weak_definition	__ZNSt3__1eqB8ne200100IPxEEbRKNS_11__wrap_iterIT_EES6_
	.p2align	2
__ZNSt3__1eqB8ne200100IPxEEbRKNS_11__wrap_iterIT_EES6_: ; @_ZNSt3__1eqB8ne200100IPxEEbRKNS_11__wrap_iterIT_EES6_
	.cfi_startproc
; %bb.0:
	sub	sp, sp, #48
	stp	x29, x30, [sp, #32]             ; 16-byte Folded Spill
	add	x29, sp, #32
	.cfi_def_cfa w29, 16
	.cfi_offset w30, -8
	.cfi_offset w29, -16
	stur	x0, [x29, #-8]
	str	x1, [sp, #16]
	ldur	x0, [x29, #-8]
	bl	__ZNKSt3__111__wrap_iterIPxE4baseB8ne200100Ev
	str	x0, [sp, #8]                    ; 8-byte Folded Spill
	ldr	x0, [sp, #16]
	bl	__ZNKSt3__111__wrap_iterIPxE4baseB8ne200100Ev
	mov	x8, x0
	ldr	x0, [sp, #8]                    ; 8-byte Folded Reload
	subs	x8, x0, x8
	cset	w0, eq
	ldp	x29, x30, [sp, #32]             ; 16-byte Folded Reload
	add	sp, sp, #48
	ret
	.cfi_endproc
                                        ; -- End function
	.private_extern	__ZNKSt3__111__wrap_iterIPxE4baseB8ne200100Ev ; -- Begin function _ZNKSt3__111__wrap_iterIPxE4baseB8ne200100Ev
	.globl	__ZNKSt3__111__wrap_iterIPxE4baseB8ne200100Ev
	.weak_definition	__ZNKSt3__111__wrap_iterIPxE4baseB8ne200100Ev
	.p2align	2
__ZNKSt3__111__wrap_iterIPxE4baseB8ne200100Ev: ; @_ZNKSt3__111__wrap_iterIPxE4baseB8ne200100Ev
	.cfi_startproc
; %bb.0:
	sub	sp, sp, #16
	.cfi_def_cfa_offset 16
	str	x0, [sp, #8]
	ldr	x8, [sp, #8]
	ldr	x0, [x8]
	add	sp, sp, #16
	ret
	.cfi_endproc
                                        ; -- End function
	.private_extern	__ZNSt3__1eqB8ne200100IP6ResultEEbRKNS_11__wrap_iterIT_EES7_ ; -- Begin function _ZNSt3__1eqB8ne200100IP6ResultEEbRKNS_11__wrap_iterIT_EES7_
	.globl	__ZNSt3__1eqB8ne200100IP6ResultEEbRKNS_11__wrap_iterIT_EES7_
	.weak_definition	__ZNSt3__1eqB8ne200100IP6ResultEEbRKNS_11__wrap_iterIT_EES7_
	.p2align	2
__ZNSt3__1eqB8ne200100IP6ResultEEbRKNS_11__wrap_iterIT_EES7_: ; @_ZNSt3__1eqB8ne200100IP6ResultEEbRKNS_11__wrap_iterIT_EES7_
	.cfi_startproc
; %bb.0:
	sub	sp, sp, #48
	stp	x29, x30, [sp, #32]             ; 16-byte Folded Spill
	add	x29, sp, #32
	.cfi_def_cfa w29, 16
	.cfi_offset w30, -8
	.cfi_offset w29, -16
	stur	x0, [x29, #-8]
	str	x1, [sp, #16]
	ldur	x0, [x29, #-8]
	bl	__ZNKSt3__111__wrap_iterIP6ResultE4baseB8ne200100Ev
	str	x0, [sp, #8]                    ; 8-byte Folded Spill
	ldr	x0, [sp, #16]
	bl	__ZNKSt3__111__wrap_iterIP6ResultE4baseB8ne200100Ev
	mov	x8, x0
	ldr	x0, [sp, #8]                    ; 8-byte Folded Reload
	subs	x8, x0, x8
	cset	w0, eq
	ldp	x29, x30, [sp, #32]             ; 16-byte Folded Reload
	add	sp, sp, #48
	ret
	.cfi_endproc
                                        ; -- End function
	.private_extern	__ZNKSt3__111__wrap_iterIP6ResultE4baseB8ne200100Ev ; -- Begin function _ZNKSt3__111__wrap_iterIP6ResultE4baseB8ne200100Ev
	.globl	__ZNKSt3__111__wrap_iterIP6ResultE4baseB8ne200100Ev
	.weak_definition	__ZNKSt3__111__wrap_iterIP6ResultE4baseB8ne200100Ev
	.p2align	2
__ZNKSt3__111__wrap_iterIP6ResultE4baseB8ne200100Ev: ; @_ZNKSt3__111__wrap_iterIP6ResultE4baseB8ne200100Ev
	.cfi_startproc
; %bb.0:
	sub	sp, sp, #16
	.cfi_def_cfa_offset 16
	str	x0, [sp, #8]
	ldr	x8, [sp, #8]
	ldr	x0, [x8]
	add	sp, sp, #16
	ret
	.cfi_endproc
                                        ; -- End function
	.globl	__ZNSt3__114basic_ofstreamIcNS_11char_traitsIcEEED2Ev ; -- Begin function _ZNSt3__114basic_ofstreamIcNS_11char_traitsIcEEED2Ev
	.weak_def_can_be_hidden	__ZNSt3__114basic_ofstreamIcNS_11char_traitsIcEEED2Ev
	.p2align	2
__ZNSt3__114basic_ofstreamIcNS_11char_traitsIcEEED2Ev: ; @_ZNSt3__114basic_ofstreamIcNS_11char_traitsIcEEED2Ev
	.cfi_startproc
; %bb.0:
	sub	sp, sp, #48
	stp	x29, x30, [sp, #32]             ; 16-byte Folded Spill
	add	x29, sp, #32
	.cfi_def_cfa w29, 16
	.cfi_offset w30, -8
	.cfi_offset w29, -16
	stur	x0, [x29, #-8]
	str	x1, [sp, #16]
	ldur	x8, [x29, #-8]
	str	x8, [sp, #8]                    ; 8-byte Folded Spill
	ldr	x9, [sp, #16]
	str	x9, [sp]                        ; 8-byte Folded Spill
	ldr	x10, [x9]
	str	x10, [x8]
	ldr	x9, [x9, #24]
	ldr	x10, [x8]
	ldur	x10, [x10, #-24]
	str	x9, [x8, x10]
	add	x0, x8, #8
	bl	__ZNSt3__113basic_filebufIcNS_11char_traitsIcEEED1Ev
	ldr	x0, [sp, #8]                    ; 8-byte Folded Reload
	ldr	x8, [sp]                        ; 8-byte Folded Reload
	add	x1, x8, #8
	bl	__ZNSt3__113basic_ostreamIcNS_11char_traitsIcEEED2Ev
	ldr	x0, [sp, #8]                    ; 8-byte Folded Reload
	ldp	x29, x30, [sp, #32]             ; 16-byte Folded Reload
	add	sp, sp, #48
	ret
	.cfi_endproc
                                        ; -- End function
	.globl	__ZTv0_n24_NSt3__114basic_ofstreamIcNS_11char_traitsIcEEED1Ev ; -- Begin function _ZTv0_n24_NSt3__114basic_ofstreamIcNS_11char_traitsIcEEED1Ev
	.weak_def_can_be_hidden	__ZTv0_n24_NSt3__114basic_ofstreamIcNS_11char_traitsIcEEED1Ev
	.p2align	2
__ZTv0_n24_NSt3__114basic_ofstreamIcNS_11char_traitsIcEEED1Ev: ; @_ZTv0_n24_NSt3__114basic_ofstreamIcNS_11char_traitsIcEEED1Ev
	.cfi_startproc
; %bb.0:
	sub	sp, sp, #16
	.cfi_def_cfa_offset 16
	str	x0, [sp]
	ldr	x8, [sp]
	mov	x9, x8
	str	x9, [sp, #8]
	ldr	x9, [x8]
	ldur	x9, [x9, #-24]
	add	x0, x8, x9
	add	sp, sp, #16
	b	__ZNSt3__114basic_ofstreamIcNS_11char_traitsIcEEED1Ev
	.cfi_endproc
                                        ; -- End function
	.globl	__ZNSt3__112basic_stringIcNS_11char_traitsIcEENS_9allocatorIcEEEC2B8ne200100ILi0EEEPKc ; -- Begin function _ZNSt3__112basic_stringIcNS_11char_traitsIcEENS_9allocatorIcEEEC2B8ne200100ILi0EEEPKc
	.weak_def_can_be_hidden	__ZNSt3__112basic_stringIcNS_11char_traitsIcEENS_9allocatorIcEEEC2B8ne200100ILi0EEEPKc
	.p2align	2
__ZNSt3__112basic_stringIcNS_11char_traitsIcEENS_9allocatorIcEEEC2B8ne200100ILi0EEEPKc: ; @_ZNSt3__112basic_stringIcNS_11char_traitsIcEENS_9allocatorIcEEEC2B8ne200100ILi0EEEPKc
	.cfi_startproc
; %bb.0:
	sub	sp, sp, #48
	stp	x29, x30, [sp, #32]             ; 16-byte Folded Spill
	add	x29, sp, #32
	.cfi_def_cfa w29, 16
	.cfi_offset w30, -8
	.cfi_offset w29, -16
	stur	x0, [x29, #-8]
	str	x1, [sp, #16]
	ldur	x0, [x29, #-8]
	str	x0, [sp, #8]                    ; 8-byte Folded Spill
	bl	__ZNSt3__19allocatorIcEC1B8ne200100Ev
	ldr	x8, [sp, #16]
	str	x8, [sp]                        ; 8-byte Folded Spill
	ldr	x0, [sp, #16]
	bl	__ZNSt3__111char_traitsIcE6lengthB8ne200100EPKc
	ldr	x1, [sp]                        ; 8-byte Folded Reload
	mov	x2, x0
	ldr	x0, [sp, #8]                    ; 8-byte Folded Reload
	bl	__ZNSt3__112basic_stringIcNS_11char_traitsIcEENS_9allocatorIcEEE6__initEPKcm
	ldr	x0, [sp, #8]                    ; 8-byte Folded Reload
	ldp	x29, x30, [sp, #32]             ; 16-byte Folded Reload
	add	sp, sp, #48
	ret
	.cfi_endproc
                                        ; -- End function
	.private_extern	__ZNSt3__19allocatorIcEC1B8ne200100Ev ; -- Begin function _ZNSt3__19allocatorIcEC1B8ne200100Ev
	.globl	__ZNSt3__19allocatorIcEC1B8ne200100Ev
	.weak_def_can_be_hidden	__ZNSt3__19allocatorIcEC1B8ne200100Ev
	.p2align	2
__ZNSt3__19allocatorIcEC1B8ne200100Ev:  ; @_ZNSt3__19allocatorIcEC1B8ne200100Ev
	.cfi_startproc
; %bb.0:
	sub	sp, sp, #32
	stp	x29, x30, [sp, #16]             ; 16-byte Folded Spill
	add	x29, sp, #16
	.cfi_def_cfa w29, 16
	.cfi_offset w30, -8
	.cfi_offset w29, -16
	str	x0, [sp, #8]
	ldr	x0, [sp, #8]
	str	x0, [sp]                        ; 8-byte Folded Spill
	bl	__ZNSt3__19allocatorIcEC2B8ne200100Ev
	ldr	x0, [sp]                        ; 8-byte Folded Reload
	ldp	x29, x30, [sp, #16]             ; 16-byte Folded Reload
	add	sp, sp, #32
	ret
	.cfi_endproc
                                        ; -- End function
	.private_extern	__ZNSt3__111char_traitsIcE6lengthB8ne200100EPKc ; -- Begin function _ZNSt3__111char_traitsIcE6lengthB8ne200100EPKc
	.globl	__ZNSt3__111char_traitsIcE6lengthB8ne200100EPKc
	.weak_definition	__ZNSt3__111char_traitsIcE6lengthB8ne200100EPKc
	.p2align	2
__ZNSt3__111char_traitsIcE6lengthB8ne200100EPKc: ; @_ZNSt3__111char_traitsIcE6lengthB8ne200100EPKc
	.cfi_startproc
; %bb.0:
	sub	sp, sp, #32
	stp	x29, x30, [sp, #16]             ; 16-byte Folded Spill
	add	x29, sp, #16
	.cfi_def_cfa w29, 16
	.cfi_offset w30, -8
	.cfi_offset w29, -16
	str	x0, [sp, #8]
	ldr	x0, [sp, #8]
	bl	__ZNSt3__118__constexpr_strlenB8ne200100IcEEmPKT_
	ldp	x29, x30, [sp, #16]             ; 16-byte Folded Reload
	add	sp, sp, #32
	ret
	.cfi_endproc
                                        ; -- End function
	.private_extern	__ZNSt3__19allocatorIcEC2B8ne200100Ev ; -- Begin function _ZNSt3__19allocatorIcEC2B8ne200100Ev
	.globl	__ZNSt3__19allocatorIcEC2B8ne200100Ev
	.weak_def_can_be_hidden	__ZNSt3__19allocatorIcEC2B8ne200100Ev
	.p2align	2
__ZNSt3__19allocatorIcEC2B8ne200100Ev:  ; @_ZNSt3__19allocatorIcEC2B8ne200100Ev
	.cfi_startproc
; %bb.0:
	sub	sp, sp, #32
	stp	x29, x30, [sp, #16]             ; 16-byte Folded Spill
	add	x29, sp, #16
	.cfi_def_cfa w29, 16
	.cfi_offset w30, -8
	.cfi_offset w29, -16
	str	x0, [sp, #8]
	ldr	x0, [sp, #8]
	str	x0, [sp]                        ; 8-byte Folded Spill
	bl	__ZNSt3__116__non_trivial_ifILb1ENS_9allocatorIcEEEC2B8ne200100Ev
	ldr	x0, [sp]                        ; 8-byte Folded Reload
	ldp	x29, x30, [sp, #16]             ; 16-byte Folded Reload
	add	sp, sp, #32
	ret
	.cfi_endproc
                                        ; -- End function
	.private_extern	__ZNSt3__116__non_trivial_ifILb1ENS_9allocatorIcEEEC2B8ne200100Ev ; -- Begin function _ZNSt3__116__non_trivial_ifILb1ENS_9allocatorIcEEEC2B8ne200100Ev
	.globl	__ZNSt3__116__non_trivial_ifILb1ENS_9allocatorIcEEEC2B8ne200100Ev
	.weak_def_can_be_hidden	__ZNSt3__116__non_trivial_ifILb1ENS_9allocatorIcEEEC2B8ne200100Ev
	.p2align	2
__ZNSt3__116__non_trivial_ifILb1ENS_9allocatorIcEEEC2B8ne200100Ev: ; @_ZNSt3__116__non_trivial_ifILb1ENS_9allocatorIcEEEC2B8ne200100Ev
	.cfi_startproc
; %bb.0:
	sub	sp, sp, #16
	.cfi_def_cfa_offset 16
	str	x0, [sp, #8]
	ldr	x0, [sp, #8]
	add	sp, sp, #16
	ret
	.cfi_endproc
                                        ; -- End function
	.private_extern	__ZNSt3__118__constexpr_strlenB8ne200100IcEEmPKT_ ; -- Begin function _ZNSt3__118__constexpr_strlenB8ne200100IcEEmPKT_
	.globl	__ZNSt3__118__constexpr_strlenB8ne200100IcEEmPKT_
	.weak_definition	__ZNSt3__118__constexpr_strlenB8ne200100IcEEmPKT_
	.p2align	2
__ZNSt3__118__constexpr_strlenB8ne200100IcEEmPKT_: ; @_ZNSt3__118__constexpr_strlenB8ne200100IcEEmPKT_
	.cfi_startproc
; %bb.0:
	sub	sp, sp, #32
	stp	x29, x30, [sp, #16]             ; 16-byte Folded Spill
	add	x29, sp, #16
	.cfi_def_cfa w29, 16
	.cfi_offset w30, -8
	.cfi_offset w29, -16
	str	x0, [sp, #8]
	ldr	x0, [sp, #8]
	bl	_strlen
	ldp	x29, x30, [sp, #16]             ; 16-byte Folded Reload
	add	sp, sp, #32
	ret
	.cfi_endproc
                                        ; -- End function
	.private_extern	__ZNSt3__124__put_character_sequenceB8ne200100IcNS_11char_traitsIcEEEERNS_13basic_ostreamIT_T0_EES7_PKS4_m ; -- Begin function _ZNSt3__124__put_character_sequenceB8ne200100IcNS_11char_traitsIcEEEERNS_13basic_ostreamIT_T0_EES7_PKS4_m
	.globl	__ZNSt3__124__put_character_sequenceB8ne200100IcNS_11char_traitsIcEEEERNS_13basic_ostreamIT_T0_EES7_PKS4_m
	.weak_definition	__ZNSt3__124__put_character_sequenceB8ne200100IcNS_11char_traitsIcEEEERNS_13basic_ostreamIT_T0_EES7_PKS4_m
	.p2align	2
__ZNSt3__124__put_character_sequenceB8ne200100IcNS_11char_traitsIcEEEERNS_13basic_ostreamIT_T0_EES7_PKS4_m: ; @_ZNSt3__124__put_character_sequenceB8ne200100IcNS_11char_traitsIcEEEERNS_13basic_ostreamIT_T0_EES7_PKS4_m
Lfunc_begin4:
	.cfi_startproc
	.cfi_personality 155, ___gxx_personality_v0
	.cfi_lsda 16, Lexception4
; %bb.0:
	sub	sp, sp, #160
	stp	x29, x30, [sp, #144]            ; 16-byte Folded Spill
	add	x29, sp, #144
	.cfi_def_cfa w29, 16
	.cfi_offset w30, -8
	.cfi_offset w29, -16
	stur	x0, [x29, #-8]
	stur	x1, [x29, #-16]
	stur	x2, [x29, #-24]
	ldur	x1, [x29, #-8]
Ltmp262:
	sub	x0, x29, #40
	bl	__ZNSt3__113basic_ostreamIcNS_11char_traitsIcEEE6sentryC1ERS3_
Ltmp263:
	b	LBB63_1
LBB63_1:
Ltmp265:
	sub	x0, x29, #40
	bl	__ZNKSt3__113basic_ostreamIcNS_11char_traitsIcEEE6sentrycvbB8ne200100Ev
	str	w0, [sp, #68]                   ; 4-byte Folded Spill
Ltmp266:
	b	LBB63_2
LBB63_2:
	ldr	w8, [sp, #68]                   ; 4-byte Folded Reload
	tbz	w8, #0, LBB63_18
	b	LBB63_3
LBB63_3:
	ldur	x1, [x29, #-8]
	add	x0, sp, #72
	bl	__ZNSt3__119ostreambuf_iteratorIcNS_11char_traitsIcEEEC1B8ne200100ERNS_13basic_ostreamIcS2_EE
	ldur	x8, [x29, #-16]
	str	x8, [sp, #56]                   ; 8-byte Folded Spill
	ldur	x8, [x29, #-8]
	ldr	x9, [x8]
	ldur	x9, [x9, #-24]
	add	x0, x8, x9
Ltmp267:
	bl	__ZNKSt3__18ios_base5flagsB8ne200100Ev
	str	w0, [sp, #64]                   ; 4-byte Folded Spill
Ltmp268:
	b	LBB63_4
LBB63_4:
	ldr	w8, [sp, #64]                   ; 4-byte Folded Reload
	mov	w9, #176                        ; =0xb0
	and	w8, w8, w9
	subs	w8, w8, #32
	b.ne	LBB63_6
	b	LBB63_5
LBB63_5:
	ldur	x8, [x29, #-16]
	ldur	x9, [x29, #-24]
	add	x8, x8, x9
	str	x8, [sp, #48]                   ; 8-byte Folded Spill
	b	LBB63_7
LBB63_6:
	ldur	x8, [x29, #-16]
	str	x8, [sp, #48]                   ; 8-byte Folded Spill
	b	LBB63_7
LBB63_7:
	ldr	x8, [sp, #48]                   ; 8-byte Folded Reload
	str	x8, [sp, #16]                   ; 8-byte Folded Spill
	ldur	x8, [x29, #-16]
	ldur	x9, [x29, #-24]
	add	x8, x8, x9
	str	x8, [sp, #24]                   ; 8-byte Folded Spill
	ldur	x8, [x29, #-8]
	ldr	x9, [x8]
	ldur	x9, [x9, #-24]
	add	x8, x8, x9
	str	x8, [sp, #32]                   ; 8-byte Folded Spill
	ldur	x8, [x29, #-8]
	ldr	x9, [x8]
	ldur	x9, [x9, #-24]
	add	x0, x8, x9
Ltmp269:
	bl	__ZNKSt3__19basic_iosIcNS_11char_traitsIcEEE4fillB8ne200100Ev
	str	w0, [sp, #44]                   ; 4-byte Folded Spill
Ltmp270:
	b	LBB63_8
LBB63_8:
	ldr	w5, [sp, #44]                   ; 4-byte Folded Reload
	ldr	x4, [sp, #32]                   ; 8-byte Folded Reload
	ldr	x3, [sp, #24]                   ; 8-byte Folded Reload
	ldr	x2, [sp, #16]                   ; 8-byte Folded Reload
	ldr	x1, [sp, #56]                   ; 8-byte Folded Reload
	ldr	x0, [sp, #72]
Ltmp271:
	bl	__ZNSt3__116__pad_and_outputB8ne200100IcNS_11char_traitsIcEEEENS_19ostreambuf_iteratorIT_T0_EES6_PKS4_S8_S8_RNS_8ios_baseES4_
	str	x0, [sp, #8]                    ; 8-byte Folded Spill
Ltmp272:
	b	LBB63_9
LBB63_9:
	ldr	x8, [sp, #8]                    ; 8-byte Folded Reload
	sub	x0, x29, #64
	stur	x8, [x29, #-64]
	bl	__ZNKSt3__119ostreambuf_iteratorIcNS_11char_traitsIcEEE6failedB8ne200100Ev
	tbz	w0, #0, LBB63_17
	b	LBB63_10
LBB63_10:
	ldur	x8, [x29, #-8]
	ldr	x9, [x8]
	ldur	x9, [x9, #-24]
	add	x0, x8, x9
Ltmp273:
	mov	w1, #5                          ; =0x5
	bl	__ZNSt3__19basic_iosIcNS_11char_traitsIcEEE8setstateB8ne200100Ej
Ltmp274:
	b	LBB63_11
LBB63_11:
	b	LBB63_17
LBB63_12:
Ltmp264:
	stur	x0, [x29, #-48]
	mov	x8, x1
	stur	w8, [x29, #-52]
	b	LBB63_14
LBB63_13:
Ltmp275:
	stur	x0, [x29, #-48]
	mov	x8, x1
	stur	w8, [x29, #-52]
	sub	x0, x29, #40
	bl	__ZNSt3__113basic_ostreamIcNS_11char_traitsIcEEE6sentryD1Ev
	b	LBB63_14
LBB63_14:
	ldur	x0, [x29, #-48]
	bl	___cxa_begin_catch
	ldur	x8, [x29, #-8]
	ldr	x9, [x8]
	ldur	x9, [x9, #-24]
	add	x0, x8, x9
Ltmp276:
	bl	__ZNSt3__18ios_base33__set_badbit_and_consider_rethrowEv
Ltmp277:
	b	LBB63_15
LBB63_15:
	bl	___cxa_end_catch
	b	LBB63_16
LBB63_16:
	ldur	x0, [x29, #-8]
	ldp	x29, x30, [sp, #144]            ; 16-byte Folded Reload
	add	sp, sp, #160
	ret
LBB63_17:
	b	LBB63_18
LBB63_18:
	sub	x0, x29, #40
	bl	__ZNSt3__113basic_ostreamIcNS_11char_traitsIcEEE6sentryD1Ev
	b	LBB63_16
LBB63_19:
Ltmp278:
	stur	x0, [x29, #-48]
	mov	x8, x1
	stur	w8, [x29, #-52]
Ltmp279:
	bl	___cxa_end_catch
Ltmp280:
	b	LBB63_20
LBB63_20:
	b	LBB63_21
LBB63_21:
	ldur	x0, [x29, #-48]
	bl	__Unwind_Resume
LBB63_22:
Ltmp281:
	bl	___clang_call_terminate
Lfunc_end4:
	.cfi_endproc
	.section	__TEXT,__gcc_except_tab
	.p2align	2, 0x0
GCC_except_table63:
Lexception4:
	.byte	255                             ; @LPStart Encoding = omit
	.byte	155                             ; @TType Encoding = indirect pcrel sdata4
	.uleb128 Lttbase0-Lttbaseref0
Lttbaseref0:
	.byte	1                               ; Call site Encoding = uleb128
	.uleb128 Lcst_end4-Lcst_begin4
Lcst_begin4:
	.uleb128 Ltmp262-Lfunc_begin4           ; >> Call Site 1 <<
	.uleb128 Ltmp263-Ltmp262                ;   Call between Ltmp262 and Ltmp263
	.uleb128 Ltmp264-Lfunc_begin4           ;     jumps to Ltmp264
	.byte	1                               ;   On action: 1
	.uleb128 Ltmp265-Lfunc_begin4           ; >> Call Site 2 <<
	.uleb128 Ltmp274-Ltmp265                ;   Call between Ltmp265 and Ltmp274
	.uleb128 Ltmp275-Lfunc_begin4           ;     jumps to Ltmp275
	.byte	1                               ;   On action: 1
	.uleb128 Ltmp274-Lfunc_begin4           ; >> Call Site 3 <<
	.uleb128 Ltmp276-Ltmp274                ;   Call between Ltmp274 and Ltmp276
	.byte	0                               ;     has no landing pad
	.byte	0                               ;   On action: cleanup
	.uleb128 Ltmp276-Lfunc_begin4           ; >> Call Site 4 <<
	.uleb128 Ltmp277-Ltmp276                ;   Call between Ltmp276 and Ltmp277
	.uleb128 Ltmp278-Lfunc_begin4           ;     jumps to Ltmp278
	.byte	0                               ;   On action: cleanup
	.uleb128 Ltmp277-Lfunc_begin4           ; >> Call Site 5 <<
	.uleb128 Ltmp279-Ltmp277                ;   Call between Ltmp277 and Ltmp279
	.byte	0                               ;     has no landing pad
	.byte	0                               ;   On action: cleanup
	.uleb128 Ltmp279-Lfunc_begin4           ; >> Call Site 6 <<
	.uleb128 Ltmp280-Ltmp279                ;   Call between Ltmp279 and Ltmp280
	.uleb128 Ltmp281-Lfunc_begin4           ;     jumps to Ltmp281
	.byte	1                               ;   On action: 1
	.uleb128 Ltmp280-Lfunc_begin4           ; >> Call Site 7 <<
	.uleb128 Lfunc_end4-Ltmp280             ;   Call between Ltmp280 and Lfunc_end4
	.byte	0                               ;     has no landing pad
	.byte	0                               ;   On action: cleanup
Lcst_end4:
	.byte	1                               ; >> Action Record 1 <<
                                        ;   Catch TypeInfo 1
	.byte	0                               ;   No further actions
	.p2align	2, 0x0
                                        ; >> Catch TypeInfos <<
	.long	0                               ; TypeInfo 1
Lttbase0:
	.p2align	2, 0x0
                                        ; -- End function
	.section	__TEXT,__text,regular,pure_instructions
	.private_extern	__ZNKSt3__113basic_ostreamIcNS_11char_traitsIcEEE6sentrycvbB8ne200100Ev ; -- Begin function _ZNKSt3__113basic_ostreamIcNS_11char_traitsIcEEE6sentrycvbB8ne200100Ev
	.globl	__ZNKSt3__113basic_ostreamIcNS_11char_traitsIcEEE6sentrycvbB8ne200100Ev
	.weak_definition	__ZNKSt3__113basic_ostreamIcNS_11char_traitsIcEEE6sentrycvbB8ne200100Ev
	.p2align	2
__ZNKSt3__113basic_ostreamIcNS_11char_traitsIcEEE6sentrycvbB8ne200100Ev: ; @_ZNKSt3__113basic_ostreamIcNS_11char_traitsIcEEE6sentrycvbB8ne200100Ev
	.cfi_startproc
; %bb.0:
	sub	sp, sp, #16
	.cfi_def_cfa_offset 16
	str	x0, [sp, #8]
	ldr	x8, [sp, #8]
	ldrb	w8, [x8]
	and	w0, w8, #0x1
	add	sp, sp, #16
	ret
	.cfi_endproc
                                        ; -- End function
	.private_extern	__ZNSt3__116__pad_and_outputB8ne200100IcNS_11char_traitsIcEEEENS_19ostreambuf_iteratorIT_T0_EES6_PKS4_S8_S8_RNS_8ios_baseES4_ ; -- Begin function _ZNSt3__116__pad_and_outputB8ne200100IcNS_11char_traitsIcEEEENS_19ostreambuf_iteratorIT_T0_EES6_PKS4_S8_S8_RNS_8ios_baseES4_
	.globl	__ZNSt3__116__pad_and_outputB8ne200100IcNS_11char_traitsIcEEEENS_19ostreambuf_iteratorIT_T0_EES6_PKS4_S8_S8_RNS_8ios_baseES4_
	.weak_definition	__ZNSt3__116__pad_and_outputB8ne200100IcNS_11char_traitsIcEEEENS_19ostreambuf_iteratorIT_T0_EES6_PKS4_S8_S8_RNS_8ios_baseES4_
	.p2align	2
__ZNSt3__116__pad_and_outputB8ne200100IcNS_11char_traitsIcEEEENS_19ostreambuf_iteratorIT_T0_EES6_PKS4_S8_S8_RNS_8ios_baseES4_: ; @_ZNSt3__116__pad_and_outputB8ne200100IcNS_11char_traitsIcEEEENS_19ostreambuf_iteratorIT_T0_EES6_PKS4_S8_S8_RNS_8ios_baseES4_
Lfunc_begin5:
	.cfi_startproc
	.cfi_personality 155, ___gxx_personality_v0
	.cfi_lsda 16, Lexception5
; %bb.0:
	sub	sp, sp, #160
	stp	x29, x30, [sp, #144]            ; 16-byte Folded Spill
	add	x29, sp, #144
	.cfi_def_cfa w29, 16
	.cfi_offset w30, -8
	.cfi_offset w29, -16
	stur	x0, [x29, #-16]
	stur	x1, [x29, #-24]
	stur	x2, [x29, #-32]
	stur	x3, [x29, #-40]
	stur	x4, [x29, #-48]
	sturb	w5, [x29, #-49]
	ldur	x8, [x29, #-16]
	cbnz	x8, LBB65_2
	b	LBB65_1
LBB65_1:
	ldur	x8, [x29, #-16]
	stur	x8, [x29, #-8]
	b	LBB65_23
LBB65_2:
	ldur	x8, [x29, #-40]
	ldur	x9, [x29, #-24]
	subs	x8, x8, x9
	stur	x8, [x29, #-64]
	ldur	x0, [x29, #-48]
	bl	__ZNKSt3__18ios_base5widthB8ne200100Ev
	str	x0, [sp, #72]
	ldr	x8, [sp, #72]
	ldur	x9, [x29, #-64]
	subs	x8, x8, x9
	b.le	LBB65_4
	b	LBB65_3
LBB65_3:
	ldur	x9, [x29, #-64]
	ldr	x8, [sp, #72]
	subs	x8, x8, x9
	str	x8, [sp, #72]
	b	LBB65_5
LBB65_4:
	str	xzr, [sp, #72]
	b	LBB65_5
LBB65_5:
	ldur	x8, [x29, #-32]
	ldur	x9, [x29, #-24]
	subs	x8, x8, x9
	str	x8, [sp, #64]
	ldr	x8, [sp, #64]
	subs	x8, x8, #0
	b.le	LBB65_9
	b	LBB65_6
LBB65_6:
	ldur	x0, [x29, #-16]
	ldur	x1, [x29, #-24]
	ldr	x2, [sp, #64]
	bl	__ZNSt3__115basic_streambufIcNS_11char_traitsIcEEE5sputnB8ne200100EPKcl
	ldr	x8, [sp, #64]
	subs	x8, x0, x8
	b.eq	LBB65_8
	b	LBB65_7
LBB65_7:
                                        ; kill: def $x8 killed $xzr
	stur	xzr, [x29, #-16]
	ldur	x8, [x29, #-16]
	stur	x8, [x29, #-8]
	b	LBB65_23
LBB65_8:
	b	LBB65_9
LBB65_9:
	ldr	x8, [sp, #72]
	subs	x8, x8, #0
	b.le	LBB65_18
	b	LBB65_10
LBB65_10:
	ldr	x1, [sp, #72]
	ldursb	w2, [x29, #-49]
	add	x0, sp, #40
	str	x0, [sp]                        ; 8-byte Folded Spill
	bl	__ZNSt3__112basic_stringIcNS_11char_traitsIcEENS_9allocatorIcEEEC1B8ne200100Emc
	ldr	x0, [sp]                        ; 8-byte Folded Reload
	ldur	x8, [x29, #-16]
	str	x8, [sp, #8]                    ; 8-byte Folded Spill
	bl	__ZNKSt3__112basic_stringIcNS_11char_traitsIcEENS_9allocatorIcEEE4dataB8ne200100Ev
	mov	x1, x0
	ldr	x0, [sp, #8]                    ; 8-byte Folded Reload
	ldr	x2, [sp, #72]
Ltmp283:
	bl	__ZNSt3__115basic_streambufIcNS_11char_traitsIcEEE5sputnB8ne200100EPKcl
	str	x0, [sp, #16]                   ; 8-byte Folded Spill
Ltmp284:
	b	LBB65_11
LBB65_11:
	ldr	x8, [sp, #16]                   ; 8-byte Folded Reload
	ldr	x9, [sp, #72]
	subs	x8, x8, x9
	b.eq	LBB65_14
	b	LBB65_12
LBB65_12:
                                        ; kill: def $x8 killed $xzr
	stur	xzr, [x29, #-16]
	ldur	x8, [x29, #-16]
	stur	x8, [x29, #-8]
	mov	w8, #1                          ; =0x1
	str	w8, [sp, #24]
	b	LBB65_15
LBB65_13:
Ltmp285:
	str	x0, [sp, #32]
	mov	x8, x1
	str	w8, [sp, #28]
	add	x0, sp, #40
	bl	__ZNSt3__112basic_stringIcNS_11char_traitsIcEENS_9allocatorIcEEED1Ev
	b	LBB65_24
LBB65_14:
	str	wzr, [sp, #24]
	b	LBB65_15
LBB65_15:
	add	x0, sp, #40
	bl	__ZNSt3__112basic_stringIcNS_11char_traitsIcEENS_9allocatorIcEEED1Ev
	ldr	w8, [sp, #24]
	cbz	w8, LBB65_17
	b	LBB65_16
LBB65_16:
	b	LBB65_23
LBB65_17:
	b	LBB65_18
LBB65_18:
	ldur	x8, [x29, #-40]
	ldur	x9, [x29, #-32]
	subs	x8, x8, x9
	str	x8, [sp, #64]
	ldr	x8, [sp, #64]
	subs	x8, x8, #0
	b.le	LBB65_22
	b	LBB65_19
LBB65_19:
	ldur	x0, [x29, #-16]
	ldur	x1, [x29, #-32]
	ldr	x2, [sp, #64]
	bl	__ZNSt3__115basic_streambufIcNS_11char_traitsIcEEE5sputnB8ne200100EPKcl
	ldr	x8, [sp, #64]
	subs	x8, x0, x8
	b.eq	LBB65_21
	b	LBB65_20
LBB65_20:
                                        ; kill: def $x8 killed $xzr
	stur	xzr, [x29, #-16]
	ldur	x8, [x29, #-16]
	stur	x8, [x29, #-8]
	b	LBB65_23
LBB65_21:
	b	LBB65_22
LBB65_22:
	ldur	x0, [x29, #-48]
	mov	x1, #0                          ; =0x0
	bl	__ZNSt3__18ios_base5widthB8ne200100El
	ldur	x8, [x29, #-16]
	stur	x8, [x29, #-8]
	b	LBB65_23
LBB65_23:
	ldur	x0, [x29, #-8]
	ldp	x29, x30, [sp, #144]            ; 16-byte Folded Reload
	add	sp, sp, #160
	ret
LBB65_24:
	ldr	x0, [sp, #32]
	bl	__Unwind_Resume
; %bb.25:
Lfunc_end5:
	.cfi_endproc
	.section	__TEXT,__gcc_except_tab
	.p2align	2, 0x0
GCC_except_table65:
Lexception5:
	.byte	255                             ; @LPStart Encoding = omit
	.byte	255                             ; @TType Encoding = omit
	.byte	1                               ; Call site Encoding = uleb128
	.uleb128 Lcst_end5-Lcst_begin5
Lcst_begin5:
	.uleb128 Lfunc_begin5-Lfunc_begin5      ; >> Call Site 1 <<
	.uleb128 Ltmp283-Lfunc_begin5           ;   Call between Lfunc_begin5 and Ltmp283
	.byte	0                               ;     has no landing pad
	.byte	0                               ;   On action: cleanup
	.uleb128 Ltmp283-Lfunc_begin5           ; >> Call Site 2 <<
	.uleb128 Ltmp284-Ltmp283                ;   Call between Ltmp283 and Ltmp284
	.uleb128 Ltmp285-Lfunc_begin5           ;     jumps to Ltmp285
	.byte	0                               ;   On action: cleanup
	.uleb128 Ltmp284-Lfunc_begin5           ; >> Call Site 3 <<
	.uleb128 Lfunc_end5-Ltmp284             ;   Call between Ltmp284 and Lfunc_end5
	.byte	0                               ;     has no landing pad
	.byte	0                               ;   On action: cleanup
Lcst_end5:
	.p2align	2, 0x0
                                        ; -- End function
	.section	__TEXT,__text,regular,pure_instructions
	.private_extern	__ZNSt3__119ostreambuf_iteratorIcNS_11char_traitsIcEEEC1B8ne200100ERNS_13basic_ostreamIcS2_EE ; -- Begin function _ZNSt3__119ostreambuf_iteratorIcNS_11char_traitsIcEEEC1B8ne200100ERNS_13basic_ostreamIcS2_EE
	.globl	__ZNSt3__119ostreambuf_iteratorIcNS_11char_traitsIcEEEC1B8ne200100ERNS_13basic_ostreamIcS2_EE
	.weak_def_can_be_hidden	__ZNSt3__119ostreambuf_iteratorIcNS_11char_traitsIcEEEC1B8ne200100ERNS_13basic_ostreamIcS2_EE
	.p2align	2
__ZNSt3__119ostreambuf_iteratorIcNS_11char_traitsIcEEEC1B8ne200100ERNS_13basic_ostreamIcS2_EE: ; @_ZNSt3__119ostreambuf_iteratorIcNS_11char_traitsIcEEEC1B8ne200100ERNS_13basic_ostreamIcS2_EE
	.cfi_startproc
; %bb.0:
	sub	sp, sp, #48
	stp	x29, x30, [sp, #32]             ; 16-byte Folded Spill
	add	x29, sp, #32
	.cfi_def_cfa w29, 16
	.cfi_offset w30, -8
	.cfi_offset w29, -16
	stur	x0, [x29, #-8]
	str	x1, [sp, #16]
	ldur	x0, [x29, #-8]
	str	x0, [sp, #8]                    ; 8-byte Folded Spill
	ldr	x1, [sp, #16]
	bl	__ZNSt3__119ostreambuf_iteratorIcNS_11char_traitsIcEEEC2B8ne200100ERNS_13basic_ostreamIcS2_EE
	ldr	x0, [sp, #8]                    ; 8-byte Folded Reload
	ldp	x29, x30, [sp, #32]             ; 16-byte Folded Reload
	add	sp, sp, #48
	ret
	.cfi_endproc
                                        ; -- End function
	.private_extern	__ZNKSt3__18ios_base5flagsB8ne200100Ev ; -- Begin function _ZNKSt3__18ios_base5flagsB8ne200100Ev
	.globl	__ZNKSt3__18ios_base5flagsB8ne200100Ev
	.weak_definition	__ZNKSt3__18ios_base5flagsB8ne200100Ev
	.p2align	2
__ZNKSt3__18ios_base5flagsB8ne200100Ev: ; @_ZNKSt3__18ios_base5flagsB8ne200100Ev
	.cfi_startproc
; %bb.0:
	sub	sp, sp, #16
	.cfi_def_cfa_offset 16
	str	x0, [sp, #8]
	ldr	x8, [sp, #8]
	ldr	w0, [x8, #8]
	add	sp, sp, #16
	ret
	.cfi_endproc
                                        ; -- End function
	.private_extern	__ZNKSt3__19basic_iosIcNS_11char_traitsIcEEE4fillB8ne200100Ev ; -- Begin function _ZNKSt3__19basic_iosIcNS_11char_traitsIcEEE4fillB8ne200100Ev
	.globl	__ZNKSt3__19basic_iosIcNS_11char_traitsIcEEE4fillB8ne200100Ev
	.weak_definition	__ZNKSt3__19basic_iosIcNS_11char_traitsIcEEE4fillB8ne200100Ev
	.p2align	2
__ZNKSt3__19basic_iosIcNS_11char_traitsIcEEE4fillB8ne200100Ev: ; @_ZNKSt3__19basic_iosIcNS_11char_traitsIcEEE4fillB8ne200100Ev
	.cfi_startproc
; %bb.0:
	sub	sp, sp, #32
	stp	x29, x30, [sp, #16]             ; 16-byte Folded Spill
	add	x29, sp, #16
	.cfi_def_cfa w29, 16
	.cfi_offset w30, -8
	.cfi_offset w29, -16
	str	x0, [sp, #8]
	ldr	x8, [sp, #8]
	str	x8, [sp]                        ; 8-byte Folded Spill
	add	x0, x8, #144
	bl	__ZNKSt3__118_SentinelValueFillINS_11char_traitsIcEEE8__is_setB8ne200100Ev
	tbnz	w0, #0, LBB68_2
	b	LBB68_1
LBB68_1:
	ldr	x0, [sp]                        ; 8-byte Folded Reload
	mov	w1, #32                         ; =0x20
	bl	__ZNKSt3__19basic_iosIcNS_11char_traitsIcEEE5widenB8ne200100Ec
	ldr	x8, [sp]                        ; 8-byte Folded Reload
	mov	x1, x0
	add	x0, x8, #144
	bl	__ZNSt3__118_SentinelValueFillINS_11char_traitsIcEEEaSB8ne200100Ei
	b	LBB68_2
LBB68_2:
	ldr	x8, [sp]                        ; 8-byte Folded Reload
	add	x0, x8, #144
	bl	__ZNKSt3__118_SentinelValueFillINS_11char_traitsIcEEE5__getB8ne200100Ev
	sxtb	w0, w0
	ldp	x29, x30, [sp, #16]             ; 16-byte Folded Reload
	add	sp, sp, #32
	ret
	.cfi_endproc
                                        ; -- End function
	.private_extern	__ZNKSt3__119ostreambuf_iteratorIcNS_11char_traitsIcEEE6failedB8ne200100Ev ; -- Begin function _ZNKSt3__119ostreambuf_iteratorIcNS_11char_traitsIcEEE6failedB8ne200100Ev
	.globl	__ZNKSt3__119ostreambuf_iteratorIcNS_11char_traitsIcEEE6failedB8ne200100Ev
	.weak_definition	__ZNKSt3__119ostreambuf_iteratorIcNS_11char_traitsIcEEE6failedB8ne200100Ev
	.p2align	2
__ZNKSt3__119ostreambuf_iteratorIcNS_11char_traitsIcEEE6failedB8ne200100Ev: ; @_ZNKSt3__119ostreambuf_iteratorIcNS_11char_traitsIcEEE6failedB8ne200100Ev
	.cfi_startproc
; %bb.0:
	sub	sp, sp, #16
	.cfi_def_cfa_offset 16
	str	x0, [sp, #8]
	ldr	x8, [sp, #8]
	ldr	x8, [x8]
	subs	x8, x8, #0
	cset	w0, eq
	add	sp, sp, #16
	ret
	.cfi_endproc
                                        ; -- End function
	.private_extern	__ZNSt3__19basic_iosIcNS_11char_traitsIcEEE8setstateB8ne200100Ej ; -- Begin function _ZNSt3__19basic_iosIcNS_11char_traitsIcEEE8setstateB8ne200100Ej
	.globl	__ZNSt3__19basic_iosIcNS_11char_traitsIcEEE8setstateB8ne200100Ej
	.weak_definition	__ZNSt3__19basic_iosIcNS_11char_traitsIcEEE8setstateB8ne200100Ej
	.p2align	2
__ZNSt3__19basic_iosIcNS_11char_traitsIcEEE8setstateB8ne200100Ej: ; @_ZNSt3__19basic_iosIcNS_11char_traitsIcEEE8setstateB8ne200100Ej
	.cfi_startproc
; %bb.0:
	sub	sp, sp, #32
	stp	x29, x30, [sp, #16]             ; 16-byte Folded Spill
	add	x29, sp, #16
	.cfi_def_cfa w29, 16
	.cfi_offset w30, -8
	.cfi_offset w29, -16
	str	x0, [sp, #8]
	str	w1, [sp, #4]
	ldr	x0, [sp, #8]
	ldr	w1, [sp, #4]
	bl	__ZNSt3__18ios_base8setstateB8ne200100Ej
	ldp	x29, x30, [sp, #16]             ; 16-byte Folded Reload
	add	sp, sp, #32
	ret
	.cfi_endproc
                                        ; -- End function
	.private_extern	___clang_call_terminate ; -- Begin function __clang_call_terminate
	.globl	___clang_call_terminate
	.weak_definition	___clang_call_terminate
	.p2align	2
___clang_call_terminate:                ; @__clang_call_terminate
	.cfi_startproc
; %bb.0:
	stp	x29, x30, [sp, #-16]!           ; 16-byte Folded Spill
	mov	x29, sp
	.cfi_def_cfa w29, 16
	.cfi_offset w30, -8
	.cfi_offset w29, -16
	bl	___cxa_begin_catch
	bl	__ZSt9terminatev
	.cfi_endproc
                                        ; -- End function
	.private_extern	__ZNKSt3__18ios_base5widthB8ne200100Ev ; -- Begin function _ZNKSt3__18ios_base5widthB8ne200100Ev
	.globl	__ZNKSt3__18ios_base5widthB8ne200100Ev
	.weak_definition	__ZNKSt3__18ios_base5widthB8ne200100Ev
	.p2align	2
__ZNKSt3__18ios_base5widthB8ne200100Ev: ; @_ZNKSt3__18ios_base5widthB8ne200100Ev
	.cfi_startproc
; %bb.0:
	sub	sp, sp, #16
	.cfi_def_cfa_offset 16
	str	x0, [sp, #8]
	ldr	x8, [sp, #8]
	ldr	x0, [x8, #24]
	add	sp, sp, #16
	ret
	.cfi_endproc
                                        ; -- End function
	.private_extern	__ZNSt3__115basic_streambufIcNS_11char_traitsIcEEE5sputnB8ne200100EPKcl ; -- Begin function _ZNSt3__115basic_streambufIcNS_11char_traitsIcEEE5sputnB8ne200100EPKcl
	.globl	__ZNSt3__115basic_streambufIcNS_11char_traitsIcEEE5sputnB8ne200100EPKcl
	.weak_definition	__ZNSt3__115basic_streambufIcNS_11char_traitsIcEEE5sputnB8ne200100EPKcl
	.p2align	2
__ZNSt3__115basic_streambufIcNS_11char_traitsIcEEE5sputnB8ne200100EPKcl: ; @_ZNSt3__115basic_streambufIcNS_11char_traitsIcEEE5sputnB8ne200100EPKcl
	.cfi_startproc
; %bb.0:
	sub	sp, sp, #48
	stp	x29, x30, [sp, #32]             ; 16-byte Folded Spill
	add	x29, sp, #32
	.cfi_def_cfa w29, 16
	.cfi_offset w30, -8
	.cfi_offset w29, -16
	stur	x0, [x29, #-8]
	str	x1, [sp, #16]
	str	x2, [sp, #8]
	ldur	x0, [x29, #-8]
	ldr	x1, [sp, #16]
	ldr	x2, [sp, #8]
	ldr	x8, [x0]
	ldr	x8, [x8, #96]
	blr	x8
	ldp	x29, x30, [sp, #32]             ; 16-byte Folded Reload
	add	sp, sp, #48
	ret
	.cfi_endproc
                                        ; -- End function
	.private_extern	__ZNSt3__112basic_stringIcNS_11char_traitsIcEENS_9allocatorIcEEEC1B8ne200100Emc ; -- Begin function _ZNSt3__112basic_stringIcNS_11char_traitsIcEENS_9allocatorIcEEEC1B8ne200100Emc
	.globl	__ZNSt3__112basic_stringIcNS_11char_traitsIcEENS_9allocatorIcEEEC1B8ne200100Emc
	.weak_def_can_be_hidden	__ZNSt3__112basic_stringIcNS_11char_traitsIcEENS_9allocatorIcEEEC1B8ne200100Emc
	.p2align	2
__ZNSt3__112basic_stringIcNS_11char_traitsIcEENS_9allocatorIcEEEC1B8ne200100Emc: ; @_ZNSt3__112basic_stringIcNS_11char_traitsIcEENS_9allocatorIcEEEC1B8ne200100Emc
	.cfi_startproc
; %bb.0:
	sub	sp, sp, #48
	stp	x29, x30, [sp, #32]             ; 16-byte Folded Spill
	add	x29, sp, #32
	.cfi_def_cfa w29, 16
	.cfi_offset w30, -8
	.cfi_offset w29, -16
	stur	x0, [x29, #-8]
	str	x1, [sp, #16]
	strb	w2, [sp, #15]
	ldur	x0, [x29, #-8]
	str	x0, [sp]                        ; 8-byte Folded Spill
	ldr	x1, [sp, #16]
	ldrsb	w2, [sp, #15]
	bl	__ZNSt3__112basic_stringIcNS_11char_traitsIcEENS_9allocatorIcEEEC2B8ne200100Emc
	ldr	x0, [sp]                        ; 8-byte Folded Reload
	ldp	x29, x30, [sp, #32]             ; 16-byte Folded Reload
	add	sp, sp, #48
	ret
	.cfi_endproc
                                        ; -- End function
	.private_extern	__ZNKSt3__112basic_stringIcNS_11char_traitsIcEENS_9allocatorIcEEE4dataB8ne200100Ev ; -- Begin function _ZNKSt3__112basic_stringIcNS_11char_traitsIcEENS_9allocatorIcEEE4dataB8ne200100Ev
	.globl	__ZNKSt3__112basic_stringIcNS_11char_traitsIcEENS_9allocatorIcEEE4dataB8ne200100Ev
	.weak_definition	__ZNKSt3__112basic_stringIcNS_11char_traitsIcEENS_9allocatorIcEEE4dataB8ne200100Ev
	.p2align	2
__ZNKSt3__112basic_stringIcNS_11char_traitsIcEENS_9allocatorIcEEE4dataB8ne200100Ev: ; @_ZNKSt3__112basic_stringIcNS_11char_traitsIcEENS_9allocatorIcEEE4dataB8ne200100Ev
	.cfi_startproc
; %bb.0:
	sub	sp, sp, #32
	stp	x29, x30, [sp, #16]             ; 16-byte Folded Spill
	add	x29, sp, #16
	.cfi_def_cfa w29, 16
	.cfi_offset w30, -8
	.cfi_offset w29, -16
	str	x0, [sp, #8]
	ldr	x0, [sp, #8]
	bl	__ZNKSt3__112basic_stringIcNS_11char_traitsIcEENS_9allocatorIcEEE13__get_pointerB8ne200100Ev
	bl	__ZNSt3__112__to_addressB8ne200100IKcEEPT_S3_
	ldp	x29, x30, [sp, #16]             ; 16-byte Folded Reload
	add	sp, sp, #32
	ret
	.cfi_endproc
                                        ; -- End function
	.private_extern	__ZNSt3__18ios_base5widthB8ne200100El ; -- Begin function _ZNSt3__18ios_base5widthB8ne200100El
	.globl	__ZNSt3__18ios_base5widthB8ne200100El
	.weak_definition	__ZNSt3__18ios_base5widthB8ne200100El
	.p2align	2
__ZNSt3__18ios_base5widthB8ne200100El:  ; @_ZNSt3__18ios_base5widthB8ne200100El
	.cfi_startproc
; %bb.0:
	sub	sp, sp, #32
	.cfi_def_cfa_offset 32
	str	x0, [sp, #24]
	str	x1, [sp, #16]
	ldr	x9, [sp, #24]
	ldr	x8, [x9, #24]
	str	x8, [sp, #8]
	ldr	x8, [sp, #16]
	str	x8, [x9, #24]
	ldr	x0, [sp, #8]
	add	sp, sp, #32
	ret
	.cfi_endproc
                                        ; -- End function
	.private_extern	__ZNSt3__112basic_stringIcNS_11char_traitsIcEENS_9allocatorIcEEEC2B8ne200100Emc ; -- Begin function _ZNSt3__112basic_stringIcNS_11char_traitsIcEENS_9allocatorIcEEEC2B8ne200100Emc
	.globl	__ZNSt3__112basic_stringIcNS_11char_traitsIcEENS_9allocatorIcEEEC2B8ne200100Emc
	.weak_def_can_be_hidden	__ZNSt3__112basic_stringIcNS_11char_traitsIcEENS_9allocatorIcEEEC2B8ne200100Emc
	.p2align	2
__ZNSt3__112basic_stringIcNS_11char_traitsIcEENS_9allocatorIcEEEC2B8ne200100Emc: ; @_ZNSt3__112basic_stringIcNS_11char_traitsIcEENS_9allocatorIcEEEC2B8ne200100Emc
	.cfi_startproc
; %bb.0:
	sub	sp, sp, #48
	stp	x29, x30, [sp, #32]             ; 16-byte Folded Spill
	add	x29, sp, #32
	.cfi_def_cfa w29, 16
	.cfi_offset w30, -8
	.cfi_offset w29, -16
	stur	x0, [x29, #-8]
	str	x1, [sp, #16]
	strb	w2, [sp, #15]
	ldur	x0, [x29, #-8]
	str	x0, [sp]                        ; 8-byte Folded Spill
	bl	__ZNSt3__19allocatorIcEC1B8ne200100Ev
	ldr	x0, [sp]                        ; 8-byte Folded Reload
	ldr	x1, [sp, #16]
	ldrsb	w2, [sp, #15]
	bl	__ZNSt3__112basic_stringIcNS_11char_traitsIcEENS_9allocatorIcEEE6__initEmc
	ldr	x0, [sp]                        ; 8-byte Folded Reload
	ldp	x29, x30, [sp, #32]             ; 16-byte Folded Reload
	add	sp, sp, #48
	ret
	.cfi_endproc
                                        ; -- End function
	.private_extern	__ZNSt3__112__to_addressB8ne200100IKcEEPT_S3_ ; -- Begin function _ZNSt3__112__to_addressB8ne200100IKcEEPT_S3_
	.globl	__ZNSt3__112__to_addressB8ne200100IKcEEPT_S3_
	.weak_definition	__ZNSt3__112__to_addressB8ne200100IKcEEPT_S3_
	.p2align	2
__ZNSt3__112__to_addressB8ne200100IKcEEPT_S3_: ; @_ZNSt3__112__to_addressB8ne200100IKcEEPT_S3_
	.cfi_startproc
; %bb.0:
	sub	sp, sp, #16
	.cfi_def_cfa_offset 16
	str	x0, [sp, #8]
	ldr	x0, [sp, #8]
	add	sp, sp, #16
	ret
	.cfi_endproc
                                        ; -- End function
	.private_extern	__ZNKSt3__112basic_stringIcNS_11char_traitsIcEENS_9allocatorIcEEE13__get_pointerB8ne200100Ev ; -- Begin function _ZNKSt3__112basic_stringIcNS_11char_traitsIcEENS_9allocatorIcEEE13__get_pointerB8ne200100Ev
	.globl	__ZNKSt3__112basic_stringIcNS_11char_traitsIcEENS_9allocatorIcEEE13__get_pointerB8ne200100Ev
	.weak_definition	__ZNKSt3__112basic_stringIcNS_11char_traitsIcEENS_9allocatorIcEEE13__get_pointerB8ne200100Ev
	.p2align	2
__ZNKSt3__112basic_stringIcNS_11char_traitsIcEENS_9allocatorIcEEE13__get_pointerB8ne200100Ev: ; @_ZNKSt3__112basic_stringIcNS_11char_traitsIcEENS_9allocatorIcEEE13__get_pointerB8ne200100Ev
	.cfi_startproc
; %bb.0:
	sub	sp, sp, #48
	stp	x29, x30, [sp, #32]             ; 16-byte Folded Spill
	add	x29, sp, #32
	.cfi_def_cfa w29, 16
	.cfi_offset w30, -8
	.cfi_offset w29, -16
	stur	x0, [x29, #-8]
	ldur	x0, [x29, #-8]
	str	x0, [sp, #16]                   ; 8-byte Folded Spill
	bl	__ZNKSt3__112basic_stringIcNS_11char_traitsIcEENS_9allocatorIcEEE9__is_longB8ne200100Ev
	tbz	w0, #0, LBB79_2
	b	LBB79_1
LBB79_1:
	ldr	x0, [sp, #16]                   ; 8-byte Folded Reload
	bl	__ZNKSt3__112basic_stringIcNS_11char_traitsIcEENS_9allocatorIcEEE18__get_long_pointerB8ne200100Ev
	str	x0, [sp, #8]                    ; 8-byte Folded Spill
	b	LBB79_3
LBB79_2:
	ldr	x0, [sp, #16]                   ; 8-byte Folded Reload
	bl	__ZNKSt3__112basic_stringIcNS_11char_traitsIcEENS_9allocatorIcEEE19__get_short_pointerB8ne200100Ev
	str	x0, [sp, #8]                    ; 8-byte Folded Spill
	b	LBB79_3
LBB79_3:
	ldr	x0, [sp, #8]                    ; 8-byte Folded Reload
	ldp	x29, x30, [sp, #32]             ; 16-byte Folded Reload
	add	sp, sp, #48
	ret
	.cfi_endproc
                                        ; -- End function
	.private_extern	__ZNKSt3__112basic_stringIcNS_11char_traitsIcEENS_9allocatorIcEEE9__is_longB8ne200100Ev ; -- Begin function _ZNKSt3__112basic_stringIcNS_11char_traitsIcEENS_9allocatorIcEEE9__is_longB8ne200100Ev
	.globl	__ZNKSt3__112basic_stringIcNS_11char_traitsIcEENS_9allocatorIcEEE9__is_longB8ne200100Ev
	.weak_definition	__ZNKSt3__112basic_stringIcNS_11char_traitsIcEENS_9allocatorIcEEE9__is_longB8ne200100Ev
	.p2align	2
__ZNKSt3__112basic_stringIcNS_11char_traitsIcEENS_9allocatorIcEEE9__is_longB8ne200100Ev: ; @_ZNKSt3__112basic_stringIcNS_11char_traitsIcEENS_9allocatorIcEEE9__is_longB8ne200100Ev
	.cfi_startproc
; %bb.0:
	sub	sp, sp, #16
	.cfi_def_cfa_offset 16
	str	x0, [sp, #8]
	ldr	x8, [sp, #8]
	ldrb	w8, [x8, #23]
	lsr	w8, w8, #7
	subs	w8, w8, #0
	cset	w0, ne
	add	sp, sp, #16
	ret
	.cfi_endproc
                                        ; -- End function
	.private_extern	__ZNKSt3__112basic_stringIcNS_11char_traitsIcEENS_9allocatorIcEEE18__get_long_pointerB8ne200100Ev ; -- Begin function _ZNKSt3__112basic_stringIcNS_11char_traitsIcEENS_9allocatorIcEEE18__get_long_pointerB8ne200100Ev
	.globl	__ZNKSt3__112basic_stringIcNS_11char_traitsIcEENS_9allocatorIcEEE18__get_long_pointerB8ne200100Ev
	.weak_definition	__ZNKSt3__112basic_stringIcNS_11char_traitsIcEENS_9allocatorIcEEE18__get_long_pointerB8ne200100Ev
	.p2align	2
__ZNKSt3__112basic_stringIcNS_11char_traitsIcEENS_9allocatorIcEEE18__get_long_pointerB8ne200100Ev: ; @_ZNKSt3__112basic_stringIcNS_11char_traitsIcEENS_9allocatorIcEEE18__get_long_pointerB8ne200100Ev
	.cfi_startproc
; %bb.0:
	sub	sp, sp, #16
	.cfi_def_cfa_offset 16
	str	x0, [sp, #8]
	ldr	x8, [sp, #8]
	ldr	x0, [x8]
	add	sp, sp, #16
	ret
	.cfi_endproc
                                        ; -- End function
	.private_extern	__ZNKSt3__112basic_stringIcNS_11char_traitsIcEENS_9allocatorIcEEE19__get_short_pointerB8ne200100Ev ; -- Begin function _ZNKSt3__112basic_stringIcNS_11char_traitsIcEENS_9allocatorIcEEE19__get_short_pointerB8ne200100Ev
	.globl	__ZNKSt3__112basic_stringIcNS_11char_traitsIcEENS_9allocatorIcEEE19__get_short_pointerB8ne200100Ev
	.weak_definition	__ZNKSt3__112basic_stringIcNS_11char_traitsIcEENS_9allocatorIcEEE19__get_short_pointerB8ne200100Ev
	.p2align	2
__ZNKSt3__112basic_stringIcNS_11char_traitsIcEENS_9allocatorIcEEE19__get_short_pointerB8ne200100Ev: ; @_ZNKSt3__112basic_stringIcNS_11char_traitsIcEENS_9allocatorIcEEE19__get_short_pointerB8ne200100Ev
	.cfi_startproc
; %bb.0:
	sub	sp, sp, #32
	stp	x29, x30, [sp, #16]             ; 16-byte Folded Spill
	add	x29, sp, #16
	.cfi_def_cfa w29, 16
	.cfi_offset w30, -8
	.cfi_offset w29, -16
	str	x0, [sp, #8]
	ldr	x0, [sp, #8]
	bl	__ZNSt3__114pointer_traitsIPKcE10pointer_toB8ne200100ERS1_
	ldp	x29, x30, [sp, #16]             ; 16-byte Folded Reload
	add	sp, sp, #32
	ret
	.cfi_endproc
                                        ; -- End function
	.private_extern	__ZNSt3__114pointer_traitsIPKcE10pointer_toB8ne200100ERS1_ ; -- Begin function _ZNSt3__114pointer_traitsIPKcE10pointer_toB8ne200100ERS1_
	.globl	__ZNSt3__114pointer_traitsIPKcE10pointer_toB8ne200100ERS1_
	.weak_definition	__ZNSt3__114pointer_traitsIPKcE10pointer_toB8ne200100ERS1_
	.p2align	2
__ZNSt3__114pointer_traitsIPKcE10pointer_toB8ne200100ERS1_: ; @_ZNSt3__114pointer_traitsIPKcE10pointer_toB8ne200100ERS1_
	.cfi_startproc
; %bb.0:
	sub	sp, sp, #16
	.cfi_def_cfa_offset 16
	str	x0, [sp, #8]
	ldr	x0, [sp, #8]
	add	sp, sp, #16
	ret
	.cfi_endproc
                                        ; -- End function
	.private_extern	__ZNSt3__119ostreambuf_iteratorIcNS_11char_traitsIcEEEC2B8ne200100ERNS_13basic_ostreamIcS2_EE ; -- Begin function _ZNSt3__119ostreambuf_iteratorIcNS_11char_traitsIcEEEC2B8ne200100ERNS_13basic_ostreamIcS2_EE
	.globl	__ZNSt3__119ostreambuf_iteratorIcNS_11char_traitsIcEEEC2B8ne200100ERNS_13basic_ostreamIcS2_EE
	.weak_def_can_be_hidden	__ZNSt3__119ostreambuf_iteratorIcNS_11char_traitsIcEEEC2B8ne200100ERNS_13basic_ostreamIcS2_EE
	.p2align	2
__ZNSt3__119ostreambuf_iteratorIcNS_11char_traitsIcEEEC2B8ne200100ERNS_13basic_ostreamIcS2_EE: ; @_ZNSt3__119ostreambuf_iteratorIcNS_11char_traitsIcEEEC2B8ne200100ERNS_13basic_ostreamIcS2_EE
Lfunc_begin6:
	.cfi_startproc
	.cfi_personality 155, ___gxx_personality_v0
	.cfi_lsda 16, Lexception6
; %bb.0:
	sub	sp, sp, #48
	stp	x29, x30, [sp, #32]             ; 16-byte Folded Spill
	add	x29, sp, #32
	.cfi_def_cfa w29, 16
	.cfi_offset w30, -8
	.cfi_offset w29, -16
	stur	x0, [x29, #-8]
	str	x1, [sp, #16]
	ldur	x8, [x29, #-8]
	str	x8, [sp]                        ; 8-byte Folded Spill
	ldr	x8, [sp, #16]
	ldr	x9, [x8]
	ldur	x9, [x9, #-24]
Ltmp294:
	add	x0, x8, x9
	bl	__ZNKSt3__19basic_iosIcNS_11char_traitsIcEEE5rdbufB8ne200100Ev
	str	x0, [sp, #8]                    ; 8-byte Folded Spill
Ltmp295:
	b	LBB84_1
LBB84_1:
	ldr	x0, [sp]                        ; 8-byte Folded Reload
	ldr	x8, [sp, #8]                    ; 8-byte Folded Reload
	str	x8, [x0]
	ldp	x29, x30, [sp, #32]             ; 16-byte Folded Reload
	add	sp, sp, #48
	ret
LBB84_2:
Ltmp296:
	bl	___clang_call_terminate
Lfunc_end6:
	.cfi_endproc
	.section	__TEXT,__gcc_except_tab
	.p2align	2, 0x0
GCC_except_table84:
Lexception6:
	.byte	255                             ; @LPStart Encoding = omit
	.byte	155                             ; @TType Encoding = indirect pcrel sdata4
	.uleb128 Lttbase1-Lttbaseref1
Lttbaseref1:
	.byte	1                               ; Call site Encoding = uleb128
	.uleb128 Lcst_end6-Lcst_begin6
Lcst_begin6:
	.uleb128 Ltmp294-Lfunc_begin6           ; >> Call Site 1 <<
	.uleb128 Ltmp295-Ltmp294                ;   Call between Ltmp294 and Ltmp295
	.uleb128 Ltmp296-Lfunc_begin6           ;     jumps to Ltmp296
	.byte	1                               ;   On action: 1
Lcst_end6:
	.byte	1                               ; >> Action Record 1 <<
                                        ;   Catch TypeInfo 1
	.byte	0                               ;   No further actions
	.p2align	2, 0x0
                                        ; >> Catch TypeInfos <<
	.long	0                               ; TypeInfo 1
Lttbase1:
	.p2align	2, 0x0
                                        ; -- End function
	.section	__TEXT,__text,regular,pure_instructions
	.private_extern	__ZNKSt3__19basic_iosIcNS_11char_traitsIcEEE5rdbufB8ne200100Ev ; -- Begin function _ZNKSt3__19basic_iosIcNS_11char_traitsIcEEE5rdbufB8ne200100Ev
	.globl	__ZNKSt3__19basic_iosIcNS_11char_traitsIcEEE5rdbufB8ne200100Ev
	.weak_definition	__ZNKSt3__19basic_iosIcNS_11char_traitsIcEEE5rdbufB8ne200100Ev
	.p2align	2
__ZNKSt3__19basic_iosIcNS_11char_traitsIcEEE5rdbufB8ne200100Ev: ; @_ZNKSt3__19basic_iosIcNS_11char_traitsIcEEE5rdbufB8ne200100Ev
	.cfi_startproc
; %bb.0:
	sub	sp, sp, #32
	stp	x29, x30, [sp, #16]             ; 16-byte Folded Spill
	add	x29, sp, #16
	.cfi_def_cfa w29, 16
	.cfi_offset w30, -8
	.cfi_offset w29, -16
	str	x0, [sp, #8]
	ldr	x0, [sp, #8]
	bl	__ZNKSt3__18ios_base5rdbufB8ne200100Ev
	ldp	x29, x30, [sp, #16]             ; 16-byte Folded Reload
	add	sp, sp, #32
	ret
	.cfi_endproc
                                        ; -- End function
	.private_extern	__ZNKSt3__18ios_base5rdbufB8ne200100Ev ; -- Begin function _ZNKSt3__18ios_base5rdbufB8ne200100Ev
	.globl	__ZNKSt3__18ios_base5rdbufB8ne200100Ev
	.weak_definition	__ZNKSt3__18ios_base5rdbufB8ne200100Ev
	.p2align	2
__ZNKSt3__18ios_base5rdbufB8ne200100Ev: ; @_ZNKSt3__18ios_base5rdbufB8ne200100Ev
	.cfi_startproc
; %bb.0:
	sub	sp, sp, #16
	.cfi_def_cfa_offset 16
	str	x0, [sp, #8]
	ldr	x8, [sp, #8]
	ldr	x0, [x8, #40]
	add	sp, sp, #16
	ret
	.cfi_endproc
                                        ; -- End function
	.private_extern	__ZNKSt3__118_SentinelValueFillINS_11char_traitsIcEEE8__is_setB8ne200100Ev ; -- Begin function _ZNKSt3__118_SentinelValueFillINS_11char_traitsIcEEE8__is_setB8ne200100Ev
	.globl	__ZNKSt3__118_SentinelValueFillINS_11char_traitsIcEEE8__is_setB8ne200100Ev
	.weak_definition	__ZNKSt3__118_SentinelValueFillINS_11char_traitsIcEEE8__is_setB8ne200100Ev
	.p2align	2
__ZNKSt3__118_SentinelValueFillINS_11char_traitsIcEEE8__is_setB8ne200100Ev: ; @_ZNKSt3__118_SentinelValueFillINS_11char_traitsIcEEE8__is_setB8ne200100Ev
	.cfi_startproc
; %bb.0:
	sub	sp, sp, #32
	stp	x29, x30, [sp, #16]             ; 16-byte Folded Spill
	add	x29, sp, #16
	.cfi_def_cfa w29, 16
	.cfi_offset w30, -8
	.cfi_offset w29, -16
	str	x0, [sp, #8]
	ldr	x8, [sp, #8]
	ldr	w8, [x8]
	str	w8, [sp, #4]                    ; 4-byte Folded Spill
	bl	__ZNSt3__111char_traitsIcE3eofB8ne200100Ev
	ldr	w8, [sp, #4]                    ; 4-byte Folded Reload
	subs	w8, w8, w0
	cset	w0, ne
	ldp	x29, x30, [sp, #16]             ; 16-byte Folded Reload
	add	sp, sp, #32
	ret
	.cfi_endproc
                                        ; -- End function
	.private_extern	__ZNKSt3__19basic_iosIcNS_11char_traitsIcEEE5widenB8ne200100Ec ; -- Begin function _ZNKSt3__19basic_iosIcNS_11char_traitsIcEEE5widenB8ne200100Ec
	.globl	__ZNKSt3__19basic_iosIcNS_11char_traitsIcEEE5widenB8ne200100Ec
	.weak_definition	__ZNKSt3__19basic_iosIcNS_11char_traitsIcEEE5widenB8ne200100Ec
	.p2align	2
__ZNKSt3__19basic_iosIcNS_11char_traitsIcEEE5widenB8ne200100Ec: ; @_ZNKSt3__19basic_iosIcNS_11char_traitsIcEEE5widenB8ne200100Ec
Lfunc_begin7:
	.cfi_startproc
	.cfi_personality 155, ___gxx_personality_v0
	.cfi_lsda 16, Lexception7
; %bb.0:
	sub	sp, sp, #80
	stp	x29, x30, [sp, #64]             ; 16-byte Folded Spill
	add	x29, sp, #64
	.cfi_def_cfa w29, 16
	.cfi_offset w30, -8
	.cfi_offset w29, -16
	stur	x0, [x29, #-8]
	sturb	w1, [x29, #-9]
	ldur	x0, [x29, #-8]
	sub	x8, x29, #24
	str	x8, [sp, #8]                    ; 8-byte Folded Spill
	bl	__ZNKSt3__18ios_base6getlocEv
	ldr	x0, [sp, #8]                    ; 8-byte Folded Reload
Ltmp298:
	bl	__ZNSt3__19use_facetB8ne200100INS_5ctypeIcEEEERKT_RKNS_6localeE
	str	x0, [sp, #16]                   ; 8-byte Folded Spill
Ltmp299:
	b	LBB88_1
LBB88_1:
	ldr	x0, [sp, #16]                   ; 8-byte Folded Reload
	ldursb	w1, [x29, #-9]
Ltmp300:
	bl	__ZNKSt3__15ctypeIcE5widenB8ne200100Ec
	str	w0, [sp, #4]                    ; 4-byte Folded Spill
Ltmp301:
	b	LBB88_2
LBB88_2:
	sub	x0, x29, #24
	bl	__ZNSt3__16localeD1Ev
	ldr	w0, [sp, #4]                    ; 4-byte Folded Reload
	ldp	x29, x30, [sp, #64]             ; 16-byte Folded Reload
	add	sp, sp, #80
	ret
LBB88_3:
Ltmp302:
	str	x0, [sp, #32]
	mov	x8, x1
	str	w8, [sp, #28]
	sub	x0, x29, #24
	bl	__ZNSt3__16localeD1Ev
	b	LBB88_4
LBB88_4:
	ldr	x0, [sp, #32]
	bl	__Unwind_Resume
Lfunc_end7:
	.cfi_endproc
	.section	__TEXT,__gcc_except_tab
	.p2align	2, 0x0
GCC_except_table88:
Lexception7:
	.byte	255                             ; @LPStart Encoding = omit
	.byte	255                             ; @TType Encoding = omit
	.byte	1                               ; Call site Encoding = uleb128
	.uleb128 Lcst_end7-Lcst_begin7
Lcst_begin7:
	.uleb128 Lfunc_begin7-Lfunc_begin7      ; >> Call Site 1 <<
	.uleb128 Ltmp298-Lfunc_begin7           ;   Call between Lfunc_begin7 and Ltmp298
	.byte	0                               ;     has no landing pad
	.byte	0                               ;   On action: cleanup
	.uleb128 Ltmp298-Lfunc_begin7           ; >> Call Site 2 <<
	.uleb128 Ltmp301-Ltmp298                ;   Call between Ltmp298 and Ltmp301
	.uleb128 Ltmp302-Lfunc_begin7           ;     jumps to Ltmp302
	.byte	0                               ;   On action: cleanup
	.uleb128 Ltmp301-Lfunc_begin7           ; >> Call Site 3 <<
	.uleb128 Lfunc_end7-Ltmp301             ;   Call between Ltmp301 and Lfunc_end7
	.byte	0                               ;     has no landing pad
	.byte	0                               ;   On action: cleanup
Lcst_end7:
	.p2align	2, 0x0
                                        ; -- End function
	.section	__TEXT,__text,regular,pure_instructions
	.private_extern	__ZNSt3__118_SentinelValueFillINS_11char_traitsIcEEEaSB8ne200100Ei ; -- Begin function _ZNSt3__118_SentinelValueFillINS_11char_traitsIcEEEaSB8ne200100Ei
	.globl	__ZNSt3__118_SentinelValueFillINS_11char_traitsIcEEEaSB8ne200100Ei
	.weak_definition	__ZNSt3__118_SentinelValueFillINS_11char_traitsIcEEEaSB8ne200100Ei
	.p2align	2
__ZNSt3__118_SentinelValueFillINS_11char_traitsIcEEEaSB8ne200100Ei: ; @_ZNSt3__118_SentinelValueFillINS_11char_traitsIcEEEaSB8ne200100Ei
	.cfi_startproc
; %bb.0:
	sub	sp, sp, #16
	.cfi_def_cfa_offset 16
	str	x0, [sp, #8]
	str	w1, [sp, #4]
	ldr	x0, [sp, #8]
	ldr	w8, [sp, #4]
	str	w8, [x0]
	add	sp, sp, #16
	ret
	.cfi_endproc
                                        ; -- End function
	.private_extern	__ZNKSt3__118_SentinelValueFillINS_11char_traitsIcEEE5__getB8ne200100Ev ; -- Begin function _ZNKSt3__118_SentinelValueFillINS_11char_traitsIcEEE5__getB8ne200100Ev
	.globl	__ZNKSt3__118_SentinelValueFillINS_11char_traitsIcEEE5__getB8ne200100Ev
	.weak_definition	__ZNKSt3__118_SentinelValueFillINS_11char_traitsIcEEE5__getB8ne200100Ev
	.p2align	2
__ZNKSt3__118_SentinelValueFillINS_11char_traitsIcEEE5__getB8ne200100Ev: ; @_ZNKSt3__118_SentinelValueFillINS_11char_traitsIcEEE5__getB8ne200100Ev
	.cfi_startproc
; %bb.0:
	sub	sp, sp, #16
	.cfi_def_cfa_offset 16
	str	x0, [sp, #8]
	ldr	x8, [sp, #8]
	ldr	w0, [x8]
	add	sp, sp, #16
	ret
	.cfi_endproc
                                        ; -- End function
	.private_extern	__ZNSt3__111char_traitsIcE3eofB8ne200100Ev ; -- Begin function _ZNSt3__111char_traitsIcE3eofB8ne200100Ev
	.globl	__ZNSt3__111char_traitsIcE3eofB8ne200100Ev
	.weak_definition	__ZNSt3__111char_traitsIcE3eofB8ne200100Ev
	.p2align	2
__ZNSt3__111char_traitsIcE3eofB8ne200100Ev: ; @_ZNSt3__111char_traitsIcE3eofB8ne200100Ev
	.cfi_startproc
; %bb.0:
	mov	w0, #-1                         ; =0xffffffff
	ret
	.cfi_endproc
                                        ; -- End function
	.private_extern	__ZNSt3__19use_facetB8ne200100INS_5ctypeIcEEEERKT_RKNS_6localeE ; -- Begin function _ZNSt3__19use_facetB8ne200100INS_5ctypeIcEEEERKT_RKNS_6localeE
	.globl	__ZNSt3__19use_facetB8ne200100INS_5ctypeIcEEEERKT_RKNS_6localeE
	.weak_definition	__ZNSt3__19use_facetB8ne200100INS_5ctypeIcEEEERKT_RKNS_6localeE
	.p2align	2
__ZNSt3__19use_facetB8ne200100INS_5ctypeIcEEEERKT_RKNS_6localeE: ; @_ZNSt3__19use_facetB8ne200100INS_5ctypeIcEEEERKT_RKNS_6localeE
	.cfi_startproc
; %bb.0:
	sub	sp, sp, #32
	stp	x29, x30, [sp, #16]             ; 16-byte Folded Spill
	add	x29, sp, #16
	.cfi_def_cfa w29, 16
	.cfi_offset w30, -8
	.cfi_offset w29, -16
	str	x0, [sp, #8]
	ldr	x0, [sp, #8]
	adrp	x1, __ZNSt3__15ctypeIcE2idE@GOTPAGE
	ldr	x1, [x1, __ZNSt3__15ctypeIcE2idE@GOTPAGEOFF]
	bl	__ZNKSt3__16locale9use_facetERNS0_2idE
	ldp	x29, x30, [sp, #16]             ; 16-byte Folded Reload
	add	sp, sp, #32
	ret
	.cfi_endproc
                                        ; -- End function
	.private_extern	__ZNKSt3__15ctypeIcE5widenB8ne200100Ec ; -- Begin function _ZNKSt3__15ctypeIcE5widenB8ne200100Ec
	.globl	__ZNKSt3__15ctypeIcE5widenB8ne200100Ec
	.weak_definition	__ZNKSt3__15ctypeIcE5widenB8ne200100Ec
	.p2align	2
__ZNKSt3__15ctypeIcE5widenB8ne200100Ec: ; @_ZNKSt3__15ctypeIcE5widenB8ne200100Ec
	.cfi_startproc
; %bb.0:
	sub	sp, sp, #32
	stp	x29, x30, [sp, #16]             ; 16-byte Folded Spill
	add	x29, sp, #16
	.cfi_def_cfa w29, 16
	.cfi_offset w30, -8
	.cfi_offset w29, -16
	str	x0, [sp, #8]
	strb	w1, [sp, #7]
	ldr	x0, [sp, #8]
	ldrsb	w1, [sp, #7]
	ldr	x8, [x0]
	ldr	x8, [x8, #56]
	blr	x8
	ldp	x29, x30, [sp, #16]             ; 16-byte Folded Reload
	add	sp, sp, #32
	ret
	.cfi_endproc
                                        ; -- End function
	.private_extern	__ZNSt3__18ios_base8setstateB8ne200100Ej ; -- Begin function _ZNSt3__18ios_base8setstateB8ne200100Ej
	.globl	__ZNSt3__18ios_base8setstateB8ne200100Ej
	.weak_definition	__ZNSt3__18ios_base8setstateB8ne200100Ej
	.p2align	2
__ZNSt3__18ios_base8setstateB8ne200100Ej: ; @_ZNSt3__18ios_base8setstateB8ne200100Ej
	.cfi_startproc
; %bb.0:
	sub	sp, sp, #32
	stp	x29, x30, [sp, #16]             ; 16-byte Folded Spill
	add	x29, sp, #16
	.cfi_def_cfa w29, 16
	.cfi_offset w30, -8
	.cfi_offset w29, -16
	str	x0, [sp, #8]
	str	w1, [sp, #4]
	ldr	x0, [sp, #8]
	ldr	w8, [x0, #32]
	ldr	w9, [sp, #4]
	orr	w1, w8, w9
	bl	__ZNSt3__18ios_base5clearEj
	ldp	x29, x30, [sp, #16]             ; 16-byte Folded Reload
	add	sp, sp, #32
	ret
	.cfi_endproc
                                        ; -- End function
	.private_extern	__ZNSt3__16vectorIxNS_9allocatorIxEEEC2B8ne200100Ev ; -- Begin function _ZNSt3__16vectorIxNS_9allocatorIxEEEC2B8ne200100Ev
	.globl	__ZNSt3__16vectorIxNS_9allocatorIxEEEC2B8ne200100Ev
	.weak_def_can_be_hidden	__ZNSt3__16vectorIxNS_9allocatorIxEEEC2B8ne200100Ev
	.p2align	2
__ZNSt3__16vectorIxNS_9allocatorIxEEEC2B8ne200100Ev: ; @_ZNSt3__16vectorIxNS_9allocatorIxEEEC2B8ne200100Ev
	.cfi_startproc
; %bb.0:
	sub	sp, sp, #32
	stp	x29, x30, [sp, #16]             ; 16-byte Folded Spill
	add	x29, sp, #16
	.cfi_def_cfa w29, 16
	.cfi_offset w30, -8
	.cfi_offset w29, -16
	str	x0, [sp, #8]
	ldr	x8, [sp, #8]
	str	x8, [sp]                        ; 8-byte Folded Spill
                                        ; kill: def $x9 killed $xzr
	str	xzr, [x8]
	str	xzr, [x8, #8]
	str	xzr, [x8, #16]
	add	x0, x8, #16
	bl	__ZNSt3__19allocatorIxEC1B8ne200100Ev
	ldr	x0, [sp]                        ; 8-byte Folded Reload
	ldp	x29, x30, [sp, #16]             ; 16-byte Folded Reload
	add	sp, sp, #32
	ret
	.cfi_endproc
                                        ; -- End function
	.private_extern	__ZNSt3__19allocatorIxEC1B8ne200100Ev ; -- Begin function _ZNSt3__19allocatorIxEC1B8ne200100Ev
	.globl	__ZNSt3__19allocatorIxEC1B8ne200100Ev
	.weak_def_can_be_hidden	__ZNSt3__19allocatorIxEC1B8ne200100Ev
	.p2align	2
__ZNSt3__19allocatorIxEC1B8ne200100Ev:  ; @_ZNSt3__19allocatorIxEC1B8ne200100Ev
	.cfi_startproc
; %bb.0:
	sub	sp, sp, #32
	stp	x29, x30, [sp, #16]             ; 16-byte Folded Spill
	add	x29, sp, #16
	.cfi_def_cfa w29, 16
	.cfi_offset w30, -8
	.cfi_offset w29, -16
	str	x0, [sp, #8]
	ldr	x0, [sp, #8]
	str	x0, [sp]                        ; 8-byte Folded Spill
	bl	__ZNSt3__19allocatorIxEC2B8ne200100Ev
	ldr	x0, [sp]                        ; 8-byte Folded Reload
	ldp	x29, x30, [sp, #16]             ; 16-byte Folded Reload
	add	sp, sp, #32
	ret
	.cfi_endproc
                                        ; -- End function
	.private_extern	__ZNSt3__19allocatorIxEC2B8ne200100Ev ; -- Begin function _ZNSt3__19allocatorIxEC2B8ne200100Ev
	.globl	__ZNSt3__19allocatorIxEC2B8ne200100Ev
	.weak_def_can_be_hidden	__ZNSt3__19allocatorIxEC2B8ne200100Ev
	.p2align	2
__ZNSt3__19allocatorIxEC2B8ne200100Ev:  ; @_ZNSt3__19allocatorIxEC2B8ne200100Ev
	.cfi_startproc
; %bb.0:
	sub	sp, sp, #32
	stp	x29, x30, [sp, #16]             ; 16-byte Folded Spill
	add	x29, sp, #16
	.cfi_def_cfa w29, 16
	.cfi_offset w30, -8
	.cfi_offset w29, -16
	str	x0, [sp, #8]
	ldr	x0, [sp, #8]
	str	x0, [sp]                        ; 8-byte Folded Spill
	bl	__ZNSt3__116__non_trivial_ifILb1ENS_9allocatorIxEEEC2B8ne200100Ev
	ldr	x0, [sp]                        ; 8-byte Folded Reload
	ldp	x29, x30, [sp, #16]             ; 16-byte Folded Reload
	add	sp, sp, #32
	ret
	.cfi_endproc
                                        ; -- End function
	.private_extern	__ZNSt3__116__non_trivial_ifILb1ENS_9allocatorIxEEEC2B8ne200100Ev ; -- Begin function _ZNSt3__116__non_trivial_ifILb1ENS_9allocatorIxEEEC2B8ne200100Ev
	.globl	__ZNSt3__116__non_trivial_ifILb1ENS_9allocatorIxEEEC2B8ne200100Ev
	.weak_def_can_be_hidden	__ZNSt3__116__non_trivial_ifILb1ENS_9allocatorIxEEEC2B8ne200100Ev
	.p2align	2
__ZNSt3__116__non_trivial_ifILb1ENS_9allocatorIxEEEC2B8ne200100Ev: ; @_ZNSt3__116__non_trivial_ifILb1ENS_9allocatorIxEEEC2B8ne200100Ev
	.cfi_startproc
; %bb.0:
	sub	sp, sp, #16
	.cfi_def_cfa_offset 16
	str	x0, [sp, #8]
	ldr	x0, [sp, #8]
	add	sp, sp, #16
	ret
	.cfi_endproc
                                        ; -- End function
	.private_extern	__ZNSt3__16vectorIxNS_9allocatorIxEEED2B8ne200100Ev ; -- Begin function _ZNSt3__16vectorIxNS_9allocatorIxEEED2B8ne200100Ev
	.globl	__ZNSt3__16vectorIxNS_9allocatorIxEEED2B8ne200100Ev
	.weak_def_can_be_hidden	__ZNSt3__16vectorIxNS_9allocatorIxEEED2B8ne200100Ev
	.p2align	2
__ZNSt3__16vectorIxNS_9allocatorIxEEED2B8ne200100Ev: ; @_ZNSt3__16vectorIxNS_9allocatorIxEEED2B8ne200100Ev
Lfunc_begin8:
	.cfi_startproc
	.cfi_personality 155, ___gxx_personality_v0
	.cfi_lsda 16, Lexception8
; %bb.0:
	sub	sp, sp, #48
	stp	x29, x30, [sp, #32]             ; 16-byte Folded Spill
	add	x29, sp, #32
	.cfi_def_cfa w29, 16
	.cfi_offset w30, -8
	.cfi_offset w29, -16
	stur	x0, [x29, #-8]
	ldur	x1, [x29, #-8]
	str	x1, [sp, #8]                    ; 8-byte Folded Spill
Ltmp306:
	add	x0, sp, #16
	bl	__ZNSt3__16vectorIxNS_9allocatorIxEEE16__destroy_vectorC1B8ne200100ERS3_
Ltmp307:
	b	LBB99_1
LBB99_1:
Ltmp308:
	add	x0, sp, #16
	bl	__ZNSt3__16vectorIxNS_9allocatorIxEEE16__destroy_vectorclB8ne200100Ev
Ltmp309:
	b	LBB99_2
LBB99_2:
	ldr	x0, [sp, #8]                    ; 8-byte Folded Reload
	ldp	x29, x30, [sp, #32]             ; 16-byte Folded Reload
	add	sp, sp, #48
	ret
LBB99_3:
Ltmp310:
	bl	___clang_call_terminate
Lfunc_end8:
	.cfi_endproc
	.section	__TEXT,__gcc_except_tab
	.p2align	2, 0x0
GCC_except_table99:
Lexception8:
	.byte	255                             ; @LPStart Encoding = omit
	.byte	155                             ; @TType Encoding = indirect pcrel sdata4
	.uleb128 Lttbase2-Lttbaseref2
Lttbaseref2:
	.byte	1                               ; Call site Encoding = uleb128
	.uleb128 Lcst_end8-Lcst_begin8
Lcst_begin8:
	.uleb128 Ltmp306-Lfunc_begin8           ; >> Call Site 1 <<
	.uleb128 Ltmp309-Ltmp306                ;   Call between Ltmp306 and Ltmp309
	.uleb128 Ltmp310-Lfunc_begin8           ;     jumps to Ltmp310
	.byte	1                               ;   On action: 1
Lcst_end8:
	.byte	1                               ; >> Action Record 1 <<
                                        ;   Catch TypeInfo 1
	.byte	0                               ;   No further actions
	.p2align	2, 0x0
                                        ; >> Catch TypeInfos <<
	.long	0                               ; TypeInfo 1
Lttbase2:
	.p2align	2, 0x0
                                        ; -- End function
	.section	__TEXT,__text,regular,pure_instructions
	.private_extern	__ZNSt3__16vectorIxNS_9allocatorIxEEE16__destroy_vectorC1B8ne200100ERS3_ ; -- Begin function _ZNSt3__16vectorIxNS_9allocatorIxEEE16__destroy_vectorC1B8ne200100ERS3_
	.globl	__ZNSt3__16vectorIxNS_9allocatorIxEEE16__destroy_vectorC1B8ne200100ERS3_
	.weak_def_can_be_hidden	__ZNSt3__16vectorIxNS_9allocatorIxEEE16__destroy_vectorC1B8ne200100ERS3_
	.p2align	2
__ZNSt3__16vectorIxNS_9allocatorIxEEE16__destroy_vectorC1B8ne200100ERS3_: ; @_ZNSt3__16vectorIxNS_9allocatorIxEEE16__destroy_vectorC1B8ne200100ERS3_
	.cfi_startproc
; %bb.0:
	sub	sp, sp, #48
	stp	x29, x30, [sp, #32]             ; 16-byte Folded Spill
	add	x29, sp, #32
	.cfi_def_cfa w29, 16
	.cfi_offset w30, -8
	.cfi_offset w29, -16
	stur	x0, [x29, #-8]
	str	x1, [sp, #16]
	ldur	x0, [x29, #-8]
	str	x0, [sp, #8]                    ; 8-byte Folded Spill
	ldr	x1, [sp, #16]
	bl	__ZNSt3__16vectorIxNS_9allocatorIxEEE16__destroy_vectorC2B8ne200100ERS3_
	ldr	x0, [sp, #8]                    ; 8-byte Folded Reload
	ldp	x29, x30, [sp, #32]             ; 16-byte Folded Reload
	add	sp, sp, #48
	ret
	.cfi_endproc
                                        ; -- End function
	.private_extern	__ZNSt3__16vectorIxNS_9allocatorIxEEE16__destroy_vectorclB8ne200100Ev ; -- Begin function _ZNSt3__16vectorIxNS_9allocatorIxEEE16__destroy_vectorclB8ne200100Ev
	.globl	__ZNSt3__16vectorIxNS_9allocatorIxEEE16__destroy_vectorclB8ne200100Ev
	.weak_definition	__ZNSt3__16vectorIxNS_9allocatorIxEEE16__destroy_vectorclB8ne200100Ev
	.p2align	2
__ZNSt3__16vectorIxNS_9allocatorIxEEE16__destroy_vectorclB8ne200100Ev: ; @_ZNSt3__16vectorIxNS_9allocatorIxEEE16__destroy_vectorclB8ne200100Ev
	.cfi_startproc
; %bb.0:
	sub	sp, sp, #48
	stp	x29, x30, [sp, #32]             ; 16-byte Folded Spill
	add	x29, sp, #32
	.cfi_def_cfa w29, 16
	.cfi_offset w30, -8
	.cfi_offset w29, -16
	stur	x0, [x29, #-8]
	ldur	x8, [x29, #-8]
	str	x8, [sp, #16]                   ; 8-byte Folded Spill
	ldr	x8, [x8]
	ldr	x8, [x8]
	cbz	x8, LBB101_2
	b	LBB101_1
LBB101_1:
	ldr	x8, [sp, #16]                   ; 8-byte Folded Reload
	ldr	x0, [x8]
	bl	__ZNSt3__16vectorIxNS_9allocatorIxEEE5clearB8ne200100Ev
	ldr	x8, [sp, #16]                   ; 8-byte Folded Reload
	ldr	x0, [x8]
	bl	__ZNKSt3__16vectorIxNS_9allocatorIxEEE17__annotate_deleteB8ne200100Ev
	ldr	x8, [sp, #16]                   ; 8-byte Folded Reload
	ldr	x9, [x8]
	add	x9, x9, #16
	str	x9, [sp, #8]                    ; 8-byte Folded Spill
	ldr	x9, [x8]
	ldr	x9, [x9]
	str	x9, [sp]                        ; 8-byte Folded Spill
	ldr	x0, [x8]
	bl	__ZNKSt3__16vectorIxNS_9allocatorIxEEE8capacityB8ne200100Ev
	ldr	x1, [sp]                        ; 8-byte Folded Reload
	mov	x2, x0
	ldr	x0, [sp, #8]                    ; 8-byte Folded Reload
	bl	__ZNSt3__116allocator_traitsINS_9allocatorIxEEE10deallocateB8ne200100ERS2_Pxm
	b	LBB101_2
LBB101_2:
	ldp	x29, x30, [sp, #32]             ; 16-byte Folded Reload
	add	sp, sp, #48
	ret
	.cfi_endproc
                                        ; -- End function
	.private_extern	__ZNSt3__16vectorIxNS_9allocatorIxEEE16__destroy_vectorC2B8ne200100ERS3_ ; -- Begin function _ZNSt3__16vectorIxNS_9allocatorIxEEE16__destroy_vectorC2B8ne200100ERS3_
	.globl	__ZNSt3__16vectorIxNS_9allocatorIxEEE16__destroy_vectorC2B8ne200100ERS3_
	.weak_def_can_be_hidden	__ZNSt3__16vectorIxNS_9allocatorIxEEE16__destroy_vectorC2B8ne200100ERS3_
	.p2align	2
__ZNSt3__16vectorIxNS_9allocatorIxEEE16__destroy_vectorC2B8ne200100ERS3_: ; @_ZNSt3__16vectorIxNS_9allocatorIxEEE16__destroy_vectorC2B8ne200100ERS3_
	.cfi_startproc
; %bb.0:
	sub	sp, sp, #16
	.cfi_def_cfa_offset 16
	str	x0, [sp, #8]
	str	x1, [sp]
	ldr	x0, [sp, #8]
	ldr	x8, [sp]
	str	x8, [x0]
	add	sp, sp, #16
	ret
	.cfi_endproc
                                        ; -- End function
	.private_extern	__ZNSt3__16vectorIxNS_9allocatorIxEEE5clearB8ne200100Ev ; -- Begin function _ZNSt3__16vectorIxNS_9allocatorIxEEE5clearB8ne200100Ev
	.globl	__ZNSt3__16vectorIxNS_9allocatorIxEEE5clearB8ne200100Ev
	.weak_definition	__ZNSt3__16vectorIxNS_9allocatorIxEEE5clearB8ne200100Ev
	.p2align	2
__ZNSt3__16vectorIxNS_9allocatorIxEEE5clearB8ne200100Ev: ; @_ZNSt3__16vectorIxNS_9allocatorIxEEE5clearB8ne200100Ev
	.cfi_startproc
; %bb.0:
	sub	sp, sp, #48
	stp	x29, x30, [sp, #32]             ; 16-byte Folded Spill
	add	x29, sp, #32
	.cfi_def_cfa w29, 16
	.cfi_offset w30, -8
	.cfi_offset w29, -16
	stur	x0, [x29, #-8]
	ldur	x0, [x29, #-8]
	str	x0, [sp, #8]                    ; 8-byte Folded Spill
	bl	__ZNKSt3__16vectorIxNS_9allocatorIxEEE4sizeB8ne200100Ev
	mov	x8, x0
	ldr	x0, [sp, #8]                    ; 8-byte Folded Reload
	str	x8, [sp, #16]
	ldr	x1, [x0]
	bl	__ZNSt3__16vectorIxNS_9allocatorIxEEE22__base_destruct_at_endB8ne200100EPx
	ldr	x0, [sp, #8]                    ; 8-byte Folded Reload
	ldr	x1, [sp, #16]
	bl	__ZNKSt3__16vectorIxNS_9allocatorIxEEE17__annotate_shrinkB8ne200100Em
	ldp	x29, x30, [sp, #32]             ; 16-byte Folded Reload
	add	sp, sp, #48
	ret
	.cfi_endproc
                                        ; -- End function
	.private_extern	__ZNKSt3__16vectorIxNS_9allocatorIxEEE17__annotate_deleteB8ne200100Ev ; -- Begin function _ZNKSt3__16vectorIxNS_9allocatorIxEEE17__annotate_deleteB8ne200100Ev
	.globl	__ZNKSt3__16vectorIxNS_9allocatorIxEEE17__annotate_deleteB8ne200100Ev
	.weak_definition	__ZNKSt3__16vectorIxNS_9allocatorIxEEE17__annotate_deleteB8ne200100Ev
	.p2align	2
__ZNKSt3__16vectorIxNS_9allocatorIxEEE17__annotate_deleteB8ne200100Ev: ; @_ZNKSt3__16vectorIxNS_9allocatorIxEEE17__annotate_deleteB8ne200100Ev
	.cfi_startproc
; %bb.0:
	sub	sp, sp, #16
	.cfi_def_cfa_offset 16
	str	x0, [sp, #8]
	add	sp, sp, #16
	ret
	.cfi_endproc
                                        ; -- End function
	.private_extern	__ZNSt3__116allocator_traitsINS_9allocatorIxEEE10deallocateB8ne200100ERS2_Pxm ; -- Begin function _ZNSt3__116allocator_traitsINS_9allocatorIxEEE10deallocateB8ne200100ERS2_Pxm
	.globl	__ZNSt3__116allocator_traitsINS_9allocatorIxEEE10deallocateB8ne200100ERS2_Pxm
	.weak_definition	__ZNSt3__116allocator_traitsINS_9allocatorIxEEE10deallocateB8ne200100ERS2_Pxm
	.p2align	2
__ZNSt3__116allocator_traitsINS_9allocatorIxEEE10deallocateB8ne200100ERS2_Pxm: ; @_ZNSt3__116allocator_traitsINS_9allocatorIxEEE10deallocateB8ne200100ERS2_Pxm
	.cfi_startproc
; %bb.0:
	sub	sp, sp, #48
	stp	x29, x30, [sp, #32]             ; 16-byte Folded Spill
	add	x29, sp, #32
	.cfi_def_cfa w29, 16
	.cfi_offset w30, -8
	.cfi_offset w29, -16
	stur	x0, [x29, #-8]
	str	x1, [sp, #16]
	str	x2, [sp, #8]
	ldur	x0, [x29, #-8]
	ldr	x1, [sp, #16]
	ldr	x2, [sp, #8]
	bl	__ZNSt3__19allocatorIxE10deallocateB8ne200100EPxm
	ldp	x29, x30, [sp, #32]             ; 16-byte Folded Reload
	add	sp, sp, #48
	ret
	.cfi_endproc
                                        ; -- End function
	.private_extern	__ZNKSt3__16vectorIxNS_9allocatorIxEEE8capacityB8ne200100Ev ; -- Begin function _ZNKSt3__16vectorIxNS_9allocatorIxEEE8capacityB8ne200100Ev
	.globl	__ZNKSt3__16vectorIxNS_9allocatorIxEEE8capacityB8ne200100Ev
	.weak_definition	__ZNKSt3__16vectorIxNS_9allocatorIxEEE8capacityB8ne200100Ev
	.p2align	2
__ZNKSt3__16vectorIxNS_9allocatorIxEEE8capacityB8ne200100Ev: ; @_ZNKSt3__16vectorIxNS_9allocatorIxEEE8capacityB8ne200100Ev
	.cfi_startproc
; %bb.0:
	sub	sp, sp, #16
	.cfi_def_cfa_offset 16
	str	x0, [sp, #8]
	ldr	x9, [sp, #8]
	ldr	x8, [x9, #16]
	ldr	x9, [x9]
	subs	x8, x8, x9
	mov	x9, #8                          ; =0x8
	sdiv	x0, x8, x9
	add	sp, sp, #16
	ret
	.cfi_endproc
                                        ; -- End function
	.private_extern	__ZNSt3__16vectorIxNS_9allocatorIxEEE22__base_destruct_at_endB8ne200100EPx ; -- Begin function _ZNSt3__16vectorIxNS_9allocatorIxEEE22__base_destruct_at_endB8ne200100EPx
	.globl	__ZNSt3__16vectorIxNS_9allocatorIxEEE22__base_destruct_at_endB8ne200100EPx
	.weak_definition	__ZNSt3__16vectorIxNS_9allocatorIxEEE22__base_destruct_at_endB8ne200100EPx
	.p2align	2
__ZNSt3__16vectorIxNS_9allocatorIxEEE22__base_destruct_at_endB8ne200100EPx: ; @_ZNSt3__16vectorIxNS_9allocatorIxEEE22__base_destruct_at_endB8ne200100EPx
Lfunc_begin9:
	.cfi_startproc
	.cfi_personality 155, ___gxx_personality_v0
	.cfi_lsda 16, Lexception9
; %bb.0:
	sub	sp, sp, #64
	stp	x29, x30, [sp, #48]             ; 16-byte Folded Spill
	add	x29, sp, #48
	.cfi_def_cfa w29, 16
	.cfi_offset w30, -8
	.cfi_offset w29, -16
	stur	x0, [x29, #-8]
	stur	x1, [x29, #-16]
	ldur	x8, [x29, #-8]
	str	x8, [sp, #16]                   ; 8-byte Folded Spill
	ldr	x8, [x8, #8]
	str	x8, [sp, #24]
	b	LBB107_1
LBB107_1:                               ; =>This Inner Loop Header: Depth=1
	ldur	x8, [x29, #-16]
	ldr	x9, [sp, #24]
	subs	x8, x8, x9
	b.eq	LBB107_4
	b	LBB107_2
LBB107_2:                               ;   in Loop: Header=BB107_1 Depth=1
	ldr	x8, [sp, #16]                   ; 8-byte Folded Reload
	add	x8, x8, #16
	str	x8, [sp, #8]                    ; 8-byte Folded Spill
	ldr	x8, [sp, #24]
	subs	x0, x8, #8
	str	x0, [sp, #24]
	bl	__ZNSt3__112__to_addressB8ne200100IxEEPT_S2_
	mov	x1, x0
	ldr	x0, [sp, #8]                    ; 8-byte Folded Reload
Ltmp314:
	bl	__ZNSt3__116allocator_traitsINS_9allocatorIxEEE7destroyB8ne200100IxLi0EEEvRS2_PT_
Ltmp315:
	b	LBB107_3
LBB107_3:                               ;   in Loop: Header=BB107_1 Depth=1
	b	LBB107_1
LBB107_4:
	ldr	x9, [sp, #16]                   ; 8-byte Folded Reload
	ldur	x8, [x29, #-16]
	str	x8, [x9, #8]
	ldp	x29, x30, [sp, #48]             ; 16-byte Folded Reload
	add	sp, sp, #64
	ret
LBB107_5:
Ltmp316:
	bl	___clang_call_terminate
Lfunc_end9:
	.cfi_endproc
	.section	__TEXT,__gcc_except_tab
	.p2align	2, 0x0
GCC_except_table107:
Lexception9:
	.byte	255                             ; @LPStart Encoding = omit
	.byte	155                             ; @TType Encoding = indirect pcrel sdata4
	.uleb128 Lttbase3-Lttbaseref3
Lttbaseref3:
	.byte	1                               ; Call site Encoding = uleb128
	.uleb128 Lcst_end9-Lcst_begin9
Lcst_begin9:
	.uleb128 Ltmp314-Lfunc_begin9           ; >> Call Site 1 <<
	.uleb128 Ltmp315-Ltmp314                ;   Call between Ltmp314 and Ltmp315
	.uleb128 Ltmp316-Lfunc_begin9           ;     jumps to Ltmp316
	.byte	1                               ;   On action: 1
Lcst_end9:
	.byte	1                               ; >> Action Record 1 <<
                                        ;   Catch TypeInfo 1
	.byte	0                               ;   No further actions
	.p2align	2, 0x0
                                        ; >> Catch TypeInfos <<
	.long	0                               ; TypeInfo 1
Lttbase3:
	.p2align	2, 0x0
                                        ; -- End function
	.section	__TEXT,__text,regular,pure_instructions
	.private_extern	__ZNKSt3__16vectorIxNS_9allocatorIxEEE17__annotate_shrinkB8ne200100Em ; -- Begin function _ZNKSt3__16vectorIxNS_9allocatorIxEEE17__annotate_shrinkB8ne200100Em
	.globl	__ZNKSt3__16vectorIxNS_9allocatorIxEEE17__annotate_shrinkB8ne200100Em
	.weak_definition	__ZNKSt3__16vectorIxNS_9allocatorIxEEE17__annotate_shrinkB8ne200100Em
	.p2align	2
__ZNKSt3__16vectorIxNS_9allocatorIxEEE17__annotate_shrinkB8ne200100Em: ; @_ZNKSt3__16vectorIxNS_9allocatorIxEEE17__annotate_shrinkB8ne200100Em
	.cfi_startproc
; %bb.0:
	sub	sp, sp, #16
	.cfi_def_cfa_offset 16
	str	x0, [sp, #8]
	str	x1, [sp]
	add	sp, sp, #16
	ret
	.cfi_endproc
                                        ; -- End function
	.globl	__ZNSt3__116allocator_traitsINS_9allocatorIxEEE7destroyB8ne200100IxLi0EEEvRS2_PT_ ; -- Begin function _ZNSt3__116allocator_traitsINS_9allocatorIxEEE7destroyB8ne200100IxLi0EEEvRS2_PT_
	.weak_definition	__ZNSt3__116allocator_traitsINS_9allocatorIxEEE7destroyB8ne200100IxLi0EEEvRS2_PT_
	.p2align	2
__ZNSt3__116allocator_traitsINS_9allocatorIxEEE7destroyB8ne200100IxLi0EEEvRS2_PT_: ; @_ZNSt3__116allocator_traitsINS_9allocatorIxEEE7destroyB8ne200100IxLi0EEEvRS2_PT_
	.cfi_startproc
; %bb.0:
	sub	sp, sp, #32
	stp	x29, x30, [sp, #16]             ; 16-byte Folded Spill
	add	x29, sp, #16
	.cfi_def_cfa w29, 16
	.cfi_offset w30, -8
	.cfi_offset w29, -16
	str	x0, [sp, #8]
	str	x1, [sp]
	ldr	x0, [sp, #8]
	ldr	x1, [sp]
	bl	__ZNSt3__19allocatorIxE7destroyB8ne200100EPx
	ldp	x29, x30, [sp, #16]             ; 16-byte Folded Reload
	add	sp, sp, #32
	ret
	.cfi_endproc
                                        ; -- End function
	.private_extern	__ZNSt3__112__to_addressB8ne200100IxEEPT_S2_ ; -- Begin function _ZNSt3__112__to_addressB8ne200100IxEEPT_S2_
	.globl	__ZNSt3__112__to_addressB8ne200100IxEEPT_S2_
	.weak_definition	__ZNSt3__112__to_addressB8ne200100IxEEPT_S2_
	.p2align	2
__ZNSt3__112__to_addressB8ne200100IxEEPT_S2_: ; @_ZNSt3__112__to_addressB8ne200100IxEEPT_S2_
	.cfi_startproc
; %bb.0:
	sub	sp, sp, #16
	.cfi_def_cfa_offset 16
	str	x0, [sp, #8]
	ldr	x0, [sp, #8]
	add	sp, sp, #16
	ret
	.cfi_endproc
                                        ; -- End function
	.private_extern	__ZNSt3__19allocatorIxE7destroyB8ne200100EPx ; -- Begin function _ZNSt3__19allocatorIxE7destroyB8ne200100EPx
	.globl	__ZNSt3__19allocatorIxE7destroyB8ne200100EPx
	.weak_definition	__ZNSt3__19allocatorIxE7destroyB8ne200100EPx
	.p2align	2
__ZNSt3__19allocatorIxE7destroyB8ne200100EPx: ; @_ZNSt3__19allocatorIxE7destroyB8ne200100EPx
	.cfi_startproc
; %bb.0:
	sub	sp, sp, #16
	.cfi_def_cfa_offset 16
	str	x0, [sp, #8]
	str	x1, [sp]
	add	sp, sp, #16
	ret
	.cfi_endproc
                                        ; -- End function
	.private_extern	__ZNSt3__19allocatorIxE10deallocateB8ne200100EPxm ; -- Begin function _ZNSt3__19allocatorIxE10deallocateB8ne200100EPxm
	.globl	__ZNSt3__19allocatorIxE10deallocateB8ne200100EPxm
	.weak_definition	__ZNSt3__19allocatorIxE10deallocateB8ne200100EPxm
	.p2align	2
__ZNSt3__19allocatorIxE10deallocateB8ne200100EPxm: ; @_ZNSt3__19allocatorIxE10deallocateB8ne200100EPxm
	.cfi_startproc
; %bb.0:
	sub	sp, sp, #48
	stp	x29, x30, [sp, #32]             ; 16-byte Folded Spill
	add	x29, sp, #32
	.cfi_def_cfa w29, 16
	.cfi_offset w30, -8
	.cfi_offset w29, -16
	stur	x0, [x29, #-8]
	str	x1, [sp, #16]
	str	x2, [sp, #8]
	ldr	x0, [sp, #16]
	ldr	x1, [sp, #8]
	mov	x2, #8                          ; =0x8
	bl	__ZNSt3__119__libcpp_deallocateB8ne200100IxEEvPNS_15__type_identityIT_E4typeENS_15__element_countEm
	ldp	x29, x30, [sp, #32]             ; 16-byte Folded Reload
	add	sp, sp, #48
	ret
	.cfi_endproc
                                        ; -- End function
	.private_extern	__ZNSt3__119__libcpp_deallocateB8ne200100IxEEvPNS_15__type_identityIT_E4typeENS_15__element_countEm ; -- Begin function _ZNSt3__119__libcpp_deallocateB8ne200100IxEEvPNS_15__type_identityIT_E4typeENS_15__element_countEm
	.globl	__ZNSt3__119__libcpp_deallocateB8ne200100IxEEvPNS_15__type_identityIT_E4typeENS_15__element_countEm
	.weak_definition	__ZNSt3__119__libcpp_deallocateB8ne200100IxEEvPNS_15__type_identityIT_E4typeENS_15__element_countEm
	.p2align	2
__ZNSt3__119__libcpp_deallocateB8ne200100IxEEvPNS_15__type_identityIT_E4typeENS_15__element_countEm: ; @_ZNSt3__119__libcpp_deallocateB8ne200100IxEEvPNS_15__type_identityIT_E4typeENS_15__element_countEm
	.cfi_startproc
; %bb.0:
	sub	sp, sp, #48
	stp	x29, x30, [sp, #32]             ; 16-byte Folded Spill
	add	x29, sp, #32
	.cfi_def_cfa w29, 16
	.cfi_offset w30, -8
	.cfi_offset w29, -16
	stur	x0, [x29, #-8]
	str	x1, [sp, #16]
	str	x2, [sp, #8]
	ldr	x8, [sp, #16]
	lsl	x8, x8, #3
	str	x8, [sp]
	ldur	x0, [x29, #-8]
	bl	__ZNSt3__124__libcpp_operator_deleteB8ne200100IJPxEEEvDpT_
	ldp	x29, x30, [sp, #32]             ; 16-byte Folded Reload
	add	sp, sp, #48
	ret
	.cfi_endproc
                                        ; -- End function
	.private_extern	__ZNSt3__124__libcpp_operator_deleteB8ne200100IJPxEEEvDpT_ ; -- Begin function _ZNSt3__124__libcpp_operator_deleteB8ne200100IJPxEEEvDpT_
	.globl	__ZNSt3__124__libcpp_operator_deleteB8ne200100IJPxEEEvDpT_
	.weak_definition	__ZNSt3__124__libcpp_operator_deleteB8ne200100IJPxEEEvDpT_
	.p2align	2
__ZNSt3__124__libcpp_operator_deleteB8ne200100IJPxEEEvDpT_: ; @_ZNSt3__124__libcpp_operator_deleteB8ne200100IJPxEEEvDpT_
	.cfi_startproc
; %bb.0:
	sub	sp, sp, #32
	stp	x29, x30, [sp, #16]             ; 16-byte Folded Spill
	add	x29, sp, #16
	.cfi_def_cfa w29, 16
	.cfi_offset w30, -8
	.cfi_offset w29, -16
	str	x0, [sp, #8]
	ldr	x0, [sp, #8]
	bl	__ZdlPv
	ldp	x29, x30, [sp, #16]             ; 16-byte Folded Reload
	add	sp, sp, #32
	ret
	.cfi_endproc
                                        ; -- End function
	.globl	__ZNSt3__16vectorIxNS_9allocatorIxEEE12emplace_backIJxEEEvDpOT_ ; -- Begin function _ZNSt3__16vectorIxNS_9allocatorIxEEE12emplace_backIJxEEEvDpOT_
	.weak_definition	__ZNSt3__16vectorIxNS_9allocatorIxEEE12emplace_backIJxEEEvDpOT_
	.p2align	2
__ZNSt3__16vectorIxNS_9allocatorIxEEE12emplace_backIJxEEEvDpOT_: ; @_ZNSt3__16vectorIxNS_9allocatorIxEEE12emplace_backIJxEEEvDpOT_
	.cfi_startproc
; %bb.0:
	sub	sp, sp, #48
	stp	x29, x30, [sp, #32]             ; 16-byte Folded Spill
	add	x29, sp, #32
	.cfi_def_cfa w29, 16
	.cfi_offset w30, -8
	.cfi_offset w29, -16
	stur	x0, [x29, #-8]
	str	x1, [sp, #16]
	ldur	x9, [x29, #-8]
	str	x9, [sp]                        ; 8-byte Folded Spill
	ldr	x8, [x9, #8]
	str	x8, [sp, #8]
	ldr	x8, [sp, #8]
	ldr	x9, [x9, #16]
	subs	x8, x8, x9
	b.hs	LBB115_2
	b	LBB115_1
LBB115_1:
	ldr	x0, [sp]                        ; 8-byte Folded Reload
	ldr	x1, [sp, #16]
	bl	__ZNSt3__16vectorIxNS_9allocatorIxEEE22__construct_one_at_endB8ne200100IJxEEEvDpOT_
	ldr	x8, [sp, #8]
	add	x8, x8, #8
	str	x8, [sp, #8]
	b	LBB115_3
LBB115_2:
	ldr	x0, [sp]                        ; 8-byte Folded Reload
	ldr	x1, [sp, #16]
	bl	__ZNSt3__16vectorIxNS_9allocatorIxEEE24__emplace_back_slow_pathIJxEEEPxDpOT_
	str	x0, [sp, #8]
	b	LBB115_3
LBB115_3:
	ldr	x9, [sp]                        ; 8-byte Folded Reload
	ldr	x8, [sp, #8]
	str	x8, [x9, #8]
	ldp	x29, x30, [sp, #32]             ; 16-byte Folded Reload
	add	sp, sp, #48
	ret
	.cfi_endproc
                                        ; -- End function
	.globl	__ZNSt3__16vectorIxNS_9allocatorIxEEE22__construct_one_at_endB8ne200100IJxEEEvDpOT_ ; -- Begin function _ZNSt3__16vectorIxNS_9allocatorIxEEE22__construct_one_at_endB8ne200100IJxEEEvDpOT_
	.weak_definition	__ZNSt3__16vectorIxNS_9allocatorIxEEE22__construct_one_at_endB8ne200100IJxEEEvDpOT_
	.p2align	2
__ZNSt3__16vectorIxNS_9allocatorIxEEE22__construct_one_at_endB8ne200100IJxEEEvDpOT_: ; @_ZNSt3__16vectorIxNS_9allocatorIxEEE22__construct_one_at_endB8ne200100IJxEEEvDpOT_
Lfunc_begin10:
	.cfi_startproc
	.cfi_personality 155, ___gxx_personality_v0
	.cfi_lsda 16, Lexception10
; %bb.0:
	sub	sp, sp, #80
	stp	x29, x30, [sp, #64]             ; 16-byte Folded Spill
	add	x29, sp, #64
	.cfi_def_cfa w29, 16
	.cfi_offset w30, -8
	.cfi_offset w29, -16
	stur	x0, [x29, #-8]
	stur	x1, [x29, #-16]
	ldur	x1, [x29, #-8]
	str	x1, [sp]                        ; 8-byte Folded Spill
	add	x0, sp, #24
	mov	x2, #1                          ; =0x1
	bl	__ZNSt3__16vectorIxNS_9allocatorIxEEE21_ConstructTransactionC1B8ne200100ERS3_m
	ldr	x0, [sp, #32]
	bl	__ZNSt3__112__to_addressB8ne200100IxEEPT_S2_
	ldr	x8, [sp]                        ; 8-byte Folded Reload
	mov	x1, x0
	ldur	x2, [x29, #-16]
Ltmp320:
	add	x0, x8, #16
	bl	__ZNSt3__116allocator_traitsINS_9allocatorIxEEE9constructB8ne200100IxJxELi0EEEvRS2_PT_DpOT0_
Ltmp321:
	b	LBB116_1
LBB116_1:
	add	x0, sp, #24
	ldr	x8, [sp, #32]
	add	x8, x8, #8
	str	x8, [sp, #32]
	bl	__ZNSt3__16vectorIxNS_9allocatorIxEEE21_ConstructTransactionD1B8ne200100Ev
	ldp	x29, x30, [sp, #64]             ; 16-byte Folded Reload
	add	sp, sp, #80
	ret
LBB116_2:
Ltmp322:
	str	x0, [sp, #16]
	mov	x8, x1
	str	w8, [sp, #12]
	add	x0, sp, #24
	bl	__ZNSt3__16vectorIxNS_9allocatorIxEEE21_ConstructTransactionD1B8ne200100Ev
	b	LBB116_3
LBB116_3:
	ldr	x0, [sp, #16]
	bl	__Unwind_Resume
Lfunc_end10:
	.cfi_endproc
	.section	__TEXT,__gcc_except_tab
	.p2align	2, 0x0
GCC_except_table116:
Lexception10:
	.byte	255                             ; @LPStart Encoding = omit
	.byte	255                             ; @TType Encoding = omit
	.byte	1                               ; Call site Encoding = uleb128
	.uleb128 Lcst_end10-Lcst_begin10
Lcst_begin10:
	.uleb128 Lfunc_begin10-Lfunc_begin10    ; >> Call Site 1 <<
	.uleb128 Ltmp320-Lfunc_begin10          ;   Call between Lfunc_begin10 and Ltmp320
	.byte	0                               ;     has no landing pad
	.byte	0                               ;   On action: cleanup
	.uleb128 Ltmp320-Lfunc_begin10          ; >> Call Site 2 <<
	.uleb128 Ltmp321-Ltmp320                ;   Call between Ltmp320 and Ltmp321
	.uleb128 Ltmp322-Lfunc_begin10          ;     jumps to Ltmp322
	.byte	0                               ;   On action: cleanup
	.uleb128 Ltmp321-Lfunc_begin10          ; >> Call Site 3 <<
	.uleb128 Lfunc_end10-Ltmp321            ;   Call between Ltmp321 and Lfunc_end10
	.byte	0                               ;     has no landing pad
	.byte	0                               ;   On action: cleanup
Lcst_end10:
	.p2align	2, 0x0
                                        ; -- End function
	.section	__TEXT,__text,regular,pure_instructions
	.globl	__ZNSt3__16vectorIxNS_9allocatorIxEEE24__emplace_back_slow_pathIJxEEEPxDpOT_ ; -- Begin function _ZNSt3__16vectorIxNS_9allocatorIxEEE24__emplace_back_slow_pathIJxEEEPxDpOT_
	.weak_definition	__ZNSt3__16vectorIxNS_9allocatorIxEEE24__emplace_back_slow_pathIJxEEEPxDpOT_
	.p2align	2
__ZNSt3__16vectorIxNS_9allocatorIxEEE24__emplace_back_slow_pathIJxEEEPxDpOT_: ; @_ZNSt3__16vectorIxNS_9allocatorIxEEE24__emplace_back_slow_pathIJxEEEPxDpOT_
Lfunc_begin11:
	.cfi_startproc
	.cfi_personality 155, ___gxx_personality_v0
	.cfi_lsda 16, Lexception11
; %bb.0:
	sub	sp, sp, #112
	stp	x29, x30, [sp, #96]             ; 16-byte Folded Spill
	add	x29, sp, #96
	.cfi_def_cfa w29, 16
	.cfi_offset w30, -8
	.cfi_offset w29, -16
	stur	x0, [x29, #-8]
	stur	x1, [x29, #-16]
	ldur	x0, [x29, #-8]
	str	x0, [sp, #16]                   ; 8-byte Folded Spill
	bl	__ZNKSt3__16vectorIxNS_9allocatorIxEEE4sizeB8ne200100Ev
	mov	x8, x0
	ldr	x0, [sp, #16]                   ; 8-byte Folded Reload
	add	x1, x8, #1
	bl	__ZNKSt3__16vectorIxNS_9allocatorIxEEE11__recommendB8ne200100Em
	mov	x1, x0
	ldr	x0, [sp, #16]                   ; 8-byte Folded Reload
	str	x1, [sp, #8]                    ; 8-byte Folded Spill
	bl	__ZNKSt3__16vectorIxNS_9allocatorIxEEE4sizeB8ne200100Ev
	ldr	x1, [sp, #8]                    ; 8-byte Folded Reload
	ldr	x8, [sp, #16]                   ; 8-byte Folded Reload
	mov	x2, x0
	add	x0, sp, #40
	add	x3, x8, #16
	bl	__ZNSt3__114__split_bufferIxRNS_9allocatorIxEEEC1EmmS3_
	ldr	x0, [sp, #56]
	bl	__ZNSt3__112__to_addressB8ne200100IxEEPT_S2_
	ldr	x8, [sp, #16]                   ; 8-byte Folded Reload
	mov	x1, x0
	ldur	x2, [x29, #-16]
Ltmp323:
	add	x0, x8, #16
	bl	__ZNSt3__116allocator_traitsINS_9allocatorIxEEE9constructB8ne200100IxJxELi0EEEvRS2_PT_DpOT0_
Ltmp324:
	b	LBB117_1
LBB117_1:
	ldr	x0, [sp, #16]                   ; 8-byte Folded Reload
	add	x1, sp, #40
	ldr	x8, [sp, #56]
	add	x8, x8, #8
	str	x8, [sp, #56]
Ltmp325:
	bl	__ZNSt3__16vectorIxNS_9allocatorIxEEE26__swap_out_circular_bufferERNS_14__split_bufferIxRS2_EE
Ltmp326:
	b	LBB117_2
LBB117_2:
	ldr	x8, [sp, #16]                   ; 8-byte Folded Reload
	ldr	x8, [x8, #8]
	str	x8, [sp]                        ; 8-byte Folded Spill
	add	x0, sp, #40
	bl	__ZNSt3__114__split_bufferIxRNS_9allocatorIxEEED1Ev
	ldr	x0, [sp]                        ; 8-byte Folded Reload
	ldp	x29, x30, [sp, #96]             ; 16-byte Folded Reload
	add	sp, sp, #112
	ret
LBB117_3:
Ltmp327:
	str	x0, [sp, #32]
	mov	x8, x1
	str	w8, [sp, #28]
	add	x0, sp, #40
	bl	__ZNSt3__114__split_bufferIxRNS_9allocatorIxEEED1Ev
	b	LBB117_4
LBB117_4:
	ldr	x0, [sp, #32]
	bl	__Unwind_Resume
Lfunc_end11:
	.cfi_endproc
	.section	__TEXT,__gcc_except_tab
	.p2align	2, 0x0
GCC_except_table117:
Lexception11:
	.byte	255                             ; @LPStart Encoding = omit
	.byte	255                             ; @TType Encoding = omit
	.byte	1                               ; Call site Encoding = uleb128
	.uleb128 Lcst_end11-Lcst_begin11
Lcst_begin11:
	.uleb128 Lfunc_begin11-Lfunc_begin11    ; >> Call Site 1 <<
	.uleb128 Ltmp323-Lfunc_begin11          ;   Call between Lfunc_begin11 and Ltmp323
	.byte	0                               ;     has no landing pad
	.byte	0                               ;   On action: cleanup
	.uleb128 Ltmp323-Lfunc_begin11          ; >> Call Site 2 <<
	.uleb128 Ltmp326-Ltmp323                ;   Call between Ltmp323 and Ltmp326
	.uleb128 Ltmp327-Lfunc_begin11          ;     jumps to Ltmp327
	.byte	0                               ;   On action: cleanup
	.uleb128 Ltmp326-Lfunc_begin11          ; >> Call Site 3 <<
	.uleb128 Lfunc_end11-Ltmp326            ;   Call between Ltmp326 and Lfunc_end11
	.byte	0                               ;     has no landing pad
	.byte	0                               ;   On action: cleanup
Lcst_end11:
	.p2align	2, 0x0
                                        ; -- End function
	.section	__TEXT,__text,regular,pure_instructions
	.private_extern	__ZNSt3__16vectorIxNS_9allocatorIxEEE21_ConstructTransactionC1B8ne200100ERS3_m ; -- Begin function _ZNSt3__16vectorIxNS_9allocatorIxEEE21_ConstructTransactionC1B8ne200100ERS3_m
	.globl	__ZNSt3__16vectorIxNS_9allocatorIxEEE21_ConstructTransactionC1B8ne200100ERS3_m
	.weak_def_can_be_hidden	__ZNSt3__16vectorIxNS_9allocatorIxEEE21_ConstructTransactionC1B8ne200100ERS3_m
	.p2align	2
__ZNSt3__16vectorIxNS_9allocatorIxEEE21_ConstructTransactionC1B8ne200100ERS3_m: ; @_ZNSt3__16vectorIxNS_9allocatorIxEEE21_ConstructTransactionC1B8ne200100ERS3_m
	.cfi_startproc
; %bb.0:
	sub	sp, sp, #48
	stp	x29, x30, [sp, #32]             ; 16-byte Folded Spill
	add	x29, sp, #32
	.cfi_def_cfa w29, 16
	.cfi_offset w30, -8
	.cfi_offset w29, -16
	stur	x0, [x29, #-8]
	str	x1, [sp, #16]
	str	x2, [sp, #8]
	ldur	x0, [x29, #-8]
	str	x0, [sp]                        ; 8-byte Folded Spill
	ldr	x1, [sp, #16]
	ldr	x2, [sp, #8]
	bl	__ZNSt3__16vectorIxNS_9allocatorIxEEE21_ConstructTransactionC2B8ne200100ERS3_m
	ldr	x0, [sp]                        ; 8-byte Folded Reload
	ldp	x29, x30, [sp, #32]             ; 16-byte Folded Reload
	add	sp, sp, #48
	ret
	.cfi_endproc
                                        ; -- End function
	.globl	__ZNSt3__116allocator_traitsINS_9allocatorIxEEE9constructB8ne200100IxJxELi0EEEvRS2_PT_DpOT0_ ; -- Begin function _ZNSt3__116allocator_traitsINS_9allocatorIxEEE9constructB8ne200100IxJxELi0EEEvRS2_PT_DpOT0_
	.weak_definition	__ZNSt3__116allocator_traitsINS_9allocatorIxEEE9constructB8ne200100IxJxELi0EEEvRS2_PT_DpOT0_
	.p2align	2
__ZNSt3__116allocator_traitsINS_9allocatorIxEEE9constructB8ne200100IxJxELi0EEEvRS2_PT_DpOT0_: ; @_ZNSt3__116allocator_traitsINS_9allocatorIxEEE9constructB8ne200100IxJxELi0EEEvRS2_PT_DpOT0_
	.cfi_startproc
; %bb.0:
	sub	sp, sp, #48
	stp	x29, x30, [sp, #32]             ; 16-byte Folded Spill
	add	x29, sp, #32
	.cfi_def_cfa w29, 16
	.cfi_offset w30, -8
	.cfi_offset w29, -16
	stur	x0, [x29, #-8]
	str	x1, [sp, #16]
	str	x2, [sp, #8]
	ldur	x0, [x29, #-8]
	ldr	x1, [sp, #16]
	ldr	x2, [sp, #8]
	bl	__ZNSt3__19allocatorIxE9constructB8ne200100IxJxEEEvPT_DpOT0_
	ldp	x29, x30, [sp, #32]             ; 16-byte Folded Reload
	add	sp, sp, #48
	ret
	.cfi_endproc
                                        ; -- End function
	.private_extern	__ZNSt3__16vectorIxNS_9allocatorIxEEE21_ConstructTransactionD1B8ne200100Ev ; -- Begin function _ZNSt3__16vectorIxNS_9allocatorIxEEE21_ConstructTransactionD1B8ne200100Ev
	.globl	__ZNSt3__16vectorIxNS_9allocatorIxEEE21_ConstructTransactionD1B8ne200100Ev
	.weak_def_can_be_hidden	__ZNSt3__16vectorIxNS_9allocatorIxEEE21_ConstructTransactionD1B8ne200100Ev
	.p2align	2
__ZNSt3__16vectorIxNS_9allocatorIxEEE21_ConstructTransactionD1B8ne200100Ev: ; @_ZNSt3__16vectorIxNS_9allocatorIxEEE21_ConstructTransactionD1B8ne200100Ev
	.cfi_startproc
; %bb.0:
	sub	sp, sp, #32
	stp	x29, x30, [sp, #16]             ; 16-byte Folded Spill
	add	x29, sp, #16
	.cfi_def_cfa w29, 16
	.cfi_offset w30, -8
	.cfi_offset w29, -16
	str	x0, [sp, #8]
	ldr	x0, [sp, #8]
	str	x0, [sp]                        ; 8-byte Folded Spill
	bl	__ZNSt3__16vectorIxNS_9allocatorIxEEE21_ConstructTransactionD2B8ne200100Ev
	ldr	x0, [sp]                        ; 8-byte Folded Reload
	ldp	x29, x30, [sp, #16]             ; 16-byte Folded Reload
	add	sp, sp, #32
	ret
	.cfi_endproc
                                        ; -- End function
	.private_extern	__ZNSt3__16vectorIxNS_9allocatorIxEEE21_ConstructTransactionC2B8ne200100ERS3_m ; -- Begin function _ZNSt3__16vectorIxNS_9allocatorIxEEE21_ConstructTransactionC2B8ne200100ERS3_m
	.globl	__ZNSt3__16vectorIxNS_9allocatorIxEEE21_ConstructTransactionC2B8ne200100ERS3_m
	.weak_def_can_be_hidden	__ZNSt3__16vectorIxNS_9allocatorIxEEE21_ConstructTransactionC2B8ne200100ERS3_m
	.p2align	2
__ZNSt3__16vectorIxNS_9allocatorIxEEE21_ConstructTransactionC2B8ne200100ERS3_m: ; @_ZNSt3__16vectorIxNS_9allocatorIxEEE21_ConstructTransactionC2B8ne200100ERS3_m
	.cfi_startproc
; %bb.0:
	sub	sp, sp, #32
	.cfi_def_cfa_offset 32
	str	x0, [sp, #24]
	str	x1, [sp, #16]
	str	x2, [sp, #8]
	ldr	x0, [sp, #24]
	ldr	x8, [sp, #16]
	str	x8, [x0]
	ldr	x8, [sp, #16]
	ldr	x8, [x8, #8]
	str	x8, [x0, #8]
	ldr	x8, [sp, #16]
	ldr	x8, [x8, #8]
	ldr	x9, [sp, #8]
	add	x8, x8, x9, lsl #3
	str	x8, [x0, #16]
	add	sp, sp, #32
	ret
	.cfi_endproc
                                        ; -- End function
	.globl	__ZNSt3__19allocatorIxE9constructB8ne200100IxJxEEEvPT_DpOT0_ ; -- Begin function _ZNSt3__19allocatorIxE9constructB8ne200100IxJxEEEvPT_DpOT0_
	.weak_definition	__ZNSt3__19allocatorIxE9constructB8ne200100IxJxEEEvPT_DpOT0_
	.p2align	2
__ZNSt3__19allocatorIxE9constructB8ne200100IxJxEEEvPT_DpOT0_: ; @_ZNSt3__19allocatorIxE9constructB8ne200100IxJxEEEvPT_DpOT0_
	.cfi_startproc
; %bb.0:
	sub	sp, sp, #32
	.cfi_def_cfa_offset 32
	str	x0, [sp, #24]
	str	x1, [sp, #16]
	str	x2, [sp, #8]
	ldr	x9, [sp, #16]
	ldr	x8, [sp, #8]
	ldr	x8, [x8]
	str	x8, [x9]
	add	sp, sp, #32
	ret
	.cfi_endproc
                                        ; -- End function
	.private_extern	__ZNSt3__16vectorIxNS_9allocatorIxEEE21_ConstructTransactionD2B8ne200100Ev ; -- Begin function _ZNSt3__16vectorIxNS_9allocatorIxEEE21_ConstructTransactionD2B8ne200100Ev
	.globl	__ZNSt3__16vectorIxNS_9allocatorIxEEE21_ConstructTransactionD2B8ne200100Ev
	.weak_def_can_be_hidden	__ZNSt3__16vectorIxNS_9allocatorIxEEE21_ConstructTransactionD2B8ne200100Ev
	.p2align	2
__ZNSt3__16vectorIxNS_9allocatorIxEEE21_ConstructTransactionD2B8ne200100Ev: ; @_ZNSt3__16vectorIxNS_9allocatorIxEEE21_ConstructTransactionD2B8ne200100Ev
	.cfi_startproc
; %bb.0:
	sub	sp, sp, #16
	.cfi_def_cfa_offset 16
	str	x0, [sp, #8]
	ldr	x0, [sp, #8]
	ldr	x8, [x0, #8]
	ldr	x9, [x0]
	str	x8, [x9, #8]
	add	sp, sp, #16
	ret
	.cfi_endproc
                                        ; -- End function
	.private_extern	__ZNKSt3__16vectorIxNS_9allocatorIxEEE11__recommendB8ne200100Em ; -- Begin function _ZNKSt3__16vectorIxNS_9allocatorIxEEE11__recommendB8ne200100Em
	.globl	__ZNKSt3__16vectorIxNS_9allocatorIxEEE11__recommendB8ne200100Em
	.weak_definition	__ZNKSt3__16vectorIxNS_9allocatorIxEEE11__recommendB8ne200100Em
	.p2align	2
__ZNKSt3__16vectorIxNS_9allocatorIxEEE11__recommendB8ne200100Em: ; @_ZNKSt3__16vectorIxNS_9allocatorIxEEE11__recommendB8ne200100Em
	.cfi_startproc
; %bb.0:
	sub	sp, sp, #80
	stp	x29, x30, [sp, #64]             ; 16-byte Folded Spill
	add	x29, sp, #64
	.cfi_def_cfa w29, 16
	.cfi_offset w30, -8
	.cfi_offset w29, -16
	stur	x0, [x29, #-16]
	stur	x1, [x29, #-24]
	ldur	x0, [x29, #-16]
	str	x0, [sp, #8]                    ; 8-byte Folded Spill
	bl	__ZNKSt3__16vectorIxNS_9allocatorIxEEE8max_sizeB8ne200100Ev
	str	x0, [sp, #32]
	ldur	x8, [x29, #-24]
	ldr	x9, [sp, #32]
	subs	x8, x8, x9
	b.ls	LBB124_2
	b	LBB124_1
LBB124_1:
	bl	__ZNSt3__16vectorIxNS_9allocatorIxEEE20__throw_length_errorB8ne200100Ev
LBB124_2:
	ldr	x0, [sp, #8]                    ; 8-byte Folded Reload
	bl	__ZNKSt3__16vectorIxNS_9allocatorIxEEE8capacityB8ne200100Ev
	str	x0, [sp, #24]
	ldr	x8, [sp, #24]
	ldr	x9, [sp, #32]
	mov	x10, #2                         ; =0x2
	udiv	x9, x9, x10
	subs	x8, x8, x9
	b.lo	LBB124_4
	b	LBB124_3
LBB124_3:
	ldr	x8, [sp, #32]
	stur	x8, [x29, #-8]
	b	LBB124_5
LBB124_4:
	ldr	x9, [sp, #24]
	mov	x8, #2                          ; =0x2
	mul	x8, x8, x9
	add	x0, sp, #16
	str	x8, [sp, #16]
	sub	x1, x29, #24
	bl	__ZNSt3__13maxB8ne200100ImEERKT_S3_S3_
	ldr	x8, [x0]
	stur	x8, [x29, #-8]
	b	LBB124_5
LBB124_5:
	ldur	x0, [x29, #-8]
	ldp	x29, x30, [sp, #64]             ; 16-byte Folded Reload
	add	sp, sp, #80
	ret
	.cfi_endproc
                                        ; -- End function
	.private_extern	__ZNSt3__114__split_bufferIxRNS_9allocatorIxEEEC1EmmS3_ ; -- Begin function _ZNSt3__114__split_bufferIxRNS_9allocatorIxEEEC1EmmS3_
	.globl	__ZNSt3__114__split_bufferIxRNS_9allocatorIxEEEC1EmmS3_
	.weak_def_can_be_hidden	__ZNSt3__114__split_bufferIxRNS_9allocatorIxEEEC1EmmS3_
	.p2align	2
__ZNSt3__114__split_bufferIxRNS_9allocatorIxEEEC1EmmS3_: ; @_ZNSt3__114__split_bufferIxRNS_9allocatorIxEEEC1EmmS3_
	.cfi_startproc
; %bb.0:
	sub	sp, sp, #64
	stp	x29, x30, [sp, #48]             ; 16-byte Folded Spill
	add	x29, sp, #48
	.cfi_def_cfa w29, 16
	.cfi_offset w30, -8
	.cfi_offset w29, -16
	stur	x0, [x29, #-8]
	stur	x1, [x29, #-16]
	str	x2, [sp, #24]
	str	x3, [sp, #16]
	ldur	x0, [x29, #-8]
	str	x0, [sp, #8]                    ; 8-byte Folded Spill
	ldur	x1, [x29, #-16]
	ldr	x2, [sp, #24]
	ldr	x3, [sp, #16]
	bl	__ZNSt3__114__split_bufferIxRNS_9allocatorIxEEEC2EmmS3_
	ldr	x0, [sp, #8]                    ; 8-byte Folded Reload
	ldp	x29, x30, [sp, #48]             ; 16-byte Folded Reload
	add	sp, sp, #64
	ret
	.cfi_endproc
                                        ; -- End function
	.private_extern	__ZNSt3__16vectorIxNS_9allocatorIxEEE26__swap_out_circular_bufferERNS_14__split_bufferIxRS2_EE ; -- Begin function _ZNSt3__16vectorIxNS_9allocatorIxEEE26__swap_out_circular_bufferERNS_14__split_bufferIxRS2_EE
	.globl	__ZNSt3__16vectorIxNS_9allocatorIxEEE26__swap_out_circular_bufferERNS_14__split_bufferIxRS2_EE
	.weak_definition	__ZNSt3__16vectorIxNS_9allocatorIxEEE26__swap_out_circular_bufferERNS_14__split_bufferIxRS2_EE
	.p2align	2
__ZNSt3__16vectorIxNS_9allocatorIxEEE26__swap_out_circular_bufferERNS_14__split_bufferIxRS2_EE: ; @_ZNSt3__16vectorIxNS_9allocatorIxEEE26__swap_out_circular_bufferERNS_14__split_bufferIxRS2_EE
	.cfi_startproc
; %bb.0:
	sub	sp, sp, #64
	stp	x29, x30, [sp, #48]             ; 16-byte Folded Spill
	add	x29, sp, #48
	.cfi_def_cfa w29, 16
	.cfi_offset w30, -8
	.cfi_offset w29, -16
	stur	x0, [x29, #-8]
	stur	x1, [x29, #-16]
	ldur	x0, [x29, #-8]
	str	x0, [sp, #16]                   ; 8-byte Folded Spill
	bl	__ZNKSt3__16vectorIxNS_9allocatorIxEEE17__annotate_deleteB8ne200100Ev
	ldr	x8, [sp, #16]                   ; 8-byte Folded Reload
	ldur	x9, [x29, #-16]
	ldr	x9, [x9, #8]
	ldr	x10, [x8, #8]
	ldr	x11, [x8]
	subs	x10, x10, x11
	mov	x11, #8                         ; =0x8
	sdiv	x11, x10, x11
	mov	x10, #0                         ; =0x0
	subs	x10, x10, x11
	add	x9, x9, x10, lsl #3
	str	x9, [sp, #24]
	ldr	x0, [x8]
	bl	__ZNSt3__112__to_addressB8ne200100IxEEPT_S2_
	ldr	x8, [sp, #16]                   ; 8-byte Folded Reload
	str	x0, [sp]                        ; 8-byte Folded Spill
	ldr	x0, [x8, #8]
	bl	__ZNSt3__112__to_addressB8ne200100IxEEPT_S2_
	str	x0, [sp, #8]                    ; 8-byte Folded Spill
	ldr	x0, [sp, #24]
	bl	__ZNSt3__112__to_addressB8ne200100IxEEPT_S2_
	ldr	x1, [sp]                        ; 8-byte Folded Reload
	ldr	x2, [sp, #8]                    ; 8-byte Folded Reload
	ldr	x8, [sp, #16]                   ; 8-byte Folded Reload
	mov	x3, x0
	add	x0, x8, #16
	bl	__ZNSt3__134__uninitialized_allocator_relocateB8ne200100INS_9allocatorIxEEPxEEvRT_T0_S6_S6_
	ldr	x0, [sp, #16]                   ; 8-byte Folded Reload
	ldr	x8, [sp, #24]
	ldur	x9, [x29, #-16]
	str	x8, [x9, #8]
	ldr	x8, [x0]
	str	x8, [x0, #8]
	ldur	x8, [x29, #-16]
	add	x1, x8, #8
	bl	__ZNSt3__14swapB8ne200100IPxEENS_9enable_ifIXaasr21is_move_constructibleIT_EE5valuesr18is_move_assignableIS3_EE5valueEvE4typeERS3_S6_
	ldr	x9, [sp, #16]                   ; 8-byte Folded Reload
	ldur	x8, [x29, #-16]
	add	x0, x9, #8
	add	x1, x8, #16
	bl	__ZNSt3__14swapB8ne200100IPxEENS_9enable_ifIXaasr21is_move_constructibleIT_EE5valuesr18is_move_assignableIS3_EE5valueEvE4typeERS3_S6_
	ldr	x9, [sp, #16]                   ; 8-byte Folded Reload
	ldur	x8, [x29, #-16]
	add	x0, x9, #16
	add	x1, x8, #24
	bl	__ZNSt3__14swapB8ne200100IPxEENS_9enable_ifIXaasr21is_move_constructibleIT_EE5valuesr18is_move_assignableIS3_EE5valueEvE4typeERS3_S6_
	ldr	x0, [sp, #16]                   ; 8-byte Folded Reload
	ldur	x8, [x29, #-16]
	ldr	x8, [x8, #8]
	ldur	x9, [x29, #-16]
	str	x8, [x9]
	bl	__ZNKSt3__16vectorIxNS_9allocatorIxEEE4sizeB8ne200100Ev
	mov	x1, x0
	ldr	x0, [sp, #16]                   ; 8-byte Folded Reload
	bl	__ZNKSt3__16vectorIxNS_9allocatorIxEEE14__annotate_newB8ne200100Em
	ldp	x29, x30, [sp, #48]             ; 16-byte Folded Reload
	add	sp, sp, #64
	ret
	.cfi_endproc
                                        ; -- End function
	.private_extern	__ZNSt3__114__split_bufferIxRNS_9allocatorIxEEED1Ev ; -- Begin function _ZNSt3__114__split_bufferIxRNS_9allocatorIxEEED1Ev
	.globl	__ZNSt3__114__split_bufferIxRNS_9allocatorIxEEED1Ev
	.weak_def_can_be_hidden	__ZNSt3__114__split_bufferIxRNS_9allocatorIxEEED1Ev
	.p2align	2
__ZNSt3__114__split_bufferIxRNS_9allocatorIxEEED1Ev: ; @_ZNSt3__114__split_bufferIxRNS_9allocatorIxEEED1Ev
	.cfi_startproc
; %bb.0:
	sub	sp, sp, #32
	stp	x29, x30, [sp, #16]             ; 16-byte Folded Spill
	add	x29, sp, #16
	.cfi_def_cfa w29, 16
	.cfi_offset w30, -8
	.cfi_offset w29, -16
	str	x0, [sp, #8]
	ldr	x0, [sp, #8]
	str	x0, [sp]                        ; 8-byte Folded Spill
	bl	__ZNSt3__114__split_bufferIxRNS_9allocatorIxEEED2Ev
	ldr	x0, [sp]                        ; 8-byte Folded Reload
	ldp	x29, x30, [sp, #16]             ; 16-byte Folded Reload
	add	sp, sp, #32
	ret
	.cfi_endproc
                                        ; -- End function
	.private_extern	__ZNKSt3__16vectorIxNS_9allocatorIxEEE8max_sizeB8ne200100Ev ; -- Begin function _ZNKSt3__16vectorIxNS_9allocatorIxEEE8max_sizeB8ne200100Ev
	.globl	__ZNKSt3__16vectorIxNS_9allocatorIxEEE8max_sizeB8ne200100Ev
	.weak_definition	__ZNKSt3__16vectorIxNS_9allocatorIxEEE8max_sizeB8ne200100Ev
	.p2align	2
__ZNKSt3__16vectorIxNS_9allocatorIxEEE8max_sizeB8ne200100Ev: ; @_ZNKSt3__16vectorIxNS_9allocatorIxEEE8max_sizeB8ne200100Ev
Lfunc_begin12:
	.cfi_startproc
	.cfi_personality 155, ___gxx_personality_v0
	.cfi_lsda 16, Lexception12
; %bb.0:
	sub	sp, sp, #64
	stp	x29, x30, [sp, #48]             ; 16-byte Folded Spill
	add	x29, sp, #48
	.cfi_def_cfa w29, 16
	.cfi_offset w30, -8
	.cfi_offset w29, -16
	stur	x0, [x29, #-8]
	ldur	x8, [x29, #-8]
	add	x0, x8, #16
	bl	__ZNSt3__116allocator_traitsINS_9allocatorIxEEE8max_sizeB8ne200100IS2_Li0EEEmRKS2_
	sub	x8, x29, #16
	str	x8, [sp, #8]                    ; 8-byte Folded Spill
	stur	x0, [x29, #-16]
	bl	__ZNSt3__114numeric_limitsIlE3maxB8ne200100Ev
	mov	x8, x0
	ldr	x0, [sp, #8]                    ; 8-byte Folded Reload
	add	x1, sp, #24
	str	x8, [sp, #24]
Ltmp331:
	bl	__ZNSt3__13minB8ne200100ImEERKT_S3_S3_
	str	x0, [sp, #16]                   ; 8-byte Folded Spill
Ltmp332:
	b	LBB128_1
LBB128_1:
	ldr	x8, [sp, #16]                   ; 8-byte Folded Reload
	ldr	x0, [x8]
	ldp	x29, x30, [sp, #48]             ; 16-byte Folded Reload
	add	sp, sp, #64
	ret
LBB128_2:
Ltmp333:
	bl	___clang_call_terminate
Lfunc_end12:
	.cfi_endproc
	.section	__TEXT,__gcc_except_tab
	.p2align	2, 0x0
GCC_except_table128:
Lexception12:
	.byte	255                             ; @LPStart Encoding = omit
	.byte	155                             ; @TType Encoding = indirect pcrel sdata4
	.uleb128 Lttbase4-Lttbaseref4
Lttbaseref4:
	.byte	1                               ; Call site Encoding = uleb128
	.uleb128 Lcst_end12-Lcst_begin12
Lcst_begin12:
	.uleb128 Ltmp331-Lfunc_begin12          ; >> Call Site 1 <<
	.uleb128 Ltmp332-Ltmp331                ;   Call between Ltmp331 and Ltmp332
	.uleb128 Ltmp333-Lfunc_begin12          ;     jumps to Ltmp333
	.byte	1                               ;   On action: 1
Lcst_end12:
	.byte	1                               ; >> Action Record 1 <<
                                        ;   Catch TypeInfo 1
	.byte	0                               ;   No further actions
	.p2align	2, 0x0
                                        ; >> Catch TypeInfos <<
	.long	0                               ; TypeInfo 1
Lttbase4:
	.p2align	2, 0x0
                                        ; -- End function
	.section	__TEXT,__text,regular,pure_instructions
	.private_extern	__ZNSt3__16vectorIxNS_9allocatorIxEEE20__throw_length_errorB8ne200100Ev ; -- Begin function _ZNSt3__16vectorIxNS_9allocatorIxEEE20__throw_length_errorB8ne200100Ev
	.globl	__ZNSt3__16vectorIxNS_9allocatorIxEEE20__throw_length_errorB8ne200100Ev
	.weak_definition	__ZNSt3__16vectorIxNS_9allocatorIxEEE20__throw_length_errorB8ne200100Ev
	.p2align	2
__ZNSt3__16vectorIxNS_9allocatorIxEEE20__throw_length_errorB8ne200100Ev: ; @_ZNSt3__16vectorIxNS_9allocatorIxEEE20__throw_length_errorB8ne200100Ev
	.cfi_startproc
; %bb.0:
	stp	x29, x30, [sp, #-16]!           ; 16-byte Folded Spill
	mov	x29, sp
	.cfi_def_cfa w29, 16
	.cfi_offset w30, -8
	.cfi_offset w29, -16
	adrp	x0, l_.str.42@PAGE
	add	x0, x0, l_.str.42@PAGEOFF
	bl	__ZNSt3__120__throw_length_errorB8ne200100EPKc
	.cfi_endproc
                                        ; -- End function
	.private_extern	__ZNSt3__13maxB8ne200100ImEERKT_S3_S3_ ; -- Begin function _ZNSt3__13maxB8ne200100ImEERKT_S3_S3_
	.globl	__ZNSt3__13maxB8ne200100ImEERKT_S3_S3_
	.weak_definition	__ZNSt3__13maxB8ne200100ImEERKT_S3_S3_
	.p2align	2
__ZNSt3__13maxB8ne200100ImEERKT_S3_S3_: ; @_ZNSt3__13maxB8ne200100ImEERKT_S3_S3_
	.cfi_startproc
; %bb.0:
	sub	sp, sp, #48
	stp	x29, x30, [sp, #32]             ; 16-byte Folded Spill
	add	x29, sp, #32
	.cfi_def_cfa w29, 16
	.cfi_offset w30, -8
	.cfi_offset w29, -16
	stur	x0, [x29, #-8]
	str	x1, [sp, #16]
	ldur	x0, [x29, #-8]
	ldr	x1, [sp, #16]
	bl	__ZNSt3__13maxB8ne200100ImNS_6__lessIvvEEEERKT_S5_S5_T0_
	ldp	x29, x30, [sp, #32]             ; 16-byte Folded Reload
	add	sp, sp, #48
	ret
	.cfi_endproc
                                        ; -- End function
	.private_extern	__ZNSt3__13minB8ne200100ImEERKT_S3_S3_ ; -- Begin function _ZNSt3__13minB8ne200100ImEERKT_S3_S3_
	.globl	__ZNSt3__13minB8ne200100ImEERKT_S3_S3_
	.weak_definition	__ZNSt3__13minB8ne200100ImEERKT_S3_S3_
	.p2align	2
__ZNSt3__13minB8ne200100ImEERKT_S3_S3_: ; @_ZNSt3__13minB8ne200100ImEERKT_S3_S3_
	.cfi_startproc
; %bb.0:
	sub	sp, sp, #48
	stp	x29, x30, [sp, #32]             ; 16-byte Folded Spill
	add	x29, sp, #32
	.cfi_def_cfa w29, 16
	.cfi_offset w30, -8
	.cfi_offset w29, -16
	stur	x0, [x29, #-8]
	str	x1, [sp, #16]
	ldur	x0, [x29, #-8]
	ldr	x1, [sp, #16]
	bl	__ZNSt3__13minB8ne200100ImNS_6__lessIvvEEEERKT_S5_S5_T0_
	ldp	x29, x30, [sp, #32]             ; 16-byte Folded Reload
	add	sp, sp, #48
	ret
	.cfi_endproc
                                        ; -- End function
	.globl	__ZNSt3__116allocator_traitsINS_9allocatorIxEEE8max_sizeB8ne200100IS2_Li0EEEmRKS2_ ; -- Begin function _ZNSt3__116allocator_traitsINS_9allocatorIxEEE8max_sizeB8ne200100IS2_Li0EEEmRKS2_
	.weak_definition	__ZNSt3__116allocator_traitsINS_9allocatorIxEEE8max_sizeB8ne200100IS2_Li0EEEmRKS2_
	.p2align	2
__ZNSt3__116allocator_traitsINS_9allocatorIxEEE8max_sizeB8ne200100IS2_Li0EEEmRKS2_: ; @_ZNSt3__116allocator_traitsINS_9allocatorIxEEE8max_sizeB8ne200100IS2_Li0EEEmRKS2_
	.cfi_startproc
; %bb.0:
	sub	sp, sp, #32
	stp	x29, x30, [sp, #16]             ; 16-byte Folded Spill
	add	x29, sp, #16
	.cfi_def_cfa w29, 16
	.cfi_offset w30, -8
	.cfi_offset w29, -16
	str	x0, [sp, #8]
	ldr	x0, [sp, #8]
	bl	__ZNKSt3__19allocatorIxE8max_sizeB8ne200100Ev
	ldp	x29, x30, [sp, #16]             ; 16-byte Folded Reload
	add	sp, sp, #32
	ret
	.cfi_endproc
                                        ; -- End function
	.private_extern	__ZNSt3__114numeric_limitsIlE3maxB8ne200100Ev ; -- Begin function _ZNSt3__114numeric_limitsIlE3maxB8ne200100Ev
	.globl	__ZNSt3__114numeric_limitsIlE3maxB8ne200100Ev
	.weak_definition	__ZNSt3__114numeric_limitsIlE3maxB8ne200100Ev
	.p2align	2
__ZNSt3__114numeric_limitsIlE3maxB8ne200100Ev: ; @_ZNSt3__114numeric_limitsIlE3maxB8ne200100Ev
	.cfi_startproc
; %bb.0:
	stp	x29, x30, [sp, #-16]!           ; 16-byte Folded Spill
	mov	x29, sp
	.cfi_def_cfa w29, 16
	.cfi_offset w30, -8
	.cfi_offset w29, -16
	bl	__ZNSt3__123__libcpp_numeric_limitsIlLb1EE3maxB8ne200100Ev
	ldp	x29, x30, [sp], #16             ; 16-byte Folded Reload
	ret
	.cfi_endproc
                                        ; -- End function
	.private_extern	__ZNSt3__13minB8ne200100ImNS_6__lessIvvEEEERKT_S5_S5_T0_ ; -- Begin function _ZNSt3__13minB8ne200100ImNS_6__lessIvvEEEERKT_S5_S5_T0_
	.globl	__ZNSt3__13minB8ne200100ImNS_6__lessIvvEEEERKT_S5_S5_T0_
	.weak_definition	__ZNSt3__13minB8ne200100ImNS_6__lessIvvEEEERKT_S5_S5_T0_
	.p2align	2
__ZNSt3__13minB8ne200100ImNS_6__lessIvvEEEERKT_S5_S5_T0_: ; @_ZNSt3__13minB8ne200100ImNS_6__lessIvvEEEERKT_S5_S5_T0_
	.cfi_startproc
; %bb.0:
	sub	sp, sp, #48
	stp	x29, x30, [sp, #32]             ; 16-byte Folded Spill
	add	x29, sp, #32
	.cfi_def_cfa w29, 16
	.cfi_offset w30, -8
	.cfi_offset w29, -16
	str	x0, [sp, #16]
	str	x1, [sp, #8]
	ldr	x1, [sp, #8]
	ldr	x2, [sp, #16]
	sub	x0, x29, #1
	bl	__ZNKSt3__16__lessIvvEclB8ne200100ImmEEbRKT_RKT0_
	tbz	w0, #0, LBB134_2
	b	LBB134_1
LBB134_1:
	ldr	x8, [sp, #8]
	str	x8, [sp]                        ; 8-byte Folded Spill
	b	LBB134_3
LBB134_2:
	ldr	x8, [sp, #16]
	str	x8, [sp]                        ; 8-byte Folded Spill
	b	LBB134_3
LBB134_3:
	ldr	x0, [sp]                        ; 8-byte Folded Reload
	ldp	x29, x30, [sp, #32]             ; 16-byte Folded Reload
	add	sp, sp, #48
	ret
	.cfi_endproc
                                        ; -- End function
	.private_extern	__ZNKSt3__16__lessIvvEclB8ne200100ImmEEbRKT_RKT0_ ; -- Begin function _ZNKSt3__16__lessIvvEclB8ne200100ImmEEbRKT_RKT0_
	.globl	__ZNKSt3__16__lessIvvEclB8ne200100ImmEEbRKT_RKT0_
	.weak_definition	__ZNKSt3__16__lessIvvEclB8ne200100ImmEEbRKT_RKT0_
	.p2align	2
__ZNKSt3__16__lessIvvEclB8ne200100ImmEEbRKT_RKT0_: ; @_ZNKSt3__16__lessIvvEclB8ne200100ImmEEbRKT_RKT0_
	.cfi_startproc
; %bb.0:
	sub	sp, sp, #32
	.cfi_def_cfa_offset 32
	str	x0, [sp, #24]
	str	x1, [sp, #16]
	str	x2, [sp, #8]
	ldr	x8, [sp, #16]
	ldr	x8, [x8]
	ldr	x9, [sp, #8]
	ldr	x9, [x9]
	subs	x8, x8, x9
	cset	w0, lo
	add	sp, sp, #32
	ret
	.cfi_endproc
                                        ; -- End function
	.private_extern	__ZNKSt3__19allocatorIxE8max_sizeB8ne200100Ev ; -- Begin function _ZNKSt3__19allocatorIxE8max_sizeB8ne200100Ev
	.globl	__ZNKSt3__19allocatorIxE8max_sizeB8ne200100Ev
	.weak_definition	__ZNKSt3__19allocatorIxE8max_sizeB8ne200100Ev
	.p2align	2
__ZNKSt3__19allocatorIxE8max_sizeB8ne200100Ev: ; @_ZNKSt3__19allocatorIxE8max_sizeB8ne200100Ev
	.cfi_startproc
; %bb.0:
	sub	sp, sp, #16
	.cfi_def_cfa_offset 16
	str	x0, [sp, #8]
	mov	x0, #2305843009213693951        ; =0x1fffffffffffffff
	add	sp, sp, #16
	ret
	.cfi_endproc
                                        ; -- End function
	.private_extern	__ZNSt3__123__libcpp_numeric_limitsIlLb1EE3maxB8ne200100Ev ; -- Begin function _ZNSt3__123__libcpp_numeric_limitsIlLb1EE3maxB8ne200100Ev
	.globl	__ZNSt3__123__libcpp_numeric_limitsIlLb1EE3maxB8ne200100Ev
	.weak_definition	__ZNSt3__123__libcpp_numeric_limitsIlLb1EE3maxB8ne200100Ev
	.p2align	2
__ZNSt3__123__libcpp_numeric_limitsIlLb1EE3maxB8ne200100Ev: ; @_ZNSt3__123__libcpp_numeric_limitsIlLb1EE3maxB8ne200100Ev
	.cfi_startproc
; %bb.0:
	mov	x0, #9223372036854775807        ; =0x7fffffffffffffff
	ret
	.cfi_endproc
                                        ; -- End function
	.private_extern	__ZNSt3__120__throw_length_errorB8ne200100EPKc ; -- Begin function _ZNSt3__120__throw_length_errorB8ne200100EPKc
	.globl	__ZNSt3__120__throw_length_errorB8ne200100EPKc
	.weak_definition	__ZNSt3__120__throw_length_errorB8ne200100EPKc
	.p2align	2
__ZNSt3__120__throw_length_errorB8ne200100EPKc: ; @_ZNSt3__120__throw_length_errorB8ne200100EPKc
Lfunc_begin13:
	.cfi_startproc
	.cfi_personality 155, ___gxx_personality_v0
	.cfi_lsda 16, Lexception13
; %bb.0:
	sub	sp, sp, #48
	stp	x29, x30, [sp, #32]             ; 16-byte Folded Spill
	add	x29, sp, #32
	.cfi_def_cfa w29, 16
	.cfi_offset w30, -8
	.cfi_offset w29, -16
	stur	x0, [x29, #-8]
	mov	x0, #16                         ; =0x10
	bl	___cxa_allocate_exception
	str	x0, [sp]                        ; 8-byte Folded Spill
	ldur	x1, [x29, #-8]
Ltmp336:
	bl	__ZNSt12length_errorC1B8ne200100EPKc
Ltmp337:
	b	LBB138_1
LBB138_1:
	ldr	x0, [sp]                        ; 8-byte Folded Reload
	adrp	x1, __ZTISt12length_error@GOTPAGE
	ldr	x1, [x1, __ZTISt12length_error@GOTPAGEOFF]
	adrp	x2, __ZNSt12length_errorD1Ev@GOTPAGE
	ldr	x2, [x2, __ZNSt12length_errorD1Ev@GOTPAGEOFF]
	bl	___cxa_throw
LBB138_2:
Ltmp338:
	mov	x8, x0
	ldr	x0, [sp]                        ; 8-byte Folded Reload
	str	x8, [sp, #16]
	mov	x8, x1
	str	w8, [sp, #12]
	bl	___cxa_free_exception
	b	LBB138_3
LBB138_3:
	ldr	x0, [sp, #16]
	bl	__Unwind_Resume
Lfunc_end13:
	.cfi_endproc
	.section	__TEXT,__gcc_except_tab
	.p2align	2, 0x0
GCC_except_table138:
Lexception13:
	.byte	255                             ; @LPStart Encoding = omit
	.byte	255                             ; @TType Encoding = omit
	.byte	1                               ; Call site Encoding = uleb128
	.uleb128 Lcst_end13-Lcst_begin13
Lcst_begin13:
	.uleb128 Lfunc_begin13-Lfunc_begin13    ; >> Call Site 1 <<
	.uleb128 Ltmp336-Lfunc_begin13          ;   Call between Lfunc_begin13 and Ltmp336
	.byte	0                               ;     has no landing pad
	.byte	0                               ;   On action: cleanup
	.uleb128 Ltmp336-Lfunc_begin13          ; >> Call Site 2 <<
	.uleb128 Ltmp337-Ltmp336                ;   Call between Ltmp336 and Ltmp337
	.uleb128 Ltmp338-Lfunc_begin13          ;     jumps to Ltmp338
	.byte	0                               ;   On action: cleanup
	.uleb128 Ltmp337-Lfunc_begin13          ; >> Call Site 3 <<
	.uleb128 Lfunc_end13-Ltmp337            ;   Call between Ltmp337 and Lfunc_end13
	.byte	0                               ;     has no landing pad
	.byte	0                               ;   On action: cleanup
Lcst_end13:
	.p2align	2, 0x0
                                        ; -- End function
	.section	__TEXT,__text,regular,pure_instructions
	.private_extern	__ZNSt12length_errorC1B8ne200100EPKc ; -- Begin function _ZNSt12length_errorC1B8ne200100EPKc
	.globl	__ZNSt12length_errorC1B8ne200100EPKc
	.weak_def_can_be_hidden	__ZNSt12length_errorC1B8ne200100EPKc
	.p2align	2
__ZNSt12length_errorC1B8ne200100EPKc:   ; @_ZNSt12length_errorC1B8ne200100EPKc
	.cfi_startproc
; %bb.0:
	sub	sp, sp, #48
	stp	x29, x30, [sp, #32]             ; 16-byte Folded Spill
	add	x29, sp, #32
	.cfi_def_cfa w29, 16
	.cfi_offset w30, -8
	.cfi_offset w29, -16
	stur	x0, [x29, #-8]
	str	x1, [sp, #16]
	ldur	x0, [x29, #-8]
	str	x0, [sp, #8]                    ; 8-byte Folded Spill
	ldr	x1, [sp, #16]
	bl	__ZNSt12length_errorC2B8ne200100EPKc
	ldr	x0, [sp, #8]                    ; 8-byte Folded Reload
	ldp	x29, x30, [sp, #32]             ; 16-byte Folded Reload
	add	sp, sp, #48
	ret
	.cfi_endproc
                                        ; -- End function
	.private_extern	__ZNSt12length_errorC2B8ne200100EPKc ; -- Begin function _ZNSt12length_errorC2B8ne200100EPKc
	.globl	__ZNSt12length_errorC2B8ne200100EPKc
	.weak_def_can_be_hidden	__ZNSt12length_errorC2B8ne200100EPKc
	.p2align	2
__ZNSt12length_errorC2B8ne200100EPKc:   ; @_ZNSt12length_errorC2B8ne200100EPKc
	.cfi_startproc
; %bb.0:
	sub	sp, sp, #48
	stp	x29, x30, [sp, #32]             ; 16-byte Folded Spill
	add	x29, sp, #32
	.cfi_def_cfa w29, 16
	.cfi_offset w30, -8
	.cfi_offset w29, -16
	stur	x0, [x29, #-8]
	str	x1, [sp, #16]
	ldur	x0, [x29, #-8]
	str	x0, [sp, #8]                    ; 8-byte Folded Spill
	ldr	x1, [sp, #16]
	bl	__ZNSt11logic_errorC2EPKc
	ldr	x0, [sp, #8]                    ; 8-byte Folded Reload
	adrp	x8, __ZTVSt12length_error@GOTPAGE
	ldr	x8, [x8, __ZTVSt12length_error@GOTPAGEOFF]
	add	x8, x8, #16
	str	x8, [x0]
	ldp	x29, x30, [sp, #32]             ; 16-byte Folded Reload
	add	sp, sp, #48
	ret
	.cfi_endproc
                                        ; -- End function
	.private_extern	__ZNSt3__13maxB8ne200100ImNS_6__lessIvvEEEERKT_S5_S5_T0_ ; -- Begin function _ZNSt3__13maxB8ne200100ImNS_6__lessIvvEEEERKT_S5_S5_T0_
	.globl	__ZNSt3__13maxB8ne200100ImNS_6__lessIvvEEEERKT_S5_S5_T0_
	.weak_definition	__ZNSt3__13maxB8ne200100ImNS_6__lessIvvEEEERKT_S5_S5_T0_
	.p2align	2
__ZNSt3__13maxB8ne200100ImNS_6__lessIvvEEEERKT_S5_S5_T0_: ; @_ZNSt3__13maxB8ne200100ImNS_6__lessIvvEEEERKT_S5_S5_T0_
	.cfi_startproc
; %bb.0:
	sub	sp, sp, #48
	stp	x29, x30, [sp, #32]             ; 16-byte Folded Spill
	add	x29, sp, #32
	.cfi_def_cfa w29, 16
	.cfi_offset w30, -8
	.cfi_offset w29, -16
	str	x0, [sp, #16]
	str	x1, [sp, #8]
	ldr	x1, [sp, #16]
	ldr	x2, [sp, #8]
	sub	x0, x29, #1
	bl	__ZNKSt3__16__lessIvvEclB8ne200100ImmEEbRKT_RKT0_
	tbz	w0, #0, LBB141_2
	b	LBB141_1
LBB141_1:
	ldr	x8, [sp, #8]
	str	x8, [sp]                        ; 8-byte Folded Spill
	b	LBB141_3
LBB141_2:
	ldr	x8, [sp, #16]
	str	x8, [sp]                        ; 8-byte Folded Spill
	b	LBB141_3
LBB141_3:
	ldr	x0, [sp]                        ; 8-byte Folded Reload
	ldp	x29, x30, [sp, #32]             ; 16-byte Folded Reload
	add	sp, sp, #48
	ret
	.cfi_endproc
                                        ; -- End function
	.private_extern	__ZNSt3__114__split_bufferIxRNS_9allocatorIxEEEC2EmmS3_ ; -- Begin function _ZNSt3__114__split_bufferIxRNS_9allocatorIxEEEC2EmmS3_
	.globl	__ZNSt3__114__split_bufferIxRNS_9allocatorIxEEEC2EmmS3_
	.weak_def_can_be_hidden	__ZNSt3__114__split_bufferIxRNS_9allocatorIxEEEC2EmmS3_
	.p2align	2
__ZNSt3__114__split_bufferIxRNS_9allocatorIxEEEC2EmmS3_: ; @_ZNSt3__114__split_bufferIxRNS_9allocatorIxEEEC2EmmS3_
	.cfi_startproc
; %bb.0:
	sub	sp, sp, #80
	stp	x29, x30, [sp, #64]             ; 16-byte Folded Spill
	add	x29, sp, #64
	.cfi_def_cfa w29, 16
	.cfi_offset w30, -8
	.cfi_offset w29, -16
	stur	x0, [x29, #-16]
	stur	x1, [x29, #-24]
	str	x2, [sp, #32]
	str	x3, [sp, #24]
	ldur	x9, [x29, #-16]
	str	x9, [sp]                        ; 8-byte Folded Spill
	mov	x8, x9
	stur	x8, [x29, #-8]
                                        ; kill: def $x8 killed $xzr
	str	xzr, [x9, #24]
	ldr	x8, [sp, #24]
	str	x8, [x9, #32]
	ldur	x8, [x29, #-24]
	cbnz	x8, LBB142_2
	b	LBB142_1
LBB142_1:
	ldr	x8, [sp]                        ; 8-byte Folded Reload
                                        ; kill: def $x9 killed $xzr
	str	xzr, [x8]
	b	LBB142_3
LBB142_2:
	ldr	x8, [sp]                        ; 8-byte Folded Reload
	ldr	x0, [x8, #32]
	ldur	x1, [x29, #-24]
	bl	__ZNSt3__119__allocate_at_leastB8ne200100INS_9allocatorIxEEEENS_19__allocation_resultINS_16allocator_traitsIT_E7pointerEEERS5_m
	ldr	x9, [sp]                        ; 8-byte Folded Reload
	str	x0, [sp, #8]
	str	x1, [sp, #16]
	ldr	x8, [sp, #8]
	str	x8, [x9]
	ldr	x8, [sp, #16]
	stur	x8, [x29, #-24]
	b	LBB142_3
LBB142_3:
	ldr	x9, [sp]                        ; 8-byte Folded Reload
	ldr	x8, [x9]
	ldr	x10, [sp, #32]
	add	x8, x8, x10, lsl #3
	str	x8, [x9, #16]
	str	x8, [x9, #8]
	ldr	x8, [x9]
	ldur	x10, [x29, #-24]
	add	x8, x8, x10, lsl #3
	str	x8, [x9, #24]
	ldur	x0, [x29, #-8]
	ldp	x29, x30, [sp, #64]             ; 16-byte Folded Reload
	add	sp, sp, #80
	ret
	.cfi_endproc
                                        ; -- End function
	.private_extern	__ZNSt3__119__allocate_at_leastB8ne200100INS_9allocatorIxEEEENS_19__allocation_resultINS_16allocator_traitsIT_E7pointerEEERS5_m ; -- Begin function _ZNSt3__119__allocate_at_leastB8ne200100INS_9allocatorIxEEEENS_19__allocation_resultINS_16allocator_traitsIT_E7pointerEEERS5_m
	.globl	__ZNSt3__119__allocate_at_leastB8ne200100INS_9allocatorIxEEEENS_19__allocation_resultINS_16allocator_traitsIT_E7pointerEEERS5_m
	.weak_definition	__ZNSt3__119__allocate_at_leastB8ne200100INS_9allocatorIxEEEENS_19__allocation_resultINS_16allocator_traitsIT_E7pointerEEERS5_m
	.p2align	2
__ZNSt3__119__allocate_at_leastB8ne200100INS_9allocatorIxEEEENS_19__allocation_resultINS_16allocator_traitsIT_E7pointerEEERS5_m: ; @_ZNSt3__119__allocate_at_leastB8ne200100INS_9allocatorIxEEEENS_19__allocation_resultINS_16allocator_traitsIT_E7pointerEEERS5_m
	.cfi_startproc
; %bb.0:
	sub	sp, sp, #48
	stp	x29, x30, [sp, #32]             ; 16-byte Folded Spill
	add	x29, sp, #32
	.cfi_def_cfa w29, 16
	.cfi_offset w30, -8
	.cfi_offset w29, -16
	str	x0, [sp, #8]
	str	x1, [sp]
	ldr	x0, [sp, #8]
	ldr	x1, [sp]
	bl	__ZNSt3__19allocatorIxE8allocateB8ne200100Em
	str	x0, [sp, #16]
	ldr	x8, [sp]
	str	x8, [sp, #24]
	ldr	x0, [sp, #16]
	ldr	x1, [sp, #24]
	ldp	x29, x30, [sp, #32]             ; 16-byte Folded Reload
	add	sp, sp, #48
	ret
	.cfi_endproc
                                        ; -- End function
	.private_extern	__ZNSt3__19allocatorIxE8allocateB8ne200100Em ; -- Begin function _ZNSt3__19allocatorIxE8allocateB8ne200100Em
	.globl	__ZNSt3__19allocatorIxE8allocateB8ne200100Em
	.weak_definition	__ZNSt3__19allocatorIxE8allocateB8ne200100Em
	.p2align	2
__ZNSt3__19allocatorIxE8allocateB8ne200100Em: ; @_ZNSt3__19allocatorIxE8allocateB8ne200100Em
	.cfi_startproc
; %bb.0:
	sub	sp, sp, #48
	stp	x29, x30, [sp, #32]             ; 16-byte Folded Spill
	add	x29, sp, #32
	.cfi_def_cfa w29, 16
	.cfi_offset w30, -8
	.cfi_offset w29, -16
	stur	x0, [x29, #-8]
	str	x1, [sp, #16]
	ldur	x0, [x29, #-8]
	ldr	x8, [sp, #16]
	str	x8, [sp, #8]                    ; 8-byte Folded Spill
	bl	__ZNSt3__116allocator_traitsINS_9allocatorIxEEE8max_sizeB8ne200100IS2_Li0EEEmRKS2_
	ldr	x8, [sp, #8]                    ; 8-byte Folded Reload
	subs	x8, x8, x0
	b.ls	LBB144_2
	b	LBB144_1
LBB144_1:
	bl	__ZSt28__throw_bad_array_new_lengthB8ne200100v
LBB144_2:
	ldr	x0, [sp, #16]
	mov	x1, #8                          ; =0x8
	bl	__ZNSt3__117__libcpp_allocateB8ne200100IxEEPT_NS_15__element_countEm
	ldp	x29, x30, [sp, #32]             ; 16-byte Folded Reload
	add	sp, sp, #48
	ret
	.cfi_endproc
                                        ; -- End function
	.private_extern	__ZSt28__throw_bad_array_new_lengthB8ne200100v ; -- Begin function _ZSt28__throw_bad_array_new_lengthB8ne200100v
	.globl	__ZSt28__throw_bad_array_new_lengthB8ne200100v
	.weak_definition	__ZSt28__throw_bad_array_new_lengthB8ne200100v
	.p2align	2
__ZSt28__throw_bad_array_new_lengthB8ne200100v: ; @_ZSt28__throw_bad_array_new_lengthB8ne200100v
	.cfi_startproc
; %bb.0:
	sub	sp, sp, #32
	stp	x29, x30, [sp, #16]             ; 16-byte Folded Spill
	add	x29, sp, #16
	.cfi_def_cfa w29, 16
	.cfi_offset w30, -8
	.cfi_offset w29, -16
	mov	x0, #8                          ; =0x8
	bl	___cxa_allocate_exception
	str	x0, [sp, #8]                    ; 8-byte Folded Spill
	bl	__ZNSt20bad_array_new_lengthC1Ev
	ldr	x0, [sp, #8]                    ; 8-byte Folded Reload
	adrp	x1, __ZTISt20bad_array_new_length@GOTPAGE
	ldr	x1, [x1, __ZTISt20bad_array_new_length@GOTPAGEOFF]
	adrp	x2, __ZNSt20bad_array_new_lengthD1Ev@GOTPAGE
	ldr	x2, [x2, __ZNSt20bad_array_new_lengthD1Ev@GOTPAGEOFF]
	bl	___cxa_throw
	.cfi_endproc
                                        ; -- End function
	.private_extern	__ZNSt3__117__libcpp_allocateB8ne200100IxEEPT_NS_15__element_countEm ; -- Begin function _ZNSt3__117__libcpp_allocateB8ne200100IxEEPT_NS_15__element_countEm
	.globl	__ZNSt3__117__libcpp_allocateB8ne200100IxEEPT_NS_15__element_countEm
	.weak_definition	__ZNSt3__117__libcpp_allocateB8ne200100IxEEPT_NS_15__element_countEm
	.p2align	2
__ZNSt3__117__libcpp_allocateB8ne200100IxEEPT_NS_15__element_countEm: ; @_ZNSt3__117__libcpp_allocateB8ne200100IxEEPT_NS_15__element_countEm
	.cfi_startproc
; %bb.0:
	sub	sp, sp, #48
	stp	x29, x30, [sp, #32]             ; 16-byte Folded Spill
	add	x29, sp, #32
	.cfi_def_cfa w29, 16
	.cfi_offset w30, -8
	.cfi_offset w29, -16
	stur	x0, [x29, #-8]
	str	x1, [sp, #16]
	ldur	x8, [x29, #-8]
	lsl	x8, x8, #3
	str	x8, [sp, #8]
	ldr	x0, [sp, #8]
	bl	__ZNSt3__121__libcpp_operator_newB8ne200100IxEEPvm
	ldp	x29, x30, [sp, #32]             ; 16-byte Folded Reload
	add	sp, sp, #48
	ret
	.cfi_endproc
                                        ; -- End function
	.private_extern	__ZNSt3__121__libcpp_operator_newB8ne200100IxEEPvm ; -- Begin function _ZNSt3__121__libcpp_operator_newB8ne200100IxEEPvm
	.globl	__ZNSt3__121__libcpp_operator_newB8ne200100IxEEPvm
	.weak_definition	__ZNSt3__121__libcpp_operator_newB8ne200100IxEEPvm
	.p2align	2
__ZNSt3__121__libcpp_operator_newB8ne200100IxEEPvm: ; @_ZNSt3__121__libcpp_operator_newB8ne200100IxEEPvm
	.cfi_startproc
; %bb.0:
	sub	sp, sp, #32
	stp	x29, x30, [sp, #16]             ; 16-byte Folded Spill
	add	x29, sp, #16
	.cfi_def_cfa w29, 16
	.cfi_offset w30, -8
	.cfi_offset w29, -16
	str	x0, [sp, #8]
	ldr	x0, [sp, #8]
	bl	__Znwm
	ldp	x29, x30, [sp, #16]             ; 16-byte Folded Reload
	add	sp, sp, #32
	ret
	.cfi_endproc
                                        ; -- End function
	.private_extern	__ZNSt3__134__uninitialized_allocator_relocateB8ne200100INS_9allocatorIxEEPxEEvRT_T0_S6_S6_ ; -- Begin function _ZNSt3__134__uninitialized_allocator_relocateB8ne200100INS_9allocatorIxEEPxEEvRT_T0_S6_S6_
	.globl	__ZNSt3__134__uninitialized_allocator_relocateB8ne200100INS_9allocatorIxEEPxEEvRT_T0_S6_S6_
	.weak_definition	__ZNSt3__134__uninitialized_allocator_relocateB8ne200100INS_9allocatorIxEEPxEEvRT_T0_S6_S6_
	.p2align	2
__ZNSt3__134__uninitialized_allocator_relocateB8ne200100INS_9allocatorIxEEPxEEvRT_T0_S6_S6_: ; @_ZNSt3__134__uninitialized_allocator_relocateB8ne200100INS_9allocatorIxEEPxEEvRT_T0_S6_S6_
	.cfi_startproc
; %bb.0:
	sub	sp, sp, #64
	stp	x29, x30, [sp, #48]             ; 16-byte Folded Spill
	add	x29, sp, #48
	.cfi_def_cfa w29, 16
	.cfi_offset w30, -8
	.cfi_offset w29, -16
	stur	x0, [x29, #-8]
	stur	x1, [x29, #-16]
	str	x2, [sp, #24]
	str	x3, [sp, #16]
	ldr	x0, [sp, #16]
	bl	__ZNSt3__112__to_addressB8ne200100IxEEPT_S2_
	str	x0, [sp, #8]                    ; 8-byte Folded Spill
	ldur	x0, [x29, #-16]
	bl	__ZNSt3__112__to_addressB8ne200100IxEEPT_S2_
	mov	x1, x0
	ldr	x0, [sp, #8]                    ; 8-byte Folded Reload
	ldr	x8, [sp, #24]
	ldur	x9, [x29, #-16]
	subs	x9, x8, x9
	mov	x8, #8                          ; =0x8
	sdiv	x9, x9, x8
	mul	x2, x8, x9
	bl	_memcpy
	ldp	x29, x30, [sp, #48]             ; 16-byte Folded Reload
	add	sp, sp, #64
	ret
	.cfi_endproc
                                        ; -- End function
	.private_extern	__ZNSt3__14swapB8ne200100IPxEENS_9enable_ifIXaasr21is_move_constructibleIT_EE5valuesr18is_move_assignableIS3_EE5valueEvE4typeERS3_S6_ ; -- Begin function _ZNSt3__14swapB8ne200100IPxEENS_9enable_ifIXaasr21is_move_constructibleIT_EE5valuesr18is_move_assignableIS3_EE5valueEvE4typeERS3_S6_
	.globl	__ZNSt3__14swapB8ne200100IPxEENS_9enable_ifIXaasr21is_move_constructibleIT_EE5valuesr18is_move_assignableIS3_EE5valueEvE4typeERS3_S6_
	.weak_definition	__ZNSt3__14swapB8ne200100IPxEENS_9enable_ifIXaasr21is_move_constructibleIT_EE5valuesr18is_move_assignableIS3_EE5valueEvE4typeERS3_S6_
	.p2align	2
__ZNSt3__14swapB8ne200100IPxEENS_9enable_ifIXaasr21is_move_constructibleIT_EE5valuesr18is_move_assignableIS3_EE5valueEvE4typeERS3_S6_: ; @_ZNSt3__14swapB8ne200100IPxEENS_9enable_ifIXaasr21is_move_constructibleIT_EE5valuesr18is_move_assignableIS3_EE5valueEvE4typeERS3_S6_
	.cfi_startproc
; %bb.0:
	sub	sp, sp, #32
	.cfi_def_cfa_offset 32
	str	x0, [sp, #24]
	str	x1, [sp, #16]
	ldr	x8, [sp, #24]
	ldr	x8, [x8]
	str	x8, [sp, #8]
	ldr	x8, [sp, #16]
	ldr	x8, [x8]
	ldr	x9, [sp, #24]
	str	x8, [x9]
	ldr	x8, [sp, #8]
	ldr	x9, [sp, #16]
	str	x8, [x9]
	add	sp, sp, #32
	ret
	.cfi_endproc
                                        ; -- End function
	.private_extern	__ZNKSt3__16vectorIxNS_9allocatorIxEEE14__annotate_newB8ne200100Em ; -- Begin function _ZNKSt3__16vectorIxNS_9allocatorIxEEE14__annotate_newB8ne200100Em
	.globl	__ZNKSt3__16vectorIxNS_9allocatorIxEEE14__annotate_newB8ne200100Em
	.weak_definition	__ZNKSt3__16vectorIxNS_9allocatorIxEEE14__annotate_newB8ne200100Em
	.p2align	2
__ZNKSt3__16vectorIxNS_9allocatorIxEEE14__annotate_newB8ne200100Em: ; @_ZNKSt3__16vectorIxNS_9allocatorIxEEE14__annotate_newB8ne200100Em
	.cfi_startproc
; %bb.0:
	sub	sp, sp, #16
	.cfi_def_cfa_offset 16
	str	x0, [sp, #8]
	str	x1, [sp]
	add	sp, sp, #16
	ret
	.cfi_endproc
                                        ; -- End function
	.private_extern	__ZNSt3__114__split_bufferIxRNS_9allocatorIxEEED2Ev ; -- Begin function _ZNSt3__114__split_bufferIxRNS_9allocatorIxEEED2Ev
	.globl	__ZNSt3__114__split_bufferIxRNS_9allocatorIxEEED2Ev
	.weak_def_can_be_hidden	__ZNSt3__114__split_bufferIxRNS_9allocatorIxEEED2Ev
	.p2align	2
__ZNSt3__114__split_bufferIxRNS_9allocatorIxEEED2Ev: ; @_ZNSt3__114__split_bufferIxRNS_9allocatorIxEEED2Ev
Lfunc_begin14:
	.cfi_startproc
	.cfi_personality 155, ___gxx_personality_v0
	.cfi_lsda 16, Lexception14
; %bb.0:
	sub	sp, sp, #64
	stp	x29, x30, [sp, #48]             ; 16-byte Folded Spill
	add	x29, sp, #48
	.cfi_def_cfa w29, 16
	.cfi_offset w30, -8
	.cfi_offset w29, -16
	stur	x0, [x29, #-16]
	ldur	x0, [x29, #-16]
	str	x0, [sp, #24]                   ; 8-byte Folded Spill
	mov	x8, x0
	stur	x8, [x29, #-8]
	bl	__ZNSt3__114__split_bufferIxRNS_9allocatorIxEEE5clearB8ne200100Ev
	ldr	x8, [sp, #24]                   ; 8-byte Folded Reload
	ldr	x8, [x8]
	cbz	x8, LBB151_3
	b	LBB151_1
LBB151_1:
	ldr	x0, [sp, #24]                   ; 8-byte Folded Reload
	ldr	x8, [x0, #32]
	str	x8, [sp]                        ; 8-byte Folded Spill
	ldr	x8, [x0]
	str	x8, [sp, #8]                    ; 8-byte Folded Spill
Ltmp341:
	bl	__ZNKSt3__114__split_bufferIxRNS_9allocatorIxEEE8capacityB8ne200100Ev
	str	x0, [sp, #16]                   ; 8-byte Folded Spill
Ltmp342:
	b	LBB151_2
LBB151_2:
	ldr	x2, [sp, #16]                   ; 8-byte Folded Reload
	ldr	x1, [sp, #8]                    ; 8-byte Folded Reload
	ldr	x0, [sp]                        ; 8-byte Folded Reload
	bl	__ZNSt3__116allocator_traitsINS_9allocatorIxEEE10deallocateB8ne200100ERS2_Pxm
	b	LBB151_3
LBB151_3:
	ldur	x0, [x29, #-8]
	ldp	x29, x30, [sp, #48]             ; 16-byte Folded Reload
	add	sp, sp, #64
	ret
LBB151_4:
Ltmp343:
	bl	___clang_call_terminate
Lfunc_end14:
	.cfi_endproc
	.section	__TEXT,__gcc_except_tab
	.p2align	2, 0x0
GCC_except_table151:
Lexception14:
	.byte	255                             ; @LPStart Encoding = omit
	.byte	155                             ; @TType Encoding = indirect pcrel sdata4
	.uleb128 Lttbase5-Lttbaseref5
Lttbaseref5:
	.byte	1                               ; Call site Encoding = uleb128
	.uleb128 Lcst_end14-Lcst_begin14
Lcst_begin14:
	.uleb128 Ltmp341-Lfunc_begin14          ; >> Call Site 1 <<
	.uleb128 Ltmp342-Ltmp341                ;   Call between Ltmp341 and Ltmp342
	.uleb128 Ltmp343-Lfunc_begin14          ;     jumps to Ltmp343
	.byte	1                               ;   On action: 1
Lcst_end14:
	.byte	1                               ; >> Action Record 1 <<
                                        ;   Catch TypeInfo 1
	.byte	0                               ;   No further actions
	.p2align	2, 0x0
                                        ; >> Catch TypeInfos <<
	.long	0                               ; TypeInfo 1
Lttbase5:
	.p2align	2, 0x0
                                        ; -- End function
	.section	__TEXT,__text,regular,pure_instructions
	.private_extern	__ZNSt3__114__split_bufferIxRNS_9allocatorIxEEE5clearB8ne200100Ev ; -- Begin function _ZNSt3__114__split_bufferIxRNS_9allocatorIxEEE5clearB8ne200100Ev
	.globl	__ZNSt3__114__split_bufferIxRNS_9allocatorIxEEE5clearB8ne200100Ev
	.weak_definition	__ZNSt3__114__split_bufferIxRNS_9allocatorIxEEE5clearB8ne200100Ev
	.p2align	2
__ZNSt3__114__split_bufferIxRNS_9allocatorIxEEE5clearB8ne200100Ev: ; @_ZNSt3__114__split_bufferIxRNS_9allocatorIxEEE5clearB8ne200100Ev
	.cfi_startproc
; %bb.0:
	sub	sp, sp, #32
	stp	x29, x30, [sp, #16]             ; 16-byte Folded Spill
	add	x29, sp, #16
	.cfi_def_cfa w29, 16
	.cfi_offset w30, -8
	.cfi_offset w29, -16
	str	x0, [sp, #8]
	ldr	x0, [sp, #8]
	ldr	x1, [x0, #8]
	bl	__ZNSt3__114__split_bufferIxRNS_9allocatorIxEEE17__destruct_at_endB8ne200100EPx
	ldp	x29, x30, [sp, #16]             ; 16-byte Folded Reload
	add	sp, sp, #32
	ret
	.cfi_endproc
                                        ; -- End function
	.private_extern	__ZNKSt3__114__split_bufferIxRNS_9allocatorIxEEE8capacityB8ne200100Ev ; -- Begin function _ZNKSt3__114__split_bufferIxRNS_9allocatorIxEEE8capacityB8ne200100Ev
	.globl	__ZNKSt3__114__split_bufferIxRNS_9allocatorIxEEE8capacityB8ne200100Ev
	.weak_definition	__ZNKSt3__114__split_bufferIxRNS_9allocatorIxEEE8capacityB8ne200100Ev
	.p2align	2
__ZNKSt3__114__split_bufferIxRNS_9allocatorIxEEE8capacityB8ne200100Ev: ; @_ZNKSt3__114__split_bufferIxRNS_9allocatorIxEEE8capacityB8ne200100Ev
	.cfi_startproc
; %bb.0:
	sub	sp, sp, #16
	.cfi_def_cfa_offset 16
	str	x0, [sp, #8]
	ldr	x9, [sp, #8]
	ldr	x8, [x9, #24]
	ldr	x9, [x9]
	subs	x8, x8, x9
	mov	x9, #8                          ; =0x8
	sdiv	x0, x8, x9
	add	sp, sp, #16
	ret
	.cfi_endproc
                                        ; -- End function
	.private_extern	__ZNSt3__114__split_bufferIxRNS_9allocatorIxEEE17__destruct_at_endB8ne200100EPx ; -- Begin function _ZNSt3__114__split_bufferIxRNS_9allocatorIxEEE17__destruct_at_endB8ne200100EPx
	.globl	__ZNSt3__114__split_bufferIxRNS_9allocatorIxEEE17__destruct_at_endB8ne200100EPx
	.weak_definition	__ZNSt3__114__split_bufferIxRNS_9allocatorIxEEE17__destruct_at_endB8ne200100EPx
	.p2align	2
__ZNSt3__114__split_bufferIxRNS_9allocatorIxEEE17__destruct_at_endB8ne200100EPx: ; @_ZNSt3__114__split_bufferIxRNS_9allocatorIxEEE17__destruct_at_endB8ne200100EPx
	.cfi_startproc
; %bb.0:
	sub	sp, sp, #48
	stp	x29, x30, [sp, #32]             ; 16-byte Folded Spill
	add	x29, sp, #32
	.cfi_def_cfa w29, 16
	.cfi_offset w30, -8
	.cfi_offset w29, -16
	stur	x0, [x29, #-8]
	str	x1, [sp, #16]
	ldur	x0, [x29, #-8]
	ldr	x1, [sp, #16]
	bl	__ZNSt3__114__split_bufferIxRNS_9allocatorIxEEE17__destruct_at_endB8ne200100EPxNS_17integral_constantIbLb0EEE
	ldp	x29, x30, [sp, #32]             ; 16-byte Folded Reload
	add	sp, sp, #48
	ret
	.cfi_endproc
                                        ; -- End function
	.private_extern	__ZNSt3__114__split_bufferIxRNS_9allocatorIxEEE17__destruct_at_endB8ne200100EPxNS_17integral_constantIbLb0EEE ; -- Begin function _ZNSt3__114__split_bufferIxRNS_9allocatorIxEEE17__destruct_at_endB8ne200100EPxNS_17integral_constantIbLb0EEE
	.globl	__ZNSt3__114__split_bufferIxRNS_9allocatorIxEEE17__destruct_at_endB8ne200100EPxNS_17integral_constantIbLb0EEE
	.weak_definition	__ZNSt3__114__split_bufferIxRNS_9allocatorIxEEE17__destruct_at_endB8ne200100EPxNS_17integral_constantIbLb0EEE
	.p2align	2
__ZNSt3__114__split_bufferIxRNS_9allocatorIxEEE17__destruct_at_endB8ne200100EPxNS_17integral_constantIbLb0EEE: ; @_ZNSt3__114__split_bufferIxRNS_9allocatorIxEEE17__destruct_at_endB8ne200100EPxNS_17integral_constantIbLb0EEE
Lfunc_begin15:
	.cfi_startproc
	.cfi_personality 155, ___gxx_personality_v0
	.cfi_lsda 16, Lexception15
; %bb.0:
	sub	sp, sp, #64
	stp	x29, x30, [sp, #48]             ; 16-byte Folded Spill
	add	x29, sp, #48
	.cfi_def_cfa w29, 16
	.cfi_offset w30, -8
	.cfi_offset w29, -16
	stur	x0, [x29, #-16]
	str	x1, [sp, #24]
	ldur	x8, [x29, #-16]
	str	x8, [sp, #16]                   ; 8-byte Folded Spill
	b	LBB155_1
LBB155_1:                               ; =>This Inner Loop Header: Depth=1
	ldr	x9, [sp, #16]                   ; 8-byte Folded Reload
	ldr	x8, [sp, #24]
	ldr	x9, [x9, #16]
	subs	x8, x8, x9
	b.eq	LBB155_4
	b	LBB155_2
LBB155_2:                               ;   in Loop: Header=BB155_1 Depth=1
	ldr	x8, [sp, #16]                   ; 8-byte Folded Reload
	ldr	x9, [x8, #32]
	str	x9, [sp, #8]                    ; 8-byte Folded Spill
	ldr	x9, [x8, #16]
	subs	x0, x9, #8
	str	x0, [x8, #16]
	bl	__ZNSt3__112__to_addressB8ne200100IxEEPT_S2_
	mov	x1, x0
	ldr	x0, [sp, #8]                    ; 8-byte Folded Reload
Ltmp345:
	bl	__ZNSt3__116allocator_traitsINS_9allocatorIxEEE7destroyB8ne200100IxLi0EEEvRS2_PT_
Ltmp346:
	b	LBB155_3
LBB155_3:                               ;   in Loop: Header=BB155_1 Depth=1
	b	LBB155_1
LBB155_4:
	ldp	x29, x30, [sp, #48]             ; 16-byte Folded Reload
	add	sp, sp, #64
	ret
LBB155_5:
Ltmp347:
