	.section	__TEXT,__text,regular,pure_instructions
	.build_version macos, 26, 0	sdk_version 26, 2
	.globl	__Z14classic_modaddyyy          ; -- Begin function _Z14classic_modaddyyy
	.p2align	2
__Z14classic_modaddyyy:                 ; @_Z14classic_modaddyyy
	.cfi_startproc
; %bb.0:
	sub	sp, sp, #32
	.cfi_def_cfa_offset 32
	str	x0, [sp, #24]
	str	x1, [sp, #16]
	str	x2, [sp, #8]
	ldr	x8, [sp, #24]
	ldr	x9, [sp, #16]
	add	x8, x8, x9
	ldr	x10, [sp, #8]
	udiv	x9, x8, x10
	mul	x9, x9, x10
	subs	x0, x8, x9
	add	sp, sp, #32
	ret
	.cfi_endproc
                                        ; -- End function
	.globl	__Z14classic_modmulyyy          ; -- Begin function _Z14classic_modmulyyy
	.p2align	2
__Z14classic_modmulyyy:                 ; @_Z14classic_modmulyyy
	.cfi_startproc
; %bb.0:
	sub	sp, sp, #48
	stp	x29, x30, [sp, #32]             ; 16-byte Folded Spill
	add	x29, sp, #32
	.cfi_def_cfa w29, 16
	.cfi_offset w30, -8
	.cfi_offset w29, -16
	stur	x0, [x29, #-8]
	str	x1, [sp, #16]
	str	x2, [sp, #8]
	ldur	x8, [x29, #-8]
	ldr	x9, [sp, #16]
	mul	x0, x8, x9
	umulh	x1, x8, x9
	ldr	x2, [sp, #8]
	mov	x3, #0                          ; =0x0
	bl	___umodti3
	ldp	x29, x30, [sp, #32]             ; 16-byte Folded Reload
	add	sp, sp, #48
	ret
	.cfi_endproc
                                        ; -- End function
	.globl	__Z12reist_modaddxxx            ; -- Begin function _Z12reist_modaddxxx
	.p2align	2
__Z12reist_modaddxxx:                   ; @_Z12reist_modaddxxx
	.cfi_startproc
; %bb.0:
	sub	sp, sp, #48
	.cfi_def_cfa_offset 48
	str	x0, [sp, #40]
	str	x1, [sp, #32]
	str	x2, [sp, #24]
	ldr	x8, [sp, #40]
	ldr	x9, [sp, #32]
	add	x8, x8, x9
	str	x8, [sp, #16]
	ldr	x8, [sp, #24]
	asr	x8, x8, #1
	str	x8, [sp, #8]
	ldr	x8, [sp, #16]
	ldr	x9, [sp, #8]
	subs	x8, x8, x9
	b.le	LBB2_2
	b	LBB2_1
LBB2_1:
	ldr	x9, [sp, #24]
	ldr	x8, [sp, #16]
	subs	x8, x8, x9
	str	x8, [sp, #16]
	b	LBB2_2
LBB2_2:
	ldr	x8, [sp, #16]
	ldr	x10, [sp, #8]
	mov	x9, #0                          ; =0x0
	subs	x9, x9, x10
	subs	x8, x8, x9
	b.ge	LBB2_4
	b	LBB2_3
LBB2_3:
	ldr	x9, [sp, #24]
	ldr	x8, [sp, #16]
	add	x8, x8, x9
	str	x8, [sp, #16]
	b	LBB2_4
LBB2_4:
	ldr	x0, [sp, #16]
	add	sp, sp, #48
	ret
	.cfi_endproc
                                        ; -- End function
	.globl	__Z12reist_modmulxxx            ; -- Begin function _Z12reist_modmulxxx
	.p2align	2
__Z12reist_modmulxxx:                   ; @_Z12reist_modmulxxx
	.cfi_startproc
; %bb.0:
	sub	sp, sp, #80
	stp	x29, x30, [sp, #64]             ; 16-byte Folded Spill
	add	x29, sp, #64
	.cfi_def_cfa w29, 16
	.cfi_offset w30, -8
	.cfi_offset w29, -16
	stur	x0, [x29, #-8]
	stur	x1, [x29, #-16]
	stur	x2, [x29, #-24]
	ldur	x9, [x29, #-8]
	ldur	x10, [x29, #-16]
	mul	x8, x9, x10
	smulh	x9, x9, x10
	str	x9, [sp, #24]
	str	x8, [sp, #16]
	ldr	x0, [sp, #16]
	ldr	x1, [sp, #24]
	ldur	x2, [x29, #-24]
	asr	x3, x2, #63
	bl	___modti3
	str	x0, [sp, #8]
	ldur	x8, [x29, #-24]
	asr	x8, x8, #1
	str	x8, [sp]
	ldr	x8, [sp, #8]
	ldr	x9, [sp]
	subs	x8, x8, x9
	b.le	LBB3_2
	b	LBB3_1
LBB3_1:
	ldur	x9, [x29, #-24]
	ldr	x8, [sp, #8]
	subs	x8, x8, x9
	str	x8, [sp, #8]
	b	LBB3_2
LBB3_2:
	ldr	x8, [sp, #8]
	ldr	x10, [sp]
	mov	x9, #0                          ; =0x0
	subs	x9, x9, x10
	subs	x8, x8, x9
	b.ge	LBB3_4
	b	LBB3_3
LBB3_3:
	ldur	x9, [x29, #-24]
	ldr	x8, [sp, #8]
	add	x8, x8, x9
	str	x8, [sp, #8]
	b	LBB3_4
LBB3_4:
	ldr	x0, [sp, #8]
	ldp	x29, x30, [sp, #64]             ; 16-byte Folded Reload
	add	sp, sp, #80
	ret
	.cfi_endproc
                                        ; -- End function
	.globl	_main                           ; -- Begin function main
	.p2align	2
_main:                                  ; @main
Lfunc_begin0:
	.cfi_startproc
	.cfi_personality 155, ___gxx_personality_v0
	.cfi_lsda 16, Lexception0
; %bb.0:
	stp	x28, x27, [sp, #-32]!           ; 16-byte Folded Spill
	stp	x29, x30, [sp, #16]             ; 16-byte Folded Spill
	add	x29, sp, #16
	sub	sp, sp, #848
	.cfi_def_cfa w29, 16
	.cfi_offset w30, -8
	.cfi_offset w29, -16
	.cfi_offset w27, -24
	.cfi_offset w28, -32
	adrp	x8, ___stack_chk_guard@GOTPAGE
	ldr	x8, [x8, ___stack_chk_guard@GOTPAGEOFF]
	ldr	x8, [x8]
	stur	x8, [x29, #-24]
	stur	wzr, [x29, #-76]
	stur	w0, [x29, #-80]
	stur	x1, [x29, #-88]
	mov	x8, #38528                      ; =0x9680
	movk	x8, #152, lsl #16
	stur	x8, [x29, #-96]
	ldur	w8, [x29, #-80]
	subs	w8, w8, #1
	b.le	LBB4_5
	b	LBB4_1
LBB4_1:
	ldur	x8, [x29, #-88]
	ldr	x1, [x8, #8]
Ltmp2:
	sub	x0, x29, #120
	bl	__ZNSt3__112basic_stringIcNS_11char_traitsIcEENS_9allocatorIcEEEC1B8ne200100ILi0EEEPKc
Ltmp3:
	b	LBB4_2
LBB4_2:
Ltmp4:
	sub	x0, x29, #120
	mov	x1, #0                          ; =0x0
	mov	w2, #10                         ; =0xa
	bl	__ZNSt3__15stollERKNS_12basic_stringIcNS_11char_traitsIcEENS_9allocatorIcEEEEPmi
	str	x0, [sp, #296]                  ; 8-byte Folded Spill
Ltmp5:
	b	LBB4_3
LBB4_3:
	ldr	x8, [sp, #296]                  ; 8-byte Folded Reload
	stur	x8, [x29, #-96]
	sub	x0, x29, #120
	bl	__ZNSt3__112basic_stringIcNS_11char_traitsIcEENS_9allocatorIcEEED1Ev
	b	LBB4_5
LBB4_4:
Ltmp6:
	stur	x0, [x29, #-128]
	mov	x8, x1
	stur	w8, [x29, #-132]
	sub	x0, x29, #120
	bl	__ZNSt3__112basic_stringIcNS_11char_traitsIcEENS_9allocatorIcEEED1Ev
	b	LBB4_69
LBB4_5:
	sub	x0, x29, #72
	str	x0, [sp, #288]                  ; 8-byte Folded Spill
	mov	x2, #48                         ; =0x30
	adrp	x1, l_constinit@PAGE
	add	x1, x1, l_constinit@PAGEOFF
	bl	_memcpy
	ldr	x8, [sp, #288]                  ; 8-byte Folded Reload
	stur	x8, [x29, #-176]
	mov	x8, #6                          ; =0x6
	stur	x8, [x29, #-168]
	ldur	x1, [x29, #-176]
	ldur	x2, [x29, #-168]
Ltmp7:
	sub	x0, x29, #160
	bl	__ZNSt3__16vectorIyNS_9allocatorIyEEEC1B8ne200100ESt16initializer_listIyE
Ltmp8:
	b	LBB4_6
LBB4_6:
Ltmp10:
	adrp	x0, __ZNSt3__14coutE@GOTPAGE
	ldr	x0, [x0, __ZNSt3__14coutE@GOTPAGEOFF]
	adrp	x1, __ZNSt3__15fixedB8ne200100ERNS_8ios_baseE@PAGE
	add	x1, x1, __ZNSt3__15fixedB8ne200100ERNS_8ios_baseE@PAGEOFF
	bl	__ZNSt3__113basic_ostreamIcNS_11char_traitsIcEEElsB8ne200100EPFRNS_8ios_baseES5_E
	str	x0, [sp, #280]                  ; 8-byte Folded Spill
Ltmp11:
	b	LBB4_7
LBB4_7:
Ltmp12:
	mov	w0, #9                          ; =0x9
	bl	__ZNSt3__112setprecisionB8ne200100Ei
	str	w0, [sp, #276]                  ; 4-byte Folded Spill
Ltmp13:
	b	LBB4_8
LBB4_8:
	ldr	x0, [sp, #280]                  ; 8-byte Folded Reload
	ldr	w8, [sp, #276]                  ; 4-byte Folded Reload
	sub	x1, x29, #180
	stur	w8, [x29, #-180]
Ltmp14:
	bl	__ZNSt3__1lsB8ne200100IcNS_11char_traitsIcEEEERNS_13basic_ostreamIT_T0_EES7_RKNS_8__iom_t5E
Ltmp15:
	b	LBB4_9
LBB4_9:
Ltmp16:
	adrp	x0, __ZNSt3__14coutE@GOTPAGE
	ldr	x0, [x0, __ZNSt3__14coutE@GOTPAGEOFF]
	adrp	x1, l_.str@PAGE
	add	x1, x1, l_.str@PAGEOFF
	bl	__ZNSt3__1lsB8ne200100INS_11char_traitsIcEEEERNS_13basic_ostreamIcT_EES6_PKc
Ltmp17:
	b	LBB4_10
LBB4_10:
Ltmp18:
	adrp	x0, __ZNSt3__14coutE@GOTPAGE
	ldr	x0, [x0, __ZNSt3__14coutE@GOTPAGEOFF]
	adrp	x1, l_.str.1@PAGE
	add	x1, x1, l_.str.1@PAGEOFF
	bl	__ZNSt3__1lsB8ne200100INS_11char_traitsIcEEEERNS_13basic_ostreamIcT_EES6_PKc
Ltmp19:
	b	LBB4_11
LBB4_11:
Ltmp20:
	adrp	x0, __ZNSt3__14coutE@GOTPAGE
	ldr	x0, [x0, __ZNSt3__14coutE@GOTPAGEOFF]
	adrp	x1, l_.str@PAGE
	add	x1, x1, l_.str@PAGEOFF
	bl	__ZNSt3__1lsB8ne200100INS_11char_traitsIcEEEERNS_13basic_ostreamIcT_EES6_PKc
Ltmp21:
	b	LBB4_12
LBB4_12:
Ltmp22:
	adrp	x0, __ZNSt3__14coutE@GOTPAGE
	ldr	x0, [x0, __ZNSt3__14coutE@GOTPAGEOFF]
	adrp	x1, l_.str.2@PAGE
	add	x1, x1, l_.str.2@PAGEOFF
	bl	__ZNSt3__1lsB8ne200100INS_11char_traitsIcEEEERNS_13basic_ostreamIcT_EES6_PKc
	str	x0, [sp, #264]                  ; 8-byte Folded Spill
Ltmp23:
	b	LBB4_13
LBB4_13:
	ldr	x0, [sp, #264]                  ; 8-byte Folded Reload
	ldur	x1, [x29, #-96]
Ltmp24:
	bl	__ZNSt3__113basic_ostreamIcNS_11char_traitsIcEEElsEx
	str	x0, [sp, #256]                  ; 8-byte Folded Spill
Ltmp25:
	b	LBB4_14
LBB4_14:
Ltmp26:
	ldr	x0, [sp, #256]                  ; 8-byte Folded Reload
	adrp	x1, l_.str.3@PAGE
	add	x1, x1, l_.str.3@PAGEOFF
	bl	__ZNSt3__1lsB8ne200100INS_11char_traitsIcEEEERNS_13basic_ostreamIcT_EES6_PKc
Ltmp27:
	b	LBB4_15
LBB4_15:
	sub	x8, x29, #160
	stur	x8, [x29, #-192]
	ldur	x0, [x29, #-192]
	bl	__ZNSt3__16vectorIyNS_9allocatorIyEEE5beginB8ne200100Ev
	stur	x0, [x29, #-200]
	ldur	x0, [x29, #-192]
	bl	__ZNSt3__16vectorIyNS_9allocatorIyEEE3endB8ne200100Ev
	stur	x0, [x29, #-208]
	b	LBB4_16
LBB4_16:                                ; =>This Inner Loop Header: Depth=1
	sub	x0, x29, #200
	sub	x1, x29, #208
	bl	__ZNSt3__1neB8ne200100IPyEEbRKNS_11__wrap_iterIT_EES6_
	tbz	w0, #0, LBB4_66
	b	LBB4_17
LBB4_17:                                ;   in Loop: Header=BB4_16 Depth=1
	sub	x0, x29, #200
	bl	__ZNKSt3__111__wrap_iterIPyEdeB8ne200100Ev
	ldr	x8, [x0]
	stur	x8, [x29, #-216]
Ltmp28:
	adrp	x0, __ZNSt3__14coutE@GOTPAGE
	ldr	x0, [x0, __ZNSt3__14coutE@GOTPAGEOFF]
	adrp	x1, l_.str@PAGE
	add	x1, x1, l_.str@PAGEOFF
	bl	__ZNSt3__1lsB8ne200100INS_11char_traitsIcEEEERNS_13basic_ostreamIcT_EES6_PKc
Ltmp29:
	b	LBB4_18
LBB4_18:                                ;   in Loop: Header=BB4_16 Depth=1
Ltmp30:
	adrp	x0, __ZNSt3__14coutE@GOTPAGE
	ldr	x0, [x0, __ZNSt3__14coutE@GOTPAGEOFF]
	adrp	x1, l_.str.4@PAGE
	add	x1, x1, l_.str.4@PAGEOFF
	bl	__ZNSt3__1lsB8ne200100INS_11char_traitsIcEEEERNS_13basic_ostreamIcT_EES6_PKc
	str	x0, [sp, #248]                  ; 8-byte Folded Spill
Ltmp31:
	b	LBB4_19
LBB4_19:                                ;   in Loop: Header=BB4_16 Depth=1
	ldr	x0, [sp, #248]                  ; 8-byte Folded Reload
	ldur	x1, [x29, #-216]
Ltmp32:
	bl	__ZNSt3__113basic_ostreamIcNS_11char_traitsIcEEElsEy
	str	x0, [sp, #240]                  ; 8-byte Folded Spill
Ltmp33:
	b	LBB4_20
LBB4_20:                                ;   in Loop: Header=BB4_16 Depth=1
Ltmp34:
	ldr	x0, [sp, #240]                  ; 8-byte Folded Reload
	adrp	x1, l_.str.5@PAGE
	add	x1, x1, l_.str.5@PAGEOFF
	bl	__ZNSt3__1lsB8ne200100INS_11char_traitsIcEEEERNS_13basic_ostreamIcT_EES6_PKc
Ltmp35:
	b	LBB4_21
LBB4_21:                                ;   in Loop: Header=BB4_16 Depth=1
Ltmp36:
	adrp	x0, __ZNSt3__14coutE@GOTPAGE
	ldr	x0, [x0, __ZNSt3__14coutE@GOTPAGEOFF]
	adrp	x1, l_.str@PAGE
	add	x1, x1, l_.str@PAGEOFF
	bl	__ZNSt3__1lsB8ne200100INS_11char_traitsIcEEEERNS_13basic_ostreamIcT_EES6_PKc
Ltmp37:
	b	LBB4_22
LBB4_22:                                ;   in Loop: Header=BB4_16 Depth=1
	ldur	x1, [x29, #-216]
Ltmp38:
	sub	x0, x29, #248
	bl	__ZN17MontgomeryContextC1Ey
Ltmp39:
	b	LBB4_23
LBB4_23:                                ;   in Loop: Header=BB4_16 Depth=1
	sub	x8, x29, #216
	ldur	x11, [x29, #-216]
	mov	x9, #54919                      ; =0xd687
	movk	x9, #18, lsl #16
	udiv	x10, x9, x11
	mul	x10, x10, x11
	subs	x9, x9, x10
	sub	x10, x29, #256
	stur	x9, [x29, #-256]
	ldur	x12, [x29, #-216]
	mov	x9, #37688                      ; =0x9338
	movk	x9, #1359, lsl #16
	udiv	x11, x9, x12
	mul	x11, x11, x12
	subs	x11, x9, x11
	add	x9, sp, #600
	str	x11, [sp, #600]
	ldur	x11, [x29, #-256]
	str	x11, [sp, #592]
	ldr	x11, [sp, #600]
	str	x11, [sp, #584]
	add	x0, sp, #552
	str	x10, [sp, #552]
	str	x9, [sp, #560]
	str	x8, [sp, #568]
	ldur	x1, [x29, #-96]
Ltmp40:
	bl	__Z9time_loopIZ4mainE3$_0EdOT_x
	str	d0, [sp, #232]                  ; 8-byte Folded Spill
Ltmp41:
	b	LBB4_24
LBB4_24:                                ;   in Loop: Header=BB4_16 Depth=1
	ldr	d0, [sp, #232]                  ; 8-byte Folded Reload
	str	d0, [sp, #576]
	add	x0, sp, #520
	add	x8, sp, #592
	str	x8, [sp, #520]
	add	x8, sp, #584
	str	x8, [sp, #528]
	sub	x8, x29, #216
	str	x8, [sp, #536]
	ldur	x1, [x29, #-96]
Ltmp42:
	bl	__Z9time_loopIZ4mainE3$_1EdOT_x
	str	d0, [sp, #224]                  ; 8-byte Folded Spill
Ltmp43:
	b	LBB4_25
LBB4_25:                                ;   in Loop: Header=BB4_16 Depth=1
	ldr	d0, [sp, #224]                  ; 8-byte Folded Reload
	str	d0, [sp, #544]
	ldur	x1, [x29, #-256]
Ltmp44:
	sub	x0, x29, #248
	bl	__ZNK17MontgomeryContext13to_montgomeryEy
	str	x0, [sp, #216]                  ; 8-byte Folded Spill
Ltmp45:
	b	LBB4_26
LBB4_26:                                ;   in Loop: Header=BB4_16 Depth=1
	ldr	x8, [sp, #216]                  ; 8-byte Folded Reload
	str	x8, [sp, #512]
	ldr	x1, [sp, #600]
Ltmp46:
	sub	x0, x29, #248
	bl	__ZNK17MontgomeryContext13to_montgomeryEy
	str	x0, [sp, #208]                  ; 8-byte Folded Spill
Ltmp47:
	b	LBB4_27
LBB4_27:                                ;   in Loop: Header=BB4_16 Depth=1
	ldr	x9, [sp, #208]                  ; 8-byte Folded Reload
	add	x8, sp, #504
	str	x9, [sp, #504]
	add	x0, sp, #472
	add	x9, sp, #512
	str	x9, [sp, #472]
	sub	x9, x29, #248
	str	x9, [sp, #480]
	str	x8, [sp, #488]
	ldur	x1, [x29, #-96]
Ltmp48:
	bl	__Z9time_loopIZ4mainE3$_2EdOT_x
	str	d0, [sp, #200]                  ; 8-byte Folded Spill
Ltmp49:
	b	LBB4_28
LBB4_28:                                ;   in Loop: Header=BB4_16 Depth=1
	ldr	d0, [sp, #200]                  ; 8-byte Folded Reload
	str	d0, [sp, #496]
Ltmp50:
	adrp	x0, __ZNSt3__14coutE@GOTPAGE
	ldr	x0, [x0, __ZNSt3__14coutE@GOTPAGEOFF]
	adrp	x1, l_.str.6@PAGE
	add	x1, x1, l_.str.6@PAGEOFF
	bl	__ZNSt3__1lsB8ne200100INS_11char_traitsIcEEEERNS_13basic_ostreamIcT_EES6_PKc
Ltmp51:
	b	LBB4_29
LBB4_29:                                ;   in Loop: Header=BB4_16 Depth=1
Ltmp52:
	adrp	x0, __ZNSt3__14coutE@GOTPAGE
	ldr	x0, [x0, __ZNSt3__14coutE@GOTPAGEOFF]
	adrp	x1, l_.str.7@PAGE
	add	x1, x1, l_.str.7@PAGEOFF
	bl	__ZNSt3__1lsB8ne200100INS_11char_traitsIcEEEERNS_13basic_ostreamIcT_EES6_PKc
	str	x0, [sp, #192]                  ; 8-byte Folded Spill
Ltmp53:
	b	LBB4_30
LBB4_30:                                ;   in Loop: Header=BB4_16 Depth=1
	ldr	x0, [sp, #192]                  ; 8-byte Folded Reload
	ldr	d0, [sp, #576]
Ltmp54:
	bl	__ZNSt3__113basic_ostreamIcNS_11char_traitsIcEEElsEd
	str	x0, [sp, #184]                  ; 8-byte Folded Spill
Ltmp55:
	b	LBB4_31
LBB4_31:                                ;   in Loop: Header=BB4_16 Depth=1
Ltmp56:
	ldr	x0, [sp, #184]                  ; 8-byte Folded Reload
	adrp	x1, l_.str.8@PAGE
	add	x1, x1, l_.str.8@PAGEOFF
	bl	__ZNSt3__1lsB8ne200100INS_11char_traitsIcEEEERNS_13basic_ostreamIcT_EES6_PKc
Ltmp57:
	b	LBB4_32
LBB4_32:                                ;   in Loop: Header=BB4_16 Depth=1
Ltmp58:
	adrp	x0, __ZNSt3__14coutE@GOTPAGE
	ldr	x0, [x0, __ZNSt3__14coutE@GOTPAGEOFF]
	adrp	x1, l_.str.9@PAGE
	add	x1, x1, l_.str.9@PAGEOFF
	bl	__ZNSt3__1lsB8ne200100INS_11char_traitsIcEEEERNS_13basic_ostreamIcT_EES6_PKc
	str	x0, [sp, #176]                  ; 8-byte Folded Spill
Ltmp59:
	b	LBB4_33
LBB4_33:                                ;   in Loop: Header=BB4_16 Depth=1
	ldr	x0, [sp, #176]                  ; 8-byte Folded Reload
	ldr	d0, [sp, #544]
Ltmp60:
	bl	__ZNSt3__113basic_ostreamIcNS_11char_traitsIcEEElsEd
	str	x0, [sp, #168]                  ; 8-byte Folded Spill
Ltmp61:
	b	LBB4_34
LBB4_34:                                ;   in Loop: Header=BB4_16 Depth=1
Ltmp62:
	ldr	x0, [sp, #168]                  ; 8-byte Folded Reload
	adrp	x1, l_.str.8@PAGE
	add	x1, x1, l_.str.8@PAGEOFF
	bl	__ZNSt3__1lsB8ne200100INS_11char_traitsIcEEEERNS_13basic_ostreamIcT_EES6_PKc
Ltmp63:
	b	LBB4_35
LBB4_35:                                ;   in Loop: Header=BB4_16 Depth=1
Ltmp64:
	adrp	x0, __ZNSt3__14coutE@GOTPAGE
	ldr	x0, [x0, __ZNSt3__14coutE@GOTPAGEOFF]
	adrp	x1, l_.str.10@PAGE
	add	x1, x1, l_.str.10@PAGEOFF
	bl	__ZNSt3__1lsB8ne200100INS_11char_traitsIcEEEERNS_13basic_ostreamIcT_EES6_PKc
	str	x0, [sp, #160]                  ; 8-byte Folded Spill
Ltmp65:
	b	LBB4_36
LBB4_36:                                ;   in Loop: Header=BB4_16 Depth=1
	ldr	x0, [sp, #160]                  ; 8-byte Folded Reload
	ldr	d0, [sp, #496]
Ltmp66:
	bl	__ZNSt3__113basic_ostreamIcNS_11char_traitsIcEEElsEd
	str	x0, [sp, #152]                  ; 8-byte Folded Spill
Ltmp67:
	b	LBB4_37
LBB4_37:                                ;   in Loop: Header=BB4_16 Depth=1
Ltmp68:
	ldr	x0, [sp, #152]                  ; 8-byte Folded Reload
	adrp	x1, l_.str.8@PAGE
	add	x1, x1, l_.str.8@PAGEOFF
	bl	__ZNSt3__1lsB8ne200100INS_11char_traitsIcEEEERNS_13basic_ostreamIcT_EES6_PKc
Ltmp69:
	b	LBB4_38
LBB4_38:                                ;   in Loop: Header=BB4_16 Depth=1
	add	x0, sp, #440
	sub	x8, x29, #256
	str	x8, [sp, #440]
	add	x8, sp, #600
	str	x8, [sp, #448]
	sub	x8, x29, #216
	str	x8, [sp, #456]
	ldur	x1, [x29, #-96]
Ltmp70:
	bl	__Z9time_loopIZ4mainE3$_3EdOT_x
	str	d0, [sp, #144]                  ; 8-byte Folded Spill
Ltmp71:
	b	LBB4_39
LBB4_39:                                ;   in Loop: Header=BB4_16 Depth=1
	ldr	d0, [sp, #144]                  ; 8-byte Folded Reload
	str	d0, [sp, #464]
	add	x0, sp, #408
	add	x8, sp, #592
	str	x8, [sp, #408]
	add	x8, sp, #584
	str	x8, [sp, #416]
	sub	x8, x29, #216
	str	x8, [sp, #424]
	ldur	x1, [x29, #-96]
Ltmp72:
	bl	__Z9time_loopIZ4mainE3$_4EdOT_x
	str	d0, [sp, #136]                  ; 8-byte Folded Spill
Ltmp73:
	b	LBB4_40
LBB4_40:                                ;   in Loop: Header=BB4_16 Depth=1
	ldr	d0, [sp, #136]                  ; 8-byte Folded Reload
	str	d0, [sp, #432]
	add	x0, sp, #376
	add	x8, sp, #512
	str	x8, [sp, #376]
	sub	x8, x29, #248
	str	x8, [sp, #384]
	add	x8, sp, #504
	str	x8, [sp, #392]
	ldur	x1, [x29, #-96]
Ltmp74:
	bl	__Z9time_loopIZ4mainE3$_5EdOT_x
	str	d0, [sp, #128]                  ; 8-byte Folded Spill
Ltmp75:
	b	LBB4_41
LBB4_41:                                ;   in Loop: Header=BB4_16 Depth=1
	ldr	d0, [sp, #128]                  ; 8-byte Folded Reload
	str	d0, [sp, #400]
Ltmp76:
	adrp	x0, __ZNSt3__14coutE@GOTPAGE
	ldr	x0, [x0, __ZNSt3__14coutE@GOTPAGEOFF]
	adrp	x1, l_.str.11@PAGE
	add	x1, x1, l_.str.11@PAGEOFF
	bl	__ZNSt3__1lsB8ne200100INS_11char_traitsIcEEEERNS_13basic_ostreamIcT_EES6_PKc
Ltmp77:
	b	LBB4_42
LBB4_42:                                ;   in Loop: Header=BB4_16 Depth=1
Ltmp78:
	adrp	x0, __ZNSt3__14coutE@GOTPAGE
	ldr	x0, [x0, __ZNSt3__14coutE@GOTPAGEOFF]
	adrp	x1, l_.str.7@PAGE
	add	x1, x1, l_.str.7@PAGEOFF
	bl	__ZNSt3__1lsB8ne200100INS_11char_traitsIcEEEERNS_13basic_ostreamIcT_EES6_PKc
	str	x0, [sp, #120]                  ; 8-byte Folded Spill
Ltmp79:
	b	LBB4_43
LBB4_43:                                ;   in Loop: Header=BB4_16 Depth=1
	ldr	x0, [sp, #120]                  ; 8-byte Folded Reload
	ldr	d0, [sp, #464]
Ltmp80:
	bl	__ZNSt3__113basic_ostreamIcNS_11char_traitsIcEEElsEd
	str	x0, [sp, #112]                  ; 8-byte Folded Spill
Ltmp81:
	b	LBB4_44
LBB4_44:                                ;   in Loop: Header=BB4_16 Depth=1
Ltmp82:
	ldr	x0, [sp, #112]                  ; 8-byte Folded Reload
	adrp	x1, l_.str.8@PAGE
	add	x1, x1, l_.str.8@PAGEOFF
	bl	__ZNSt3__1lsB8ne200100INS_11char_traitsIcEEEERNS_13basic_ostreamIcT_EES6_PKc
Ltmp83:
	b	LBB4_45
LBB4_45:                                ;   in Loop: Header=BB4_16 Depth=1
Ltmp84:
	adrp	x0, __ZNSt3__14coutE@GOTPAGE
	ldr	x0, [x0, __ZNSt3__14coutE@GOTPAGEOFF]
	adrp	x1, l_.str.9@PAGE
	add	x1, x1, l_.str.9@PAGEOFF
	bl	__ZNSt3__1lsB8ne200100INS_11char_traitsIcEEEERNS_13basic_ostreamIcT_EES6_PKc
	str	x0, [sp, #104]                  ; 8-byte Folded Spill
Ltmp85:
	b	LBB4_46
LBB4_46:                                ;   in Loop: Header=BB4_16 Depth=1
	ldr	x0, [sp, #104]                  ; 8-byte Folded Reload
	ldr	d0, [sp, #432]
Ltmp86:
	bl	__ZNSt3__113basic_ostreamIcNS_11char_traitsIcEEElsEd
	str	x0, [sp, #96]                   ; 8-byte Folded Spill
Ltmp87:
	b	LBB4_47
LBB4_47:                                ;   in Loop: Header=BB4_16 Depth=1
Ltmp88:
	ldr	x0, [sp, #96]                   ; 8-byte Folded Reload
	adrp	x1, l_.str.8@PAGE
	add	x1, x1, l_.str.8@PAGEOFF
	bl	__ZNSt3__1lsB8ne200100INS_11char_traitsIcEEEERNS_13basic_ostreamIcT_EES6_PKc
Ltmp89:
	b	LBB4_48
LBB4_48:                                ;   in Loop: Header=BB4_16 Depth=1
Ltmp90:
	adrp	x0, __ZNSt3__14coutE@GOTPAGE
	ldr	x0, [x0, __ZNSt3__14coutE@GOTPAGEOFF]
	adrp	x1, l_.str.10@PAGE
	add	x1, x1, l_.str.10@PAGEOFF
	bl	__ZNSt3__1lsB8ne200100INS_11char_traitsIcEEEERNS_13basic_ostreamIcT_EES6_PKc
	str	x0, [sp, #88]                   ; 8-byte Folded Spill
Ltmp91:
	b	LBB4_49
LBB4_49:                                ;   in Loop: Header=BB4_16 Depth=1
	ldr	x0, [sp, #88]                   ; 8-byte Folded Reload
	ldr	d0, [sp, #400]
Ltmp92:
	bl	__ZNSt3__113basic_ostreamIcNS_11char_traitsIcEEElsEd
	str	x0, [sp, #80]                   ; 8-byte Folded Spill
Ltmp93:
	b	LBB4_50
LBB4_50:                                ;   in Loop: Header=BB4_16 Depth=1
Ltmp94:
	ldr	x0, [sp, #80]                   ; 8-byte Folded Reload
	adrp	x1, l_.str.8@PAGE
	add	x1, x1, l_.str.8@PAGEOFF
	bl	__ZNSt3__1lsB8ne200100INS_11char_traitsIcEEEERNS_13basic_ostreamIcT_EES6_PKc
Ltmp95:
	b	LBB4_51
LBB4_51:                                ;   in Loop: Header=BB4_16 Depth=1
	add	x0, sp, #344
	sub	x8, x29, #256
	str	x8, [sp, #344]
	add	x8, sp, #600
	str	x8, [sp, #352]
	sub	x8, x29, #216
	str	x8, [sp, #360]
	ldur	x1, [x29, #-96]
Ltmp96:
	bl	__Z9time_loopIZ4mainE3$_6EdOT_x
	str	d0, [sp, #72]                   ; 8-byte Folded Spill
Ltmp97:
	b	LBB4_52
LBB4_52:                                ;   in Loop: Header=BB4_16 Depth=1
	ldr	d0, [sp, #72]                   ; 8-byte Folded Reload
	str	d0, [sp, #368]
	add	x0, sp, #304
	sub	x8, x29, #256
	str	x8, [sp, #304]
	add	x8, sp, #600
	str	x8, [sp, #312]
	sub	x8, x29, #248
	str	x8, [sp, #320]
	sub	x8, x29, #216
	str	x8, [sp, #328]
	ldur	x1, [x29, #-96]
Ltmp98:
	bl	__Z9time_loopIZ4mainE3$_7EdOT_x
	str	d0, [sp, #64]                   ; 8-byte Folded Spill
Ltmp99:
	b	LBB4_53
LBB4_53:                                ;   in Loop: Header=BB4_16 Depth=1
	ldr	d0, [sp, #64]                   ; 8-byte Folded Reload
	str	d0, [sp, #336]
Ltmp100:
	adrp	x0, __ZNSt3__14coutE@GOTPAGE
	ldr	x0, [x0, __ZNSt3__14coutE@GOTPAGEOFF]
	adrp	x1, l_.str.12@PAGE
	add	x1, x1, l_.str.12@PAGEOFF
	bl	__ZNSt3__1lsB8ne200100INS_11char_traitsIcEEEERNS_13basic_ostreamIcT_EES6_PKc
Ltmp101:
	b	LBB4_54
LBB4_54:                                ;   in Loop: Header=BB4_16 Depth=1
Ltmp102:
	adrp	x0, __ZNSt3__14coutE@GOTPAGE
	ldr	x0, [x0, __ZNSt3__14coutE@GOTPAGEOFF]
	adrp	x1, l_.str.13@PAGE
	add	x1, x1, l_.str.13@PAGEOFF
	bl	__ZNSt3__1lsB8ne200100INS_11char_traitsIcEEEERNS_13basic_ostreamIcT_EES6_PKc
	str	x0, [sp, #56]                   ; 8-byte Folded Spill
Ltmp103:
	b	LBB4_55
LBB4_55:                                ;   in Loop: Header=BB4_16 Depth=1
	ldr	x0, [sp, #56]                   ; 8-byte Folded Reload
	ldr	d0, [sp, #368]
Ltmp104:
	bl	__ZNSt3__113basic_ostreamIcNS_11char_traitsIcEEElsEd
	str	x0, [sp, #48]                   ; 8-byte Folded Spill
Ltmp105:
	b	LBB4_56
LBB4_56:                                ;   in Loop: Header=BB4_16 Depth=1
Ltmp106:
	ldr	x0, [sp, #48]                   ; 8-byte Folded Reload
	adrp	x1, l_.str.8@PAGE
	add	x1, x1, l_.str.8@PAGEOFF
	bl	__ZNSt3__1lsB8ne200100INS_11char_traitsIcEEEERNS_13basic_ostreamIcT_EES6_PKc
Ltmp107:
	b	LBB4_57
LBB4_57:                                ;   in Loop: Header=BB4_16 Depth=1
Ltmp108:
	adrp	x0, __ZNSt3__14coutE@GOTPAGE
	ldr	x0, [x0, __ZNSt3__14coutE@GOTPAGEOFF]
	adrp	x1, l_.str.14@PAGE
	add	x1, x1, l_.str.14@PAGEOFF
	bl	__ZNSt3__1lsB8ne200100INS_11char_traitsIcEEEERNS_13basic_ostreamIcT_EES6_PKc
	str	x0, [sp, #40]                   ; 8-byte Folded Spill
Ltmp109:
	b	LBB4_58
LBB4_58:                                ;   in Loop: Header=BB4_16 Depth=1
	ldr	x0, [sp, #40]                   ; 8-byte Folded Reload
	ldr	d0, [sp, #336]
Ltmp110:
	bl	__ZNSt3__113basic_ostreamIcNS_11char_traitsIcEEElsEd
	str	x0, [sp, #32]                   ; 8-byte Folded Spill
Ltmp111:
	b	LBB4_59
LBB4_59:                                ;   in Loop: Header=BB4_16 Depth=1
Ltmp112:
	ldr	x0, [sp, #32]                   ; 8-byte Folded Reload
	adrp	x1, l_.str.8@PAGE
	add	x1, x1, l_.str.8@PAGEOFF
	bl	__ZNSt3__1lsB8ne200100INS_11char_traitsIcEEEERNS_13basic_ostreamIcT_EES6_PKc
Ltmp113:
	b	LBB4_60
LBB4_60:                                ;   in Loop: Header=BB4_16 Depth=1
Ltmp114:
	adrp	x0, __ZNSt3__14coutE@GOTPAGE
	ldr	x0, [x0, __ZNSt3__14coutE@GOTPAGEOFF]
	adrp	x1, l_.str.15@PAGE
	add	x1, x1, l_.str.15@PAGEOFF
	bl	__ZNSt3__1lsB8ne200100INS_11char_traitsIcEEEERNS_13basic_ostreamIcT_EES6_PKc
	str	x0, [sp, #24]                   ; 8-byte Folded Spill
Ltmp115:
	b	LBB4_61
LBB4_61:                                ;   in Loop: Header=BB4_16 Depth=1
	ldr	x0, [sp, #24]                   ; 8-byte Folded Reload
	ldr	d0, [sp, #336]
	ldr	d1, [sp, #368]
	fdiv	d0, d0, d1
	fmov	d1, #1.00000000
	fsub	d0, d0, d1
	mov	x8, #4636737291354636288        ; =0x4059000000000000
	fmov	d1, x8
	fmul	d0, d0, d1
Ltmp116:
	bl	__ZNSt3__113basic_ostreamIcNS_11char_traitsIcEEElsEd
	str	x0, [sp, #16]                   ; 8-byte Folded Spill
Ltmp117:
	b	LBB4_62
LBB4_62:                                ;   in Loop: Header=BB4_16 Depth=1
Ltmp118:
	ldr	x0, [sp, #16]                   ; 8-byte Folded Reload
	adrp	x1, l_.str.16@PAGE
	add	x1, x1, l_.str.16@PAGEOFF
	bl	__ZNSt3__1lsB8ne200100INS_11char_traitsIcEEEERNS_13basic_ostreamIcT_EES6_PKc
Ltmp119:
	b	LBB4_63
LBB4_63:                                ;   in Loop: Header=BB4_16 Depth=1
	b	LBB4_64
LBB4_64:                                ;   in Loop: Header=BB4_16 Depth=1
	sub	x0, x29, #200
	bl	__ZNSt3__111__wrap_iterIPyEppB8ne200100Ev
	b	LBB4_16
LBB4_65:
Ltmp120:
	stur	x0, [x29, #-128]
	mov	x8, x1
	stur	w8, [x29, #-132]
	sub	x0, x29, #160
	bl	__ZNSt3__16vectorIyNS_9allocatorIyEEED1B8ne200100Ev
	b	LBB4_69
LBB4_66:
	stur	wzr, [x29, #-76]
	sub	x0, x29, #160
	bl	__ZNSt3__16vectorIyNS_9allocatorIyEEED1B8ne200100Ev
	ldur	w8, [x29, #-76]
	str	w8, [sp, #12]                   ; 4-byte Folded Spill
	ldur	x9, [x29, #-24]
	adrp	x8, ___stack_chk_guard@GOTPAGE
	ldr	x8, [x8, ___stack_chk_guard@GOTPAGEOFF]
	ldr	x8, [x8]
	subs	x8, x8, x9
	b.eq	LBB4_68
	b	LBB4_67
LBB4_67:
	bl	___stack_chk_fail
LBB4_68:
	ldr	w0, [sp, #12]                   ; 4-byte Folded Reload
	add	sp, sp, #848
	ldp	x29, x30, [sp, #16]             ; 16-byte Folded Reload
	ldp	x28, x27, [sp], #32             ; 16-byte Folded Reload
	ret
LBB4_69:
	ldur	x0, [x29, #-128]
	str	x0, [sp]                        ; 8-byte Folded Spill
	b	LBB4_71
LBB4_70:
Ltmp9:
	str	x0, [sp]                        ; 8-byte Folded Spill
	b	LBB4_71
LBB4_71:
	ldr	x0, [sp]                        ; 8-byte Folded Reload
	bl	__Unwind_Resume
Lfunc_end0:
	.cfi_endproc
	.section	__TEXT,__gcc_except_tab
	.p2align	2, 0x0
GCC_except_table4:
Lexception0:
	.byte	255                             ; @LPStart Encoding = omit
	.byte	255                             ; @TType Encoding = omit
	.byte	1                               ; Call site Encoding = uleb128
	.uleb128 Lcst_end0-Lcst_begin0
Lcst_begin0:
	.uleb128 Ltmp2-Lfunc_begin0             ; >> Call Site 1 <<
	.uleb128 Ltmp3-Ltmp2                    ;   Call between Ltmp2 and Ltmp3
	.uleb128 Ltmp9-Lfunc_begin0             ;     jumps to Ltmp9
	.byte	0                               ;   On action: cleanup
	.uleb128 Ltmp4-Lfunc_begin0             ; >> Call Site 2 <<
	.uleb128 Ltmp5-Ltmp4                    ;   Call between Ltmp4 and Ltmp5
	.uleb128 Ltmp6-Lfunc_begin0             ;     jumps to Ltmp6
	.byte	0                               ;   On action: cleanup
	.uleb128 Ltmp5-Lfunc_begin0             ; >> Call Site 3 <<
	.uleb128 Ltmp7-Ltmp5                    ;   Call between Ltmp5 and Ltmp7
	.byte	0                               ;     has no landing pad
	.byte	0                               ;   On action: cleanup
	.uleb128 Ltmp7-Lfunc_begin0             ; >> Call Site 4 <<
	.uleb128 Ltmp8-Ltmp7                    ;   Call between Ltmp7 and Ltmp8
	.uleb128 Ltmp9-Lfunc_begin0             ;     jumps to Ltmp9
	.byte	0                               ;   On action: cleanup
	.uleb128 Ltmp10-Lfunc_begin0            ; >> Call Site 5 <<
	.uleb128 Ltmp119-Ltmp10                 ;   Call between Ltmp10 and Ltmp119
	.uleb128 Ltmp120-Lfunc_begin0           ;     jumps to Ltmp120
	.byte	0                               ;   On action: cleanup
	.uleb128 Ltmp119-Lfunc_begin0           ; >> Call Site 6 <<
	.uleb128 Lfunc_end0-Ltmp119             ;   Call between Ltmp119 and Lfunc_end0
	.byte	0                               ;     has no landing pad
	.byte	0                               ;   On action: cleanup
Lcst_end0:
	.p2align	2, 0x0
                                        ; -- End function
	.section	__TEXT,__text,regular,pure_instructions
	.globl	__ZNSt3__112basic_stringIcNS_11char_traitsIcEENS_9allocatorIcEEEC1B8ne200100ILi0EEEPKc ; -- Begin function _ZNSt3__112basic_stringIcNS_11char_traitsIcEENS_9allocatorIcEEEC1B8ne200100ILi0EEEPKc
	.weak_def_can_be_hidden	__ZNSt3__112basic_stringIcNS_11char_traitsIcEENS_9allocatorIcEEEC1B8ne200100ILi0EEEPKc
	.p2align	2
__ZNSt3__112basic_stringIcNS_11char_traitsIcEENS_9allocatorIcEEEC1B8ne200100ILi0EEEPKc: ; @_ZNSt3__112basic_stringIcNS_11char_traitsIcEENS_9allocatorIcEEEC1B8ne200100ILi0EEEPKc
	.cfi_startproc
; %bb.0:
	sub	sp, sp, #48
	stp	x29, x30, [sp, #32]             ; 16-byte Folded Spill
	add	x29, sp, #32
	.cfi_def_cfa w29, 16
	.cfi_offset w30, -8
	.cfi_offset w29, -16
	stur	x0, [x29, #-8]
	str	x1, [sp, #16]
	ldur	x0, [x29, #-8]
	str	x0, [sp, #8]                    ; 8-byte Folded Spill
	ldr	x1, [sp, #16]
	bl	__ZNSt3__112basic_stringIcNS_11char_traitsIcEENS_9allocatorIcEEEC2B8ne200100ILi0EEEPKc
	ldr	x0, [sp, #8]                    ; 8-byte Folded Reload
	ldp	x29, x30, [sp, #32]             ; 16-byte Folded Reload
	add	sp, sp, #48
	ret
	.cfi_endproc
                                        ; -- End function
	.private_extern	__ZNSt3__16vectorIyNS_9allocatorIyEEEC1B8ne200100ESt16initializer_listIyE ; -- Begin function _ZNSt3__16vectorIyNS_9allocatorIyEEEC1B8ne200100ESt16initializer_listIyE
	.globl	__ZNSt3__16vectorIyNS_9allocatorIyEEEC1B8ne200100ESt16initializer_listIyE
	.weak_def_can_be_hidden	__ZNSt3__16vectorIyNS_9allocatorIyEEEC1B8ne200100ESt16initializer_listIyE
	.p2align	2
__ZNSt3__16vectorIyNS_9allocatorIyEEEC1B8ne200100ESt16initializer_listIyE: ; @_ZNSt3__16vectorIyNS_9allocatorIyEEEC1B8ne200100ESt16initializer_listIyE
	.cfi_startproc
; %bb.0:
	sub	sp, sp, #48
	stp	x29, x30, [sp, #32]             ; 16-byte Folded Spill
	add	x29, sp, #32
	.cfi_def_cfa w29, 16
	.cfi_offset w30, -8
	.cfi_offset w29, -16
	str	x1, [sp, #16]
	str	x2, [sp, #24]
	str	x0, [sp, #8]
	ldr	x0, [sp, #8]
	str	x0, [sp]                        ; 8-byte Folded Spill
	ldr	x1, [sp, #16]
	ldr	x2, [sp, #24]
	bl	__ZNSt3__16vectorIyNS_9allocatorIyEEEC2B8ne200100ESt16initializer_listIyE
	ldr	x0, [sp]                        ; 8-byte Folded Reload
	ldp	x29, x30, [sp, #32]             ; 16-byte Folded Reload
	add	sp, sp, #48
	ret
	.cfi_endproc
                                        ; -- End function
	.private_extern	__ZNSt3__1lsB8ne200100IcNS_11char_traitsIcEEEERNS_13basic_ostreamIT_T0_EES7_RKNS_8__iom_t5E ; -- Begin function _ZNSt3__1lsB8ne200100IcNS_11char_traitsIcEEEERNS_13basic_ostreamIT_T0_EES7_RKNS_8__iom_t5E
	.globl	__ZNSt3__1lsB8ne200100IcNS_11char_traitsIcEEEERNS_13basic_ostreamIT_T0_EES7_RKNS_8__iom_t5E
	.weak_definition	__ZNSt3__1lsB8ne200100IcNS_11char_traitsIcEEEERNS_13basic_ostreamIT_T0_EES7_RKNS_8__iom_t5E
	.p2align	2
__ZNSt3__1lsB8ne200100IcNS_11char_traitsIcEEEERNS_13basic_ostreamIT_T0_EES7_RKNS_8__iom_t5E: ; @_ZNSt3__1lsB8ne200100IcNS_11char_traitsIcEEEERNS_13basic_ostreamIT_T0_EES7_RKNS_8__iom_t5E
	.cfi_startproc
; %bb.0:
	sub	sp, sp, #32
	stp	x29, x30, [sp, #16]             ; 16-byte Folded Spill
	add	x29, sp, #16
	.cfi_def_cfa w29, 16
	.cfi_offset w30, -8
	.cfi_offset w29, -16
	str	x0, [sp, #8]
	str	x1, [sp]
	ldr	x8, [sp, #8]
	ldr	x9, [x8]
	ldur	x9, [x9, #-24]
	ldr	x10, [sp]
	ldrsw	x1, [x10]
	add	x0, x8, x9
	bl	__ZNSt3__18ios_base9precisionB8ne200100El
	ldr	x0, [sp, #8]
	ldp	x29, x30, [sp, #16]             ; 16-byte Folded Reload
	add	sp, sp, #32
	ret
	.cfi_endproc
                                        ; -- End function
	.private_extern	__ZNSt3__113basic_ostreamIcNS_11char_traitsIcEEElsB8ne200100EPFRNS_8ios_baseES5_E ; -- Begin function _ZNSt3__113basic_ostreamIcNS_11char_traitsIcEEElsB8ne200100EPFRNS_8ios_baseES5_E
	.globl	__ZNSt3__113basic_ostreamIcNS_11char_traitsIcEEElsB8ne200100EPFRNS_8ios_baseES5_E
	.weak_definition	__ZNSt3__113basic_ostreamIcNS_11char_traitsIcEEElsB8ne200100EPFRNS_8ios_baseES5_E
	.p2align	2
__ZNSt3__113basic_ostreamIcNS_11char_traitsIcEEElsB8ne200100EPFRNS_8ios_baseES5_E: ; @_ZNSt3__113basic_ostreamIcNS_11char_traitsIcEEElsB8ne200100EPFRNS_8ios_baseES5_E
	.cfi_startproc
; %bb.0:
	sub	sp, sp, #48
	stp	x29, x30, [sp, #32]             ; 16-byte Folded Spill
	add	x29, sp, #32
	.cfi_def_cfa w29, 16
	.cfi_offset w30, -8
	.cfi_offset w29, -16
	stur	x0, [x29, #-8]
	str	x1, [sp, #16]
	ldur	x9, [x29, #-8]
	str	x9, [sp, #8]                    ; 8-byte Folded Spill
	ldr	x8, [sp, #16]
	ldr	x10, [x9]
	ldur	x10, [x10, #-24]
	add	x0, x9, x10
	blr	x8
	ldr	x0, [sp, #8]                    ; 8-byte Folded Reload
	ldp	x29, x30, [sp, #32]             ; 16-byte Folded Reload
	add	sp, sp, #48
	ret
	.cfi_endproc
                                        ; -- End function
	.private_extern	__ZNSt3__15fixedB8ne200100ERNS_8ios_baseE ; -- Begin function _ZNSt3__15fixedB8ne200100ERNS_8ios_baseE
	.globl	__ZNSt3__15fixedB8ne200100ERNS_8ios_baseE
	.weak_definition	__ZNSt3__15fixedB8ne200100ERNS_8ios_baseE
	.p2align	2
__ZNSt3__15fixedB8ne200100ERNS_8ios_baseE: ; @_ZNSt3__15fixedB8ne200100ERNS_8ios_baseE
	.cfi_startproc
; %bb.0:
	sub	sp, sp, #32
	stp	x29, x30, [sp, #16]             ; 16-byte Folded Spill
	add	x29, sp, #16
	.cfi_def_cfa w29, 16
	.cfi_offset w30, -8
	.cfi_offset w29, -16
	str	x0, [sp, #8]
	ldr	x0, [sp, #8]
	mov	w1, #4                          ; =0x4
	mov	w2, #260                        ; =0x104
	bl	__ZNSt3__18ios_base4setfB8ne200100Ejj
	ldr	x0, [sp, #8]
	ldp	x29, x30, [sp, #16]             ; 16-byte Folded Reload
	add	sp, sp, #32
	ret
	.cfi_endproc
                                        ; -- End function
	.private_extern	__ZNSt3__112setprecisionB8ne200100Ei ; -- Begin function _ZNSt3__112setprecisionB8ne200100Ei
	.globl	__ZNSt3__112setprecisionB8ne200100Ei
	.weak_definition	__ZNSt3__112setprecisionB8ne200100Ei
	.p2align	2
__ZNSt3__112setprecisionB8ne200100Ei:   ; @_ZNSt3__112setprecisionB8ne200100Ei
	.cfi_startproc
; %bb.0:
	sub	sp, sp, #32
	stp	x29, x30, [sp, #16]             ; 16-byte Folded Spill
	add	x29, sp, #16
	.cfi_def_cfa w29, 16
	.cfi_offset w30, -8
	.cfi_offset w29, -16
	str	w0, [sp, #8]
	ldr	w1, [sp, #8]
	sub	x0, x29, #4
	bl	__ZNSt3__18__iom_t5C1B8ne200100Ei
	ldur	w0, [x29, #-4]
	ldp	x29, x30, [sp, #16]             ; 16-byte Folded Reload
	add	sp, sp, #32
	ret
	.cfi_endproc
                                        ; -- End function
	.private_extern	__ZNSt3__1lsB8ne200100INS_11char_traitsIcEEEERNS_13basic_ostreamIcT_EES6_PKc ; -- Begin function _ZNSt3__1lsB8ne200100INS_11char_traitsIcEEEERNS_13basic_ostreamIcT_EES6_PKc
	.globl	__ZNSt3__1lsB8ne200100INS_11char_traitsIcEEEERNS_13basic_ostreamIcT_EES6_PKc
	.weak_definition	__ZNSt3__1lsB8ne200100INS_11char_traitsIcEEEERNS_13basic_ostreamIcT_EES6_PKc
	.p2align	2
__ZNSt3__1lsB8ne200100INS_11char_traitsIcEEEERNS_13basic_ostreamIcT_EES6_PKc: ; @_ZNSt3__1lsB8ne200100INS_11char_traitsIcEEEERNS_13basic_ostreamIcT_EES6_PKc
	.cfi_startproc
; %bb.0:
	sub	sp, sp, #48
	stp	x29, x30, [sp, #32]             ; 16-byte Folded Spill
	add	x29, sp, #32
	.cfi_def_cfa w29, 16
	.cfi_offset w30, -8
	.cfi_offset w29, -16
	stur	x0, [x29, #-8]
	str	x1, [sp, #16]
	ldur	x8, [x29, #-8]
	str	x8, [sp, #8]                    ; 8-byte Folded Spill
	ldr	x8, [sp, #16]
	str	x8, [sp]                        ; 8-byte Folded Spill
	ldr	x0, [sp, #16]
	bl	__ZNSt3__111char_traitsIcE6lengthB8ne200100EPKc
	ldr	x1, [sp]                        ; 8-byte Folded Reload
	mov	x2, x0
	ldr	x0, [sp, #8]                    ; 8-byte Folded Reload
	bl	__ZNSt3__124__put_character_sequenceB8ne200100IcNS_11char_traitsIcEEEERNS_13basic_ostreamIT_T0_EES7_PKS4_m
	ldp	x29, x30, [sp, #32]             ; 16-byte Folded Reload
	add	sp, sp, #48
	ret
	.cfi_endproc
                                        ; -- End function
	.private_extern	__ZNSt3__16vectorIyNS_9allocatorIyEEE5beginB8ne200100Ev ; -- Begin function _ZNSt3__16vectorIyNS_9allocatorIyEEE5beginB8ne200100Ev
	.globl	__ZNSt3__16vectorIyNS_9allocatorIyEEE5beginB8ne200100Ev
	.weak_definition	__ZNSt3__16vectorIyNS_9allocatorIyEEE5beginB8ne200100Ev
	.p2align	2
__ZNSt3__16vectorIyNS_9allocatorIyEEE5beginB8ne200100Ev: ; @_ZNSt3__16vectorIyNS_9allocatorIyEEE5beginB8ne200100Ev
	.cfi_startproc
; %bb.0:
	sub	sp, sp, #48
	stp	x29, x30, [sp, #32]             ; 16-byte Folded Spill
	add	x29, sp, #32
	.cfi_def_cfa w29, 16
	.cfi_offset w30, -8
	.cfi_offset w29, -16
	str	x0, [sp, #16]
	ldr	x8, [sp, #16]
	str	x8, [sp, #8]                    ; 8-byte Folded Spill
	ldr	x0, [x8]
	bl	__ZNSt3__16vectorIyNS_9allocatorIyEEE26__add_alignment_assumptionB8ne200100IPyLi0EEES5_T_
	mov	x1, x0
	ldr	x0, [sp, #8]                    ; 8-byte Folded Reload
	bl	__ZNSt3__16vectorIyNS_9allocatorIyEEE11__make_iterB8ne200100EPy
	stur	x0, [x29, #-8]
	ldur	x0, [x29, #-8]
	ldp	x29, x30, [sp, #32]             ; 16-byte Folded Reload
	add	sp, sp, #48
	ret
	.cfi_endproc
                                        ; -- End function
	.private_extern	__ZNSt3__16vectorIyNS_9allocatorIyEEE3endB8ne200100Ev ; -- Begin function _ZNSt3__16vectorIyNS_9allocatorIyEEE3endB8ne200100Ev
	.globl	__ZNSt3__16vectorIyNS_9allocatorIyEEE3endB8ne200100Ev
	.weak_definition	__ZNSt3__16vectorIyNS_9allocatorIyEEE3endB8ne200100Ev
	.p2align	2
__ZNSt3__16vectorIyNS_9allocatorIyEEE3endB8ne200100Ev: ; @_ZNSt3__16vectorIyNS_9allocatorIyEEE3endB8ne200100Ev
	.cfi_startproc
; %bb.0:
	sub	sp, sp, #48
	stp	x29, x30, [sp, #32]             ; 16-byte Folded Spill
	add	x29, sp, #32
	.cfi_def_cfa w29, 16
	.cfi_offset w30, -8
	.cfi_offset w29, -16
	str	x0, [sp, #16]
	ldr	x8, [sp, #16]
	str	x8, [sp, #8]                    ; 8-byte Folded Spill
	ldr	x0, [x8, #8]
	bl	__ZNSt3__16vectorIyNS_9allocatorIyEEE26__add_alignment_assumptionB8ne200100IPyLi0EEES5_T_
	mov	x1, x0
	ldr	x0, [sp, #8]                    ; 8-byte Folded Reload
	bl	__ZNSt3__16vectorIyNS_9allocatorIyEEE11__make_iterB8ne200100EPy
	stur	x0, [x29, #-8]
	ldur	x0, [x29, #-8]
	ldp	x29, x30, [sp, #32]             ; 16-byte Folded Reload
	add	sp, sp, #48
	ret
	.cfi_endproc
                                        ; -- End function
	.private_extern	__ZNSt3__1neB8ne200100IPyEEbRKNS_11__wrap_iterIT_EES6_ ; -- Begin function _ZNSt3__1neB8ne200100IPyEEbRKNS_11__wrap_iterIT_EES6_
	.globl	__ZNSt3__1neB8ne200100IPyEEbRKNS_11__wrap_iterIT_EES6_
	.weak_definition	__ZNSt3__1neB8ne200100IPyEEbRKNS_11__wrap_iterIT_EES6_
	.p2align	2
__ZNSt3__1neB8ne200100IPyEEbRKNS_11__wrap_iterIT_EES6_: ; @_ZNSt3__1neB8ne200100IPyEEbRKNS_11__wrap_iterIT_EES6_
	.cfi_startproc
; %bb.0:
	sub	sp, sp, #32
	stp	x29, x30, [sp, #16]             ; 16-byte Folded Spill
	add	x29, sp, #16
	.cfi_def_cfa w29, 16
	.cfi_offset w30, -8
	.cfi_offset w29, -16
	str	x0, [sp, #8]
	str	x1, [sp]
	ldr	x0, [sp, #8]
	ldr	x1, [sp]
	bl	__ZNSt3__1eqB8ne200100IPyEEbRKNS_11__wrap_iterIT_EES6_
	eor	w0, w0, #0x1
	ldp	x29, x30, [sp, #16]             ; 16-byte Folded Reload
	add	sp, sp, #32
	ret
	.cfi_endproc
                                        ; -- End function
	.private_extern	__ZNKSt3__111__wrap_iterIPyEdeB8ne200100Ev ; -- Begin function _ZNKSt3__111__wrap_iterIPyEdeB8ne200100Ev
	.globl	__ZNKSt3__111__wrap_iterIPyEdeB8ne200100Ev
	.weak_definition	__ZNKSt3__111__wrap_iterIPyEdeB8ne200100Ev
	.p2align	2
__ZNKSt3__111__wrap_iterIPyEdeB8ne200100Ev: ; @_ZNKSt3__111__wrap_iterIPyEdeB8ne200100Ev
	.cfi_startproc
; %bb.0:
	sub	sp, sp, #16
	.cfi_def_cfa_offset 16
	str	x0, [sp, #8]
	ldr	x8, [sp, #8]
	ldr	x0, [x8]
	add	sp, sp, #16
	ret
	.cfi_endproc
                                        ; -- End function
	.globl	__ZN17MontgomeryContextC1Ey     ; -- Begin function _ZN17MontgomeryContextC1Ey
	.weak_def_can_be_hidden	__ZN17MontgomeryContextC1Ey
	.p2align	2
__ZN17MontgomeryContextC1Ey:            ; @_ZN17MontgomeryContextC1Ey
	.cfi_startproc
; %bb.0:
	sub	sp, sp, #48
	stp	x29, x30, [sp, #32]             ; 16-byte Folded Spill
	add	x29, sp, #32
	.cfi_def_cfa w29, 16
	.cfi_offset w30, -8
	.cfi_offset w29, -16
	stur	x0, [x29, #-8]
	str	x1, [sp, #16]
	ldur	x0, [x29, #-8]
	str	x0, [sp, #8]                    ; 8-byte Folded Spill
	ldr	x1, [sp, #16]
	bl	__ZN17MontgomeryContextC2Ey
	ldr	x0, [sp, #8]                    ; 8-byte Folded Reload
	ldp	x29, x30, [sp, #32]             ; 16-byte Folded Reload
	add	sp, sp, #48
	ret
	.cfi_endproc
                                        ; -- End function
	.p2align	2                               ; -- Begin function _Z9time_loopIZ4mainE3$_0EdOT_x
__Z9time_loopIZ4mainE3$_0EdOT_x:        ; @"_Z9time_loopIZ4mainE3$_0EdOT_x"
	.cfi_startproc
; %bb.0:
	sub	sp, sp, #80
	stp	x29, x30, [sp, #64]             ; 16-byte Folded Spill
	add	x29, sp, #64
	.cfi_def_cfa w29, 16
	.cfi_offset w30, -8
	.cfi_offset w29, -16
	stur	x0, [x29, #-8]
	stur	x1, [x29, #-16]
	bl	__ZNSt3__16chrono12steady_clock3nowEv
	sub	x8, x29, #24
	str	x8, [sp]                        ; 8-byte Folded Spill
	stur	x0, [x29, #-24]
	ldur	x0, [x29, #-8]
	ldur	x1, [x29, #-16]
	bl	__ZZ4mainENK3$_0clEx
	bl	__ZNSt3__16chrono12steady_clock3nowEv
	ldr	x1, [sp]                        ; 8-byte Folded Reload
	mov	x8, x0
	add	x0, sp, #32
	str	x8, [sp, #32]
	bl	__ZNSt3__16chronomiB8ne200100INS0_12steady_clockENS0_8durationIxNS_5ratioILl1ELl1000000000EEEEES6_EENS_11common_typeIJT0_T1_EE4typeERKNS0_10time_pointIT_S8_EERKNSC_ISD_S9_EE
	add	x1, sp, #16
	str	x0, [sp, #16]
	add	x0, sp, #24
	str	x0, [sp, #8]                    ; 8-byte Folded Spill
	bl	__ZNSt3__16chrono8durationIdNS_5ratioILl1ELl1EEEEC1B8ne200100IxNS2_ILl1ELl1000000000EEELi0EEERKNS1_IT_T0_EE
	ldr	x0, [sp, #8]                    ; 8-byte Folded Reload
	bl	__ZNKSt3__16chrono8durationIdNS_5ratioILl1ELl1EEEE5countB8ne200100Ev
	ldp	x29, x30, [sp, #64]             ; 16-byte Folded Reload
	add	sp, sp, #80
	ret
	.cfi_endproc
                                        ; -- End function
	.p2align	2                               ; -- Begin function _Z9time_loopIZ4mainE3$_1EdOT_x
__Z9time_loopIZ4mainE3$_1EdOT_x:        ; @"_Z9time_loopIZ4mainE3$_1EdOT_x"
	.cfi_startproc
; %bb.0:
	sub	sp, sp, #80
	stp	x29, x30, [sp, #64]             ; 16-byte Folded Spill
	add	x29, sp, #64
	.cfi_def_cfa w29, 16
	.cfi_offset w30, -8
	.cfi_offset w29, -16
	stur	x0, [x29, #-8]
	stur	x1, [x29, #-16]
	bl	__ZNSt3__16chrono12steady_clock3nowEv
	sub	x8, x29, #24
	str	x8, [sp]                        ; 8-byte Folded Spill
	stur	x0, [x29, #-24]
	ldur	x0, [x29, #-8]
	ldur	x1, [x29, #-16]
	bl	__ZZ4mainENK3$_1clEx
	bl	__ZNSt3__16chrono12steady_clock3nowEv
	ldr	x1, [sp]                        ; 8-byte Folded Reload
	mov	x8, x0
	add	x0, sp, #32
	str	x8, [sp, #32]
	bl	__ZNSt3__16chronomiB8ne200100INS0_12steady_clockENS0_8durationIxNS_5ratioILl1ELl1000000000EEEEES6_EENS_11common_typeIJT0_T1_EE4typeERKNS0_10time_pointIT_S8_EERKNSC_ISD_S9_EE
	add	x1, sp, #16
	str	x0, [sp, #16]
	add	x0, sp, #24
	str	x0, [sp, #8]                    ; 8-byte Folded Spill
	bl	__ZNSt3__16chrono8durationIdNS_5ratioILl1ELl1EEEEC1B8ne200100IxNS2_ILl1ELl1000000000EEELi0EEERKNS1_IT_T0_EE
	ldr	x0, [sp, #8]                    ; 8-byte Folded Reload
	bl	__ZNKSt3__16chrono8durationIdNS_5ratioILl1ELl1EEEE5countB8ne200100Ev
	ldp	x29, x30, [sp, #64]             ; 16-byte Folded Reload
	add	sp, sp, #80
	ret
	.cfi_endproc
                                        ; -- End function
	.globl	__ZNK17MontgomeryContext13to_montgomeryEy ; -- Begin function _ZNK17MontgomeryContext13to_montgomeryEy
	.weak_definition	__ZNK17MontgomeryContext13to_montgomeryEy
	.p2align	2
__ZNK17MontgomeryContext13to_montgomeryEy: ; @_ZNK17MontgomeryContext13to_montgomeryEy
	.cfi_startproc
; %bb.0:
	sub	sp, sp, #32
	stp	x29, x30, [sp, #16]             ; 16-byte Folded Spill
	add	x29, sp, #16
	.cfi_def_cfa w29, 16
	.cfi_offset w30, -8
	.cfi_offset w29, -16
	str	x0, [sp, #8]
	str	x1, [sp]
	ldr	x8, [sp, #8]
	ldr	x0, [sp]
	ldr	x1, [x8, #24]
	ldr	x2, [x8]
	bl	__ZN17MontgomeryContext9mulmod128Eyyy
	ldp	x29, x30, [sp, #16]             ; 16-byte Folded Reload
	add	sp, sp, #32
	ret
	.cfi_endproc
                                        ; -- End function
	.p2align	2                               ; -- Begin function _Z9time_loopIZ4mainE3$_2EdOT_x
__Z9time_loopIZ4mainE3$_2EdOT_x:        ; @"_Z9time_loopIZ4mainE3$_2EdOT_x"
	.cfi_startproc
; %bb.0:
	sub	sp, sp, #80
	stp	x29, x30, [sp, #64]             ; 16-byte Folded Spill
	add	x29, sp, #64
	.cfi_def_cfa w29, 16
	.cfi_offset w30, -8
	.cfi_offset w29, -16
	stur	x0, [x29, #-8]
	stur	x1, [x29, #-16]
	bl	__ZNSt3__16chrono12steady_clock3nowEv
	sub	x8, x29, #24
	str	x8, [sp]                        ; 8-byte Folded Spill
	stur	x0, [x29, #-24]
	ldur	x0, [x29, #-8]
	ldur	x1, [x29, #-16]
	bl	__ZZ4mainENK3$_2clEx
	bl	__ZNSt3__16chrono12steady_clock3nowEv
	ldr	x1, [sp]                        ; 8-byte Folded Reload
	mov	x8, x0
	add	x0, sp, #32
	str	x8, [sp, #32]
	bl	__ZNSt3__16chronomiB8ne200100INS0_12steady_clockENS0_8durationIxNS_5ratioILl1ELl1000000000EEEEES6_EENS_11common_typeIJT0_T1_EE4typeERKNS0_10time_pointIT_S8_EERKNSC_ISD_S9_EE
	add	x1, sp, #16
	str	x0, [sp, #16]
	add	x0, sp, #24
	str	x0, [sp, #8]                    ; 8-byte Folded Spill
	bl	__ZNSt3__16chrono8durationIdNS_5ratioILl1ELl1EEEEC1B8ne200100IxNS2_ILl1ELl1000000000EEELi0EEERKNS1_IT_T0_EE
	ldr	x0, [sp, #8]                    ; 8-byte Folded Reload
	bl	__ZNKSt3__16chrono8durationIdNS_5ratioILl1ELl1EEEE5countB8ne200100Ev
	ldp	x29, x30, [sp, #64]             ; 16-byte Folded Reload
	add	sp, sp, #80
	ret
	.cfi_endproc
                                        ; -- End function
	.p2align	2                               ; -- Begin function _Z9time_loopIZ4mainE3$_3EdOT_x
__Z9time_loopIZ4mainE3$_3EdOT_x:        ; @"_Z9time_loopIZ4mainE3$_3EdOT_x"
	.cfi_startproc
; %bb.0:
	sub	sp, sp, #80
	stp	x29, x30, [sp, #64]             ; 16-byte Folded Spill
	add	x29, sp, #64
	.cfi_def_cfa w29, 16
	.cfi_offset w30, -8
	.cfi_offset w29, -16
	stur	x0, [x29, #-8]
	stur	x1, [x29, #-16]
	bl	__ZNSt3__16chrono12steady_clock3nowEv
	sub	x8, x29, #24
	str	x8, [sp]                        ; 8-byte Folded Spill
	stur	x0, [x29, #-24]
	ldur	x0, [x29, #-8]
	ldur	x1, [x29, #-16]
	bl	__ZZ4mainENK3$_3clEx
	bl	__ZNSt3__16chrono12steady_clock3nowEv
	ldr	x1, [sp]                        ; 8-byte Folded Reload
	mov	x8, x0
	add	x0, sp, #32
	str	x8, [sp, #32]
	bl	__ZNSt3__16chronomiB8ne200100INS0_12steady_clockENS0_8durationIxNS_5ratioILl1ELl1000000000EEEEES6_EENS_11common_typeIJT0_T1_EE4typeERKNS0_10time_pointIT_S8_EERKNSC_ISD_S9_EE
	add	x1, sp, #16
	str	x0, [sp, #16]
	add	x0, sp, #24
	str	x0, [sp, #8]                    ; 8-byte Folded Spill
	bl	__ZNSt3__16chrono8durationIdNS_5ratioILl1ELl1EEEEC1B8ne200100IxNS2_ILl1ELl1000000000EEELi0EEERKNS1_IT_T0_EE
	ldr	x0, [sp, #8]                    ; 8-byte Folded Reload
	bl	__ZNKSt3__16chrono8durationIdNS_5ratioILl1ELl1EEEE5countB8ne200100Ev
	ldp	x29, x30, [sp, #64]             ; 16-byte Folded Reload
	add	sp, sp, #80
	ret
	.cfi_endproc
                                        ; -- End function
	.p2align	2                               ; -- Begin function _Z9time_loopIZ4mainE3$_4EdOT_x
__Z9time_loopIZ4mainE3$_4EdOT_x:        ; @"_Z9time_loopIZ4mainE3$_4EdOT_x"
	.cfi_startproc
; %bb.0:
	sub	sp, sp, #80
	stp	x29, x30, [sp, #64]             ; 16-byte Folded Spill
	add	x29, sp, #64
	.cfi_def_cfa w29, 16
	.cfi_offset w30, -8
	.cfi_offset w29, -16
	stur	x0, [x29, #-8]
	stur	x1, [x29, #-16]
	bl	__ZNSt3__16chrono12steady_clock3nowEv
	sub	x8, x29, #24
	str	x8, [sp]                        ; 8-byte Folded Spill
	stur	x0, [x29, #-24]
	ldur	x0, [x29, #-8]
	ldur	x1, [x29, #-16]
	bl	__ZZ4mainENK3$_4clEx
	bl	__ZNSt3__16chrono12steady_clock3nowEv
	ldr	x1, [sp]                        ; 8-byte Folded Reload
	mov	x8, x0
	add	x0, sp, #32
	str	x8, [sp, #32]
	bl	__ZNSt3__16chronomiB8ne200100INS0_12steady_clockENS0_8durationIxNS_5ratioILl1ELl1000000000EEEEES6_EENS_11common_typeIJT0_T1_EE4typeERKNS0_10time_pointIT_S8_EERKNSC_ISD_S9_EE
	add	x1, sp, #16
	str	x0, [sp, #16]
	add	x0, sp, #24
	str	x0, [sp, #8]                    ; 8-byte Folded Spill
	bl	__ZNSt3__16chrono8durationIdNS_5ratioILl1ELl1EEEEC1B8ne200100IxNS2_ILl1ELl1000000000EEELi0EEERKNS1_IT_T0_EE
	ldr	x0, [sp, #8]                    ; 8-byte Folded Reload
	bl	__ZNKSt3__16chrono8durationIdNS_5ratioILl1ELl1EEEE5countB8ne200100Ev
	ldp	x29, x30, [sp, #64]             ; 16-byte Folded Reload
	add	sp, sp, #80
	ret
	.cfi_endproc
                                        ; -- End function
	.p2align	2                               ; -- Begin function _Z9time_loopIZ4mainE3$_5EdOT_x
__Z9time_loopIZ4mainE3$_5EdOT_x:        ; @"_Z9time_loopIZ4mainE3$_5EdOT_x"
	.cfi_startproc
; %bb.0:
	sub	sp, sp, #80
	stp	x29, x30, [sp, #64]             ; 16-byte Folded Spill
	add	x29, sp, #64
	.cfi_def_cfa w29, 16
	.cfi_offset w30, -8
	.cfi_offset w29, -16
	stur	x0, [x29, #-8]
	stur	x1, [x29, #-16]
	bl	__ZNSt3__16chrono12steady_clock3nowEv
	sub	x8, x29, #24
	str	x8, [sp]                        ; 8-byte Folded Spill
	stur	x0, [x29, #-24]
	ldur	x0, [x29, #-8]
	ldur	x1, [x29, #-16]
	bl	__ZZ4mainENK3$_5clEx
	bl	__ZNSt3__16chrono12steady_clock3nowEv
	ldr	x1, [sp]                        ; 8-byte Folded Reload
	mov	x8, x0
	add	x0, sp, #32
	str	x8, [sp, #32]
	bl	__ZNSt3__16chronomiB8ne200100INS0_12steady_clockENS0_8durationIxNS_5ratioILl1ELl1000000000EEEEES6_EENS_11common_typeIJT0_T1_EE4typeERKNS0_10time_pointIT_S8_EERKNSC_ISD_S9_EE
	add	x1, sp, #16
	str	x0, [sp, #16]
	add	x0, sp, #24
	str	x0, [sp, #8]                    ; 8-byte Folded Spill
	bl	__ZNSt3__16chrono8durationIdNS_5ratioILl1ELl1EEEEC1B8ne200100IxNS2_ILl1ELl1000000000EEELi0EEERKNS1_IT_T0_EE
	ldr	x0, [sp, #8]                    ; 8-byte Folded Reload
	bl	__ZNKSt3__16chrono8durationIdNS_5ratioILl1ELl1EEEE5countB8ne200100Ev
	ldp	x29, x30, [sp, #64]             ; 16-byte Folded Reload
	add	sp, sp, #80
	ret
	.cfi_endproc
                                        ; -- End function
	.p2align	2                               ; -- Begin function _Z9time_loopIZ4mainE3$_6EdOT_x
__Z9time_loopIZ4mainE3$_6EdOT_x:        ; @"_Z9time_loopIZ4mainE3$_6EdOT_x"
	.cfi_startproc
; %bb.0:
	sub	sp, sp, #80
	stp	x29, x30, [sp, #64]             ; 16-byte Folded Spill
	add	x29, sp, #64
	.cfi_def_cfa w29, 16
	.cfi_offset w30, -8
	.cfi_offset w29, -16
	stur	x0, [x29, #-8]
	stur	x1, [x29, #-16]
	bl	__ZNSt3__16chrono12steady_clock3nowEv
	sub	x8, x29, #24
	str	x8, [sp]                        ; 8-byte Folded Spill
	stur	x0, [x29, #-24]
	ldur	x0, [x29, #-8]
	ldur	x1, [x29, #-16]
	bl	__ZZ4mainENK3$_6clEx
	bl	__ZNSt3__16chrono12steady_clock3nowEv
	ldr	x1, [sp]                        ; 8-byte Folded Reload
	mov	x8, x0
	add	x0, sp, #32
	str	x8, [sp, #32]
	bl	__ZNSt3__16chronomiB8ne200100INS0_12steady_clockENS0_8durationIxNS_5ratioILl1ELl1000000000EEEEES6_EENS_11common_typeIJT0_T1_EE4typeERKNS0_10time_pointIT_S8_EERKNSC_ISD_S9_EE
	add	x1, sp, #16
	str	x0, [sp, #16]
	add	x0, sp, #24
	str	x0, [sp, #8]                    ; 8-byte Folded Spill
	bl	__ZNSt3__16chrono8durationIdNS_5ratioILl1ELl1EEEEC1B8ne200100IxNS2_ILl1ELl1000000000EEELi0EEERKNS1_IT_T0_EE
	ldr	x0, [sp, #8]                    ; 8-byte Folded Reload
	bl	__ZNKSt3__16chrono8durationIdNS_5ratioILl1ELl1EEEE5countB8ne200100Ev
	ldp	x29, x30, [sp, #64]             ; 16-byte Folded Reload
	add	sp, sp, #80
	ret
	.cfi_endproc
                                        ; -- End function
	.p2align	2                               ; -- Begin function _Z9time_loopIZ4mainE3$_7EdOT_x
__Z9time_loopIZ4mainE3$_7EdOT_x:        ; @"_Z9time_loopIZ4mainE3$_7EdOT_x"
	.cfi_startproc
; %bb.0:
	sub	sp, sp, #80
	stp	x29, x30, [sp, #64]             ; 16-byte Folded Spill
	add	x29, sp, #64
	.cfi_def_cfa w29, 16
	.cfi_offset w30, -8
	.cfi_offset w29, -16
	stur	x0, [x29, #-8]
	stur	x1, [x29, #-16]
	bl	__ZNSt3__16chrono12steady_clock3nowEv
	sub	x8, x29, #24
	str	x8, [sp]                        ; 8-byte Folded Spill
	stur	x0, [x29, #-24]
	ldur	x0, [x29, #-8]
	ldur	x1, [x29, #-16]
	bl	__ZZ4mainENK3$_7clEx
	bl	__ZNSt3__16chrono12steady_clock3nowEv
	ldr	x1, [sp]                        ; 8-byte Folded Reload
	mov	x8, x0
	add	x0, sp, #32
	str	x8, [sp, #32]
	bl	__ZNSt3__16chronomiB8ne200100INS0_12steady_clockENS0_8durationIxNS_5ratioILl1ELl1000000000EEEEES6_EENS_11common_typeIJT0_T1_EE4typeERKNS0_10time_pointIT_S8_EERKNSC_ISD_S9_EE
	add	x1, sp, #16
	str	x0, [sp, #16]
	add	x0, sp, #24
	str	x0, [sp, #8]                    ; 8-byte Folded Spill
	bl	__ZNSt3__16chrono8durationIdNS_5ratioILl1ELl1EEEEC1B8ne200100IxNS2_ILl1ELl1000000000EEELi0EEERKNS1_IT_T0_EE
	ldr	x0, [sp, #8]                    ; 8-byte Folded Reload
	bl	__ZNKSt3__16chrono8durationIdNS_5ratioILl1ELl1EEEE5countB8ne200100Ev
	ldp	x29, x30, [sp, #64]             ; 16-byte Folded Reload
	add	sp, sp, #80
	ret
	.cfi_endproc
                                        ; -- End function
	.private_extern	__ZNSt3__111__wrap_iterIPyEppB8ne200100Ev ; -- Begin function _ZNSt3__111__wrap_iterIPyEppB8ne200100Ev
	.globl	__ZNSt3__111__wrap_iterIPyEppB8ne200100Ev
	.weak_definition	__ZNSt3__111__wrap_iterIPyEppB8ne200100Ev
	.p2align	2
__ZNSt3__111__wrap_iterIPyEppB8ne200100Ev: ; @_ZNSt3__111__wrap_iterIPyEppB8ne200100Ev
	.cfi_startproc
; %bb.0:
	sub	sp, sp, #16
	.cfi_def_cfa_offset 16
	str	x0, [sp, #8]
	ldr	x0, [sp, #8]
	ldr	x8, [x0]
	add	x8, x8, #8
	str	x8, [x0]
	add	sp, sp, #16
	ret
	.cfi_endproc
                                        ; -- End function
	.private_extern	__ZNSt3__16vectorIyNS_9allocatorIyEEED1B8ne200100Ev ; -- Begin function _ZNSt3__16vectorIyNS_9allocatorIyEEED1B8ne200100Ev
	.globl	__ZNSt3__16vectorIyNS_9allocatorIyEEED1B8ne200100Ev
	.weak_def_can_be_hidden	__ZNSt3__16vectorIyNS_9allocatorIyEEED1B8ne200100Ev
	.p2align	2
__ZNSt3__16vectorIyNS_9allocatorIyEEED1B8ne200100Ev: ; @_ZNSt3__16vectorIyNS_9allocatorIyEEED1B8ne200100Ev
	.cfi_startproc
; %bb.0:
	sub	sp, sp, #32
	stp	x29, x30, [sp, #16]             ; 16-byte Folded Spill
	add	x29, sp, #16
	.cfi_def_cfa w29, 16
	.cfi_offset w30, -8
	.cfi_offset w29, -16
	str	x0, [sp, #8]
	ldr	x0, [sp, #8]
	str	x0, [sp]                        ; 8-byte Folded Spill
	bl	__ZNSt3__16vectorIyNS_9allocatorIyEEED2B8ne200100Ev
	ldr	x0, [sp]                        ; 8-byte Folded Reload
	ldp	x29, x30, [sp, #16]             ; 16-byte Folded Reload
	add	sp, sp, #32
	ret
	.cfi_endproc
                                        ; -- End function
	.private_extern	__ZNSt3__18ios_base4setfB8ne200100Ejj ; -- Begin function _ZNSt3__18ios_base4setfB8ne200100Ejj
	.globl	__ZNSt3__18ios_base4setfB8ne200100Ejj
	.weak_definition	__ZNSt3__18ios_base4setfB8ne200100Ejj
	.p2align	2
__ZNSt3__18ios_base4setfB8ne200100Ejj:  ; @_ZNSt3__18ios_base4setfB8ne200100Ejj
	.cfi_startproc
; %bb.0:
	sub	sp, sp, #48
	stp	x29, x30, [sp, #32]             ; 16-byte Folded Spill
	add	x29, sp, #32
	.cfi_def_cfa w29, 16
	.cfi_offset w30, -8
	.cfi_offset w29, -16
	stur	x0, [x29, #-8]
	stur	w1, [x29, #-12]
	str	w2, [sp, #16]
	ldur	x0, [x29, #-8]
	str	x0, [sp]                        ; 8-byte Folded Spill
	ldr	w8, [x0, #8]
	str	w8, [sp, #12]
	ldr	w1, [sp, #16]
	bl	__ZNSt3__18ios_base6unsetfB8ne200100Ej
	ldr	x9, [sp]                        ; 8-byte Folded Reload
	ldur	w8, [x29, #-12]
	ldr	w10, [sp, #16]
	and	w10, w8, w10
	ldr	w8, [x9, #8]
	orr	w8, w8, w10
	str	w8, [x9, #8]
	ldr	w0, [sp, #12]
	ldp	x29, x30, [sp, #32]             ; 16-byte Folded Reload
	add	sp, sp, #48
	ret
	.cfi_endproc
                                        ; -- End function
	.private_extern	__ZNSt3__18ios_base6unsetfB8ne200100Ej ; -- Begin function _ZNSt3__18ios_base6unsetfB8ne200100Ej
	.globl	__ZNSt3__18ios_base6unsetfB8ne200100Ej
	.weak_definition	__ZNSt3__18ios_base6unsetfB8ne200100Ej
	.p2align	2
__ZNSt3__18ios_base6unsetfB8ne200100Ej: ; @_ZNSt3__18ios_base6unsetfB8ne200100Ej
	.cfi_startproc
; %bb.0:
	sub	sp, sp, #16
	.cfi_def_cfa_offset 16
	str	x0, [sp, #8]
	str	w1, [sp, #4]
	ldr	x9, [sp, #8]
	ldr	w10, [sp, #4]
	ldr	w8, [x9, #8]
	bic	w8, w8, w10
	str	w8, [x9, #8]
	add	sp, sp, #16
	ret
	.cfi_endproc
                                        ; -- End function
	.private_extern	__ZNSt3__18__iom_t5C1B8ne200100Ei ; -- Begin function _ZNSt3__18__iom_t5C1B8ne200100Ei
	.globl	__ZNSt3__18__iom_t5C1B8ne200100Ei
	.weak_def_can_be_hidden	__ZNSt3__18__iom_t5C1B8ne200100Ei
	.p2align	2
__ZNSt3__18__iom_t5C1B8ne200100Ei:      ; @_ZNSt3__18__iom_t5C1B8ne200100Ei
	.cfi_startproc
; %bb.0:
	sub	sp, sp, #48
	stp	x29, x30, [sp, #32]             ; 16-byte Folded Spill
	add	x29, sp, #32
	.cfi_def_cfa w29, 16
	.cfi_offset w30, -8
	.cfi_offset w29, -16
	stur	x0, [x29, #-8]
	stur	w1, [x29, #-12]
	ldur	x0, [x29, #-8]
	str	x0, [sp, #8]                    ; 8-byte Folded Spill
	ldur	w1, [x29, #-12]
	bl	__ZNSt3__18__iom_t5C2B8ne200100Ei
	ldr	x0, [sp, #8]                    ; 8-byte Folded Reload
	ldp	x29, x30, [sp, #32]             ; 16-byte Folded Reload
	add	sp, sp, #48
	ret
	.cfi_endproc
                                        ; -- End function
	.private_extern	__ZNSt3__18__iom_t5C2B8ne200100Ei ; -- Begin function _ZNSt3__18__iom_t5C2B8ne200100Ei
	.globl	__ZNSt3__18__iom_t5C2B8ne200100Ei
	.weak_def_can_be_hidden	__ZNSt3__18__iom_t5C2B8ne200100Ei
	.p2align	2
__ZNSt3__18__iom_t5C2B8ne200100Ei:      ; @_ZNSt3__18__iom_t5C2B8ne200100Ei
	.cfi_startproc
; %bb.0:
	sub	sp, sp, #16
	.cfi_def_cfa_offset 16
	str	x0, [sp, #8]
	str	w1, [sp, #4]
	ldr	x0, [sp, #8]
	ldr	w8, [sp, #4]
	str	w8, [x0]
	add	sp, sp, #16
	ret
	.cfi_endproc
                                        ; -- End function
	.private_extern	__ZNSt3__1eqB8ne200100IPyEEbRKNS_11__wrap_iterIT_EES6_ ; -- Begin function _ZNSt3__1eqB8ne200100IPyEEbRKNS_11__wrap_iterIT_EES6_
	.globl	__ZNSt3__1eqB8ne200100IPyEEbRKNS_11__wrap_iterIT_EES6_
	.weak_definition	__ZNSt3__1eqB8ne200100IPyEEbRKNS_11__wrap_iterIT_EES6_
	.p2align	2
__ZNSt3__1eqB8ne200100IPyEEbRKNS_11__wrap_iterIT_EES6_: ; @_ZNSt3__1eqB8ne200100IPyEEbRKNS_11__wrap_iterIT_EES6_
	.cfi_startproc
; %bb.0:
	sub	sp, sp, #48
	stp	x29, x30, [sp, #32]             ; 16-byte Folded Spill
	add	x29, sp, #32
	.cfi_def_cfa w29, 16
	.cfi_offset w30, -8
	.cfi_offset w29, -16
	stur	x0, [x29, #-8]
	str	x1, [sp, #16]
	ldur	x0, [x29, #-8]
	bl	__ZNKSt3__111__wrap_iterIPyE4baseB8ne200100Ev
	str	x0, [sp, #8]                    ; 8-byte Folded Spill
	ldr	x0, [sp, #16]
	bl	__ZNKSt3__111__wrap_iterIPyE4baseB8ne200100Ev
	mov	x8, x0
	ldr	x0, [sp, #8]                    ; 8-byte Folded Reload
	subs	x8, x0, x8
	cset	w0, eq
	ldp	x29, x30, [sp, #32]             ; 16-byte Folded Reload
	add	sp, sp, #48
	ret
	.cfi_endproc
                                        ; -- End function
	.private_extern	__ZNKSt3__111__wrap_iterIPyE4baseB8ne200100Ev ; -- Begin function _ZNKSt3__111__wrap_iterIPyE4baseB8ne200100Ev
	.globl	__ZNKSt3__111__wrap_iterIPyE4baseB8ne200100Ev
	.weak_definition	__ZNKSt3__111__wrap_iterIPyE4baseB8ne200100Ev
	.p2align	2
__ZNKSt3__111__wrap_iterIPyE4baseB8ne200100Ev: ; @_ZNKSt3__111__wrap_iterIPyE4baseB8ne200100Ev
	.cfi_startproc
; %bb.0:
	sub	sp, sp, #16
	.cfi_def_cfa_offset 16
	str	x0, [sp, #8]
	ldr	x8, [sp, #8]
	ldr	x0, [x8]
	add	sp, sp, #16
	ret
	.cfi_endproc
                                        ; -- End function
	.globl	__ZN17MontgomeryContextC2Ey     ; -- Begin function _ZN17MontgomeryContextC2Ey
	.weak_def_can_be_hidden	__ZN17MontgomeryContextC2Ey
	.p2align	2
__ZN17MontgomeryContextC2Ey:            ; @_ZN17MontgomeryContextC2Ey
	.cfi_startproc
; %bb.0:
	sub	sp, sp, #48
	stp	x29, x30, [sp, #32]             ; 16-byte Folded Spill
	add	x29, sp, #32
	.cfi_def_cfa w29, 16
	.cfi_offset w30, -8
	.cfi_offset w29, -16
	stur	x0, [x29, #-8]
	str	x1, [sp, #16]
	ldur	x8, [x29, #-8]
	str	x8, [sp, #8]                    ; 8-byte Folded Spill
	ldr	x9, [sp, #16]
	str	x9, [x8]
	ldr	x8, [x8]
                                        ; kill: def $w8 killed $w8 killed $x8
	tbnz	w8, #0, LBB34_2
	b	LBB34_1
LBB34_1:
	adrp	x0, __ZNSt3__14cerrE@GOTPAGE
	ldr	x0, [x0, __ZNSt3__14cerrE@GOTPAGEOFF]
	adrp	x1, l_.str.17@PAGE
	add	x1, x1, l_.str.17@PAGEOFF
	bl	__ZNSt3__1lsB8ne200100INS_11char_traitsIcEEEERNS_13basic_ostreamIcT_EES6_PKc
	bl	_abort
LBB34_2:
	ldr	x8, [sp, #8]                    ; 8-byte Folded Reload
	ldr	x0, [x8]
	bl	__ZN17MontgomeryContext13compute_n_invEy
	ldr	x8, [sp, #8]                    ; 8-byte Folded Reload
	str	x0, [x8, #8]
	ldr	x0, [x8]
	bl	__ZN17MontgomeryContext15compute_r_mod_nEy
	ldr	x8, [sp, #8]                    ; 8-byte Folded Reload
	str	x0, [x8, #16]
	ldr	x0, [x8, #16]
	ldr	x1, [x8, #16]
	ldr	x2, [x8]
	bl	__ZN17MontgomeryContext9mulmod128Eyyy
	mov	x8, x0
	ldr	x0, [sp, #8]                    ; 8-byte Folded Reload
	str	x8, [x0, #24]
	ldp	x29, x30, [sp, #32]             ; 16-byte Folded Reload
	add	sp, sp, #48
	ret
	.cfi_endproc
                                        ; -- End function
	.globl	__ZN17MontgomeryContext13compute_n_invEy ; -- Begin function _ZN17MontgomeryContext13compute_n_invEy
	.weak_definition	__ZN17MontgomeryContext13compute_n_invEy
	.p2align	2
__ZN17MontgomeryContext13compute_n_invEy: ; @_ZN17MontgomeryContext13compute_n_invEy
	.cfi_startproc
; %bb.0:
	sub	sp, sp, #32
	.cfi_def_cfa_offset 32
	str	x0, [sp, #24]
	mov	x8, #1                          ; =0x1
	str	x8, [sp, #16]
	str	wzr, [sp, #12]
	b	LBB35_1
LBB35_1:                                ; =>This Inner Loop Header: Depth=1
	ldr	w8, [sp, #12]
	subs	w8, w8, #6
	b.ge	LBB35_4
	b	LBB35_2
LBB35_2:                                ;   in Loop: Header=BB35_1 Depth=1
	ldr	x8, [sp, #24]
	ldr	x9, [sp, #16]
	mul	x9, x8, x9
	mov	x8, #2                          ; =0x2
	subs	x9, x8, x9
	ldr	x8, [sp, #16]
	mul	x8, x8, x9
	str	x8, [sp, #16]
	b	LBB35_3
LBB35_3:                                ;   in Loop: Header=BB35_1 Depth=1
	ldr	w8, [sp, #12]
	add	w8, w8, #1
	str	w8, [sp, #12]
	b	LBB35_1
LBB35_4:
	ldr	x0, [sp, #16]
	add	sp, sp, #32
	ret
	.cfi_endproc
                                        ; -- End function
	.globl	__ZN17MontgomeryContext15compute_r_mod_nEy ; -- Begin function _ZN17MontgomeryContext15compute_r_mod_nEy
	.weak_definition	__ZN17MontgomeryContext15compute_r_mod_nEy
	.p2align	2
__ZN17MontgomeryContext15compute_r_mod_nEy: ; @_ZN17MontgomeryContext15compute_r_mod_nEy
	.cfi_startproc
; %bb.0:
	sub	sp, sp, #48
	stp	x29, x30, [sp, #32]             ; 16-byte Folded Spill
	add	x29, sp, #32
	.cfi_def_cfa w29, 16
	.cfi_offset w30, -8
	.cfi_offset w29, -16
	stur	x0, [x29, #-8]
	mov	w8, #1                          ; =0x1
                                        ; kill: def $x8 killed $w8
	str	x8, [sp, #8]
	mov	x3, #0                          ; =0x0
	str	x3, [sp]
	ldr	x0, [sp]
	ldr	x1, [sp, #8]
	ldur	x2, [x29, #-8]
	bl	___umodti3
	ldp	x29, x30, [sp, #32]             ; 16-byte Folded Reload
	add	sp, sp, #48
	ret
	.cfi_endproc
                                        ; -- End function
	.globl	__ZN17MontgomeryContext9mulmod128Eyyy ; -- Begin function _ZN17MontgomeryContext9mulmod128Eyyy
	.weak_definition	__ZN17MontgomeryContext9mulmod128Eyyy
	.p2align	2
__ZN17MontgomeryContext9mulmod128Eyyy:  ; @_ZN17MontgomeryContext9mulmod128Eyyy
	.cfi_startproc
; %bb.0:
	sub	sp, sp, #48
	stp	x29, x30, [sp, #32]             ; 16-byte Folded Spill
	add	x29, sp, #32
	.cfi_def_cfa w29, 16
	.cfi_offset w30, -8
	.cfi_offset w29, -16
	stur	x0, [x29, #-8]
	str	x1, [sp, #16]
	str	x2, [sp, #8]
	ldur	x8, [x29, #-8]
	ldr	x9, [sp, #16]
	mul	x0, x8, x9
	umulh	x1, x8, x9
	ldr	x2, [sp, #8]
	mov	x3, #0                          ; =0x0
	bl	___umodti3
	ldp	x29, x30, [sp, #32]             ; 16-byte Folded Reload
	add	sp, sp, #48
	ret
	.cfi_endproc
                                        ; -- End function
	.private_extern	__ZNSt3__124__put_character_sequenceB8ne200100IcNS_11char_traitsIcEEEERNS_13basic_ostreamIT_T0_EES7_PKS4_m ; -- Begin function _ZNSt3__124__put_character_sequenceB8ne200100IcNS_11char_traitsIcEEEERNS_13basic_ostreamIT_T0_EES7_PKS4_m
	.globl	__ZNSt3__124__put_character_sequenceB8ne200100IcNS_11char_traitsIcEEEERNS_13basic_ostreamIT_T0_EES7_PKS4_m
	.weak_definition	__ZNSt3__124__put_character_sequenceB8ne200100IcNS_11char_traitsIcEEEERNS_13basic_ostreamIT_T0_EES7_PKS4_m
	.p2align	2
__ZNSt3__124__put_character_sequenceB8ne200100IcNS_11char_traitsIcEEEERNS_13basic_ostreamIT_T0_EES7_PKS4_m: ; @_ZNSt3__124__put_character_sequenceB8ne200100IcNS_11char_traitsIcEEEERNS_13basic_ostreamIT_T0_EES7_PKS4_m
Lfunc_begin1:
	.cfi_startproc
	.cfi_personality 155, ___gxx_personality_v0
	.cfi_lsda 16, Lexception1
; %bb.0:
	sub	sp, sp, #160
	stp	x29, x30, [sp, #144]            ; 16-byte Folded Spill
	add	x29, sp, #144
	.cfi_def_cfa w29, 16
	.cfi_offset w30, -8
	.cfi_offset w29, -16
	stur	x0, [x29, #-8]
	stur	x1, [x29, #-16]
	stur	x2, [x29, #-24]
	ldur	x1, [x29, #-8]
Ltmp127:
	sub	x0, x29, #40
	bl	__ZNSt3__113basic_ostreamIcNS_11char_traitsIcEEE6sentryC1ERS3_
Ltmp128:
	b	LBB38_1
LBB38_1:
Ltmp130:
	sub	x0, x29, #40
	bl	__ZNKSt3__113basic_ostreamIcNS_11char_traitsIcEEE6sentrycvbB8ne200100Ev
	str	w0, [sp, #68]                   ; 4-byte Folded Spill
Ltmp131:
	b	LBB38_2
LBB38_2:
	ldr	w8, [sp, #68]                   ; 4-byte Folded Reload
	tbz	w8, #0, LBB38_18
	b	LBB38_3
LBB38_3:
	ldur	x1, [x29, #-8]
	add	x0, sp, #72
	bl	__ZNSt3__119ostreambuf_iteratorIcNS_11char_traitsIcEEEC1B8ne200100ERNS_13basic_ostreamIcS2_EE
	ldur	x8, [x29, #-16]
	str	x8, [sp, #56]                   ; 8-byte Folded Spill
	ldur	x8, [x29, #-8]
	ldr	x9, [x8]
	ldur	x9, [x9, #-24]
	add	x0, x8, x9
Ltmp132:
	bl	__ZNKSt3__18ios_base5flagsB8ne200100Ev
	str	w0, [sp, #64]                   ; 4-byte Folded Spill
Ltmp133:
	b	LBB38_4
LBB38_4:
	ldr	w8, [sp, #64]                   ; 4-byte Folded Reload
	mov	w9, #176                        ; =0xb0
	and	w8, w8, w9
	subs	w8, w8, #32
	b.ne	LBB38_6
	b	LBB38_5
LBB38_5:
	ldur	x8, [x29, #-16]
	ldur	x9, [x29, #-24]
	add	x8, x8, x9
	str	x8, [sp, #48]                   ; 8-byte Folded Spill
	b	LBB38_7
LBB38_6:
	ldur	x8, [x29, #-16]
	str	x8, [sp, #48]                   ; 8-byte Folded Spill
	b	LBB38_7
LBB38_7:
	ldr	x8, [sp, #48]                   ; 8-byte Folded Reload
	str	x8, [sp, #16]                   ; 8-byte Folded Spill
	ldur	x8, [x29, #-16]
	ldur	x9, [x29, #-24]
	add	x8, x8, x9
	str	x8, [sp, #24]                   ; 8-byte Folded Spill
	ldur	x8, [x29, #-8]
	ldr	x9, [x8]
	ldur	x9, [x9, #-24]
	add	x8, x8, x9
	str	x8, [sp, #32]                   ; 8-byte Folded Spill
	ldur	x8, [x29, #-8]
	ldr	x9, [x8]
	ldur	x9, [x9, #-24]
	add	x0, x8, x9
Ltmp134:
	bl	__ZNKSt3__19basic_iosIcNS_11char_traitsIcEEE4fillB8ne200100Ev
	str	w0, [sp, #44]                   ; 4-byte Folded Spill
Ltmp135:
	b	LBB38_8
LBB38_8:
	ldr	w5, [sp, #44]                   ; 4-byte Folded Reload
	ldr	x4, [sp, #32]                   ; 8-byte Folded Reload
	ldr	x3, [sp, #24]                   ; 8-byte Folded Reload
	ldr	x2, [sp, #16]                   ; 8-byte Folded Reload
	ldr	x1, [sp, #56]                   ; 8-byte Folded Reload
	ldr	x0, [sp, #72]
Ltmp136:
	bl	__ZNSt3__116__pad_and_outputB8ne200100IcNS_11char_traitsIcEEEENS_19ostreambuf_iteratorIT_T0_EES6_PKS4_S8_S8_RNS_8ios_baseES4_
	str	x0, [sp, #8]                    ; 8-byte Folded Spill
Ltmp137:
	b	LBB38_9
LBB38_9:
	ldr	x8, [sp, #8]                    ; 8-byte Folded Reload
	sub	x0, x29, #64
	stur	x8, [x29, #-64]
	bl	__ZNKSt3__119ostreambuf_iteratorIcNS_11char_traitsIcEEE6failedB8ne200100Ev
	tbz	w0, #0, LBB38_17
	b	LBB38_10
LBB38_10:
	ldur	x8, [x29, #-8]
	ldr	x9, [x8]
	ldur	x9, [x9, #-24]
	add	x0, x8, x9
Ltmp138:
	mov	w1, #5                          ; =0x5
	bl	__ZNSt3__19basic_iosIcNS_11char_traitsIcEEE8setstateB8ne200100Ej
Ltmp139:
	b	LBB38_11
LBB38_11:
	b	LBB38_17
LBB38_12:
Ltmp129:
	stur	x0, [x29, #-48]
	mov	x8, x1
	stur	w8, [x29, #-52]
	b	LBB38_14
LBB38_13:
Ltmp140:
	stur	x0, [x29, #-48]
	mov	x8, x1
	stur	w8, [x29, #-52]
	sub	x0, x29, #40
	bl	__ZNSt3__113basic_ostreamIcNS_11char_traitsIcEEE6sentryD1Ev
	b	LBB38_14
LBB38_14:
	ldur	x0, [x29, #-48]
	bl	___cxa_begin_catch
	ldur	x8, [x29, #-8]
	ldr	x9, [x8]
	ldur	x9, [x9, #-24]
	add	x0, x8, x9
Ltmp141:
	bl	__ZNSt3__18ios_base33__set_badbit_and_consider_rethrowEv
Ltmp142:
	b	LBB38_15
LBB38_15:
	bl	___cxa_end_catch
	b	LBB38_16
LBB38_16:
	ldur	x0, [x29, #-8]
	ldp	x29, x30, [sp, #144]            ; 16-byte Folded Reload
	add	sp, sp, #160
	ret
LBB38_17:
	b	LBB38_18
LBB38_18:
	sub	x0, x29, #40
	bl	__ZNSt3__113basic_ostreamIcNS_11char_traitsIcEEE6sentryD1Ev
	b	LBB38_16
LBB38_19:
Ltmp143:
	stur	x0, [x29, #-48]
	mov	x8, x1
	stur	w8, [x29, #-52]
Ltmp144:
	bl	___cxa_end_catch
Ltmp145:
	b	LBB38_20
LBB38_20:
	b	LBB38_21
LBB38_21:
	ldur	x0, [x29, #-48]
	bl	__Unwind_Resume
LBB38_22:
Ltmp146:
	bl	___clang_call_terminate
Lfunc_end1:
	.cfi_endproc
	.section	__TEXT,__gcc_except_tab
	.p2align	2, 0x0
GCC_except_table38:
Lexception1:
	.byte	255                             ; @LPStart Encoding = omit
	.byte	155                             ; @TType Encoding = indirect pcrel sdata4
	.uleb128 Lttbase0-Lttbaseref0
Lttbaseref0:
	.byte	1                               ; Call site Encoding = uleb128
	.uleb128 Lcst_end1-Lcst_begin1
Lcst_begin1:
	.uleb128 Ltmp127-Lfunc_begin1           ; >> Call Site 1 <<
	.uleb128 Ltmp128-Ltmp127                ;   Call between Ltmp127 and Ltmp128
	.uleb128 Ltmp129-Lfunc_begin1           ;     jumps to Ltmp129
	.byte	1                               ;   On action: 1
	.uleb128 Ltmp130-Lfunc_begin1           ; >> Call Site 2 <<
	.uleb128 Ltmp139-Ltmp130                ;   Call between Ltmp130 and Ltmp139
	.uleb128 Ltmp140-Lfunc_begin1           ;     jumps to Ltmp140
	.byte	1                               ;   On action: 1
	.uleb128 Ltmp139-Lfunc_begin1           ; >> Call Site 3 <<
	.uleb128 Ltmp141-Ltmp139                ;   Call between Ltmp139 and Ltmp141
	.byte	0                               ;     has no landing pad
	.byte	0                               ;   On action: cleanup
	.uleb128 Ltmp141-Lfunc_begin1           ; >> Call Site 4 <<
	.uleb128 Ltmp142-Ltmp141                ;   Call between Ltmp141 and Ltmp142
	.uleb128 Ltmp143-Lfunc_begin1           ;     jumps to Ltmp143
	.byte	0                               ;   On action: cleanup
	.uleb128 Ltmp142-Lfunc_begin1           ; >> Call Site 5 <<
	.uleb128 Ltmp144-Ltmp142                ;   Call between Ltmp142 and Ltmp144
	.byte	0                               ;     has no landing pad
	.byte	0                               ;   On action: cleanup
	.uleb128 Ltmp144-Lfunc_begin1           ; >> Call Site 6 <<
	.uleb128 Ltmp145-Ltmp144                ;   Call between Ltmp144 and Ltmp145
	.uleb128 Ltmp146-Lfunc_begin1           ;     jumps to Ltmp146
	.byte	1                               ;   On action: 1
	.uleb128 Ltmp145-Lfunc_begin1           ; >> Call Site 7 <<
	.uleb128 Lfunc_end1-Ltmp145             ;   Call between Ltmp145 and Lfunc_end1
	.byte	0                               ;     has no landing pad
	.byte	0                               ;   On action: cleanup
Lcst_end1:
	.byte	1                               ; >> Action Record 1 <<
                                        ;   Catch TypeInfo 1
	.byte	0                               ;   No further actions
	.p2align	2, 0x0
                                        ; >> Catch TypeInfos <<
	.long	0                               ; TypeInfo 1
Lttbase0:
	.p2align	2, 0x0
                                        ; -- End function
	.section	__TEXT,__text,regular,pure_instructions
	.private_extern	__ZNSt3__111char_traitsIcE6lengthB8ne200100EPKc ; -- Begin function _ZNSt3__111char_traitsIcE6lengthB8ne200100EPKc
	.globl	__ZNSt3__111char_traitsIcE6lengthB8ne200100EPKc
	.weak_definition	__ZNSt3__111char_traitsIcE6lengthB8ne200100EPKc
	.p2align	2
__ZNSt3__111char_traitsIcE6lengthB8ne200100EPKc: ; @_ZNSt3__111char_traitsIcE6lengthB8ne200100EPKc
	.cfi_startproc
; %bb.0:
	sub	sp, sp, #32
	stp	x29, x30, [sp, #16]             ; 16-byte Folded Spill
	add	x29, sp, #16
	.cfi_def_cfa w29, 16
	.cfi_offset w30, -8
	.cfi_offset w29, -16
	str	x0, [sp, #8]
	ldr	x0, [sp, #8]
	bl	__ZNSt3__118__constexpr_strlenB8ne200100IcEEmPKT_
	ldp	x29, x30, [sp, #16]             ; 16-byte Folded Reload
	add	sp, sp, #32
	ret
	.cfi_endproc
                                        ; -- End function
	.private_extern	__ZNKSt3__113basic_ostreamIcNS_11char_traitsIcEEE6sentrycvbB8ne200100Ev ; -- Begin function _ZNKSt3__113basic_ostreamIcNS_11char_traitsIcEEE6sentrycvbB8ne200100Ev
	.globl	__ZNKSt3__113basic_ostreamIcNS_11char_traitsIcEEE6sentrycvbB8ne200100Ev
	.weak_definition	__ZNKSt3__113basic_ostreamIcNS_11char_traitsIcEEE6sentrycvbB8ne200100Ev
	.p2align	2
__ZNKSt3__113basic_ostreamIcNS_11char_traitsIcEEE6sentrycvbB8ne200100Ev: ; @_ZNKSt3__113basic_ostreamIcNS_11char_traitsIcEEE6sentrycvbB8ne200100Ev
	.cfi_startproc
; %bb.0:
	sub	sp, sp, #16
	.cfi_def_cfa_offset 16
	str	x0, [sp, #8]
	ldr	x8, [sp, #8]
	ldrb	w8, [x8]
	and	w0, w8, #0x1
	add	sp, sp, #16
	ret
	.cfi_endproc
                                        ; -- End function
	.private_extern	__ZNSt3__116__pad_and_outputB8ne200100IcNS_11char_traitsIcEEEENS_19ostreambuf_iteratorIT_T0_EES6_PKS4_S8_S8_RNS_8ios_baseES4_ ; -- Begin function _ZNSt3__116__pad_and_outputB8ne200100IcNS_11char_traitsIcEEEENS_19ostreambuf_iteratorIT_T0_EES6_PKS4_S8_S8_RNS_8ios_baseES4_
	.globl	__ZNSt3__116__pad_and_outputB8ne200100IcNS_11char_traitsIcEEEENS_19ostreambuf_iteratorIT_T0_EES6_PKS4_S8_S8_RNS_8ios_baseES4_
	.weak_definition	__ZNSt3__116__pad_and_outputB8ne200100IcNS_11char_traitsIcEEEENS_19ostreambuf_iteratorIT_T0_EES6_PKS4_S8_S8_RNS_8ios_baseES4_
	.p2align	2
__ZNSt3__116__pad_and_outputB8ne200100IcNS_11char_traitsIcEEEENS_19ostreambuf_iteratorIT_T0_EES6_PKS4_S8_S8_RNS_8ios_baseES4_: ; @_ZNSt3__116__pad_and_outputB8ne200100IcNS_11char_traitsIcEEEENS_19ostreambuf_iteratorIT_T0_EES6_PKS4_S8_S8_RNS_8ios_baseES4_
Lfunc_begin2:
	.cfi_startproc
	.cfi_personality 155, ___gxx_personality_v0
	.cfi_lsda 16, Lexception2
; %bb.0:
	sub	sp, sp, #160
	stp	x29, x30, [sp, #144]            ; 16-byte Folded Spill
	add	x29, sp, #144
	.cfi_def_cfa w29, 16
	.cfi_offset w30, -8
	.cfi_offset w29, -16
	stur	x0, [x29, #-16]
	stur	x1, [x29, #-24]
	stur	x2, [x29, #-32]
	stur	x3, [x29, #-40]
	stur	x4, [x29, #-48]
	sturb	w5, [x29, #-49]
	ldur	x8, [x29, #-16]
	cbnz	x8, LBB41_2
	b	LBB41_1
LBB41_1:
	ldur	x8, [x29, #-16]
	stur	x8, [x29, #-8]
	b	LBB41_23
LBB41_2:
	ldur	x8, [x29, #-40]
	ldur	x9, [x29, #-24]
	subs	x8, x8, x9
	stur	x8, [x29, #-64]
	ldur	x0, [x29, #-48]
	bl	__ZNKSt3__18ios_base5widthB8ne200100Ev
	str	x0, [sp, #72]
	ldr	x8, [sp, #72]
	ldur	x9, [x29, #-64]
	subs	x8, x8, x9
	b.le	LBB41_4
	b	LBB41_3
LBB41_3:
	ldur	x9, [x29, #-64]
	ldr	x8, [sp, #72]
	subs	x8, x8, x9
	str	x8, [sp, #72]
	b	LBB41_5
LBB41_4:
	str	xzr, [sp, #72]
	b	LBB41_5
LBB41_5:
	ldur	x8, [x29, #-32]
	ldur	x9, [x29, #-24]
	subs	x8, x8, x9
	str	x8, [sp, #64]
	ldr	x8, [sp, #64]
	subs	x8, x8, #0
	b.le	LBB41_9
	b	LBB41_6
LBB41_6:
	ldur	x0, [x29, #-16]
	ldur	x1, [x29, #-24]
	ldr	x2, [sp, #64]
	bl	__ZNSt3__115basic_streambufIcNS_11char_traitsIcEEE5sputnB8ne200100EPKcl
	ldr	x8, [sp, #64]
	subs	x8, x0, x8
	b.eq	LBB41_8
	b	LBB41_7
LBB41_7:
                                        ; kill: def $x8 killed $xzr
	stur	xzr, [x29, #-16]
	ldur	x8, [x29, #-16]
	stur	x8, [x29, #-8]
	b	LBB41_23
LBB41_8:
	b	LBB41_9
LBB41_9:
	ldr	x8, [sp, #72]
	subs	x8, x8, #0
	b.le	LBB41_18
	b	LBB41_10
LBB41_10:
	ldr	x1, [sp, #72]
	ldursb	w2, [x29, #-49]
	add	x0, sp, #40
	str	x0, [sp]                        ; 8-byte Folded Spill
	bl	__ZNSt3__112basic_stringIcNS_11char_traitsIcEENS_9allocatorIcEEEC1B8ne200100Emc
	ldr	x0, [sp]                        ; 8-byte Folded Reload
	ldur	x8, [x29, #-16]
	str	x8, [sp, #8]                    ; 8-byte Folded Spill
	bl	__ZNKSt3__112basic_stringIcNS_11char_traitsIcEENS_9allocatorIcEEE4dataB8ne200100Ev
	mov	x1, x0
	ldr	x0, [sp, #8]                    ; 8-byte Folded Reload
	ldr	x2, [sp, #72]
Ltmp148:
	bl	__ZNSt3__115basic_streambufIcNS_11char_traitsIcEEE5sputnB8ne200100EPKcl
	str	x0, [sp, #16]                   ; 8-byte Folded Spill
Ltmp149:
	b	LBB41_11
LBB41_11:
	ldr	x8, [sp, #16]                   ; 8-byte Folded Reload
	ldr	x9, [sp, #72]
	subs	x8, x8, x9
	b.eq	LBB41_14
	b	LBB41_12
LBB41_12:
                                        ; kill: def $x8 killed $xzr
	stur	xzr, [x29, #-16]
	ldur	x8, [x29, #-16]
	stur	x8, [x29, #-8]
	mov	w8, #1                          ; =0x1
	str	w8, [sp, #24]
	b	LBB41_15
LBB41_13:
Ltmp150:
	str	x0, [sp, #32]
	mov	x8, x1
	str	w8, [sp, #28]
	add	x0, sp, #40
	bl	__ZNSt3__112basic_stringIcNS_11char_traitsIcEENS_9allocatorIcEEED1Ev
	b	LBB41_24
LBB41_14:
	str	wzr, [sp, #24]
	b	LBB41_15
LBB41_15:
	add	x0, sp, #40
	bl	__ZNSt3__112basic_stringIcNS_11char_traitsIcEENS_9allocatorIcEEED1Ev
	ldr	w8, [sp, #24]
	cbz	w8, LBB41_17
	b	LBB41_16
LBB41_16:
	b	LBB41_23
LBB41_17:
	b	LBB41_18
LBB41_18:
	ldur	x8, [x29, #-40]
	ldur	x9, [x29, #-32]
	subs	x8, x8, x9
	str	x8, [sp, #64]
	ldr	x8, [sp, #64]
	subs	x8, x8, #0
	b.le	LBB41_22
	b	LBB41_19
LBB41_19:
	ldur	x0, [x29, #-16]
	ldur	x1, [x29, #-32]
	ldr	x2, [sp, #64]
	bl	__ZNSt3__115basic_streambufIcNS_11char_traitsIcEEE5sputnB8ne200100EPKcl
	ldr	x8, [sp, #64]
	subs	x8, x0, x8
	b.eq	LBB41_21
	b	LBB41_20
LBB41_20:
                                        ; kill: def $x8 killed $xzr
	stur	xzr, [x29, #-16]
	ldur	x8, [x29, #-16]
	stur	x8, [x29, #-8]
	b	LBB41_23
LBB41_21:
	b	LBB41_22
LBB41_22:
	ldur	x0, [x29, #-48]
	mov	x1, #0                          ; =0x0
	bl	__ZNSt3__18ios_base5widthB8ne200100El
	ldur	x8, [x29, #-16]
	stur	x8, [x29, #-8]
	b	LBB41_23
LBB41_23:
	ldur	x0, [x29, #-8]
	ldp	x29, x30, [sp, #144]            ; 16-byte Folded Reload
	add	sp, sp, #160
	ret
LBB41_24:
	ldr	x0, [sp, #32]
	bl	__Unwind_Resume
; %bb.25:
Lfunc_end2:
	.cfi_endproc
	.section	__TEXT,__gcc_except_tab
	.p2align	2, 0x0
GCC_except_table41:
Lexception2:
	.byte	255                             ; @LPStart Encoding = omit
	.byte	255                             ; @TType Encoding = omit
	.byte	1                               ; Call site Encoding = uleb128
	.uleb128 Lcst_end2-Lcst_begin2
Lcst_begin2:
	.uleb128 Lfunc_begin2-Lfunc_begin2      ; >> Call Site 1 <<
	.uleb128 Ltmp148-Lfunc_begin2           ;   Call between Lfunc_begin2 and Ltmp148
	.byte	0                               ;     has no landing pad
	.byte	0                               ;   On action: cleanup
	.uleb128 Ltmp148-Lfunc_begin2           ; >> Call Site 2 <<
	.uleb128 Ltmp149-Ltmp148                ;   Call between Ltmp148 and Ltmp149
	.uleb128 Ltmp150-Lfunc_begin2           ;     jumps to Ltmp150
	.byte	0                               ;   On action: cleanup
	.uleb128 Ltmp149-Lfunc_begin2           ; >> Call Site 3 <<
	.uleb128 Lfunc_end2-Ltmp149             ;   Call between Ltmp149 and Lfunc_end2
	.byte	0                               ;     has no landing pad
	.byte	0                               ;   On action: cleanup
Lcst_end2:
	.p2align	2, 0x0
                                        ; -- End function
	.section	__TEXT,__text,regular,pure_instructions
	.private_extern	__ZNSt3__119ostreambuf_iteratorIcNS_11char_traitsIcEEEC1B8ne200100ERNS_13basic_ostreamIcS2_EE ; -- Begin function _ZNSt3__119ostreambuf_iteratorIcNS_11char_traitsIcEEEC1B8ne200100ERNS_13basic_ostreamIcS2_EE
	.globl	__ZNSt3__119ostreambuf_iteratorIcNS_11char_traitsIcEEEC1B8ne200100ERNS_13basic_ostreamIcS2_EE
	.weak_def_can_be_hidden	__ZNSt3__119ostreambuf_iteratorIcNS_11char_traitsIcEEEC1B8ne200100ERNS_13basic_ostreamIcS2_EE
	.p2align	2
__ZNSt3__119ostreambuf_iteratorIcNS_11char_traitsIcEEEC1B8ne200100ERNS_13basic_ostreamIcS2_EE: ; @_ZNSt3__119ostreambuf_iteratorIcNS_11char_traitsIcEEEC1B8ne200100ERNS_13basic_ostreamIcS2_EE
	.cfi_startproc
; %bb.0:
	sub	sp, sp, #48
	stp	x29, x30, [sp, #32]             ; 16-byte Folded Spill
	add	x29, sp, #32
	.cfi_def_cfa w29, 16
	.cfi_offset w30, -8
	.cfi_offset w29, -16
	stur	x0, [x29, #-8]
	str	x1, [sp, #16]
	ldur	x0, [x29, #-8]
	str	x0, [sp, #8]                    ; 8-byte Folded Spill
	ldr	x1, [sp, #16]
	bl	__ZNSt3__119ostreambuf_iteratorIcNS_11char_traitsIcEEEC2B8ne200100ERNS_13basic_ostreamIcS2_EE
	ldr	x0, [sp, #8]                    ; 8-byte Folded Reload
	ldp	x29, x30, [sp, #32]             ; 16-byte Folded Reload
	add	sp, sp, #48
	ret
	.cfi_endproc
                                        ; -- End function
	.private_extern	__ZNKSt3__18ios_base5flagsB8ne200100Ev ; -- Begin function _ZNKSt3__18ios_base5flagsB8ne200100Ev
	.globl	__ZNKSt3__18ios_base5flagsB8ne200100Ev
	.weak_definition	__ZNKSt3__18ios_base5flagsB8ne200100Ev
	.p2align	2
__ZNKSt3__18ios_base5flagsB8ne200100Ev: ; @_ZNKSt3__18ios_base5flagsB8ne200100Ev
	.cfi_startproc
; %bb.0:
	sub	sp, sp, #16
	.cfi_def_cfa_offset 16
	str	x0, [sp, #8]
	ldr	x8, [sp, #8]
	ldr	w0, [x8, #8]
	add	sp, sp, #16
	ret
	.cfi_endproc
                                        ; -- End function
	.private_extern	__ZNKSt3__19basic_iosIcNS_11char_traitsIcEEE4fillB8ne200100Ev ; -- Begin function _ZNKSt3__19basic_iosIcNS_11char_traitsIcEEE4fillB8ne200100Ev
	.globl	__ZNKSt3__19basic_iosIcNS_11char_traitsIcEEE4fillB8ne200100Ev
	.weak_definition	__ZNKSt3__19basic_iosIcNS_11char_traitsIcEEE4fillB8ne200100Ev
	.p2align	2
__ZNKSt3__19basic_iosIcNS_11char_traitsIcEEE4fillB8ne200100Ev: ; @_ZNKSt3__19basic_iosIcNS_11char_traitsIcEEE4fillB8ne200100Ev
	.cfi_startproc
; %bb.0:
	sub	sp, sp, #32
	stp	x29, x30, [sp, #16]             ; 16-byte Folded Spill
	add	x29, sp, #16
	.cfi_def_cfa w29, 16
	.cfi_offset w30, -8
	.cfi_offset w29, -16
	str	x0, [sp, #8]
	ldr	x8, [sp, #8]
	str	x8, [sp]                        ; 8-byte Folded Spill
	add	x0, x8, #144
	bl	__ZNKSt3__118_SentinelValueFillINS_11char_traitsIcEEE8__is_setB8ne200100Ev
	tbnz	w0, #0, LBB44_2
	b	LBB44_1
LBB44_1:
	ldr	x0, [sp]                        ; 8-byte Folded Reload
	mov	w1, #32                         ; =0x20
	bl	__ZNKSt3__19basic_iosIcNS_11char_traitsIcEEE5widenB8ne200100Ec
	ldr	x8, [sp]                        ; 8-byte Folded Reload
	mov	x1, x0
	add	x0, x8, #144
	bl	__ZNSt3__118_SentinelValueFillINS_11char_traitsIcEEEaSB8ne200100Ei
	b	LBB44_2
LBB44_2:
	ldr	x8, [sp]                        ; 8-byte Folded Reload
	add	x0, x8, #144
	bl	__ZNKSt3__118_SentinelValueFillINS_11char_traitsIcEEE5__getB8ne200100Ev
	sxtb	w0, w0
	ldp	x29, x30, [sp, #16]             ; 16-byte Folded Reload
	add	sp, sp, #32
	ret
	.cfi_endproc
                                        ; -- End function
	.private_extern	__ZNKSt3__119ostreambuf_iteratorIcNS_11char_traitsIcEEE6failedB8ne200100Ev ; -- Begin function _ZNKSt3__119ostreambuf_iteratorIcNS_11char_traitsIcEEE6failedB8ne200100Ev
	.globl	__ZNKSt3__119ostreambuf_iteratorIcNS_11char_traitsIcEEE6failedB8ne200100Ev
	.weak_definition	__ZNKSt3__119ostreambuf_iteratorIcNS_11char_traitsIcEEE6failedB8ne200100Ev
	.p2align	2
__ZNKSt3__119ostreambuf_iteratorIcNS_11char_traitsIcEEE6failedB8ne200100Ev: ; @_ZNKSt3__119ostreambuf_iteratorIcNS_11char_traitsIcEEE6failedB8ne200100Ev
	.cfi_startproc
; %bb.0:
	sub	sp, sp, #16
	.cfi_def_cfa_offset 16
	str	x0, [sp, #8]
	ldr	x8, [sp, #8]
	ldr	x8, [x8]
	subs	x8, x8, #0
	cset	w0, eq
	add	sp, sp, #16
	ret
	.cfi_endproc
                                        ; -- End function
	.private_extern	__ZNSt3__19basic_iosIcNS_11char_traitsIcEEE8setstateB8ne200100Ej ; -- Begin function _ZNSt3__19basic_iosIcNS_11char_traitsIcEEE8setstateB8ne200100Ej
	.globl	__ZNSt3__19basic_iosIcNS_11char_traitsIcEEE8setstateB8ne200100Ej
	.weak_definition	__ZNSt3__19basic_iosIcNS_11char_traitsIcEEE8setstateB8ne200100Ej
	.p2align	2
__ZNSt3__19basic_iosIcNS_11char_traitsIcEEE8setstateB8ne200100Ej: ; @_ZNSt3__19basic_iosIcNS_11char_traitsIcEEE8setstateB8ne200100Ej
	.cfi_startproc
; %bb.0:
	sub	sp, sp, #32
	stp	x29, x30, [sp, #16]             ; 16-byte Folded Spill
	add	x29, sp, #16
	.cfi_def_cfa w29, 16
	.cfi_offset w30, -8
	.cfi_offset w29, -16
	str	x0, [sp, #8]
	str	w1, [sp, #4]
	ldr	x0, [sp, #8]
	ldr	w1, [sp, #4]
	bl	__ZNSt3__18ios_base8setstateB8ne200100Ej
	ldp	x29, x30, [sp, #16]             ; 16-byte Folded Reload
	add	sp, sp, #32
	ret
	.cfi_endproc
                                        ; -- End function
	.private_extern	___clang_call_terminate ; -- Begin function __clang_call_terminate
	.globl	___clang_call_terminate
	.weak_definition	___clang_call_terminate
	.p2align	2
___clang_call_terminate:                ; @__clang_call_terminate
	.cfi_startproc
; %bb.0:
	stp	x29, x30, [sp, #-16]!           ; 16-byte Folded Spill
	mov	x29, sp
	.cfi_def_cfa w29, 16
	.cfi_offset w30, -8
	.cfi_offset w29, -16
	bl	___cxa_begin_catch
	bl	__ZSt9terminatev
	.cfi_endproc
                                        ; -- End function
	.private_extern	__ZNKSt3__18ios_base5widthB8ne200100Ev ; -- Begin function _ZNKSt3__18ios_base5widthB8ne200100Ev
	.globl	__ZNKSt3__18ios_base5widthB8ne200100Ev
	.weak_definition	__ZNKSt3__18ios_base5widthB8ne200100Ev
	.p2align	2
__ZNKSt3__18ios_base5widthB8ne200100Ev: ; @_ZNKSt3__18ios_base5widthB8ne200100Ev
	.cfi_startproc
; %bb.0:
	sub	sp, sp, #16
	.cfi_def_cfa_offset 16
	str	x0, [sp, #8]
	ldr	x8, [sp, #8]
	ldr	x0, [x8, #24]
	add	sp, sp, #16
	ret
	.cfi_endproc
                                        ; -- End function
	.private_extern	__ZNSt3__115basic_streambufIcNS_11char_traitsIcEEE5sputnB8ne200100EPKcl ; -- Begin function _ZNSt3__115basic_streambufIcNS_11char_traitsIcEEE5sputnB8ne200100EPKcl
	.globl	__ZNSt3__115basic_streambufIcNS_11char_traitsIcEEE5sputnB8ne200100EPKcl
	.weak_definition	__ZNSt3__115basic_streambufIcNS_11char_traitsIcEEE5sputnB8ne200100EPKcl
	.p2align	2
__ZNSt3__115basic_streambufIcNS_11char_traitsIcEEE5sputnB8ne200100EPKcl: ; @_ZNSt3__115basic_streambufIcNS_11char_traitsIcEEE5sputnB8ne200100EPKcl
	.cfi_startproc
; %bb.0:
	sub	sp, sp, #48
	stp	x29, x30, [sp, #32]             ; 16-byte Folded Spill
	add	x29, sp, #32
	.cfi_def_cfa w29, 16
	.cfi_offset w30, -8
	.cfi_offset w29, -16
	stur	x0, [x29, #-8]
	str	x1, [sp, #16]
	str	x2, [sp, #8]
	ldur	x0, [x29, #-8]
	ldr	x1, [sp, #16]
	ldr	x2, [sp, #8]
	ldr	x8, [x0]
	ldr	x8, [x8, #96]
	blr	x8
	ldp	x29, x30, [sp, #32]             ; 16-byte Folded Reload
	add	sp, sp, #48
	ret
	.cfi_endproc
                                        ; -- End function
	.private_extern	__ZNSt3__112basic_stringIcNS_11char_traitsIcEENS_9allocatorIcEEEC1B8ne200100Emc ; -- Begin function _ZNSt3__112basic_stringIcNS_11char_traitsIcEENS_9allocatorIcEEEC1B8ne200100Emc
	.globl	__ZNSt3__112basic_stringIcNS_11char_traitsIcEENS_9allocatorIcEEEC1B8ne200100Emc
	.weak_def_can_be_hidden	__ZNSt3__112basic_stringIcNS_11char_traitsIcEENS_9allocatorIcEEEC1B8ne200100Emc
	.p2align	2
__ZNSt3__112basic_stringIcNS_11char_traitsIcEENS_9allocatorIcEEEC1B8ne200100Emc: ; @_ZNSt3__112basic_stringIcNS_11char_traitsIcEENS_9allocatorIcEEEC1B8ne200100Emc
	.cfi_startproc
; %bb.0:
	sub	sp, sp, #48
	stp	x29, x30, [sp, #32]             ; 16-byte Folded Spill
	add	x29, sp, #32
	.cfi_def_cfa w29, 16
	.cfi_offset w30, -8
	.cfi_offset w29, -16
	stur	x0, [x29, #-8]
	str	x1, [sp, #16]
	strb	w2, [sp, #15]
	ldur	x0, [x29, #-8]
	str	x0, [sp]                        ; 8-byte Folded Spill
	ldr	x1, [sp, #16]
	ldrsb	w2, [sp, #15]
	bl	__ZNSt3__112basic_stringIcNS_11char_traitsIcEENS_9allocatorIcEEEC2B8ne200100Emc
	ldr	x0, [sp]                        ; 8-byte Folded Reload
	ldp	x29, x30, [sp, #32]             ; 16-byte Folded Reload
	add	sp, sp, #48
	ret
	.cfi_endproc
                                        ; -- End function
	.private_extern	__ZNKSt3__112basic_stringIcNS_11char_traitsIcEENS_9allocatorIcEEE4dataB8ne200100Ev ; -- Begin function _ZNKSt3__112basic_stringIcNS_11char_traitsIcEENS_9allocatorIcEEE4dataB8ne200100Ev
	.globl	__ZNKSt3__112basic_stringIcNS_11char_traitsIcEENS_9allocatorIcEEE4dataB8ne200100Ev
	.weak_definition	__ZNKSt3__112basic_stringIcNS_11char_traitsIcEENS_9allocatorIcEEE4dataB8ne200100Ev
	.p2align	2
__ZNKSt3__112basic_stringIcNS_11char_traitsIcEENS_9allocatorIcEEE4dataB8ne200100Ev: ; @_ZNKSt3__112basic_stringIcNS_11char_traitsIcEENS_9allocatorIcEEE4dataB8ne200100Ev
	.cfi_startproc
; %bb.0:
	sub	sp, sp, #32
	stp	x29, x30, [sp, #16]             ; 16-byte Folded Spill
	add	x29, sp, #16
	.cfi_def_cfa w29, 16
	.cfi_offset w30, -8
	.cfi_offset w29, -16
	str	x0, [sp, #8]
	ldr	x0, [sp, #8]
	bl	__ZNKSt3__112basic_stringIcNS_11char_traitsIcEENS_9allocatorIcEEE13__get_pointerB8ne200100Ev
	bl	__ZNSt3__112__to_addressB8ne200100IKcEEPT_S3_
	ldp	x29, x30, [sp, #16]             ; 16-byte Folded Reload
	add	sp, sp, #32
	ret
	.cfi_endproc
                                        ; -- End function
	.private_extern	__ZNSt3__18ios_base5widthB8ne200100El ; -- Begin function _ZNSt3__18ios_base5widthB8ne200100El
	.globl	__ZNSt3__18ios_base5widthB8ne200100El
	.weak_definition	__ZNSt3__18ios_base5widthB8ne200100El
	.p2align	2
__ZNSt3__18ios_base5widthB8ne200100El:  ; @_ZNSt3__18ios_base5widthB8ne200100El
	.cfi_startproc
; %bb.0:
	sub	sp, sp, #32
	.cfi_def_cfa_offset 32
	str	x0, [sp, #24]
	str	x1, [sp, #16]
	ldr	x9, [sp, #24]
	ldr	x8, [x9, #24]
	str	x8, [sp, #8]
	ldr	x8, [sp, #16]
	str	x8, [x9, #24]
	ldr	x0, [sp, #8]
	add	sp, sp, #32
	ret
	.cfi_endproc
                                        ; -- End function
	.private_extern	__ZNSt3__112basic_stringIcNS_11char_traitsIcEENS_9allocatorIcEEEC2B8ne200100Emc ; -- Begin function _ZNSt3__112basic_stringIcNS_11char_traitsIcEENS_9allocatorIcEEEC2B8ne200100Emc
	.globl	__ZNSt3__112basic_stringIcNS_11char_traitsIcEENS_9allocatorIcEEEC2B8ne200100Emc
	.weak_def_can_be_hidden	__ZNSt3__112basic_stringIcNS_11char_traitsIcEENS_9allocatorIcEEEC2B8ne200100Emc
	.p2align	2
__ZNSt3__112basic_stringIcNS_11char_traitsIcEENS_9allocatorIcEEEC2B8ne200100Emc: ; @_ZNSt3__112basic_stringIcNS_11char_traitsIcEENS_9allocatorIcEEEC2B8ne200100Emc
	.cfi_startproc
; %bb.0:
	sub	sp, sp, #48
	stp	x29, x30, [sp, #32]             ; 16-byte Folded Spill
	add	x29, sp, #32
	.cfi_def_cfa w29, 16
	.cfi_offset w30, -8
	.cfi_offset w29, -16
	stur	x0, [x29, #-8]
	str	x1, [sp, #16]
	strb	w2, [sp, #15]
	ldur	x0, [x29, #-8]
	str	x0, [sp]                        ; 8-byte Folded Spill
	bl	__ZNSt3__19allocatorIcEC1B8ne200100Ev
	ldr	x0, [sp]                        ; 8-byte Folded Reload
	ldr	x1, [sp, #16]
	ldrsb	w2, [sp, #15]
	bl	__ZNSt3__112basic_stringIcNS_11char_traitsIcEENS_9allocatorIcEEE6__initEmc
	ldr	x0, [sp]                        ; 8-byte Folded Reload
	ldp	x29, x30, [sp, #32]             ; 16-byte Folded Reload
	add	sp, sp, #48
	ret
	.cfi_endproc
                                        ; -- End function
	.private_extern	__ZNSt3__19allocatorIcEC1B8ne200100Ev ; -- Begin function _ZNSt3__19allocatorIcEC1B8ne200100Ev
	.globl	__ZNSt3__19allocatorIcEC1B8ne200100Ev
	.weak_def_can_be_hidden	__ZNSt3__19allocatorIcEC1B8ne200100Ev
	.p2align	2
__ZNSt3__19allocatorIcEC1B8ne200100Ev:  ; @_ZNSt3__19allocatorIcEC1B8ne200100Ev
	.cfi_startproc
; %bb.0:
	sub	sp, sp, #32
	stp	x29, x30, [sp, #16]             ; 16-byte Folded Spill
	add	x29, sp, #16
	.cfi_def_cfa w29, 16
	.cfi_offset w30, -8
	.cfi_offset w29, -16
	str	x0, [sp, #8]
	ldr	x0, [sp, #8]
	str	x0, [sp]                        ; 8-byte Folded Spill
	bl	__ZNSt3__19allocatorIcEC2B8ne200100Ev
	ldr	x0, [sp]                        ; 8-byte Folded Reload
	ldp	x29, x30, [sp, #16]             ; 16-byte Folded Reload
	add	sp, sp, #32
	ret
	.cfi_endproc
                                        ; -- End function
	.private_extern	__ZNSt3__19allocatorIcEC2B8ne200100Ev ; -- Begin function _ZNSt3__19allocatorIcEC2B8ne200100Ev
	.globl	__ZNSt3__19allocatorIcEC2B8ne200100Ev
	.weak_def_can_be_hidden	__ZNSt3__19allocatorIcEC2B8ne200100Ev
	.p2align	2
__ZNSt3__19allocatorIcEC2B8ne200100Ev:  ; @_ZNSt3__19allocatorIcEC2B8ne200100Ev
	.cfi_startproc
; %bb.0:
	sub	sp, sp, #32
	stp	x29, x30, [sp, #16]             ; 16-byte Folded Spill
	add	x29, sp, #16
	.cfi_def_cfa w29, 16
	.cfi_offset w30, -8
	.cfi_offset w29, -16
	str	x0, [sp, #8]
	ldr	x0, [sp, #8]
	str	x0, [sp]                        ; 8-byte Folded Spill
	bl	__ZNSt3__116__non_trivial_ifILb1ENS_9allocatorIcEEEC2B8ne200100Ev
	ldr	x0, [sp]                        ; 8-byte Folded Reload
	ldp	x29, x30, [sp, #16]             ; 16-byte Folded Reload
	add	sp, sp, #32
	ret
	.cfi_endproc
                                        ; -- End function
	.private_extern	__ZNSt3__116__non_trivial_ifILb1ENS_9allocatorIcEEEC2B8ne200100Ev ; -- Begin function _ZNSt3__116__non_trivial_ifILb1ENS_9allocatorIcEEEC2B8ne200100Ev
	.globl	__ZNSt3__116__non_trivial_ifILb1ENS_9allocatorIcEEEC2B8ne200100Ev
	.weak_def_can_be_hidden	__ZNSt3__116__non_trivial_ifILb1ENS_9allocatorIcEEEC2B8ne200100Ev
	.p2align	2
__ZNSt3__116__non_trivial_ifILb1ENS_9allocatorIcEEEC2B8ne200100Ev: ; @_ZNSt3__116__non_trivial_ifILb1ENS_9allocatorIcEEEC2B8ne200100Ev
	.cfi_startproc
; %bb.0:
	sub	sp, sp, #16
	.cfi_def_cfa_offset 16
	str	x0, [sp, #8]
	ldr	x0, [sp, #8]
	add	sp, sp, #16
	ret
	.cfi_endproc
                                        ; -- End function
	.private_extern	__ZNSt3__112__to_addressB8ne200100IKcEEPT_S3_ ; -- Begin function _ZNSt3__112__to_addressB8ne200100IKcEEPT_S3_
	.globl	__ZNSt3__112__to_addressB8ne200100IKcEEPT_S3_
	.weak_definition	__ZNSt3__112__to_addressB8ne200100IKcEEPT_S3_
	.p2align	2
__ZNSt3__112__to_addressB8ne200100IKcEEPT_S3_: ; @_ZNSt3__112__to_addressB8ne200100IKcEEPT_S3_
	.cfi_startproc
; %bb.0:
	sub	sp, sp, #16
	.cfi_def_cfa_offset 16
	str	x0, [sp, #8]
	ldr	x0, [sp, #8]
	add	sp, sp, #16
	ret
	.cfi_endproc
                                        ; -- End function
	.private_extern	__ZNKSt3__112basic_stringIcNS_11char_traitsIcEENS_9allocatorIcEEE13__get_pointerB8ne200100Ev ; -- Begin function _ZNKSt3__112basic_stringIcNS_11char_traitsIcEENS_9allocatorIcEEE13__get_pointerB8ne200100Ev
	.globl	__ZNKSt3__112basic_stringIcNS_11char_traitsIcEENS_9allocatorIcEEE13__get_pointerB8ne200100Ev
	.weak_definition	__ZNKSt3__112basic_stringIcNS_11char_traitsIcEENS_9allocatorIcEEE13__get_pointerB8ne200100Ev
	.p2align	2
__ZNKSt3__112basic_stringIcNS_11char_traitsIcEENS_9allocatorIcEEE13__get_pointerB8ne200100Ev: ; @_ZNKSt3__112basic_stringIcNS_11char_traitsIcEENS_9allocatorIcEEE13__get_pointerB8ne200100Ev
	.cfi_startproc
; %bb.0:
	sub	sp, sp, #48
	stp	x29, x30, [sp, #32]             ; 16-byte Folded Spill
	add	x29, sp, #32
	.cfi_def_cfa w29, 16
	.cfi_offset w30, -8
	.cfi_offset w29, -16
	stur	x0, [x29, #-8]
	ldur	x0, [x29, #-8]
	str	x0, [sp, #16]                   ; 8-byte Folded Spill
	bl	__ZNKSt3__112basic_stringIcNS_11char_traitsIcEENS_9allocatorIcEEE9__is_longB8ne200100Ev
	tbz	w0, #0, LBB58_2
	b	LBB58_1
LBB58_1:
	ldr	x0, [sp, #16]                   ; 8-byte Folded Reload
	bl	__ZNKSt3__112basic_stringIcNS_11char_traitsIcEENS_9allocatorIcEEE18__get_long_pointerB8ne200100Ev
	str	x0, [sp, #8]                    ; 8-byte Folded Spill
	b	LBB58_3
LBB58_2:
	ldr	x0, [sp, #16]                   ; 8-byte Folded Reload
	bl	__ZNKSt3__112basic_stringIcNS_11char_traitsIcEENS_9allocatorIcEEE19__get_short_pointerB8ne200100Ev
	str	x0, [sp, #8]                    ; 8-byte Folded Spill
	b	LBB58_3
LBB58_3:
	ldr	x0, [sp, #8]                    ; 8-byte Folded Reload
	ldp	x29, x30, [sp, #32]             ; 16-byte Folded Reload
	add	sp, sp, #48
	ret
	.cfi_endproc
                                        ; -- End function
	.private_extern	__ZNKSt3__112basic_stringIcNS_11char_traitsIcEENS_9allocatorIcEEE9__is_longB8ne200100Ev ; -- Begin function _ZNKSt3__112basic_stringIcNS_11char_traitsIcEENS_9allocatorIcEEE9__is_longB8ne200100Ev
	.globl	__ZNKSt3__112basic_stringIcNS_11char_traitsIcEENS_9allocatorIcEEE9__is_longB8ne200100Ev
	.weak_definition	__ZNKSt3__112basic_stringIcNS_11char_traitsIcEENS_9allocatorIcEEE9__is_longB8ne200100Ev
	.p2align	2
__ZNKSt3__112basic_stringIcNS_11char_traitsIcEENS_9allocatorIcEEE9__is_longB8ne200100Ev: ; @_ZNKSt3__112basic_stringIcNS_11char_traitsIcEENS_9allocatorIcEEE9__is_longB8ne200100Ev
	.cfi_startproc
; %bb.0:
	sub	sp, sp, #16
	.cfi_def_cfa_offset 16
	str	x0, [sp, #8]
	ldr	x8, [sp, #8]
	ldrb	w8, [x8, #23]
	lsr	w8, w8, #7
	subs	w8, w8, #0
	cset	w0, ne
	add	sp, sp, #16
	ret
	.cfi_endproc
                                        ; -- End function
	.private_extern	__ZNKSt3__112basic_stringIcNS_11char_traitsIcEENS_9allocatorIcEEE18__get_long_pointerB8ne200100Ev ; -- Begin function _ZNKSt3__112basic_stringIcNS_11char_traitsIcEENS_9allocatorIcEEE18__get_long_pointerB8ne200100Ev
	.globl	__ZNKSt3__112basic_stringIcNS_11char_traitsIcEENS_9allocatorIcEEE18__get_long_pointerB8ne200100Ev
	.weak_definition	__ZNKSt3__112basic_stringIcNS_11char_traitsIcEENS_9allocatorIcEEE18__get_long_pointerB8ne200100Ev
	.p2align	2
__ZNKSt3__112basic_stringIcNS_11char_traitsIcEENS_9allocatorIcEEE18__get_long_pointerB8ne200100Ev: ; @_ZNKSt3__112basic_stringIcNS_11char_traitsIcEENS_9allocatorIcEEE18__get_long_pointerB8ne200100Ev
	.cfi_startproc
; %bb.0:
	sub	sp, sp, #16
	.cfi_def_cfa_offset 16
	str	x0, [sp, #8]
	ldr	x8, [sp, #8]
	ldr	x0, [x8]
	add	sp, sp, #16
	ret
	.cfi_endproc
                                        ; -- End function
	.private_extern	__ZNKSt3__112basic_stringIcNS_11char_traitsIcEENS_9allocatorIcEEE19__get_short_pointerB8ne200100Ev ; -- Begin function _ZNKSt3__112basic_stringIcNS_11char_traitsIcEENS_9allocatorIcEEE19__get_short_pointerB8ne200100Ev
	.globl	__ZNKSt3__112basic_stringIcNS_11char_traitsIcEENS_9allocatorIcEEE19__get_short_pointerB8ne200100Ev
	.weak_definition	__ZNKSt3__112basic_stringIcNS_11char_traitsIcEENS_9allocatorIcEEE19__get_short_pointerB8ne200100Ev
	.p2align	2
__ZNKSt3__112basic_stringIcNS_11char_traitsIcEENS_9allocatorIcEEE19__get_short_pointerB8ne200100Ev: ; @_ZNKSt3__112basic_stringIcNS_11char_traitsIcEENS_9allocatorIcEEE19__get_short_pointerB8ne200100Ev
	.cfi_startproc
; %bb.0:
	sub	sp, sp, #32
	stp	x29, x30, [sp, #16]             ; 16-byte Folded Spill
	add	x29, sp, #16
	.cfi_def_cfa w29, 16
	.cfi_offset w30, -8
	.cfi_offset w29, -16
	str	x0, [sp, #8]
	ldr	x0, [sp, #8]
	bl	__ZNSt3__114pointer_traitsIPKcE10pointer_toB8ne200100ERS1_
	ldp	x29, x30, [sp, #16]             ; 16-byte Folded Reload
	add	sp, sp, #32
	ret
	.cfi_endproc
                                        ; -- End function
	.private_extern	__ZNSt3__114pointer_traitsIPKcE10pointer_toB8ne200100ERS1_ ; -- Begin function _ZNSt3__114pointer_traitsIPKcE10pointer_toB8ne200100ERS1_
	.globl	__ZNSt3__114pointer_traitsIPKcE10pointer_toB8ne200100ERS1_
	.weak_definition	__ZNSt3__114pointer_traitsIPKcE10pointer_toB8ne200100ERS1_
	.p2align	2
__ZNSt3__114pointer_traitsIPKcE10pointer_toB8ne200100ERS1_: ; @_ZNSt3__114pointer_traitsIPKcE10pointer_toB8ne200100ERS1_
	.cfi_startproc
; %bb.0:
	sub	sp, sp, #16
	.cfi_def_cfa_offset 16
	str	x0, [sp, #8]
	ldr	x0, [sp, #8]
	add	sp, sp, #16
	ret
	.cfi_endproc
                                        ; -- End function
	.private_extern	__ZNSt3__119ostreambuf_iteratorIcNS_11char_traitsIcEEEC2B8ne200100ERNS_13basic_ostreamIcS2_EE ; -- Begin function _ZNSt3__119ostreambuf_iteratorIcNS_11char_traitsIcEEEC2B8ne200100ERNS_13basic_ostreamIcS2_EE
	.globl	__ZNSt3__119ostreambuf_iteratorIcNS_11char_traitsIcEEEC2B8ne200100ERNS_13basic_ostreamIcS2_EE
	.weak_def_can_be_hidden	__ZNSt3__119ostreambuf_iteratorIcNS_11char_traitsIcEEEC2B8ne200100ERNS_13basic_ostreamIcS2_EE
	.p2align	2
__ZNSt3__119ostreambuf_iteratorIcNS_11char_traitsIcEEEC2B8ne200100ERNS_13basic_ostreamIcS2_EE: ; @_ZNSt3__119ostreambuf_iteratorIcNS_11char_traitsIcEEEC2B8ne200100ERNS_13basic_ostreamIcS2_EE
Lfunc_begin3:
	.cfi_startproc
	.cfi_personality 155, ___gxx_personality_v0
	.cfi_lsda 16, Lexception3
; %bb.0:
	sub	sp, sp, #48
	stp	x29, x30, [sp, #32]             ; 16-byte Folded Spill
	add	x29, sp, #32
	.cfi_def_cfa w29, 16
	.cfi_offset w30, -8
	.cfi_offset w29, -16
	stur	x0, [x29, #-8]
	str	x1, [sp, #16]
	ldur	x8, [x29, #-8]
	str	x8, [sp]                        ; 8-byte Folded Spill
	ldr	x8, [sp, #16]
	ldr	x9, [x8]
	ldur	x9, [x9, #-24]
Ltmp160:
	add	x0, x8, x9
	bl	__ZNKSt3__19basic_iosIcNS_11char_traitsIcEEE5rdbufB8ne200100Ev
	str	x0, [sp, #8]                    ; 8-byte Folded Spill
Ltmp161:
	b	LBB63_1
LBB63_1:
	ldr	x0, [sp]                        ; 8-byte Folded Reload
	ldr	x8, [sp, #8]                    ; 8-byte Folded Reload
	str	x8, [x0]
	ldp	x29, x30, [sp, #32]             ; 16-byte Folded Reload
	add	sp, sp, #48
	ret
LBB63_2:
Ltmp162:
	bl	___clang_call_terminate
Lfunc_end3:
	.cfi_endproc
	.section	__TEXT,__gcc_except_tab
	.p2align	2, 0x0
GCC_except_table63:
Lexception3:
	.byte	255                             ; @LPStart Encoding = omit
	.byte	155                             ; @TType Encoding = indirect pcrel sdata4
	.uleb128 Lttbase1-Lttbaseref1
Lttbaseref1:
	.byte	1                               ; Call site Encoding = uleb128
	.uleb128 Lcst_end3-Lcst_begin3
Lcst_begin3:
	.uleb128 Ltmp160-Lfunc_begin3           ; >> Call Site 1 <<
	.uleb128 Ltmp161-Ltmp160                ;   Call between Ltmp160 and Ltmp161
	.uleb128 Ltmp162-Lfunc_begin3           ;     jumps to Ltmp162
	.byte	1                               ;   On action: 1
Lcst_end3:
	.byte	1                               ; >> Action Record 1 <<
                                        ;   Catch TypeInfo 1
	.byte	0                               ;   No further actions
	.p2align	2, 0x0
                                        ; >> Catch TypeInfos <<
	.long	0                               ; TypeInfo 1
Lttbase1:
	.p2align	2, 0x0
                                        ; -- End function
	.section	__TEXT,__text,regular,pure_instructions
	.private_extern	__ZNKSt3__19basic_iosIcNS_11char_traitsIcEEE5rdbufB8ne200100Ev ; -- Begin function _ZNKSt3__19basic_iosIcNS_11char_traitsIcEEE5rdbufB8ne200100Ev
	.globl	__ZNKSt3__19basic_iosIcNS_11char_traitsIcEEE5rdbufB8ne200100Ev
	.weak_definition	__ZNKSt3__19basic_iosIcNS_11char_traitsIcEEE5rdbufB8ne200100Ev
	.p2align	2
__ZNKSt3__19basic_iosIcNS_11char_traitsIcEEE5rdbufB8ne200100Ev: ; @_ZNKSt3__19basic_iosIcNS_11char_traitsIcEEE5rdbufB8ne200100Ev
	.cfi_startproc
; %bb.0:
	sub	sp, sp, #32
	stp	x29, x30, [sp, #16]             ; 16-byte Folded Spill
	add	x29, sp, #16
	.cfi_def_cfa w29, 16
	.cfi_offset w30, -8
	.cfi_offset w29, -16
	str	x0, [sp, #8]
	ldr	x0, [sp, #8]
	bl	__ZNKSt3__18ios_base5rdbufB8ne200100Ev
	ldp	x29, x30, [sp, #16]             ; 16-byte Folded Reload
	add	sp, sp, #32
	ret
	.cfi_endproc
                                        ; -- End function
	.private_extern	__ZNKSt3__18ios_base5rdbufB8ne200100Ev ; -- Begin function _ZNKSt3__18ios_base5rdbufB8ne200100Ev
	.globl	__ZNKSt3__18ios_base5rdbufB8ne200100Ev
	.weak_definition	__ZNKSt3__18ios_base5rdbufB8ne200100Ev
	.p2align	2
__ZNKSt3__18ios_base5rdbufB8ne200100Ev: ; @_ZNKSt3__18ios_base5rdbufB8ne200100Ev
	.cfi_startproc
; %bb.0:
	sub	sp, sp, #16
	.cfi_def_cfa_offset 16
	str	x0, [sp, #8]
	ldr	x8, [sp, #8]
	ldr	x0, [x8, #40]
	add	sp, sp, #16
	ret
	.cfi_endproc
                                        ; -- End function
	.private_extern	__ZNKSt3__118_SentinelValueFillINS_11char_traitsIcEEE8__is_setB8ne200100Ev ; -- Begin function _ZNKSt3__118_SentinelValueFillINS_11char_traitsIcEEE8__is_setB8ne200100Ev
	.globl	__ZNKSt3__118_SentinelValueFillINS_11char_traitsIcEEE8__is_setB8ne200100Ev
	.weak_definition	__ZNKSt3__118_SentinelValueFillINS_11char_traitsIcEEE8__is_setB8ne200100Ev
	.p2align	2
__ZNKSt3__118_SentinelValueFillINS_11char_traitsIcEEE8__is_setB8ne200100Ev: ; @_ZNKSt3__118_SentinelValueFillINS_11char_traitsIcEEE8__is_setB8ne200100Ev
	.cfi_startproc
; %bb.0:
	sub	sp, sp, #32
	stp	x29, x30, [sp, #16]             ; 16-byte Folded Spill
	add	x29, sp, #16
	.cfi_def_cfa w29, 16
	.cfi_offset w30, -8
	.cfi_offset w29, -16
	str	x0, [sp, #8]
	ldr	x8, [sp, #8]
	ldr	w8, [x8]
	str	w8, [sp, #4]                    ; 4-byte Folded Spill
	bl	__ZNSt3__111char_traitsIcE3eofB8ne200100Ev
	ldr	w8, [sp, #4]                    ; 4-byte Folded Reload
	subs	w8, w8, w0
	cset	w0, ne
	ldp	x29, x30, [sp, #16]             ; 16-byte Folded Reload
	add	sp, sp, #32
	ret
	.cfi_endproc
                                        ; -- End function
	.private_extern	__ZNKSt3__19basic_iosIcNS_11char_traitsIcEEE5widenB8ne200100Ec ; -- Begin function _ZNKSt3__19basic_iosIcNS_11char_traitsIcEEE5widenB8ne200100Ec
	.globl	__ZNKSt3__19basic_iosIcNS_11char_traitsIcEEE5widenB8ne200100Ec
	.weak_definition	__ZNKSt3__19basic_iosIcNS_11char_traitsIcEEE5widenB8ne200100Ec
	.p2align	2
__ZNKSt3__19basic_iosIcNS_11char_traitsIcEEE5widenB8ne200100Ec: ; @_ZNKSt3__19basic_iosIcNS_11char_traitsIcEEE5widenB8ne200100Ec
Lfunc_begin4:
	.cfi_startproc
	.cfi_personality 155, ___gxx_personality_v0
	.cfi_lsda 16, Lexception4
; %bb.0:
	sub	sp, sp, #80
	stp	x29, x30, [sp, #64]             ; 16-byte Folded Spill
	add	x29, sp, #64
	.cfi_def_cfa w29, 16
	.cfi_offset w30, -8
	.cfi_offset w29, -16
	stur	x0, [x29, #-8]
	sturb	w1, [x29, #-9]
	ldur	x0, [x29, #-8]
	sub	x8, x29, #24
	str	x8, [sp, #8]                    ; 8-byte Folded Spill
	bl	__ZNKSt3__18ios_base6getlocEv
	ldr	x0, [sp, #8]                    ; 8-byte Folded Reload
Ltmp164:
	bl	__ZNSt3__19use_facetB8ne200100INS_5ctypeIcEEEERKT_RKNS_6localeE
	str	x0, [sp, #16]                   ; 8-byte Folded Spill
Ltmp165:
	b	LBB67_1
LBB67_1:
	ldr	x0, [sp, #16]                   ; 8-byte Folded Reload
	ldursb	w1, [x29, #-9]
Ltmp166:
	bl	__ZNKSt3__15ctypeIcE5widenB8ne200100Ec
	str	w0, [sp, #4]                    ; 4-byte Folded Spill
Ltmp167:
	b	LBB67_2
LBB67_2:
	sub	x0, x29, #24
	bl	__ZNSt3__16localeD1Ev
	ldr	w0, [sp, #4]                    ; 4-byte Folded Reload
	ldp	x29, x30, [sp, #64]             ; 16-byte Folded Reload
	add	sp, sp, #80
	ret
LBB67_3:
Ltmp168:
	str	x0, [sp, #32]
	mov	x8, x1
	str	w8, [sp, #28]
	sub	x0, x29, #24
	bl	__ZNSt3__16localeD1Ev
	b	LBB67_4
LBB67_4:
	ldr	x0, [sp, #32]
	bl	__Unwind_Resume
Lfunc_end4:
	.cfi_endproc
	.section	__TEXT,__gcc_except_tab
	.p2align	2, 0x0
GCC_except_table67:
Lexception4:
	.byte	255                             ; @LPStart Encoding = omit
	.byte	255                             ; @TType Encoding = omit
	.byte	1                               ; Call site Encoding = uleb128
	.uleb128 Lcst_end4-Lcst_begin4
Lcst_begin4:
	.uleb128 Lfunc_begin4-Lfunc_begin4      ; >> Call Site 1 <<
	.uleb128 Ltmp164-Lfunc_begin4           ;   Call between Lfunc_begin4 and Ltmp164
	.byte	0                               ;     has no landing pad
	.byte	0                               ;   On action: cleanup
	.uleb128 Ltmp164-Lfunc_begin4           ; >> Call Site 2 <<
	.uleb128 Ltmp167-Ltmp164                ;   Call between Ltmp164 and Ltmp167
	.uleb128 Ltmp168-Lfunc_begin4           ;     jumps to Ltmp168
	.byte	0                               ;   On action: cleanup
	.uleb128 Ltmp167-Lfunc_begin4           ; >> Call Site 3 <<
	.uleb128 Lfunc_end4-Ltmp167             ;   Call between Ltmp167 and Lfunc_end4
	.byte	0                               ;     has no landing pad
	.byte	0                               ;   On action: cleanup
Lcst_end4:
	.p2align	2, 0x0
                                        ; -- End function
	.section	__TEXT,__text,regular,pure_instructions
	.private_extern	__ZNSt3__118_SentinelValueFillINS_11char_traitsIcEEEaSB8ne200100Ei ; -- Begin function _ZNSt3__118_SentinelValueFillINS_11char_traitsIcEEEaSB8ne200100Ei
	.globl	__ZNSt3__118_SentinelValueFillINS_11char_traitsIcEEEaSB8ne200100Ei
	.weak_definition	__ZNSt3__118_SentinelValueFillINS_11char_traitsIcEEEaSB8ne200100Ei
	.p2align	2
__ZNSt3__118_SentinelValueFillINS_11char_traitsIcEEEaSB8ne200100Ei: ; @_ZNSt3__118_SentinelValueFillINS_11char_traitsIcEEEaSB8ne200100Ei
	.cfi_startproc
; %bb.0:
	sub	sp, sp, #16
	.cfi_def_cfa_offset 16
	str	x0, [sp, #8]
	str	w1, [sp, #4]
	ldr	x0, [sp, #8]
	ldr	w8, [sp, #4]
	str	w8, [x0]
	add	sp, sp, #16
	ret
	.cfi_endproc
                                        ; -- End function
	.private_extern	__ZNKSt3__118_SentinelValueFillINS_11char_traitsIcEEE5__getB8ne200100Ev ; -- Begin function _ZNKSt3__118_SentinelValueFillINS_11char_traitsIcEEE5__getB8ne200100Ev
	.globl	__ZNKSt3__118_SentinelValueFillINS_11char_traitsIcEEE5__getB8ne200100Ev
	.weak_definition	__ZNKSt3__118_SentinelValueFillINS_11char_traitsIcEEE5__getB8ne200100Ev
	.p2align	2
__ZNKSt3__118_SentinelValueFillINS_11char_traitsIcEEE5__getB8ne200100Ev: ; @_ZNKSt3__118_SentinelValueFillINS_11char_traitsIcEEE5__getB8ne200100Ev
	.cfi_startproc
; %bb.0:
	sub	sp, sp, #16
	.cfi_def_cfa_offset 16
	str	x0, [sp, #8]
	ldr	x8, [sp, #8]
	ldr	w0, [x8]
	add	sp, sp, #16
	ret
	.cfi_endproc
                                        ; -- End function
	.private_extern	__ZNSt3__111char_traitsIcE3eofB8ne200100Ev ; -- Begin function _ZNSt3__111char_traitsIcE3eofB8ne200100Ev
	.globl	__ZNSt3__111char_traitsIcE3eofB8ne200100Ev
	.weak_definition	__ZNSt3__111char_traitsIcE3eofB8ne200100Ev
	.p2align	2
__ZNSt3__111char_traitsIcE3eofB8ne200100Ev: ; @_ZNSt3__111char_traitsIcE3eofB8ne200100Ev
	.cfi_startproc
; %bb.0:
	mov	w0, #-1                         ; =0xffffffff
	ret
	.cfi_endproc
                                        ; -- End function
	.private_extern	__ZNSt3__19use_facetB8ne200100INS_5ctypeIcEEEERKT_RKNS_6localeE ; -- Begin function _ZNSt3__19use_facetB8ne200100INS_5ctypeIcEEEERKT_RKNS_6localeE
	.globl	__ZNSt3__19use_facetB8ne200100INS_5ctypeIcEEEERKT_RKNS_6localeE
	.weak_definition	__ZNSt3__19use_facetB8ne200100INS_5ctypeIcEEEERKT_RKNS_6localeE
	.p2align	2
__ZNSt3__19use_facetB8ne200100INS_5ctypeIcEEEERKT_RKNS_6localeE: ; @_ZNSt3__19use_facetB8ne200100INS_5ctypeIcEEEERKT_RKNS_6localeE
	.cfi_startproc
; %bb.0:
	sub	sp, sp, #32
	stp	x29, x30, [sp, #16]             ; 16-byte Folded Spill
	add	x29, sp, #16
	.cfi_def_cfa w29, 16
	.cfi_offset w30, -8
	.cfi_offset w29, -16
	str	x0, [sp, #8]
	ldr	x0, [sp, #8]
	adrp	x1, __ZNSt3__15ctypeIcE2idE@GOTPAGE
	ldr	x1, [x1, __ZNSt3__15ctypeIcE2idE@GOTPAGEOFF]
	bl	__ZNKSt3__16locale9use_facetERNS0_2idE
	ldp	x29, x30, [sp, #16]             ; 16-byte Folded Reload
	add	sp, sp, #32
	ret
	.cfi_endproc
                                        ; -- End function
	.private_extern	__ZNKSt3__15ctypeIcE5widenB8ne200100Ec ; -- Begin function _ZNKSt3__15ctypeIcE5widenB8ne200100Ec
	.globl	__ZNKSt3__15ctypeIcE5widenB8ne200100Ec
	.weak_definition	__ZNKSt3__15ctypeIcE5widenB8ne200100Ec
	.p2align	2
__ZNKSt3__15ctypeIcE5widenB8ne200100Ec: ; @_ZNKSt3__15ctypeIcE5widenB8ne200100Ec
	.cfi_startproc
; %bb.0:
	sub	sp, sp, #32
	stp	x29, x30, [sp, #16]             ; 16-byte Folded Spill
	add	x29, sp, #16
	.cfi_def_cfa w29, 16
	.cfi_offset w30, -8
	.cfi_offset w29, -16
	str	x0, [sp, #8]
	strb	w1, [sp, #7]
	ldr	x0, [sp, #8]
	ldrsb	w1, [sp, #7]
	ldr	x8, [x0]
	ldr	x8, [x8, #56]
	blr	x8
	ldp	x29, x30, [sp, #16]             ; 16-byte Folded Reload
	add	sp, sp, #32
	ret
	.cfi_endproc
                                        ; -- End function
	.private_extern	__ZNSt3__18ios_base8setstateB8ne200100Ej ; -- Begin function _ZNSt3__18ios_base8setstateB8ne200100Ej
	.globl	__ZNSt3__18ios_base8setstateB8ne200100Ej
	.weak_definition	__ZNSt3__18ios_base8setstateB8ne200100Ej
	.p2align	2
__ZNSt3__18ios_base8setstateB8ne200100Ej: ; @_ZNSt3__18ios_base8setstateB8ne200100Ej
	.cfi_startproc
; %bb.0:
	sub	sp, sp, #32
	stp	x29, x30, [sp, #16]             ; 16-byte Folded Spill
	add	x29, sp, #16
	.cfi_def_cfa w29, 16
	.cfi_offset w30, -8
	.cfi_offset w29, -16
	str	x0, [sp, #8]
	str	w1, [sp, #4]
	ldr	x0, [sp, #8]
	ldr	w8, [x0, #32]
	ldr	w9, [sp, #4]
	orr	w1, w8, w9
	bl	__ZNSt3__18ios_base5clearEj
	ldp	x29, x30, [sp, #16]             ; 16-byte Folded Reload
	add	sp, sp, #32
	ret
	.cfi_endproc
                                        ; -- End function
	.private_extern	__ZNSt3__118__constexpr_strlenB8ne200100IcEEmPKT_ ; -- Begin function _ZNSt3__118__constexpr_strlenB8ne200100IcEEmPKT_
	.globl	__ZNSt3__118__constexpr_strlenB8ne200100IcEEmPKT_
	.weak_definition	__ZNSt3__118__constexpr_strlenB8ne200100IcEEmPKT_
	.p2align	2
__ZNSt3__118__constexpr_strlenB8ne200100IcEEmPKT_: ; @_ZNSt3__118__constexpr_strlenB8ne200100IcEEmPKT_
	.cfi_startproc
; %bb.0:
	sub	sp, sp, #32
	stp	x29, x30, [sp, #16]             ; 16-byte Folded Spill
	add	x29, sp, #16
	.cfi_def_cfa w29, 16
	.cfi_offset w30, -8
	.cfi_offset w29, -16
	str	x0, [sp, #8]
	ldr	x0, [sp, #8]
	bl	_strlen
	ldp	x29, x30, [sp, #16]             ; 16-byte Folded Reload
	add	sp, sp, #32
	ret
	.cfi_endproc
                                        ; -- End function
	.globl	__ZNSt3__112basic_stringIcNS_11char_traitsIcEENS_9allocatorIcEEEC2B8ne200100ILi0EEEPKc ; -- Begin function _ZNSt3__112basic_stringIcNS_11char_traitsIcEENS_9allocatorIcEEEC2B8ne200100ILi0EEEPKc
	.weak_def_can_be_hidden	__ZNSt3__112basic_stringIcNS_11char_traitsIcEENS_9allocatorIcEEEC2B8ne200100ILi0EEEPKc
	.p2align	2
__ZNSt3__112basic_stringIcNS_11char_traitsIcEENS_9allocatorIcEEEC2B8ne200100ILi0EEEPKc: ; @_ZNSt3__112basic_stringIcNS_11char_traitsIcEENS_9allocatorIcEEEC2B8ne200100ILi0EEEPKc
	.cfi_startproc
; %bb.0:
	sub	sp, sp, #48
	stp	x29, x30, [sp, #32]             ; 16-byte Folded Spill
	add	x29, sp, #32
	.cfi_def_cfa w29, 16
	.cfi_offset w30, -8
	.cfi_offset w29, -16
	stur	x0, [x29, #-8]
	str	x1, [sp, #16]
	ldur	x0, [x29, #-8]
	str	x0, [sp, #8]                    ; 8-byte Folded Spill
	bl	__ZNSt3__19allocatorIcEC1B8ne200100Ev
	ldr	x8, [sp, #16]
	str	x8, [sp]                        ; 8-byte Folded Spill
	ldr	x0, [sp, #16]
	bl	__ZNSt3__111char_traitsIcE6lengthB8ne200100EPKc
	ldr	x1, [sp]                        ; 8-byte Folded Reload
	mov	x2, x0
	ldr	x0, [sp, #8]                    ; 8-byte Folded Reload
	bl	__ZNSt3__112basic_stringIcNS_11char_traitsIcEENS_9allocatorIcEEE6__initEPKcm
	ldr	x0, [sp, #8]                    ; 8-byte Folded Reload
	ldp	x29, x30, [sp, #32]             ; 16-byte Folded Reload
	add	sp, sp, #48
	ret
	.cfi_endproc
                                        ; -- End function
	.private_extern	__ZNSt3__16vectorIyNS_9allocatorIyEEEC2B8ne200100ESt16initializer_listIyE ; -- Begin function _ZNSt3__16vectorIyNS_9allocatorIyEEEC2B8ne200100ESt16initializer_listIyE
	.globl	__ZNSt3__16vectorIyNS_9allocatorIyEEEC2B8ne200100ESt16initializer_listIyE
	.weak_def_can_be_hidden	__ZNSt3__16vectorIyNS_9allocatorIyEEEC2B8ne200100ESt16initializer_listIyE
	.p2align	2
__ZNSt3__16vectorIyNS_9allocatorIyEEEC2B8ne200100ESt16initializer_listIyE: ; @_ZNSt3__16vectorIyNS_9allocatorIyEEEC2B8ne200100ESt16initializer_listIyE
	.cfi_startproc
; %bb.0:
	sub	sp, sp, #80
	stp	x29, x30, [sp, #64]             ; 16-byte Folded Spill
	add	x29, sp, #64
	.cfi_def_cfa w29, 16
	.cfi_offset w30, -8
	.cfi_offset w29, -16
	sub	x8, x29, #16
	str	x8, [sp, #8]                    ; 8-byte Folded Spill
	stur	x1, [x29, #-16]
	stur	x2, [x29, #-8]
	stur	x0, [x29, #-24]
	ldur	x8, [x29, #-24]
	str	x8, [sp, #32]                   ; 8-byte Folded Spill
                                        ; kill: def $x9 killed $xzr
	str	xzr, [x8]
	str	xzr, [x8, #8]
	str	xzr, [x8, #16]
	add	x0, x8, #16
	bl	__ZNSt3__19allocatorIyEC1B8ne200100Ev
	ldr	x0, [sp, #8]                    ; 8-byte Folded Reload
	bl	__ZNKSt16initializer_listIyE5beginB8ne200100Ev
	mov	x1, x0
	ldr	x0, [sp, #8]                    ; 8-byte Folded Reload
	str	x1, [sp, #16]                   ; 8-byte Folded Spill
	bl	__ZNKSt16initializer_listIyE3endB8ne200100Ev
	mov	x1, x0
	ldr	x0, [sp, #8]                    ; 8-byte Folded Reload
	str	x1, [sp, #24]                   ; 8-byte Folded Spill
	bl	__ZNKSt16initializer_listIyE4sizeB8ne200100Ev
	ldr	x1, [sp, #16]                   ; 8-byte Folded Reload
	ldr	x2, [sp, #24]                   ; 8-byte Folded Reload
	mov	x3, x0
	ldr	x0, [sp, #32]                   ; 8-byte Folded Reload
	bl	__ZNSt3__16vectorIyNS_9allocatorIyEEE16__init_with_sizeB8ne200100IPKyS6_EEvT_T0_m
	ldr	x0, [sp, #32]                   ; 8-byte Folded Reload
	ldp	x29, x30, [sp, #64]             ; 16-byte Folded Reload
	add	sp, sp, #80
	ret
	.cfi_endproc
                                        ; -- End function
	.private_extern	__ZNSt3__19allocatorIyEC1B8ne200100Ev ; -- Begin function _ZNSt3__19allocatorIyEC1B8ne200100Ev
	.globl	__ZNSt3__19allocatorIyEC1B8ne200100Ev
	.weak_def_can_be_hidden	__ZNSt3__19allocatorIyEC1B8ne200100Ev
	.p2align	2
__ZNSt3__19allocatorIyEC1B8ne200100Ev:  ; @_ZNSt3__19allocatorIyEC1B8ne200100Ev
	.cfi_startproc
; %bb.0:
	sub	sp, sp, #32
	stp	x29, x30, [sp, #16]             ; 16-byte Folded Spill
	add	x29, sp, #16
	.cfi_def_cfa w29, 16
	.cfi_offset w30, -8
	.cfi_offset w29, -16
	str	x0, [sp, #8]
	ldr	x0, [sp, #8]
	str	x0, [sp]                        ; 8-byte Folded Spill
	bl	__ZNSt3__19allocatorIyEC2B8ne200100Ev
	ldr	x0, [sp]                        ; 8-byte Folded Reload
	ldp	x29, x30, [sp, #16]             ; 16-byte Folded Reload
	add	sp, sp, #32
	ret
	.cfi_endproc
                                        ; -- End function
	.globl	__ZNSt3__16vectorIyNS_9allocatorIyEEE16__init_with_sizeB8ne200100IPKyS6_EEvT_T0_m ; -- Begin function _ZNSt3__16vectorIyNS_9allocatorIyEEE16__init_with_sizeB8ne200100IPKyS6_EEvT_T0_m
	.weak_definition	__ZNSt3__16vectorIyNS_9allocatorIyEEE16__init_with_sizeB8ne200100IPKyS6_EEvT_T0_m
	.p2align	2
__ZNSt3__16vectorIyNS_9allocatorIyEEE16__init_with_sizeB8ne200100IPKyS6_EEvT_T0_m: ; @_ZNSt3__16vectorIyNS_9allocatorIyEEE16__init_with_sizeB8ne200100IPKyS6_EEvT_T0_m
Lfunc_begin5:
	.cfi_startproc
	.cfi_personality 155, ___gxx_personality_v0
	.cfi_lsda 16, Lexception5
; %bb.0:
	sub	sp, sp, #112
	stp	x29, x30, [sp, #96]             ; 16-byte Folded Spill
	add	x29, sp, #96
	.cfi_def_cfa w29, 16
	.cfi_offset w30, -8
	.cfi_offset w29, -16
	stur	x0, [x29, #-8]
	stur	x1, [x29, #-16]
	stur	x2, [x29, #-24]
	stur	x3, [x29, #-32]
	ldur	x1, [x29, #-8]
	str	x1, [sp, #16]                   ; 8-byte Folded Spill
	add	x0, sp, #40
	bl	__ZNSt3__16vectorIyNS_9allocatorIyEEE16__destroy_vectorC1B8ne200100ERS3_
	ldr	x0, [sp, #40]
	add	x8, sp, #48
	bl	__ZNSt3__122__make_exception_guardB8ne200100INS_6vectorIyNS_9allocatorIyEEE16__destroy_vectorEEENS_28__exception_guard_exceptionsIT_EES7_
	ldur	x8, [x29, #-32]
	subs	x8, x8, #0
	b.ls	LBB78_5
	b	LBB78_1
LBB78_1:
	ldr	x0, [sp, #16]                   ; 8-byte Folded Reload
	ldur	x1, [x29, #-32]
Ltmp171:
	bl	__ZNSt3__16vectorIyNS_9allocatorIyEEE11__vallocateB8ne200100Em
Ltmp172:
	b	LBB78_2
LBB78_2:
	ldr	x0, [sp, #16]                   ; 8-byte Folded Reload
	ldur	x1, [x29, #-16]
	ldur	x2, [x29, #-24]
	ldur	x3, [x29, #-32]
Ltmp173:
	bl	__ZNSt3__16vectorIyNS_9allocatorIyEEE18__construct_at_endIPKyS6_EEvT_T0_m
Ltmp174:
	b	LBB78_3
LBB78_3:
	b	LBB78_5
LBB78_4:
Ltmp175:
	str	x0, [sp, #32]
	mov	x8, x1
	str	w8, [sp, #28]
	add	x0, sp, #48
	bl	__ZNSt3__128__exception_guard_exceptionsINS_6vectorIyNS_9allocatorIyEEE16__destroy_vectorEED1B8ne200100Ev
	b	LBB78_6
LBB78_5:
	add	x0, sp, #48
	str	x0, [sp, #8]                    ; 8-byte Folded Spill
	bl	__ZNSt3__128__exception_guard_exceptionsINS_6vectorIyNS_9allocatorIyEEE16__destroy_vectorEE10__completeB8ne200100Ev
	ldr	x0, [sp, #8]                    ; 8-byte Folded Reload
	bl	__ZNSt3__128__exception_guard_exceptionsINS_6vectorIyNS_9allocatorIyEEE16__destroy_vectorEED1B8ne200100Ev
	ldp	x29, x30, [sp, #96]             ; 16-byte Folded Reload
	add	sp, sp, #112
	ret
LBB78_6:
	ldr	x0, [sp, #32]
	bl	__Unwind_Resume
Lfunc_end5:
	.cfi_endproc
	.section	__TEXT,__gcc_except_tab
	.p2align	2, 0x0
GCC_except_table78:
Lexception5:
	.byte	255                             ; @LPStart Encoding = omit
	.byte	255                             ; @TType Encoding = omit
	.byte	1                               ; Call site Encoding = uleb128
	.uleb128 Lcst_end5-Lcst_begin5
Lcst_begin5:
	.uleb128 Lfunc_begin5-Lfunc_begin5      ; >> Call Site 1 <<
	.uleb128 Ltmp171-Lfunc_begin5           ;   Call between Lfunc_begin5 and Ltmp171
	.byte	0                               ;     has no landing pad
	.byte	0                               ;   On action: cleanup
	.uleb128 Ltmp171-Lfunc_begin5           ; >> Call Site 2 <<
	.uleb128 Ltmp174-Ltmp171                ;   Call between Ltmp171 and Ltmp174
	.uleb128 Ltmp175-Lfunc_begin5           ;     jumps to Ltmp175
	.byte	0                               ;   On action: cleanup
	.uleb128 Ltmp174-Lfunc_begin5           ; >> Call Site 3 <<
	.uleb128 Lfunc_end5-Ltmp174             ;   Call between Ltmp174 and Lfunc_end5
	.byte	0                               ;     has no landing pad
	.byte	0                               ;   On action: cleanup
Lcst_end5:
	.p2align	2, 0x0
                                        ; -- End function
	.section	__TEXT,__text,regular,pure_instructions
	.private_extern	__ZNKSt16initializer_listIyE5beginB8ne200100Ev ; -- Begin function _ZNKSt16initializer_listIyE5beginB8ne200100Ev
	.globl	__ZNKSt16initializer_listIyE5beginB8ne200100Ev
	.weak_definition	__ZNKSt16initializer_listIyE5beginB8ne200100Ev
	.p2align	2
__ZNKSt16initializer_listIyE5beginB8ne200100Ev: ; @_ZNKSt16initializer_listIyE5beginB8ne200100Ev
	.cfi_startproc
; %bb.0:
	sub	sp, sp, #16
	.cfi_def_cfa_offset 16
	str	x0, [sp, #8]
	ldr	x8, [sp, #8]
	ldr	x0, [x8]
	add	sp, sp, #16
	ret
	.cfi_endproc
                                        ; -- End function
	.private_extern	__ZNKSt16initializer_listIyE3endB8ne200100Ev ; -- Begin function _ZNKSt16initializer_listIyE3endB8ne200100Ev
	.globl	__ZNKSt16initializer_listIyE3endB8ne200100Ev
	.weak_definition	__ZNKSt16initializer_listIyE3endB8ne200100Ev
	.p2align	2
__ZNKSt16initializer_listIyE3endB8ne200100Ev: ; @_ZNKSt16initializer_listIyE3endB8ne200100Ev
	.cfi_startproc
; %bb.0:
	sub	sp, sp, #16
	.cfi_def_cfa_offset 16
	str	x0, [sp, #8]
	ldr	x9, [sp, #8]
	ldr	x8, [x9]
	ldr	x9, [x9, #8]
	add	x0, x8, x9, lsl #3
	add	sp, sp, #16
	ret
	.cfi_endproc
                                        ; -- End function
	.private_extern	__ZNKSt16initializer_listIyE4sizeB8ne200100Ev ; -- Begin function _ZNKSt16initializer_listIyE4sizeB8ne200100Ev
	.globl	__ZNKSt16initializer_listIyE4sizeB8ne200100Ev
	.weak_definition	__ZNKSt16initializer_listIyE4sizeB8ne200100Ev
	.p2align	2
__ZNKSt16initializer_listIyE4sizeB8ne200100Ev: ; @_ZNKSt16initializer_listIyE4sizeB8ne200100Ev
	.cfi_startproc
; %bb.0:
	sub	sp, sp, #16
	.cfi_def_cfa_offset 16
	str	x0, [sp, #8]
	ldr	x8, [sp, #8]
	ldr	x0, [x8, #8]
	add	sp, sp, #16
	ret
	.cfi_endproc
                                        ; -- End function
	.private_extern	__ZNSt3__19allocatorIyEC2B8ne200100Ev ; -- Begin function _ZNSt3__19allocatorIyEC2B8ne200100Ev
	.globl	__ZNSt3__19allocatorIyEC2B8ne200100Ev
	.weak_def_can_be_hidden	__ZNSt3__19allocatorIyEC2B8ne200100Ev
	.p2align	2
__ZNSt3__19allocatorIyEC2B8ne200100Ev:  ; @_ZNSt3__19allocatorIyEC2B8ne200100Ev
	.cfi_startproc
; %bb.0:
	sub	sp, sp, #32
	stp	x29, x30, [sp, #16]             ; 16-byte Folded Spill
	add	x29, sp, #16
	.cfi_def_cfa w29, 16
	.cfi_offset w30, -8
	.cfi_offset w29, -16
	str	x0, [sp, #8]
	ldr	x0, [sp, #8]
	str	x0, [sp]                        ; 8-byte Folded Spill
	bl	__ZNSt3__116__non_trivial_ifILb1ENS_9allocatorIyEEEC2B8ne200100Ev
	ldr	x0, [sp]                        ; 8-byte Folded Reload
	ldp	x29, x30, [sp, #16]             ; 16-byte Folded Reload
	add	sp, sp, #32
	ret
	.cfi_endproc
                                        ; -- End function
	.private_extern	__ZNSt3__116__non_trivial_ifILb1ENS_9allocatorIyEEEC2B8ne200100Ev ; -- Begin function _ZNSt3__116__non_trivial_ifILb1ENS_9allocatorIyEEEC2B8ne200100Ev
	.globl	__ZNSt3__116__non_trivial_ifILb1ENS_9allocatorIyEEEC2B8ne200100Ev
	.weak_def_can_be_hidden	__ZNSt3__116__non_trivial_ifILb1ENS_9allocatorIyEEEC2B8ne200100Ev
	.p2align	2
__ZNSt3__116__non_trivial_ifILb1ENS_9allocatorIyEEEC2B8ne200100Ev: ; @_ZNSt3__116__non_trivial_ifILb1ENS_9allocatorIyEEEC2B8ne200100Ev
	.cfi_startproc
; %bb.0:
	sub	sp, sp, #16
	.cfi_def_cfa_offset 16
	str	x0, [sp, #8]
	ldr	x0, [sp, #8]
	add	sp, sp, #16
	ret
	.cfi_endproc
                                        ; -- End function
	.private_extern	__ZNSt3__122__make_exception_guardB8ne200100INS_6vectorIyNS_9allocatorIyEEE16__destroy_vectorEEENS_28__exception_guard_exceptionsIT_EES7_ ; -- Begin function _ZNSt3__122__make_exception_guardB8ne200100INS_6vectorIyNS_9allocatorIyEEE16__destroy_vectorEEENS_28__exception_guard_exceptionsIT_EES7_
	.globl	__ZNSt3__122__make_exception_guardB8ne200100INS_6vectorIyNS_9allocatorIyEEE16__destroy_vectorEEENS_28__exception_guard_exceptionsIT_EES7_
	.weak_definition	__ZNSt3__122__make_exception_guardB8ne200100INS_6vectorIyNS_9allocatorIyEEE16__destroy_vectorEEENS_28__exception_guard_exceptionsIT_EES7_
	.p2align	2
__ZNSt3__122__make_exception_guardB8ne200100INS_6vectorIyNS_9allocatorIyEEE16__destroy_vectorEEENS_28__exception_guard_exceptionsIT_EES7_: ; @_ZNSt3__122__make_exception_guardB8ne200100INS_6vectorIyNS_9allocatorIyEEE16__destroy_vectorEEENS_28__exception_guard_exceptionsIT_EES7_
	.cfi_startproc
; %bb.0:
	sub	sp, sp, #48
	stp	x29, x30, [sp, #32]             ; 16-byte Folded Spill
	add	x29, sp, #32
	.cfi_def_cfa w29, 16
	.cfi_offset w30, -8
	.cfi_offset w29, -16
	str	x8, [sp]                        ; 8-byte Folded Spill
	mov	x8, x0
	ldr	x0, [sp]                        ; 8-byte Folded Reload
	mov	x9, x0
	stur	x9, [x29, #-8]
	str	x8, [sp, #16]
	ldr	x8, [sp, #16]
	str	x8, [sp, #8]
	ldr	x1, [sp, #8]
	bl	__ZNSt3__128__exception_guard_exceptionsINS_6vectorIyNS_9allocatorIyEEE16__destroy_vectorEEC1B8ne200100ES5_
	ldp	x29, x30, [sp, #32]             ; 16-byte Folded Reload
	add	sp, sp, #48
	ret
	.cfi_endproc
                                        ; -- End function
	.private_extern	__ZNSt3__16vectorIyNS_9allocatorIyEEE16__destroy_vectorC1B8ne200100ERS3_ ; -- Begin function _ZNSt3__16vectorIyNS_9allocatorIyEEE16__destroy_vectorC1B8ne200100ERS3_
	.globl	__ZNSt3__16vectorIyNS_9allocatorIyEEE16__destroy_vectorC1B8ne200100ERS3_
	.weak_def_can_be_hidden	__ZNSt3__16vectorIyNS_9allocatorIyEEE16__destroy_vectorC1B8ne200100ERS3_
	.p2align	2
__ZNSt3__16vectorIyNS_9allocatorIyEEE16__destroy_vectorC1B8ne200100ERS3_: ; @_ZNSt3__16vectorIyNS_9allocatorIyEEE16__destroy_vectorC1B8ne200100ERS3_
	.cfi_startproc
; %bb.0:
	sub	sp, sp, #48
	stp	x29, x30, [sp, #32]             ; 16-byte Folded Spill
	add	x29, sp, #32
	.cfi_def_cfa w29, 16
	.cfi_offset w30, -8
	.cfi_offset w29, -16
	stur	x0, [x29, #-8]
	str	x1, [sp, #16]
	ldur	x0, [x29, #-8]
	str	x0, [sp, #8]                    ; 8-byte Folded Spill
	ldr	x1, [sp, #16]
	bl	__ZNSt3__16vectorIyNS_9allocatorIyEEE16__destroy_vectorC2B8ne200100ERS3_
	ldr	x0, [sp, #8]                    ; 8-byte Folded Reload
	ldp	x29, x30, [sp, #32]             ; 16-byte Folded Reload
	add	sp, sp, #48
	ret
	.cfi_endproc
                                        ; -- End function
	.private_extern	__ZNSt3__16vectorIyNS_9allocatorIyEEE11__vallocateB8ne200100Em ; -- Begin function _ZNSt3__16vectorIyNS_9allocatorIyEEE11__vallocateB8ne200100Em
	.globl	__ZNSt3__16vectorIyNS_9allocatorIyEEE11__vallocateB8ne200100Em
	.weak_definition	__ZNSt3__16vectorIyNS_9allocatorIyEEE11__vallocateB8ne200100Em
	.p2align	2
__ZNSt3__16vectorIyNS_9allocatorIyEEE11__vallocateB8ne200100Em: ; @_ZNSt3__16vectorIyNS_9allocatorIyEEE11__vallocateB8ne200100Em
	.cfi_startproc
; %bb.0:
	sub	sp, sp, #64
	stp	x29, x30, [sp, #48]             ; 16-byte Folded Spill
	add	x29, sp, #48
	.cfi_def_cfa w29, 16
	.cfi_offset w30, -8
	.cfi_offset w29, -16
	stur	x0, [x29, #-8]
	stur	x1, [x29, #-16]
	ldur	x0, [x29, #-8]
	str	x0, [sp]                        ; 8-byte Folded Spill
	ldur	x8, [x29, #-16]
	str	x8, [sp, #8]                    ; 8-byte Folded Spill
	bl	__ZNKSt3__16vectorIyNS_9allocatorIyEEE8max_sizeB8ne200100Ev
	ldr	x8, [sp, #8]                    ; 8-byte Folded Reload
	subs	x8, x8, x0
	b.ls	LBB86_2
	b	LBB86_1
LBB86_1:
	bl	__ZNSt3__16vectorIyNS_9allocatorIyEEE20__throw_length_errorB8ne200100Ev
LBB86_2:
	ldr	x8, [sp]                        ; 8-byte Folded Reload
	add	x0, x8, #16
	ldur	x1, [x29, #-16]
	bl	__ZNSt3__119__allocate_at_leastB8ne200100INS_9allocatorIyEEEENS_19__allocation_resultINS_16allocator_traitsIT_E7pointerEEERS5_m
	mov	x8, x0
	ldr	x0, [sp]                        ; 8-byte Folded Reload
	str	x8, [sp, #16]
	str	x1, [sp, #24]
	ldr	x8, [sp, #16]
	str	x8, [x0]
	ldr	x8, [sp, #16]
	str	x8, [x0, #8]
	ldr	x8, [x0]
	ldr	x9, [sp, #24]
	add	x8, x8, x9, lsl #3
	str	x8, [x0, #16]
	mov	x1, #0                          ; =0x0
	bl	__ZNKSt3__16vectorIyNS_9allocatorIyEEE14__annotate_newB8ne200100Em
	ldp	x29, x30, [sp, #48]             ; 16-byte Folded Reload
	add	sp, sp, #64
	ret
	.cfi_endproc
                                        ; -- End function
	.globl	__ZNSt3__16vectorIyNS_9allocatorIyEEE18__construct_at_endIPKyS6_EEvT_T0_m ; -- Begin function _ZNSt3__16vectorIyNS_9allocatorIyEEE18__construct_at_endIPKyS6_EEvT_T0_m
	.weak_definition	__ZNSt3__16vectorIyNS_9allocatorIyEEE18__construct_at_endIPKyS6_EEvT_T0_m
	.p2align	2
__ZNSt3__16vectorIyNS_9allocatorIyEEE18__construct_at_endIPKyS6_EEvT_T0_m: ; @_ZNSt3__16vectorIyNS_9allocatorIyEEE18__construct_at_endIPKyS6_EEvT_T0_m
Lfunc_begin6:
	.cfi_startproc
	.cfi_personality 155, ___gxx_personality_v0
	.cfi_lsda 16, Lexception6
; %bb.0:
	sub	sp, sp, #112
	stp	x29, x30, [sp, #96]             ; 16-byte Folded Spill
	add	x29, sp, #96
	.cfi_def_cfa w29, 16
	.cfi_offset w30, -8
	.cfi_offset w29, -16
	stur	x0, [x29, #-8]
	stur	x1, [x29, #-16]
	stur	x2, [x29, #-24]
	stur	x3, [x29, #-32]
	ldur	x1, [x29, #-8]
	str	x1, [sp, #8]                    ; 8-byte Folded Spill
	ldur	x2, [x29, #-32]
	add	x0, sp, #40
	bl	__ZNSt3__16vectorIyNS_9allocatorIyEEE21_ConstructTransactionC1B8ne200100ERS3_m
	ldr	x8, [sp, #8]                    ; 8-byte Folded Reload
	ldur	x1, [x29, #-16]
	ldur	x2, [x29, #-24]
	ldr	x3, [sp, #48]
Ltmp180:
	add	x0, x8, #16
	bl	__ZNSt3__130__uninitialized_allocator_copyB8ne200100INS_9allocatorIyEEPKyS4_PyEET2_RT_T0_T1_S6_
	str	x0, [sp, #16]                   ; 8-byte Folded Spill
Ltmp181:
	b	LBB87_1
LBB87_1:
	ldr	x8, [sp, #16]                   ; 8-byte Folded Reload
	add	x0, sp, #40
	str	x8, [sp, #48]
	bl	__ZNSt3__16vectorIyNS_9allocatorIyEEE21_ConstructTransactionD1B8ne200100Ev
	ldp	x29, x30, [sp, #96]             ; 16-byte Folded Reload
	add	sp, sp, #112
	ret
LBB87_2:
Ltmp182:
	str	x0, [sp, #32]
	mov	x8, x1
	str	w8, [sp, #28]
	add	x0, sp, #40
	bl	__ZNSt3__16vectorIyNS_9allocatorIyEEE21_ConstructTransactionD1B8ne200100Ev
	b	LBB87_3
LBB87_3:
	ldr	x0, [sp, #32]
	bl	__Unwind_Resume
Lfunc_end6:
	.cfi_endproc
	.section	__TEXT,__gcc_except_tab
	.p2align	2, 0x0
GCC_except_table87:
Lexception6:
	.byte	255                             ; @LPStart Encoding = omit
	.byte	255                             ; @TType Encoding = omit
	.byte	1                               ; Call site Encoding = uleb128
	.uleb128 Lcst_end6-Lcst_begin6
Lcst_begin6:
	.uleb128 Lfunc_begin6-Lfunc_begin6      ; >> Call Site 1 <<
	.uleb128 Ltmp180-Lfunc_begin6           ;   Call between Lfunc_begin6 and Ltmp180
	.byte	0                               ;     has no landing pad
	.byte	0                               ;   On action: cleanup
	.uleb128 Ltmp180-Lfunc_begin6           ; >> Call Site 2 <<
	.uleb128 Ltmp181-Ltmp180                ;   Call between Ltmp180 and Ltmp181
	.uleb128 Ltmp182-Lfunc_begin6           ;     jumps to Ltmp182
	.byte	0                               ;   On action: cleanup
	.uleb128 Ltmp181-Lfunc_begin6           ; >> Call Site 3 <<
	.uleb128 Lfunc_end6-Ltmp181             ;   Call between Ltmp181 and Lfunc_end6
	.byte	0                               ;     has no landing pad
	.byte	0                               ;   On action: cleanup
Lcst_end6:
	.p2align	2, 0x0
                                        ; -- End function
	.section	__TEXT,__text,regular,pure_instructions
	.private_extern	__ZNSt3__128__exception_guard_exceptionsINS_6vectorIyNS_9allocatorIyEEE16__destroy_vectorEE10__completeB8ne200100Ev ; -- Begin function _ZNSt3__128__exception_guard_exceptionsINS_6vectorIyNS_9allocatorIyEEE16__destroy_vectorEE10__completeB8ne200100Ev
	.globl	__ZNSt3__128__exception_guard_exceptionsINS_6vectorIyNS_9allocatorIyEEE16__destroy_vectorEE10__completeB8ne200100Ev
	.weak_definition	__ZNSt3__128__exception_guard_exceptionsINS_6vectorIyNS_9allocatorIyEEE16__destroy_vectorEE10__completeB8ne200100Ev
	.p2align	2
__ZNSt3__128__exception_guard_exceptionsINS_6vectorIyNS_9allocatorIyEEE16__destroy_vectorEE10__completeB8ne200100Ev: ; @_ZNSt3__128__exception_guard_exceptionsINS_6vectorIyNS_9allocatorIyEEE16__destroy_vectorEE10__completeB8ne200100Ev
	.cfi_startproc
; %bb.0:
	sub	sp, sp, #16
	.cfi_def_cfa_offset 16
	str	x0, [sp, #8]
	ldr	x9, [sp, #8]
	mov	w8, #1                          ; =0x1
	strb	w8, [x9, #8]
	add	sp, sp, #16
	ret
	.cfi_endproc
                                        ; -- End function
	.private_extern	__ZNSt3__128__exception_guard_exceptionsINS_6vectorIyNS_9allocatorIyEEE16__destroy_vectorEED1B8ne200100Ev ; -- Begin function _ZNSt3__128__exception_guard_exceptionsINS_6vectorIyNS_9allocatorIyEEE16__destroy_vectorEED1B8ne200100Ev
	.globl	__ZNSt3__128__exception_guard_exceptionsINS_6vectorIyNS_9allocatorIyEEE16__destroy_vectorEED1B8ne200100Ev
	.weak_def_can_be_hidden	__ZNSt3__128__exception_guard_exceptionsINS_6vectorIyNS_9allocatorIyEEE16__destroy_vectorEED1B8ne200100Ev
	.p2align	2
__ZNSt3__128__exception_guard_exceptionsINS_6vectorIyNS_9allocatorIyEEE16__destroy_vectorEED1B8ne200100Ev: ; @_ZNSt3__128__exception_guard_exceptionsINS_6vectorIyNS_9allocatorIyEEE16__destroy_vectorEED1B8ne200100Ev
	.cfi_startproc
; %bb.0:
	sub	sp, sp, #32
	stp	x29, x30, [sp, #16]             ; 16-byte Folded Spill
	add	x29, sp, #16
	.cfi_def_cfa w29, 16
	.cfi_offset w30, -8
	.cfi_offset w29, -16
	str	x0, [sp, #8]
	ldr	x0, [sp, #8]
	str	x0, [sp]                        ; 8-byte Folded Spill
	bl	__ZNSt3__128__exception_guard_exceptionsINS_6vectorIyNS_9allocatorIyEEE16__destroy_vectorEED2B8ne200100Ev
	ldr	x0, [sp]                        ; 8-byte Folded Reload
	ldp	x29, x30, [sp, #16]             ; 16-byte Folded Reload
	add	sp, sp, #32
	ret
	.cfi_endproc
                                        ; -- End function
	.private_extern	__ZNSt3__128__exception_guard_exceptionsINS_6vectorIyNS_9allocatorIyEEE16__destroy_vectorEEC1B8ne200100ES5_ ; -- Begin function _ZNSt3__128__exception_guard_exceptionsINS_6vectorIyNS_9allocatorIyEEE16__destroy_vectorEEC1B8ne200100ES5_
	.globl	__ZNSt3__128__exception_guard_exceptionsINS_6vectorIyNS_9allocatorIyEEE16__destroy_vectorEEC1B8ne200100ES5_
	.weak_def_can_be_hidden	__ZNSt3__128__exception_guard_exceptionsINS_6vectorIyNS_9allocatorIyEEE16__destroy_vectorEEC1B8ne200100ES5_
	.p2align	2
__ZNSt3__128__exception_guard_exceptionsINS_6vectorIyNS_9allocatorIyEEE16__destroy_vectorEEC1B8ne200100ES5_: ; @_ZNSt3__128__exception_guard_exceptionsINS_6vectorIyNS_9allocatorIyEEE16__destroy_vectorEEC1B8ne200100ES5_
	.cfi_startproc
; %bb.0:
	sub	sp, sp, #48
	stp	x29, x30, [sp, #32]             ; 16-byte Folded Spill
	add	x29, sp, #32
	.cfi_def_cfa w29, 16
	.cfi_offset w30, -8
	.cfi_offset w29, -16
	stur	x1, [x29, #-8]
	str	x0, [sp, #16]
	ldr	x0, [sp, #16]
	str	x0, [sp, #8]                    ; 8-byte Folded Spill
	ldur	x1, [x29, #-8]
	bl	__ZNSt3__128__exception_guard_exceptionsINS_6vectorIyNS_9allocatorIyEEE16__destroy_vectorEEC2B8ne200100ES5_
	ldr	x0, [sp, #8]                    ; 8-byte Folded Reload
	ldp	x29, x30, [sp, #32]             ; 16-byte Folded Reload
	add	sp, sp, #48
	ret
	.cfi_endproc
                                        ; -- End function
	.private_extern	__ZNSt3__128__exception_guard_exceptionsINS_6vectorIyNS_9allocatorIyEEE16__destroy_vectorEEC2B8ne200100ES5_ ; -- Begin function _ZNSt3__128__exception_guard_exceptionsINS_6vectorIyNS_9allocatorIyEEE16__destroy_vectorEEC2B8ne200100ES5_
	.globl	__ZNSt3__128__exception_guard_exceptionsINS_6vectorIyNS_9allocatorIyEEE16__destroy_vectorEEC2B8ne200100ES5_
	.weak_def_can_be_hidden	__ZNSt3__128__exception_guard_exceptionsINS_6vectorIyNS_9allocatorIyEEE16__destroy_vectorEEC2B8ne200100ES5_
	.p2align	2
__ZNSt3__128__exception_guard_exceptionsINS_6vectorIyNS_9allocatorIyEEE16__destroy_vectorEEC2B8ne200100ES5_: ; @_ZNSt3__128__exception_guard_exceptionsINS_6vectorIyNS_9allocatorIyEEE16__destroy_vectorEEC2B8ne200100ES5_
	.cfi_startproc
; %bb.0:
	sub	sp, sp, #16
	.cfi_def_cfa_offset 16
	str	x1, [sp, #8]
	str	x0, [sp]
	ldr	x0, [sp]
	ldr	x8, [sp, #8]
	str	x8, [x0]
	strb	wzr, [x0, #8]
	add	sp, sp, #16
	ret
	.cfi_endproc
                                        ; -- End function
	.private_extern	__ZNSt3__16vectorIyNS_9allocatorIyEEE16__destroy_vectorC2B8ne200100ERS3_ ; -- Begin function _ZNSt3__16vectorIyNS_9allocatorIyEEE16__destroy_vectorC2B8ne200100ERS3_
	.globl	__ZNSt3__16vectorIyNS_9allocatorIyEEE16__destroy_vectorC2B8ne200100ERS3_
	.weak_def_can_be_hidden	__ZNSt3__16vectorIyNS_9allocatorIyEEE16__destroy_vectorC2B8ne200100ERS3_
	.p2align	2
__ZNSt3__16vectorIyNS_9allocatorIyEEE16__destroy_vectorC2B8ne200100ERS3_: ; @_ZNSt3__16vectorIyNS_9allocatorIyEEE16__destroy_vectorC2B8ne200100ERS3_
	.cfi_startproc
; %bb.0:
	sub	sp, sp, #16
	.cfi_def_cfa_offset 16
	str	x0, [sp, #8]
	str	x1, [sp]
	ldr	x0, [sp, #8]
	ldr	x8, [sp]
	str	x8, [x0]
	add	sp, sp, #16
	ret
	.cfi_endproc
                                        ; -- End function
	.private_extern	__ZNKSt3__16vectorIyNS_9allocatorIyEEE8max_sizeB8ne200100Ev ; -- Begin function _ZNKSt3__16vectorIyNS_9allocatorIyEEE8max_sizeB8ne200100Ev
	.globl	__ZNKSt3__16vectorIyNS_9allocatorIyEEE8max_sizeB8ne200100Ev
	.weak_definition	__ZNKSt3__16vectorIyNS_9allocatorIyEEE8max_sizeB8ne200100Ev
	.p2align	2
__ZNKSt3__16vectorIyNS_9allocatorIyEEE8max_sizeB8ne200100Ev: ; @_ZNKSt3__16vectorIyNS_9allocatorIyEEE8max_sizeB8ne200100Ev
Lfunc_begin7:
	.cfi_startproc
	.cfi_personality 155, ___gxx_personality_v0
	.cfi_lsda 16, Lexception7
; %bb.0:
	sub	sp, sp, #64
	stp	x29, x30, [sp, #48]             ; 16-byte Folded Spill
	add	x29, sp, #48
	.cfi_def_cfa w29, 16
	.cfi_offset w30, -8
	.cfi_offset w29, -16
	stur	x0, [x29, #-8]
	ldur	x8, [x29, #-8]
	add	x0, x8, #16
	bl	__ZNSt3__116allocator_traitsINS_9allocatorIyEEE8max_sizeB8ne200100IS2_Li0EEEmRKS2_
	sub	x8, x29, #16
	str	x8, [sp, #8]                    ; 8-byte Folded Spill
	stur	x0, [x29, #-16]
	bl	__ZNSt3__114numeric_limitsIlE3maxB8ne200100Ev
	mov	x8, x0
	ldr	x0, [sp, #8]                    ; 8-byte Folded Reload
	add	x1, sp, #24
	str	x8, [sp, #24]
Ltmp186:
	bl	__ZNSt3__13minB8ne200100ImEERKT_S3_S3_
	str	x0, [sp, #16]                   ; 8-byte Folded Spill
Ltmp187:
	b	LBB93_1
LBB93_1:
	ldr	x8, [sp, #16]                   ; 8-byte Folded Reload
	ldr	x0, [x8]
	ldp	x29, x30, [sp, #48]             ; 16-byte Folded Reload
	add	sp, sp, #64
	ret
LBB93_2:
Ltmp188:
	bl	___clang_call_terminate
Lfunc_end7:
	.cfi_endproc
	.section	__TEXT,__gcc_except_tab
	.p2align	2, 0x0
GCC_except_table93:
Lexception7:
	.byte	255                             ; @LPStart Encoding = omit
	.byte	155                             ; @TType Encoding = indirect pcrel sdata4
	.uleb128 Lttbase2-Lttbaseref2
Lttbaseref2:
	.byte	1                               ; Call site Encoding = uleb128
	.uleb128 Lcst_end7-Lcst_begin7
Lcst_begin7:
	.uleb128 Ltmp186-Lfunc_begin7           ; >> Call Site 1 <<
	.uleb128 Ltmp187-Ltmp186                ;   Call between Ltmp186 and Ltmp187
	.uleb128 Ltmp188-Lfunc_begin7           ;     jumps to Ltmp188
	.byte	1                               ;   On action: 1
Lcst_end7:
	.byte	1                               ; >> Action Record 1 <<
                                        ;   Catch TypeInfo 1
	.byte	0                               ;   No further actions
	.p2align	2, 0x0
                                        ; >> Catch TypeInfos <<
	.long	0                               ; TypeInfo 1
Lttbase2:
	.p2align	2, 0x0
                                        ; -- End function
	.section	__TEXT,__text,regular,pure_instructions
	.private_extern	__ZNSt3__16vectorIyNS_9allocatorIyEEE20__throw_length_errorB8ne200100Ev ; -- Begin function _ZNSt3__16vectorIyNS_9allocatorIyEEE20__throw_length_errorB8ne200100Ev
	.globl	__ZNSt3__16vectorIyNS_9allocatorIyEEE20__throw_length_errorB8ne200100Ev
	.weak_definition	__ZNSt3__16vectorIyNS_9allocatorIyEEE20__throw_length_errorB8ne200100Ev
	.p2align	2
__ZNSt3__16vectorIyNS_9allocatorIyEEE20__throw_length_errorB8ne200100Ev: ; @_ZNSt3__16vectorIyNS_9allocatorIyEEE20__throw_length_errorB8ne200100Ev
	.cfi_startproc
; %bb.0:
	stp	x29, x30, [sp, #-16]!           ; 16-byte Folded Spill
	mov	x29, sp
	.cfi_def_cfa w29, 16
	.cfi_offset w30, -8
	.cfi_offset w29, -16
	adrp	x0, l_.str.18@PAGE
	add	x0, x0, l_.str.18@PAGEOFF
	bl	__ZNSt3__120__throw_length_errorB8ne200100EPKc
	.cfi_endproc
                                        ; -- End function
	.private_extern	__ZNSt3__119__allocate_at_leastB8ne200100INS_9allocatorIyEEEENS_19__allocation_resultINS_16allocator_traitsIT_E7pointerEEERS5_m ; -- Begin function _ZNSt3__119__allocate_at_leastB8ne200100INS_9allocatorIyEEEENS_19__allocation_resultINS_16allocator_traitsIT_E7pointerEEERS5_m
	.globl	__ZNSt3__119__allocate_at_leastB8ne200100INS_9allocatorIyEEEENS_19__allocation_resultINS_16allocator_traitsIT_E7pointerEEERS5_m
	.weak_definition	__ZNSt3__119__allocate_at_leastB8ne200100INS_9allocatorIyEEEENS_19__allocation_resultINS_16allocator_traitsIT_E7pointerEEERS5_m
	.p2align	2
__ZNSt3__119__allocate_at_leastB8ne200100INS_9allocatorIyEEEENS_19__allocation_resultINS_16allocator_traitsIT_E7pointerEEERS5_m: ; @_ZNSt3__119__allocate_at_leastB8ne200100INS_9allocatorIyEEEENS_19__allocation_resultINS_16allocator_traitsIT_E7pointerEEERS5_m
	.cfi_startproc
; %bb.0:
	sub	sp, sp, #48
	stp	x29, x30, [sp, #32]             ; 16-byte Folded Spill
	add	x29, sp, #32
	.cfi_def_cfa w29, 16
	.cfi_offset w30, -8
	.cfi_offset w29, -16
	str	x0, [sp, #8]
	str	x1, [sp]
	ldr	x0, [sp, #8]
	ldr	x1, [sp]
	bl	__ZNSt3__19allocatorIyE8allocateB8ne200100Em
	str	x0, [sp, #16]
	ldr	x8, [sp]
	str	x8, [sp, #24]
	ldr	x0, [sp, #16]
	ldr	x1, [sp, #24]
	ldp	x29, x30, [sp, #32]             ; 16-byte Folded Reload
	add	sp, sp, #48
	ret
	.cfi_endproc
                                        ; -- End function
	.private_extern	__ZNKSt3__16vectorIyNS_9allocatorIyEEE14__annotate_newB8ne200100Em ; -- Begin function _ZNKSt3__16vectorIyNS_9allocatorIyEEE14__annotate_newB8ne200100Em
	.globl	__ZNKSt3__16vectorIyNS_9allocatorIyEEE14__annotate_newB8ne200100Em
	.weak_definition	__ZNKSt3__16vectorIyNS_9allocatorIyEEE14__annotate_newB8ne200100Em
	.p2align	2
__ZNKSt3__16vectorIyNS_9allocatorIyEEE14__annotate_newB8ne200100Em: ; @_ZNKSt3__16vectorIyNS_9allocatorIyEEE14__annotate_newB8ne200100Em
	.cfi_startproc
; %bb.0:
	sub	sp, sp, #16
	.cfi_def_cfa_offset 16
	str	x0, [sp, #8]
	str	x1, [sp]
	add	sp, sp, #16
	ret
	.cfi_endproc
                                        ; -- End function
	.private_extern	__ZNSt3__13minB8ne200100ImEERKT_S3_S3_ ; -- Begin function _ZNSt3__13minB8ne200100ImEERKT_S3_S3_
	.globl	__ZNSt3__13minB8ne200100ImEERKT_S3_S3_
	.weak_definition	__ZNSt3__13minB8ne200100ImEERKT_S3_S3_
	.p2align	2
__ZNSt3__13minB8ne200100ImEERKT_S3_S3_: ; @_ZNSt3__13minB8ne200100ImEERKT_S3_S3_
	.cfi_startproc
; %bb.0:
	sub	sp, sp, #48
	stp	x29, x30, [sp, #32]             ; 16-byte Folded Spill
	add	x29, sp, #32
	.cfi_def_cfa w29, 16
	.cfi_offset w30, -8
	.cfi_offset w29, -16
	stur	x0, [x29, #-8]
	str	x1, [sp, #16]
	ldur	x0, [x29, #-8]
	ldr	x1, [sp, #16]
	bl	__ZNSt3__13minB8ne200100ImNS_6__lessIvvEEEERKT_S5_S5_T0_
	ldp	x29, x30, [sp, #32]             ; 16-byte Folded Reload
	add	sp, sp, #48
	ret
	.cfi_endproc
                                        ; -- End function
	.globl	__ZNSt3__116allocator_traitsINS_9allocatorIyEEE8max_sizeB8ne200100IS2_Li0EEEmRKS2_ ; -- Begin function _ZNSt3__116allocator_traitsINS_9allocatorIyEEE8max_sizeB8ne200100IS2_Li0EEEmRKS2_
	.weak_definition	__ZNSt3__116allocator_traitsINS_9allocatorIyEEE8max_sizeB8ne200100IS2_Li0EEEmRKS2_
	.p2align	2
__ZNSt3__116allocator_traitsINS_9allocatorIyEEE8max_sizeB8ne200100IS2_Li0EEEmRKS2_: ; @_ZNSt3__116allocator_traitsINS_9allocatorIyEEE8max_sizeB8ne200100IS2_Li0EEEmRKS2_
	.cfi_startproc
; %bb.0:
	sub	sp, sp, #32
	stp	x29, x30, [sp, #16]             ; 16-byte Folded Spill
	add	x29, sp, #16
	.cfi_def_cfa w29, 16
	.cfi_offset w30, -8
	.cfi_offset w29, -16
	str	x0, [sp, #8]
	ldr	x0, [sp, #8]
	bl	__ZNKSt3__19allocatorIyE8max_sizeB8ne200100Ev
	ldp	x29, x30, [sp, #16]             ; 16-byte Folded Reload
	add	sp, sp, #32
	ret
	.cfi_endproc
                                        ; -- End function
	.private_extern	__ZNSt3__114numeric_limitsIlE3maxB8ne200100Ev ; -- Begin function _ZNSt3__114numeric_limitsIlE3maxB8ne200100Ev
	.globl	__ZNSt3__114numeric_limitsIlE3maxB8ne200100Ev
	.weak_definition	__ZNSt3__114numeric_limitsIlE3maxB8ne200100Ev
	.p2align	2
__ZNSt3__114numeric_limitsIlE3maxB8ne200100Ev: ; @_ZNSt3__114numeric_limitsIlE3maxB8ne200100Ev
	.cfi_startproc
; %bb.0:
	stp	x29, x30, [sp, #-16]!           ; 16-byte Folded Spill
	mov	x29, sp
	.cfi_def_cfa w29, 16
	.cfi_offset w30, -8
	.cfi_offset w29, -16
	bl	__ZNSt3__123__libcpp_numeric_limitsIlLb1EE3maxB8ne200100Ev
	ldp	x29, x30, [sp], #16             ; 16-byte Folded Reload
	ret
	.cfi_endproc
                                        ; -- End function
	.private_extern	__ZNSt3__13minB8ne200100ImNS_6__lessIvvEEEERKT_S5_S5_T0_ ; -- Begin function _ZNSt3__13minB8ne200100ImNS_6__lessIvvEEEERKT_S5_S5_T0_
	.globl	__ZNSt3__13minB8ne200100ImNS_6__lessIvvEEEERKT_S5_S5_T0_
	.weak_definition	__ZNSt3__13minB8ne200100ImNS_6__lessIvvEEEERKT_S5_S5_T0_
	.p2align	2
__ZNSt3__13minB8ne200100ImNS_6__lessIvvEEEERKT_S5_S5_T0_: ; @_ZNSt3__13minB8ne200100ImNS_6__lessIvvEEEERKT_S5_S5_T0_
	.cfi_startproc
; %bb.0:
	sub	sp, sp, #48
	stp	x29, x30, [sp, #32]             ; 16-byte Folded Spill
	add	x29, sp, #32
	.cfi_def_cfa w29, 16
	.cfi_offset w30, -8
	.cfi_offset w29, -16
	str	x0, [sp, #16]
	str	x1, [sp, #8]
	ldr	x1, [sp, #8]
	ldr	x2, [sp, #16]
	sub	x0, x29, #1
	bl	__ZNKSt3__16__lessIvvEclB8ne200100ImmEEbRKT_RKT0_
	tbz	w0, #0, LBB100_2
	b	LBB100_1
LBB100_1:
	ldr	x8, [sp, #8]
	str	x8, [sp]                        ; 8-byte Folded Spill
	b	LBB100_3
LBB100_2:
	ldr	x8, [sp, #16]
	str	x8, [sp]                        ; 8-byte Folded Spill
	b	LBB100_3
LBB100_3:
	ldr	x0, [sp]                        ; 8-byte Folded Reload
	ldp	x29, x30, [sp, #32]             ; 16-byte Folded Reload
	add	sp, sp, #48
	ret
	.cfi_endproc
                                        ; -- End function
	.private_extern	__ZNKSt3__16__lessIvvEclB8ne200100ImmEEbRKT_RKT0_ ; -- Begin function _ZNKSt3__16__lessIvvEclB8ne200100ImmEEbRKT_RKT0_
	.globl	__ZNKSt3__16__lessIvvEclB8ne200100ImmEEbRKT_RKT0_
	.weak_definition	__ZNKSt3__16__lessIvvEclB8ne200100ImmEEbRKT_RKT0_
	.p2align	2
__ZNKSt3__16__lessIvvEclB8ne200100ImmEEbRKT_RKT0_: ; @_ZNKSt3__16__lessIvvEclB8ne200100ImmEEbRKT_RKT0_
	.cfi_startproc
; %bb.0:
	sub	sp, sp, #32
	.cfi_def_cfa_offset 32
	str	x0, [sp, #24]
	str	x1, [sp, #16]
	str	x2, [sp, #8]
	ldr	x8, [sp, #16]
	ldr	x8, [x8]
	ldr	x9, [sp, #8]
	ldr	x9, [x9]
	subs	x8, x8, x9
	cset	w0, lo
	add	sp, sp, #32
	ret
	.cfi_endproc
                                        ; -- End function
	.private_extern	__ZNKSt3__19allocatorIyE8max_sizeB8ne200100Ev ; -- Begin function _ZNKSt3__19allocatorIyE8max_sizeB8ne200100Ev
	.globl	__ZNKSt3__19allocatorIyE8max_sizeB8ne200100Ev
	.weak_definition	__ZNKSt3__19allocatorIyE8max_sizeB8ne200100Ev
	.p2align	2
__ZNKSt3__19allocatorIyE8max_sizeB8ne200100Ev: ; @_ZNKSt3__19allocatorIyE8max_sizeB8ne200100Ev
	.cfi_startproc
; %bb.0:
	sub	sp, sp, #16
	.cfi_def_cfa_offset 16
	str	x0, [sp, #8]
	mov	x0, #2305843009213693951        ; =0x1fffffffffffffff
	add	sp, sp, #16
	ret
	.cfi_endproc
                                        ; -- End function
	.private_extern	__ZNSt3__123__libcpp_numeric_limitsIlLb1EE3maxB8ne200100Ev ; -- Begin function _ZNSt3__123__libcpp_numeric_limitsIlLb1EE3maxB8ne200100Ev
	.globl	__ZNSt3__123__libcpp_numeric_limitsIlLb1EE3maxB8ne200100Ev
	.weak_definition	__ZNSt3__123__libcpp_numeric_limitsIlLb1EE3maxB8ne200100Ev
	.p2align	2
__ZNSt3__123__libcpp_numeric_limitsIlLb1EE3maxB8ne200100Ev: ; @_ZNSt3__123__libcpp_numeric_limitsIlLb1EE3maxB8ne200100Ev
	.cfi_startproc
; %bb.0:
	mov	x0, #9223372036854775807        ; =0x7fffffffffffffff
	ret
	.cfi_endproc
                                        ; -- End function
	.private_extern	__ZNSt3__120__throw_length_errorB8ne200100EPKc ; -- Begin function _ZNSt3__120__throw_length_errorB8ne200100EPKc
	.globl	__ZNSt3__120__throw_length_errorB8ne200100EPKc
	.weak_definition	__ZNSt3__120__throw_length_errorB8ne200100EPKc
	.p2align	2
__ZNSt3__120__throw_length_errorB8ne200100EPKc: ; @_ZNSt3__120__throw_length_errorB8ne200100EPKc
Lfunc_begin8:
	.cfi_startproc
	.cfi_personality 155, ___gxx_personality_v0
	.cfi_lsda 16, Lexception8
; %bb.0:
	sub	sp, sp, #48
	stp	x29, x30, [sp, #32]             ; 16-byte Folded Spill
	add	x29, sp, #32
	.cfi_def_cfa w29, 16
	.cfi_offset w30, -8
	.cfi_offset w29, -16
	stur	x0, [x29, #-8]
	mov	x0, #16                         ; =0x10
	bl	___cxa_allocate_exception
	str	x0, [sp]                        ; 8-byte Folded Spill
	ldur	x1, [x29, #-8]
Ltmp192:
	bl	__ZNSt12length_errorC1B8ne200100EPKc
Ltmp193:
	b	LBB104_1
LBB104_1:
	ldr	x0, [sp]                        ; 8-byte Folded Reload
	adrp	x1, __ZTISt12length_error@GOTPAGE
	ldr	x1, [x1, __ZTISt12length_error@GOTPAGEOFF]
	adrp	x2, __ZNSt12length_errorD1Ev@GOTPAGE
	ldr	x2, [x2, __ZNSt12length_errorD1Ev@GOTPAGEOFF]
	bl	___cxa_throw
LBB104_2:
Ltmp194:
	mov	x8, x0
	ldr	x0, [sp]                        ; 8-byte Folded Reload
	str	x8, [sp, #16]
	mov	x8, x1
	str	w8, [sp, #12]
	bl	___cxa_free_exception
	b	LBB104_3
LBB104_3:
	ldr	x0, [sp, #16]
	bl	__Unwind_Resume
Lfunc_end8:
	.cfi_endproc
	.section	__TEXT,__gcc_except_tab
	.p2align	2, 0x0
GCC_except_table104:
Lexception8:
	.byte	255                             ; @LPStart Encoding = omit
	.byte	255                             ; @TType Encoding = omit
	.byte	1                               ; Call site Encoding = uleb128
	.uleb128 Lcst_end8-Lcst_begin8
Lcst_begin8:
	.uleb128 Lfunc_begin8-Lfunc_begin8      ; >> Call Site 1 <<
	.uleb128 Ltmp192-Lfunc_begin8           ;   Call between Lfunc_begin8 and Ltmp192
	.byte	0                               ;     has no landing pad
	.byte	0                               ;   On action: cleanup
	.uleb128 Ltmp192-Lfunc_begin8           ; >> Call Site 2 <<
	.uleb128 Ltmp193-Ltmp192                ;   Call between Ltmp192 and Ltmp193
	.uleb128 Ltmp194-Lfunc_begin8           ;     jumps to Ltmp194
	.byte	0                               ;   On action: cleanup
	.uleb128 Ltmp193-Lfunc_begin8           ; >> Call Site 3 <<
	.uleb128 Lfunc_end8-Ltmp193             ;   Call between Ltmp193 and Lfunc_end8
	.byte	0                               ;     has no landing pad
	.byte	0                               ;   On action: cleanup
Lcst_end8:
	.p2align	2, 0x0
                                        ; -- End function
	.section	__TEXT,__text,regular,pure_instructions
	.private_extern	__ZNSt12length_errorC1B8ne200100EPKc ; -- Begin function _ZNSt12length_errorC1B8ne200100EPKc
	.globl	__ZNSt12length_errorC1B8ne200100EPKc
	.weak_def_can_be_hidden	__ZNSt12length_errorC1B8ne200100EPKc
	.p2align	2
__ZNSt12length_errorC1B8ne200100EPKc:   ; @_ZNSt12length_errorC1B8ne200100EPKc
	.cfi_startproc
; %bb.0:
	sub	sp, sp, #48
	stp	x29, x30, [sp, #32]             ; 16-byte Folded Spill
	add	x29, sp, #32
	.cfi_def_cfa w29, 16
	.cfi_offset w30, -8
	.cfi_offset w29, -16
	stur	x0, [x29, #-8]
	str	x1, [sp, #16]
	ldur	x0, [x29, #-8]
	str	x0, [sp, #8]                    ; 8-byte Folded Spill
	ldr	x1, [sp, #16]
	bl	__ZNSt12length_errorC2B8ne200100EPKc
	ldr	x0, [sp, #8]                    ; 8-byte Folded Reload
	ldp	x29, x30, [sp, #32]             ; 16-byte Folded Reload
	add	sp, sp, #48
	ret
	.cfi_endproc
                                        ; -- End function
	.private_extern	__ZNSt12length_errorC2B8ne200100EPKc ; -- Begin function _ZNSt12length_errorC2B8ne200100EPKc
	.globl	__ZNSt12length_errorC2B8ne200100EPKc
	.weak_def_can_be_hidden	__ZNSt12length_errorC2B8ne200100EPKc
	.p2align	2
__ZNSt12length_errorC2B8ne200100EPKc:   ; @_ZNSt12length_errorC2B8ne200100EPKc
	.cfi_startproc
; %bb.0:
	sub	sp, sp, #48
	stp	x29, x30, [sp, #32]             ; 16-byte Folded Spill
	add	x29, sp, #32
	.cfi_def_cfa w29, 16
	.cfi_offset w30, -8
	.cfi_offset w29, -16
	stur	x0, [x29, #-8]
	str	x1, [sp, #16]
	ldur	x0, [x29, #-8]
	str	x0, [sp, #8]                    ; 8-byte Folded Spill
	ldr	x1, [sp, #16]
	bl	__ZNSt11logic_errorC2EPKc
	ldr	x0, [sp, #8]                    ; 8-byte Folded Reload
	adrp	x8, __ZTVSt12length_error@GOTPAGE
	ldr	x8, [x8, __ZTVSt12length_error@GOTPAGEOFF]
	add	x8, x8, #16
	str	x8, [x0]
	ldp	x29, x30, [sp, #32]             ; 16-byte Folded Reload
	add	sp, sp, #48
	ret
	.cfi_endproc
                                        ; -- End function
	.private_extern	__ZNSt3__19allocatorIyE8allocateB8ne200100Em ; -- Begin function _ZNSt3__19allocatorIyE8allocateB8ne200100Em
	.globl	__ZNSt3__19allocatorIyE8allocateB8ne200100Em
	.weak_definition	__ZNSt3__19allocatorIyE8allocateB8ne200100Em
	.p2align	2
__ZNSt3__19allocatorIyE8allocateB8ne200100Em: ; @_ZNSt3__19allocatorIyE8allocateB8ne200100Em
	.cfi_startproc
; %bb.0:
	sub	sp, sp, #48
	stp	x29, x30, [sp, #32]             ; 16-byte Folded Spill
	add	x29, sp, #32
	.cfi_def_cfa w29, 16
	.cfi_offset w30, -8
	.cfi_offset w29, -16
	stur	x0, [x29, #-8]
	str	x1, [sp, #16]
	ldur	x0, [x29, #-8]
	ldr	x8, [sp, #16]
	str	x8, [sp, #8]                    ; 8-byte Folded Spill
	bl	__ZNSt3__116allocator_traitsINS_9allocatorIyEEE8max_sizeB8ne200100IS2_Li0EEEmRKS2_
	ldr	x8, [sp, #8]                    ; 8-byte Folded Reload
	subs	x8, x8, x0
	b.ls	LBB107_2
	b	LBB107_1
LBB107_1:
	bl	__ZSt28__throw_bad_array_new_lengthB8ne200100v
LBB107_2:
	ldr	x0, [sp, #16]
	mov	x1, #8                          ; =0x8
	bl	__ZNSt3__117__libcpp_allocateB8ne200100IyEEPT_NS_15__element_countEm
	ldp	x29, x30, [sp, #32]             ; 16-byte Folded Reload
	add	sp, sp, #48
	ret
	.cfi_endproc
                                        ; -- End function
	.private_extern	__ZSt28__throw_bad_array_new_lengthB8ne200100v ; -- Begin function _ZSt28__throw_bad_array_new_lengthB8ne200100v
	.globl	__ZSt28__throw_bad_array_new_lengthB8ne200100v
	.weak_definition	__ZSt28__throw_bad_array_new_lengthB8ne200100v
	.p2align	2
__ZSt28__throw_bad_array_new_lengthB8ne200100v: ; @_ZSt28__throw_bad_array_new_lengthB8ne200100v
	.cfi_startproc
; %bb.0:
	sub	sp, sp, #32
	stp	x29, x30, [sp, #16]             ; 16-byte Folded Spill
	add	x29, sp, #16
	.cfi_def_cfa w29, 16
	.cfi_offset w30, -8
	.cfi_offset w29, -16
	mov	x0, #8                          ; =0x8
	bl	___cxa_allocate_exception
	str	x0, [sp, #8]                    ; 8-byte Folded Spill
	bl	__ZNSt20bad_array_new_lengthC1Ev
	ldr	x0, [sp, #8]                    ; 8-byte Folded Reload
	adrp	x1, __ZTISt20bad_array_new_length@GOTPAGE
	ldr	x1, [x1, __ZTISt20bad_array_new_length@GOTPAGEOFF]
	adrp	x2, __ZNSt20bad_array_new_lengthD1Ev@GOTPAGE
	ldr	x2, [x2, __ZNSt20bad_array_new_lengthD1Ev@GOTPAGEOFF]
	bl	___cxa_throw
	.cfi_endproc
                                        ; -- End function
	.private_extern	__ZNSt3__117__libcpp_allocateB8ne200100IyEEPT_NS_15__element_countEm ; -- Begin function _ZNSt3__117__libcpp_allocateB8ne200100IyEEPT_NS_15__element_countEm
	.globl	__ZNSt3__117__libcpp_allocateB8ne200100IyEEPT_NS_15__element_countEm
	.weak_definition	__ZNSt3__117__libcpp_allocateB8ne200100IyEEPT_NS_15__element_countEm
	.p2align	2
__ZNSt3__117__libcpp_allocateB8ne200100IyEEPT_NS_15__element_countEm: ; @_ZNSt3__117__libcpp_allocateB8ne200100IyEEPT_NS_15__element_countEm
	.cfi_startproc
; %bb.0:
	sub	sp, sp, #48
	stp	x29, x30, [sp, #32]             ; 16-byte Folded Spill
	add	x29, sp, #32
	.cfi_def_cfa w29, 16
	.cfi_offset w30, -8
	.cfi_offset w29, -16
	stur	x0, [x29, #-8]
	str	x1, [sp, #16]
	ldur	x8, [x29, #-8]
	lsl	x8, x8, #3
	str	x8, [sp, #8]
	ldr	x0, [sp, #8]
	bl	__ZNSt3__121__libcpp_operator_newB8ne200100IyEEPvm
	ldp	x29, x30, [sp, #32]             ; 16-byte Folded Reload
	add	sp, sp, #48
	ret
	.cfi_endproc
                                        ; -- End function
	.private_extern	__ZNSt3__121__libcpp_operator_newB8ne200100IyEEPvm ; -- Begin function _ZNSt3__121__libcpp_operator_newB8ne200100IyEEPvm
	.globl	__ZNSt3__121__libcpp_operator_newB8ne200100IyEEPvm
	.weak_definition	__ZNSt3__121__libcpp_operator_newB8ne200100IyEEPvm
	.p2align	2
__ZNSt3__121__libcpp_operator_newB8ne200100IyEEPvm: ; @_ZNSt3__121__libcpp_operator_newB8ne200100IyEEPvm
	.cfi_startproc
; %bb.0:
	sub	sp, sp, #32
	stp	x29, x30, [sp, #16]             ; 16-byte Folded Spill
	add	x29, sp, #16
	.cfi_def_cfa w29, 16
	.cfi_offset w30, -8
	.cfi_offset w29, -16
	str	x0, [sp, #8]
	ldr	x0, [sp, #8]
	bl	__Znwm
	ldp	x29, x30, [sp, #16]             ; 16-byte Folded Reload
	add	sp, sp, #32
	ret
	.cfi_endproc
                                        ; -- End function
	.private_extern	__ZNSt3__16vectorIyNS_9allocatorIyEEE21_ConstructTransactionC1B8ne200100ERS3_m ; -- Begin function _ZNSt3__16vectorIyNS_9allocatorIyEEE21_ConstructTransactionC1B8ne200100ERS3_m
	.globl	__ZNSt3__16vectorIyNS_9allocatorIyEEE21_ConstructTransactionC1B8ne200100ERS3_m
	.weak_def_can_be_hidden	__ZNSt3__16vectorIyNS_9allocatorIyEEE21_ConstructTransactionC1B8ne200100ERS3_m
	.p2align	2
__ZNSt3__16vectorIyNS_9allocatorIyEEE21_ConstructTransactionC1B8ne200100ERS3_m: ; @_ZNSt3__16vectorIyNS_9allocatorIyEEE21_ConstructTransactionC1B8ne200100ERS3_m
	.cfi_startproc
; %bb.0:
	sub	sp, sp, #48
	stp	x29, x30, [sp, #32]             ; 16-byte Folded Spill
	add	x29, sp, #32
	.cfi_def_cfa w29, 16
	.cfi_offset w30, -8
	.cfi_offset w29, -16
	stur	x0, [x29, #-8]
	str	x1, [sp, #16]
	str	x2, [sp, #8]
	ldur	x0, [x29, #-8]
	str	x0, [sp]                        ; 8-byte Folded Spill
	ldr	x1, [sp, #16]
	ldr	x2, [sp, #8]
	bl	__ZNSt3__16vectorIyNS_9allocatorIyEEE21_ConstructTransactionC2B8ne200100ERS3_m
	ldr	x0, [sp]                        ; 8-byte Folded Reload
	ldp	x29, x30, [sp, #32]             ; 16-byte Folded Reload
	add	sp, sp, #48
	ret
	.cfi_endproc
                                        ; -- End function
	.private_extern	__ZNSt3__130__uninitialized_allocator_copyB8ne200100INS_9allocatorIyEEPKyS4_PyEET2_RT_T0_T1_S6_ ; -- Begin function _ZNSt3__130__uninitialized_allocator_copyB8ne200100INS_9allocatorIyEEPKyS4_PyEET2_RT_T0_T1_S6_
	.globl	__ZNSt3__130__uninitialized_allocator_copyB8ne200100INS_9allocatorIyEEPKyS4_PyEET2_RT_T0_T1_S6_
	.weak_definition	__ZNSt3__130__uninitialized_allocator_copyB8ne200100INS_9allocatorIyEEPKyS4_PyEET2_RT_T0_T1_S6_
	.p2align	2
__ZNSt3__130__uninitialized_allocator_copyB8ne200100INS_9allocatorIyEEPKyS4_PyEET2_RT_T0_T1_S6_: ; @_ZNSt3__130__uninitialized_allocator_copyB8ne200100INS_9allocatorIyEEPKyS4_PyEET2_RT_T0_T1_S6_
	.cfi_startproc
; %bb.0:
	sub	sp, sp, #96
	stp	x29, x30, [sp, #80]             ; 16-byte Folded Spill
	add	x29, sp, #80
	.cfi_def_cfa w29, 16
	.cfi_offset w30, -8
	.cfi_offset w29, -16
	stur	x0, [x29, #-8]
	stur	x1, [x29, #-16]
	stur	x2, [x29, #-24]
	stur	x3, [x29, #-32]
	ldur	x0, [x29, #-16]
	ldur	x1, [x29, #-24]
	bl	__ZNSt3__114__unwrap_rangeB8ne200100IPKyS2_EENS_4pairIT0_S4_EET_S6_
	str	x0, [sp, #32]
	str	x1, [sp, #40]
	ldur	x8, [x29, #-8]
	str	x8, [sp, #16]                   ; 8-byte Folded Spill
	ldr	x8, [sp, #32]
	str	x8, [sp]                        ; 8-byte Folded Spill
	ldr	x8, [sp, #40]
	str	x8, [sp, #8]                    ; 8-byte Folded Spill
	ldur	x0, [x29, #-32]
	bl	__ZNSt3__113__unwrap_iterB8ne200100IPyNS_18__unwrap_iter_implIS1_Lb1EEELi0EEEDTclsrT0_8__unwrapclsr3stdE7declvalIT_EEEES5_
	ldr	x1, [sp]                        ; 8-byte Folded Reload
	ldr	x2, [sp, #8]                    ; 8-byte Folded Reload
	mov	x3, x0
	ldr	x0, [sp, #16]                   ; 8-byte Folded Reload
	bl	__ZNSt3__135__uninitialized_allocator_copy_implB8ne200100INS_9allocatorIyEEPKyS4_PyEET2_RT_T0_T1_S6_
	str	x0, [sp, #24]
	ldur	x0, [x29, #-32]
	ldr	x1, [sp, #24]
	bl	__ZNSt3__113__rewrap_iterB8ne200100IPyS1_NS_18__unwrap_iter_implIS1_Lb1EEEEET_S4_T0_
	ldp	x29, x30, [sp, #80]             ; 16-byte Folded Reload
	add	sp, sp, #96
	ret
	.cfi_endproc
                                        ; -- End function
	.private_extern	__ZNSt3__16vectorIyNS_9allocatorIyEEE21_ConstructTransactionD1B8ne200100Ev ; -- Begin function _ZNSt3__16vectorIyNS_9allocatorIyEEE21_ConstructTransactionD1B8ne200100Ev
	.globl	__ZNSt3__16vectorIyNS_9allocatorIyEEE21_ConstructTransactionD1B8ne200100Ev
	.weak_def_can_be_hidden	__ZNSt3__16vectorIyNS_9allocatorIyEEE21_ConstructTransactionD1B8ne200100Ev
	.p2align	2
__ZNSt3__16vectorIyNS_9allocatorIyEEE21_ConstructTransactionD1B8ne200100Ev: ; @_ZNSt3__16vectorIyNS_9allocatorIyEEE21_ConstructTransactionD1B8ne200100Ev
	.cfi_startproc
; %bb.0:
	sub	sp, sp, #32
	stp	x29, x30, [sp, #16]             ; 16-byte Folded Spill
	add	x29, sp, #16
	.cfi_def_cfa w29, 16
	.cfi_offset w30, -8
	.cfi_offset w29, -16
	str	x0, [sp, #8]
	ldr	x0, [sp, #8]
	str	x0, [sp]                        ; 8-byte Folded Spill
	bl	__ZNSt3__16vectorIyNS_9allocatorIyEEE21_ConstructTransactionD2B8ne200100Ev
	ldr	x0, [sp]                        ; 8-byte Folded Reload
	ldp	x29, x30, [sp, #16]             ; 16-byte Folded Reload
	add	sp, sp, #32
	ret
	.cfi_endproc
                                        ; -- End function
	.private_extern	__ZNSt3__16vectorIyNS_9allocatorIyEEE21_ConstructTransactionC2B8ne200100ERS3_m ; -- Begin function _ZNSt3__16vectorIyNS_9allocatorIyEEE21_ConstructTransactionC2B8ne200100ERS3_m
	.globl	__ZNSt3__16vectorIyNS_9allocatorIyEEE21_ConstructTransactionC2B8ne200100ERS3_m
	.weak_def_can_be_hidden	__ZNSt3__16vectorIyNS_9allocatorIyEEE21_ConstructTransactionC2B8ne200100ERS3_m
	.p2align	2
__ZNSt3__16vectorIyNS_9allocatorIyEEE21_ConstructTransactionC2B8ne200100ERS3_m: ; @_ZNSt3__16vectorIyNS_9allocatorIyEEE21_ConstructTransactionC2B8ne200100ERS3_m
	.cfi_startproc
; %bb.0:
	sub	sp, sp, #32
	.cfi_def_cfa_offset 32
	str	x0, [sp, #24]
	str	x1, [sp, #16]
	str	x2, [sp, #8]
	ldr	x0, [sp, #24]
	ldr	x8, [sp, #16]
	str	x8, [x0]
	ldr	x8, [sp, #16]
	ldr	x8, [x8, #8]
	str	x8, [x0, #8]
	ldr	x8, [sp, #16]
	ldr	x8, [x8, #8]
	ldr	x9, [sp, #8]
	add	x8, x8, x9, lsl #3
	str	x8, [x0, #16]
	add	sp, sp, #32
	ret
	.cfi_endproc
                                        ; -- End function
	.private_extern	__ZNSt3__114__unwrap_rangeB8ne200100IPKyS2_EENS_4pairIT0_S4_EET_S6_ ; -- Begin function _ZNSt3__114__unwrap_rangeB8ne200100IPKyS2_EENS_4pairIT0_S4_EET_S6_
	.globl	__ZNSt3__114__unwrap_rangeB8ne200100IPKyS2_EENS_4pairIT0_S4_EET_S6_
	.weak_definition	__ZNSt3__114__unwrap_rangeB8ne200100IPKyS2_EENS_4pairIT0_S4_EET_S6_
	.p2align	2
__ZNSt3__114__unwrap_rangeB8ne200100IPKyS2_EENS_4pairIT0_S4_EET_S6_: ; @_ZNSt3__114__unwrap_rangeB8ne200100IPKyS2_EENS_4pairIT0_S4_EET_S6_
	.cfi_startproc
; %bb.0:
	sub	sp, sp, #80
	stp	x29, x30, [sp, #64]             ; 16-byte Folded Spill
	add	x29, sp, #64
	.cfi_def_cfa w29, 16
	.cfi_offset w30, -8
	.cfi_offset w29, -16
	stur	x0, [x29, #-24]
	str	x1, [sp, #32]
	ldur	x0, [x29, #-24]
	bl	__ZNSt3__113__unwrap_iterB8ne200100IPKyNS_18__unwrap_iter_implIS2_Lb1EEELi0EEEDTclsrT0_8__unwrapclsr3stdE7declvalIT_EEEES6_
	add	x8, sp, #24
	str	x8, [sp, #8]                    ; 8-byte Folded Spill
	str	x0, [sp, #24]
	ldr	x0, [sp, #32]
	bl	__ZNSt3__113__unwrap_iterB8ne200100IPKyNS_18__unwrap_iter_implIS2_Lb1EEELi0EEEDTclsrT0_8__unwrapclsr3stdE7declvalIT_EEEES6_
	mov	x8, x0
	ldr	x0, [sp, #8]                    ; 8-byte Folded Reload
	add	x1, sp, #16
	str	x8, [sp, #16]
	bl	__ZNSt3__19make_pairB8ne200100IPKyS2_EENS_4pairINS_18__unwrap_referenceIu7__decayIT_EE4typeENS4_Iu7__decayIT0_EE4typeEEEOS5_OS9_
	stur	x0, [x29, #-16]
	stur	x1, [x29, #-8]
	ldur	x0, [x29, #-16]
	ldur	x1, [x29, #-8]
	ldp	x29, x30, [sp, #64]             ; 16-byte Folded Reload
	add	sp, sp, #80
	ret
	.cfi_endproc
                                        ; -- End function
	.private_extern	__ZNSt3__135__uninitialized_allocator_copy_implB8ne200100INS_9allocatorIyEEPKyS4_PyEET2_RT_T0_T1_S6_ ; -- Begin function _ZNSt3__135__uninitialized_allocator_copy_implB8ne200100INS_9allocatorIyEEPKyS4_PyEET2_RT_T0_T1_S6_
	.globl	__ZNSt3__135__uninitialized_allocator_copy_implB8ne200100INS_9allocatorIyEEPKyS4_PyEET2_RT_T0_T1_S6_
	.weak_definition	__ZNSt3__135__uninitialized_allocator_copy_implB8ne200100INS_9allocatorIyEEPKyS4_PyEET2_RT_T0_T1_S6_
	.p2align	2
__ZNSt3__135__uninitialized_allocator_copy_implB8ne200100INS_9allocatorIyEEPKyS4_PyEET2_RT_T0_T1_S6_: ; @_ZNSt3__135__uninitialized_allocator_copy_implB8ne200100INS_9allocatorIyEEPKyS4_PyEET2_RT_T0_T1_S6_
Lfunc_begin9:
	.cfi_startproc
	.cfi_personality 155, ___gxx_personality_v0
	.cfi_lsda 16, Lexception9
; %bb.0:
	sub	sp, sp, #160
	stp	x29, x30, [sp, #144]            ; 16-byte Folded Spill
	add	x29, sp, #144
	.cfi_def_cfa w29, 16
	.cfi_offset w30, -8
	.cfi_offset w29, -16
	mov	x8, x3
	stur	x0, [x29, #-8]
	stur	x1, [x29, #-16]
	stur	x2, [x29, #-24]
	sub	x3, x29, #32
	stur	x8, [x29, #-32]
	ldur	x8, [x29, #-32]
	sub	x2, x29, #40
	stur	x8, [x29, #-40]
	ldur	x1, [x29, #-8]
	add	x0, sp, #48
	str	x0, [sp, #24]                   ; 8-byte Folded Spill
	bl	__ZNSt3__129_AllocatorDestroyRangeReverseINS_9allocatorIyEEPyEC1B8ne200100ERS2_RS3_S6_
	ldr	x0, [sp, #24]                   ; 8-byte Folded Reload
	add	x8, sp, #72
	bl	__ZNSt3__122__make_exception_guardB8ne200100INS_29_AllocatorDestroyRangeReverseINS_9allocatorIyEEPyEEEENS_28__exception_guard_exceptionsIT_EES7_
	b	LBB116_1
LBB116_1:                               ; =>This Inner Loop Header: Depth=1
	ldur	x8, [x29, #-16]
	ldur	x9, [x29, #-24]
	subs	x8, x8, x9
	b.eq	LBB116_5
	b	LBB116_2
LBB116_2:                               ;   in Loop: Header=BB116_1 Depth=1
	ldur	x8, [x29, #-8]
	str	x8, [sp, #16]                   ; 8-byte Folded Spill
	ldur	x0, [x29, #-32]
	bl	__ZNSt3__112__to_addressB8ne200100IyEEPT_S2_
	mov	x1, x0
	ldr	x0, [sp, #16]                   ; 8-byte Folded Reload
	ldur	x2, [x29, #-16]
Ltmp196:
	bl	__ZNSt3__116allocator_traitsINS_9allocatorIyEEE9constructB8ne200100IyJRKyELi0EEEvRS2_PT_DpOT0_
Ltmp197:
	b	LBB116_3
LBB116_3:                               ;   in Loop: Header=BB116_1 Depth=1
	ldur	x8, [x29, #-16]
	add	x8, x8, #8
	stur	x8, [x29, #-16]
	ldur	x8, [x29, #-32]
	add	x8, x8, #8
	stur	x8, [x29, #-32]
	b	LBB116_1
LBB116_4:
Ltmp198:
	str	x0, [sp, #40]
	mov	x8, x1
	str	w8, [sp, #36]
	add	x0, sp, #72
	bl	__ZNSt3__128__exception_guard_exceptionsINS_29_AllocatorDestroyRangeReverseINS_9allocatorIyEEPyEEED1B8ne200100Ev
	b	LBB116_6
LBB116_5:
	add	x0, sp, #72
	str	x0, [sp]                        ; 8-byte Folded Spill
	bl	__ZNSt3__128__exception_guard_exceptionsINS_29_AllocatorDestroyRangeReverseINS_9allocatorIyEEPyEEE10__completeB8ne200100Ev
	ldr	x0, [sp]                        ; 8-byte Folded Reload
	ldur	x8, [x29, #-32]
	str	x8, [sp, #8]                    ; 8-byte Folded Spill
	bl	__ZNSt3__128__exception_guard_exceptionsINS_29_AllocatorDestroyRangeReverseINS_9allocatorIyEEPyEEED1B8ne200100Ev
	ldr	x0, [sp, #8]                    ; 8-byte Folded Reload
	ldp	x29, x30, [sp, #144]            ; 16-byte Folded Reload
	add	sp, sp, #160
	ret
LBB116_6:
	ldr	x0, [sp, #40]
	bl	__Unwind_Resume
Lfunc_end9:
	.cfi_endproc
	.section	__TEXT,__gcc_except_tab
	.p2align	2, 0x0
GCC_except_table116:
Lexception9:
	.byte	255                             ; @LPStart Encoding = omit
	.byte	255                             ; @TType Encoding = omit
	.byte	1                               ; Call site Encoding = uleb128
	.uleb128 Lcst_end9-Lcst_begin9
Lcst_begin9:
	.uleb128 Lfunc_begin9-Lfunc_begin9      ; >> Call Site 1 <<
	.uleb128 Ltmp196-Lfunc_begin9           ;   Call between Lfunc_begin9 and Ltmp196
	.byte	0                               ;     has no landing pad
	.byte	0                               ;   On action: cleanup
	.uleb128 Ltmp196-Lfunc_begin9           ; >> Call Site 2 <<
	.uleb128 Ltmp197-Ltmp196                ;   Call between Ltmp196 and Ltmp197
	.uleb128 Ltmp198-Lfunc_begin9           ;     jumps to Ltmp198
	.byte	0                               ;   On action: cleanup
	.uleb128 Ltmp197-Lfunc_begin9           ; >> Call Site 3 <<
	.uleb128 Lfunc_end9-Ltmp197             ;   Call between Ltmp197 and Lfunc_end9
	.byte	0                               ;     has no landing pad
	.byte	0                               ;   On action: cleanup
Lcst_end9:
	.p2align	2, 0x0
                                        ; -- End function
	.section	__TEXT,__text,regular,pure_instructions
	.private_extern	__ZNSt3__113__unwrap_iterB8ne200100IPyNS_18__unwrap_iter_implIS1_Lb1EEELi0EEEDTclsrT0_8__unwrapclsr3stdE7declvalIT_EEEES5_ ; -- Begin function _ZNSt3__113__unwrap_iterB8ne200100IPyNS_18__unwrap_iter_implIS1_Lb1EEELi0EEEDTclsrT0_8__unwrapclsr3stdE7declvalIT_EEEES5_
	.globl	__ZNSt3__113__unwrap_iterB8ne200100IPyNS_18__unwrap_iter_implIS1_Lb1EEELi0EEEDTclsrT0_8__unwrapclsr3stdE7declvalIT_EEEES5_
	.weak_definition	__ZNSt3__113__unwrap_iterB8ne200100IPyNS_18__unwrap_iter_implIS1_Lb1EEELi0EEEDTclsrT0_8__unwrapclsr3stdE7declvalIT_EEEES5_
	.p2align	2
__ZNSt3__113__unwrap_iterB8ne200100IPyNS_18__unwrap_iter_implIS1_Lb1EEELi0EEEDTclsrT0_8__unwrapclsr3stdE7declvalIT_EEEES5_: ; @_ZNSt3__113__unwrap_iterB8ne200100IPyNS_18__unwrap_iter_implIS1_Lb1EEELi0EEEDTclsrT0_8__unwrapclsr3stdE7declvalIT_EEEES5_
	.cfi_startproc
; %bb.0:
	sub	sp, sp, #32
	stp	x29, x30, [sp, #16]             ; 16-byte Folded Spill
	add	x29, sp, #16
	.cfi_def_cfa w29, 16
	.cfi_offset w30, -8
	.cfi_offset w29, -16
	str	x0, [sp, #8]
	ldr	x0, [sp, #8]
	bl	__ZNSt3__118__unwrap_iter_implIPyLb1EE8__unwrapB8ne200100ES1_
	ldp	x29, x30, [sp, #16]             ; 16-byte Folded Reload
	add	sp, sp, #32
	ret
	.cfi_endproc
                                        ; -- End function
	.private_extern	__ZNSt3__113__rewrap_iterB8ne200100IPyS1_NS_18__unwrap_iter_implIS1_Lb1EEEEET_S4_T0_ ; -- Begin function _ZNSt3__113__rewrap_iterB8ne200100IPyS1_NS_18__unwrap_iter_implIS1_Lb1EEEEET_S4_T0_
	.globl	__ZNSt3__113__rewrap_iterB8ne200100IPyS1_NS_18__unwrap_iter_implIS1_Lb1EEEEET_S4_T0_
	.weak_definition	__ZNSt3__113__rewrap_iterB8ne200100IPyS1_NS_18__unwrap_iter_implIS1_Lb1EEEEET_S4_T0_
	.p2align	2
__ZNSt3__113__rewrap_iterB8ne200100IPyS1_NS_18__unwrap_iter_implIS1_Lb1EEEEET_S4_T0_: ; @_ZNSt3__113__rewrap_iterB8ne200100IPyS1_NS_18__unwrap_iter_implIS1_Lb1EEEEET_S4_T0_
Lfunc_begin10:
	.cfi_startproc
	.cfi_personality 155, ___gxx_personality_v0
	.cfi_lsda 16, Lexception10
; %bb.0:
	sub	sp, sp, #48
	stp	x29, x30, [sp, #32]             ; 16-byte Folded Spill
	add	x29, sp, #32
	.cfi_def_cfa w29, 16
	.cfi_offset w30, -8
	.cfi_offset w29, -16
	stur	x0, [x29, #-8]
	str	x1, [sp, #16]
	ldur	x0, [x29, #-8]
	ldr	x1, [sp, #16]
Ltmp199:
	bl	__ZNSt3__118__unwrap_iter_implIPyLb1EE8__rewrapB8ne200100ES1_S1_
	str	x0, [sp, #8]                    ; 8-byte Folded Spill
Ltmp200:
	b	LBB118_1
LBB118_1:
	ldr	x0, [sp, #8]                    ; 8-byte Folded Reload
	ldp	x29, x30, [sp, #32]             ; 16-byte Folded Reload
	add	sp, sp, #48
	ret
LBB118_2:
Ltmp201:
	bl	___clang_call_terminate
Lfunc_end10:
	.cfi_endproc
	.section	__TEXT,__gcc_except_tab
	.p2align	2, 0x0
GCC_except_table118:
Lexception10:
	.byte	255                             ; @LPStart Encoding = omit
	.byte	155                             ; @TType Encoding = indirect pcrel sdata4
	.uleb128 Lttbase3-Lttbaseref3
Lttbaseref3:
	.byte	1                               ; Call site Encoding = uleb128
	.uleb128 Lcst_end10-Lcst_begin10
Lcst_begin10:
	.uleb128 Ltmp199-Lfunc_begin10          ; >> Call Site 1 <<
	.uleb128 Ltmp200-Ltmp199                ;   Call between Ltmp199 and Ltmp200
	.uleb128 Ltmp201-Lfunc_begin10          ;     jumps to Ltmp201
	.byte	1                               ;   On action: 1
Lcst_end10:
	.byte	1                               ; >> Action Record 1 <<
                                        ;   Catch TypeInfo 1
	.byte	0                               ;   No further actions
	.p2align	2, 0x0
                                        ; >> Catch TypeInfos <<
	.long	0                               ; TypeInfo 1
Lttbase3:
	.p2align	2, 0x0
                                        ; -- End function
	.section	__TEXT,__text,regular,pure_instructions
	.private_extern	__ZNSt3__19make_pairB8ne200100IPKyS2_EENS_4pairINS_18__unwrap_referenceIu7__decayIT_EE4typeENS4_Iu7__decayIT0_EE4typeEEEOS5_OS9_ ; -- Begin function _ZNSt3__19make_pairB8ne200100IPKyS2_EENS_4pairINS_18__unwrap_referenceIu7__decayIT_EE4typeENS4_Iu7__decayIT0_EE4typeEEEOS5_OS9_
	.globl	__ZNSt3__19make_pairB8ne200100IPKyS2_EENS_4pairINS_18__unwrap_referenceIu7__decayIT_EE4typeENS4_Iu7__decayIT0_EE4typeEEEOS5_OS9_
	.weak_definition	__ZNSt3__19make_pairB8ne200100IPKyS2_EENS_4pairINS_18__unwrap_referenceIu7__decayIT_EE4typeENS4_Iu7__decayIT0_EE4typeEEEOS5_OS9_
	.p2align	2
__ZNSt3__19make_pairB8ne200100IPKyS2_EENS_4pairINS_18__unwrap_referenceIu7__decayIT_EE4typeENS4_Iu7__decayIT0_EE4typeEEEOS5_OS9_: ; @_ZNSt3__19make_pairB8ne200100IPKyS2_EENS_4pairINS_18__unwrap_referenceIu7__decayIT_EE4typeENS4_Iu7__decayIT0_EE4typeEEEOS5_OS9_
	.cfi_startproc
; %bb.0:
	sub	sp, sp, #48
	stp	x29, x30, [sp, #32]             ; 16-byte Folded Spill
	add	x29, sp, #32
	.cfi_def_cfa w29, 16
	.cfi_offset w30, -8
	.cfi_offset w29, -16
	str	x0, [sp, #8]
	str	x1, [sp]
	ldr	x1, [sp, #8]
	ldr	x2, [sp]
	add	x0, sp, #16
	bl	__ZNSt3__14pairIPKyS2_EC1B8ne200100IS2_S2_Li0EEEOT_OT0_
	ldr	x0, [sp, #16]
	ldr	x1, [sp, #24]
	ldp	x29, x30, [sp, #32]             ; 16-byte Folded Reload
	add	sp, sp, #48
	ret
	.cfi_endproc
                                        ; -- End function
	.private_extern	__ZNSt3__113__unwrap_iterB8ne200100IPKyNS_18__unwrap_iter_implIS2_Lb1EEELi0EEEDTclsrT0_8__unwrapclsr3stdE7declvalIT_EEEES6_ ; -- Begin function _ZNSt3__113__unwrap_iterB8ne200100IPKyNS_18__unwrap_iter_implIS2_Lb1EEELi0EEEDTclsrT0_8__unwrapclsr3stdE7declvalIT_EEEES6_
	.globl	__ZNSt3__113__unwrap_iterB8ne200100IPKyNS_18__unwrap_iter_implIS2_Lb1EEELi0EEEDTclsrT0_8__unwrapclsr3stdE7declvalIT_EEEES6_
	.weak_definition	__ZNSt3__113__unwrap_iterB8ne200100IPKyNS_18__unwrap_iter_implIS2_Lb1EEELi0EEEDTclsrT0_8__unwrapclsr3stdE7declvalIT_EEEES6_
	.p2align	2
__ZNSt3__113__unwrap_iterB8ne200100IPKyNS_18__unwrap_iter_implIS2_Lb1EEELi0EEEDTclsrT0_8__unwrapclsr3stdE7declvalIT_EEEES6_: ; @_ZNSt3__113__unwrap_iterB8ne200100IPKyNS_18__unwrap_iter_implIS2_Lb1EEELi0EEEDTclsrT0_8__unwrapclsr3stdE7declvalIT_EEEES6_
	.cfi_startproc
; %bb.0:
	sub	sp, sp, #32
	stp	x29, x30, [sp, #16]             ; 16-byte Folded Spill
	add	x29, sp, #16
	.cfi_def_cfa w29, 16
	.cfi_offset w30, -8
	.cfi_offset w29, -16
	str	x0, [sp, #8]
	ldr	x0, [sp, #8]
	bl	__ZNSt3__118__unwrap_iter_implIPKyLb1EE8__unwrapB8ne200100ES2_
	ldp	x29, x30, [sp, #16]             ; 16-byte Folded Reload
	add	sp, sp, #32
	ret
	.cfi_endproc
                                        ; -- End function
	.globl	__ZNSt3__14pairIPKyS2_EC1B8ne200100IS2_S2_Li0EEEOT_OT0_ ; -- Begin function _ZNSt3__14pairIPKyS2_EC1B8ne200100IS2_S2_Li0EEEOT_OT0_
	.weak_def_can_be_hidden	__ZNSt3__14pairIPKyS2_EC1B8ne200100IS2_S2_Li0EEEOT_OT0_
	.p2align	2
__ZNSt3__14pairIPKyS2_EC1B8ne200100IS2_S2_Li0EEEOT_OT0_: ; @_ZNSt3__14pairIPKyS2_EC1B8ne200100IS2_S2_Li0EEEOT_OT0_
	.cfi_startproc
; %bb.0:
	sub	sp, sp, #48
	stp	x29, x30, [sp, #32]             ; 16-byte Folded Spill
	add	x29, sp, #32
	.cfi_def_cfa w29, 16
	.cfi_offset w30, -8
	.cfi_offset w29, -16
	stur	x0, [x29, #-8]
	str	x1, [sp, #16]
	str	x2, [sp, #8]
	ldur	x0, [x29, #-8]
	str	x0, [sp]                        ; 8-byte Folded Spill
	ldr	x1, [sp, #16]
	ldr	x2, [sp, #8]
	bl	__ZNSt3__14pairIPKyS2_EC2B8ne200100IS2_S2_Li0EEEOT_OT0_
	ldr	x0, [sp]                        ; 8-byte Folded Reload
	ldp	x29, x30, [sp, #32]             ; 16-byte Folded Reload
	add	sp, sp, #48
	ret
	.cfi_endproc
                                        ; -- End function
	.globl	__ZNSt3__14pairIPKyS2_EC2B8ne200100IS2_S2_Li0EEEOT_OT0_ ; -- Begin function _ZNSt3__14pairIPKyS2_EC2B8ne200100IS2_S2_Li0EEEOT_OT0_
	.weak_def_can_be_hidden	__ZNSt3__14pairIPKyS2_EC2B8ne200100IS2_S2_Li0EEEOT_OT0_
	.p2align	2
__ZNSt3__14pairIPKyS2_EC2B8ne200100IS2_S2_Li0EEEOT_OT0_: ; @_ZNSt3__14pairIPKyS2_EC2B8ne200100IS2_S2_Li0EEEOT_OT0_
	.cfi_startproc
; %bb.0:
	sub	sp, sp, #32
	.cfi_def_cfa_offset 32
	str	x0, [sp, #24]
	str	x1, [sp, #16]
	str	x2, [sp, #8]
	ldr	x0, [sp, #24]
	ldr	x8, [sp, #16]
	ldr	x8, [x8]
	str	x8, [x0]
	ldr	x8, [sp, #8]
	ldr	x8, [x8]
	str	x8, [x0, #8]
	add	sp, sp, #32
	ret
	.cfi_endproc
                                        ; -- End function
	.private_extern	__ZNSt3__118__unwrap_iter_implIPKyLb1EE8__unwrapB8ne200100ES2_ ; -- Begin function _ZNSt3__118__unwrap_iter_implIPKyLb1EE8__unwrapB8ne200100ES2_
	.globl	__ZNSt3__118__unwrap_iter_implIPKyLb1EE8__unwrapB8ne200100ES2_
	.weak_definition	__ZNSt3__118__unwrap_iter_implIPKyLb1EE8__unwrapB8ne200100ES2_
	.p2align	2
__ZNSt3__118__unwrap_iter_implIPKyLb1EE8__unwrapB8ne200100ES2_: ; @_ZNSt3__118__unwrap_iter_implIPKyLb1EE8__unwrapB8ne200100ES2_
	.cfi_startproc
; %bb.0:
	sub	sp, sp, #32
	stp	x29, x30, [sp, #16]             ; 16-byte Folded Spill
	add	x29, sp, #16
	.cfi_def_cfa w29, 16
	.cfi_offset w30, -8
	.cfi_offset w29, -16
	str	x0, [sp, #8]
	ldr	x0, [sp, #8]
	bl	__ZNSt3__112__to_addressB8ne200100IKyEEPT_S3_
	ldp	x29, x30, [sp, #16]             ; 16-byte Folded Reload
	add	sp, sp, #32
	ret
	.cfi_endproc
                                        ; -- End function
	.private_extern	__ZNSt3__112__to_addressB8ne200100IKyEEPT_S3_ ; -- Begin function _ZNSt3__112__to_addressB8ne200100IKyEEPT_S3_
	.globl	__ZNSt3__112__to_addressB8ne200100IKyEEPT_S3_
	.weak_definition	__ZNSt3__112__to_addressB8ne200100IKyEEPT_S3_
	.p2align	2
__ZNSt3__112__to_addressB8ne200100IKyEEPT_S3_: ; @_ZNSt3__112__to_addressB8ne200100IKyEEPT_S3_
	.cfi_startproc
; %bb.0:
	sub	sp, sp, #16
	.cfi_def_cfa_offset 16
	str	x0, [sp, #8]
	ldr	x0, [sp, #8]
	add	sp, sp, #16
	ret
	.cfi_endproc
                                        ; -- End function
	.private_extern	__ZNSt3__122__make_exception_guardB8ne200100INS_29_AllocatorDestroyRangeReverseINS_9allocatorIyEEPyEEEENS_28__exception_guard_exceptionsIT_EES7_ ; -- Begin function _ZNSt3__122__make_exception_guardB8ne200100INS_29_AllocatorDestroyRangeReverseINS_9allocatorIyEEPyEEEENS_28__exception_guard_exceptionsIT_EES7_
	.globl	__ZNSt3__122__make_exception_guardB8ne200100INS_29_AllocatorDestroyRangeReverseINS_9allocatorIyEEPyEEEENS_28__exception_guard_exceptionsIT_EES7_
	.weak_definition	__ZNSt3__122__make_exception_guardB8ne200100INS_29_AllocatorDestroyRangeReverseINS_9allocatorIyEEPyEEEENS_28__exception_guard_exceptionsIT_EES7_
	.p2align	2
__ZNSt3__122__make_exception_guardB8ne200100INS_29_AllocatorDestroyRangeReverseINS_9allocatorIyEEPyEEEENS_28__exception_guard_exceptionsIT_EES7_: ; @_ZNSt3__122__make_exception_guardB8ne200100INS_29_AllocatorDestroyRangeReverseINS_9allocatorIyEEPyEEEENS_28__exception_guard_exceptionsIT_EES7_
	.cfi_startproc
; %bb.0:
	sub	sp, sp, #80
	stp	x29, x30, [sp, #64]             ; 16-byte Folded Spill
	add	x29, sp, #64
	.cfi_def_cfa w29, 16
	.cfi_offset w30, -8
	.cfi_offset w29, -16
	str	x8, [sp, #8]                    ; 8-byte Folded Spill
	mov	x8, x0
	ldr	x0, [sp, #8]                    ; 8-byte Folded Reload
	mov	x9, x0
	stur	x9, [x29, #-8]
	mov	x9, x8
	stur	x9, [x29, #-16]
	ldr	q0, [x8]
	add	x1, sp, #16
	str	q0, [sp, #16]
	ldr	x8, [x8, #16]
	str	x8, [sp, #32]
	bl	__ZNSt3__128__exception_guard_exceptionsINS_29_AllocatorDestroyRangeReverseINS_9allocatorIyEEPyEEEC1B8ne200100ES5_
	ldp	x29, x30, [sp, #64]             ; 16-byte Folded Reload
	add	sp, sp, #80
	ret
	.cfi_endproc
                                        ; -- End function
	.private_extern	__ZNSt3__129_AllocatorDestroyRangeReverseINS_9allocatorIyEEPyEC1B8ne200100ERS2_RS3_S6_ ; -- Begin function _ZNSt3__129_AllocatorDestroyRangeReverseINS_9allocatorIyEEPyEC1B8ne200100ERS2_RS3_S6_
	.globl	__ZNSt3__129_AllocatorDestroyRangeReverseINS_9allocatorIyEEPyEC1B8ne200100ERS2_RS3_S6_
	.weak_def_can_be_hidden	__ZNSt3__129_AllocatorDestroyRangeReverseINS_9allocatorIyEEPyEC1B8ne200100ERS2_RS3_S6_
	.p2align	2
__ZNSt3__129_AllocatorDestroyRangeReverseINS_9allocatorIyEEPyEC1B8ne200100ERS2_RS3_S6_: ; @_ZNSt3__129_AllocatorDestroyRangeReverseINS_9allocatorIyEEPyEC1B8ne200100ERS2_RS3_S6_
	.cfi_startproc
; %bb.0:
	sub	sp, sp, #64
	stp	x29, x30, [sp, #48]             ; 16-byte Folded Spill
	add	x29, sp, #48
	.cfi_def_cfa w29, 16
	.cfi_offset w30, -8
	.cfi_offset w29, -16
	stur	x0, [x29, #-8]
	stur	x1, [x29, #-16]
	str	x2, [sp, #24]
	str	x3, [sp, #16]
	ldur	x0, [x29, #-8]
	str	x0, [sp, #8]                    ; 8-byte Folded Spill
	ldur	x1, [x29, #-16]
	ldr	x2, [sp, #24]
	ldr	x3, [sp, #16]
	bl	__ZNSt3__129_AllocatorDestroyRangeReverseINS_9allocatorIyEEPyEC2B8ne200100ERS2_RS3_S6_
	ldr	x0, [sp, #8]                    ; 8-byte Folded Reload
	ldp	x29, x30, [sp, #48]             ; 16-byte Folded Reload
	add	sp, sp, #64
	ret
	.cfi_endproc
                                        ; -- End function
	.globl	__ZNSt3__116allocator_traitsINS_9allocatorIyEEE9constructB8ne200100IyJRKyELi0EEEvRS2_PT_DpOT0_ ; -- Begin function _ZNSt3__116allocator_traitsINS_9allocatorIyEEE9constructB8ne200100IyJRKyELi0EEEvRS2_PT_DpOT0_
	.weak_definition	__ZNSt3__116allocator_traitsINS_9allocatorIyEEE9constructB8ne200100IyJRKyELi0EEEvRS2_PT_DpOT0_
	.p2align	2
__ZNSt3__116allocator_traitsINS_9allocatorIyEEE9constructB8ne200100IyJRKyELi0EEEvRS2_PT_DpOT0_: ; @_ZNSt3__116allocator_traitsINS_9allocatorIyEEE9constructB8ne200100IyJRKyELi0EEEvRS2_PT_DpOT0_
	.cfi_startproc
; %bb.0:
	sub	sp, sp, #48
	stp	x29, x30, [sp, #32]             ; 16-byte Folded Spill
	add	x29, sp, #32
	.cfi_def_cfa w29, 16
	.cfi_offset w30, -8
	.cfi_offset w29, -16
	stur	x0, [x29, #-8]
	str	x1, [sp, #16]
	str	x2, [sp, #8]
	ldur	x0, [x29, #-8]
	ldr	x1, [sp, #16]
	ldr	x2, [sp, #8]
	bl	__ZNSt3__19allocatorIyE9constructB8ne200100IyJRKyEEEvPT_DpOT0_
	ldp	x29, x30, [sp, #32]             ; 16-byte Folded Reload
	add	sp, sp, #48
	ret
	.cfi_endproc
                                        ; -- End function
	.private_extern	__ZNSt3__112__to_addressB8ne200100IyEEPT_S2_ ; -- Begin function _ZNSt3__112__to_addressB8ne200100IyEEPT_S2_
	.globl	__ZNSt3__112__to_addressB8ne200100IyEEPT_S2_
	.weak_definition	__ZNSt3__112__to_addressB8ne200100IyEEPT_S2_
	.p2align	2
__ZNSt3__112__to_addressB8ne200100IyEEPT_S2_: ; @_ZNSt3__112__to_addressB8ne200100IyEEPT_S2_
	.cfi_startproc
; %bb.0:
	sub	sp, sp, #16
	.cfi_def_cfa_offset 16
	str	x0, [sp, #8]
	ldr	x0, [sp, #8]
	add	sp, sp, #16
	ret
	.cfi_endproc
                                        ; -- End function
	.private_extern	__ZNSt3__128__exception_guard_exceptionsINS_29_AllocatorDestroyRangeReverseINS_9allocatorIyEEPyEEE10__completeB8ne200100Ev ; -- Begin function _ZNSt3__128__exception_guard_exceptionsINS_29_AllocatorDestroyRangeReverseINS_9allocatorIyEEPyEEE10__completeB8ne200100Ev
	.globl	__ZNSt3__128__exception_guard_exceptionsINS_29_AllocatorDestroyRangeReverseINS_9allocatorIyEEPyEEE10__completeB8ne200100Ev
	.weak_definition	__ZNSt3__128__exception_guard_exceptionsINS_29_AllocatorDestroyRangeReverseINS_9allocatorIyEEPyEEE10__completeB8ne200100Ev
	.p2align	2
__ZNSt3__128__exception_guard_exceptionsINS_29_AllocatorDestroyRangeReverseINS_9allocatorIyEEPyEEE10__completeB8ne200100Ev: ; @_ZNSt3__128__exception_guard_exceptionsINS_29_AllocatorDestroyRangeReverseINS_9allocatorIyEEPyEEE10__completeB8ne200100Ev
	.cfi_startproc
; %bb.0:
	sub	sp, sp, #16
	.cfi_def_cfa_offset 16
	str	x0, [sp, #8]
	ldr	x9, [sp, #8]
	mov	w8, #1                          ; =0x1
	strb	w8, [x9, #24]
	add	sp, sp, #16
	ret
	.cfi_endproc
                                        ; -- End function
	.private_extern	__ZNSt3__128__exception_guard_exceptionsINS_29_AllocatorDestroyRangeReverseINS_9allocatorIyEEPyEEED1B8ne200100Ev ; -- Begin function _ZNSt3__128__exception_guard_exceptionsINS_29_AllocatorDestroyRangeReverseINS_9allocatorIyEEPyEEED1B8ne200100Ev
	.globl	__ZNSt3__128__exception_guard_exceptionsINS_29_AllocatorDestroyRangeReverseINS_9allocatorIyEEPyEEED1B8ne200100Ev
	.weak_def_can_be_hidden	__ZNSt3__128__exception_guard_exceptionsINS_29_AllocatorDestroyRangeReverseINS_9allocatorIyEEPyEEED1B8ne200100Ev
	.p2align	2
__ZNSt3__128__exception_guard_exceptionsINS_29_AllocatorDestroyRangeReverseINS_9allocatorIyEEPyEEED1B8ne200100Ev: ; @_ZNSt3__128__exception_guard_exceptionsINS_29_AllocatorDestroyRangeReverseINS_9allocatorIyEEPyEEED1B8ne200100Ev
	.cfi_startproc
; %bb.0:
	sub	sp, sp, #32
	stp	x29, x30, [sp, #16]             ; 16-byte Folded Spill
	add	x29, sp, #16
	.cfi_def_cfa w29, 16
	.cfi_offset w30, -8
	.cfi_offset w29, -16
	str	x0, [sp, #8]
	ldr	x0, [sp, #8]
	str	x0, [sp]                        ; 8-byte Folded Spill
	bl	__ZNSt3__128__exception_guard_exceptionsINS_29_AllocatorDestroyRangeReverseINS_9allocatorIyEEPyEEED2B8ne200100Ev
	ldr	x0, [sp]                        ; 8-byte Folded Reload
	ldp	x29, x30, [sp, #16]             ; 16-byte Folded Reload
	add	sp, sp, #32
	ret
	.cfi_endproc
                                        ; -- End function
	.private_extern	__ZNSt3__128__exception_guard_exceptionsINS_29_AllocatorDestroyRangeReverseINS_9allocatorIyEEPyEEEC1B8ne200100ES5_ ; -- Begin function _ZNSt3__128__exception_guard_exceptionsINS_29_AllocatorDestroyRangeReverseINS_9allocatorIyEEPyEEEC1B8ne200100ES5_
	.globl	__ZNSt3__128__exception_guard_exceptionsINS_29_AllocatorDestroyRangeReverseINS_9allocatorIyEEPyEEEC1B8ne200100ES5_
	.weak_def_can_be_hidden	__ZNSt3__128__exception_guard_exceptionsINS_29_AllocatorDestroyRangeReverseINS_9allocatorIyEEPyEEEC1B8ne200100ES5_
	.p2align	2
__ZNSt3__128__exception_guard_exceptionsINS_29_AllocatorDestroyRangeReverseINS_9allocatorIyEEPyEEEC1B8ne200100ES5_: ; @_ZNSt3__128__exception_guard_exceptionsINS_29_AllocatorDestroyRangeReverseINS_9allocatorIyEEPyEEEC1B8ne200100ES5_
	.cfi_startproc
; %bb.0:
	sub	sp, sp, #48
	stp	x29, x30, [sp, #32]             ; 16-byte Folded Spill
	add	x29, sp, #32
	.cfi_def_cfa w29, 16
	.cfi_offset w30, -8
	.cfi_offset w29, -16
	stur	x0, [x29, #-8]
	mov	x8, x1
	str	x8, [sp, #16]
	ldur	x0, [x29, #-8]
	str	x0, [sp, #8]                    ; 8-byte Folded Spill
	bl	__ZNSt3__128__exception_guard_exceptionsINS_29_AllocatorDestroyRangeReverseINS_9allocatorIyEEPyEEEC2B8ne200100ES5_
	ldr	x0, [sp, #8]                    ; 8-byte Folded Reload
	ldp	x29, x30, [sp, #32]             ; 16-byte Folded Reload
	add	sp, sp, #48
	ret
	.cfi_endproc
                                        ; -- End function
	.private_extern	__ZNSt3__128__exception_guard_exceptionsINS_29_AllocatorDestroyRangeReverseINS_9allocatorIyEEPyEEEC2B8ne200100ES5_ ; -- Begin function _ZNSt3__128__exception_guard_exceptionsINS_29_AllocatorDestroyRangeReverseINS_9allocatorIyEEPyEEEC2B8ne200100ES5_
	.globl	__ZNSt3__128__exception_guard_exceptionsINS_29_AllocatorDestroyRangeReverseINS_9allocatorIyEEPyEEEC2B8ne200100ES5_
	.weak_def_can_be_hidden	__ZNSt3__128__exception_guard_exceptionsINS_29_AllocatorDestroyRangeReverseINS_9allocatorIyEEPyEEEC2B8ne200100ES5_
	.p2align	2
__ZNSt3__128__exception_guard_exceptionsINS_29_AllocatorDestroyRangeReverseINS_9allocatorIyEEPyEEEC2B8ne200100ES5_: ; @_ZNSt3__128__exception_guard_exceptionsINS_29_AllocatorDestroyRangeReverseINS_9allocatorIyEEPyEEEC2B8ne200100ES5_
	.cfi_startproc
; %bb.0:
	sub	sp, sp, #16
	.cfi_def_cfa_offset 16
	str	x0, [sp, #8]
	mov	x8, x1
	str	x8, [sp]
	ldr	x0, [sp, #8]
	ldr	q0, [x1]
	str	q0, [x0]
	ldr	x8, [x1, #16]
	str	x8, [x0, #16]
	strb	wzr, [x0, #24]
	add	sp, sp, #16
	ret
	.cfi_endproc
                                        ; -- End function
	.private_extern	__ZNSt3__129_AllocatorDestroyRangeReverseINS_9allocatorIyEEPyEC2B8ne200100ERS2_RS3_S6_ ; -- Begin function _ZNSt3__129_AllocatorDestroyRangeReverseINS_9allocatorIyEEPyEC2B8ne200100ERS2_RS3_S6_
	.globl	__ZNSt3__129_AllocatorDestroyRangeReverseINS_9allocatorIyEEPyEC2B8ne200100ERS2_RS3_S6_
	.weak_def_can_be_hidden	__ZNSt3__129_AllocatorDestroyRangeReverseINS_9allocatorIyEEPyEC2B8ne200100ERS2_RS3_S6_
	.p2align	2
__ZNSt3__129_AllocatorDestroyRangeReverseINS_9allocatorIyEEPyEC2B8ne200100ERS2_RS3_S6_: ; @_ZNSt3__129_AllocatorDestroyRangeReverseINS_9allocatorIyEEPyEC2B8ne200100ERS2_RS3_S6_
	.cfi_startproc
; %bb.0:
	sub	sp, sp, #32
	.cfi_def_cfa_offset 32
	str	x0, [sp, #24]
	str	x1, [sp, #16]
	str	x2, [sp, #8]
	str	x3, [sp]
	ldr	x0, [sp, #24]
	ldr	x8, [sp, #16]
	str	x8, [x0]
	ldr	x8, [sp, #8]
	str	x8, [x0, #8]
	ldr	x8, [sp]
	str	x8, [x0, #16]
	add	sp, sp, #32
	ret
	.cfi_endproc
                                        ; -- End function
	.globl	__ZNSt3__19allocatorIyE9constructB8ne200100IyJRKyEEEvPT_DpOT0_ ; -- Begin function _ZNSt3__19allocatorIyE9constructB8ne200100IyJRKyEEEvPT_DpOT0_
	.weak_definition	__ZNSt3__19allocatorIyE9constructB8ne200100IyJRKyEEEvPT_DpOT0_
	.p2align	2
__ZNSt3__19allocatorIyE9constructB8ne200100IyJRKyEEEvPT_DpOT0_: ; @_ZNSt3__19allocatorIyE9constructB8ne200100IyJRKyEEEvPT_DpOT0_
	.cfi_startproc
; %bb.0:
	sub	sp, sp, #32
	.cfi_def_cfa_offset 32
	str	x0, [sp, #24]
	str	x1, [sp, #16]
	str	x2, [sp, #8]
	ldr	x9, [sp, #16]
	ldr	x8, [sp, #8]
	ldr	x8, [x8]
	str	x8, [x9]
	add	sp, sp, #32
	ret
	.cfi_endproc
                                        ; -- End function
	.private_extern	__ZNSt3__128__exception_guard_exceptionsINS_29_AllocatorDestroyRangeReverseINS_9allocatorIyEEPyEEED2B8ne200100Ev ; -- Begin function _ZNSt3__128__exception_guard_exceptionsINS_29_AllocatorDestroyRangeReverseINS_9allocatorIyEEPyEEED2B8ne200100Ev
	.globl	__ZNSt3__128__exception_guard_exceptionsINS_29_AllocatorDestroyRangeReverseINS_9allocatorIyEEPyEEED2B8ne200100Ev
	.weak_def_can_be_hidden	__ZNSt3__128__exception_guard_exceptionsINS_29_AllocatorDestroyRangeReverseINS_9allocatorIyEEPyEEED2B8ne200100Ev
	.p2align	2
__ZNSt3__128__exception_guard_exceptionsINS_29_AllocatorDestroyRangeReverseINS_9allocatorIyEEPyEEED2B8ne200100Ev: ; @_ZNSt3__128__exception_guard_exceptionsINS_29_AllocatorDestroyRangeReverseINS_9allocatorIyEEPyEEED2B8ne200100Ev
Lfunc_begin11:
	.cfi_startproc
	.cfi_personality 155, ___gxx_personality_v0
	.cfi_lsda 16, Lexception11
; %bb.0:
	sub	sp, sp, #48
	stp	x29, x30, [sp, #32]             ; 16-byte Folded Spill
	add	x29, sp, #32
	.cfi_def_cfa w29, 16
	.cfi_offset w30, -8
	.cfi_offset w29, -16
	str	x0, [sp, #16]
	ldr	x8, [sp, #16]
	str	x8, [sp, #8]                    ; 8-byte Folded Spill
	mov	x9, x8
	stur	x9, [x29, #-8]
	ldrb	w8, [x8, #24]
	tbnz	w8, #0, LBB135_3
	b	LBB135_1
LBB135_1:
Ltmp209:
	ldr	x0, [sp, #8]                    ; 8-byte Folded Reload
	bl	__ZNKSt3__129_AllocatorDestroyRangeReverseINS_9allocatorIyEEPyEclB8ne200100Ev
Ltmp210:
	b	LBB135_2
LBB135_2:
	b	LBB135_3
LBB135_3:
	ldur	x0, [x29, #-8]
	ldp	x29, x30, [sp, #32]             ; 16-byte Folded Reload
	add	sp, sp, #48
	ret
LBB135_4:
Ltmp211:
	bl	___clang_call_terminate
Lfunc_end11:
	.cfi_endproc
	.section	__TEXT,__gcc_except_tab
	.p2align	2, 0x0
GCC_except_table135:
Lexception11:
	.byte	255                             ; @LPStart Encoding = omit
	.byte	155                             ; @TType Encoding = indirect pcrel sdata4
	.uleb128 Lttbase4-Lttbaseref4
Lttbaseref4:
	.byte	1                               ; Call site Encoding = uleb128
	.uleb128 Lcst_end11-Lcst_begin11
Lcst_begin11:
	.uleb128 Ltmp209-Lfunc_begin11          ; >> Call Site 1 <<
	.uleb128 Ltmp210-Ltmp209                ;   Call between Ltmp209 and Ltmp210
	.uleb128 Ltmp211-Lfunc_begin11          ;     jumps to Ltmp211
	.byte	1                               ;   On action: 1
Lcst_end11:
	.byte	1                               ; >> Action Record 1 <<
                                        ;   Catch TypeInfo 1
	.byte	0                               ;   No further actions
	.p2align	2, 0x0
                                        ; >> Catch TypeInfos <<
	.long	0                               ; TypeInfo 1
Lttbase4:
	.p2align	2, 0x0
                                        ; -- End function
	.section	__TEXT,__text,regular,pure_instructions
	.private_extern	__ZNKSt3__129_AllocatorDestroyRangeReverseINS_9allocatorIyEEPyEclB8ne200100Ev ; -- Begin function _ZNKSt3__129_AllocatorDestroyRangeReverseINS_9allocatorIyEEPyEclB8ne200100Ev
	.globl	__ZNKSt3__129_AllocatorDestroyRangeReverseINS_9allocatorIyEEPyEclB8ne200100Ev
	.weak_definition	__ZNKSt3__129_AllocatorDestroyRangeReverseINS_9allocatorIyEEPyEclB8ne200100Ev
	.p2align	2
__ZNKSt3__129_AllocatorDestroyRangeReverseINS_9allocatorIyEEPyEclB8ne200100Ev: ; @_ZNKSt3__129_AllocatorDestroyRangeReverseINS_9allocatorIyEEPyEclB8ne200100Ev
	.cfi_startproc
; %bb.0:
	sub	sp, sp, #80
	stp	x29, x30, [sp, #64]             ; 16-byte Folded Spill
	add	x29, sp, #64
	.cfi_def_cfa w29, 16
	.cfi_offset w30, -8
	.cfi_offset w29, -16
	stur	x0, [x29, #-8]
	ldur	x8, [x29, #-8]
	str	x8, [sp, #8]                    ; 8-byte Folded Spill
	ldr	x9, [x8]
	str	x9, [sp, #16]                   ; 8-byte Folded Spill
	ldr	x8, [x8, #16]
	ldr	x1, [x8]
	sub	x0, x29, #24
	bl	__ZNSt3__116reverse_iteratorIPyEC1B8ne200100ES1_
	ldr	x8, [sp, #8]                    ; 8-byte Folded Reload
	ldr	x8, [x8, #8]
	ldr	x1, [x8]
	add	x0, sp, #24
	bl	__ZNSt3__116reverse_iteratorIPyEC1B8ne200100ES1_
	ldr	x0, [sp, #16]                   ; 8-byte Folded Reload
	ldur	x1, [x29, #-24]
	ldur	x2, [x29, #-16]
	ldr	x3, [sp, #24]
	ldr	x4, [sp, #32]
	bl	__ZNSt3__119__allocator_destroyB8ne200100INS_9allocatorIyEENS_16reverse_iteratorIPyEES5_EEvRT_T0_T1_
	ldp	x29, x30, [sp, #64]             ; 16-byte Folded Reload
	add	sp, sp, #80
	ret
	.cfi_endproc
                                        ; -- End function
	.private_extern	__ZNSt3__119__allocator_destroyB8ne200100INS_9allocatorIyEENS_16reverse_iteratorIPyEES5_EEvRT_T0_T1_ ; -- Begin function _ZNSt3__119__allocator_destroyB8ne200100INS_9allocatorIyEENS_16reverse_iteratorIPyEES5_EEvRT_T0_T1_
	.globl	__ZNSt3__119__allocator_destroyB8ne200100INS_9allocatorIyEENS_16reverse_iteratorIPyEES5_EEvRT_T0_T1_
	.weak_definition	__ZNSt3__119__allocator_destroyB8ne200100INS_9allocatorIyEENS_16reverse_iteratorIPyEES5_EEvRT_T0_T1_
	.p2align	2
__ZNSt3__119__allocator_destroyB8ne200100INS_9allocatorIyEENS_16reverse_iteratorIPyEES5_EEvRT_T0_T1_: ; @_ZNSt3__119__allocator_destroyB8ne200100INS_9allocatorIyEENS_16reverse_iteratorIPyEES5_EEvRT_T0_T1_
	.cfi_startproc
; %bb.0:
	sub	sp, sp, #64
	stp	x29, x30, [sp, #48]             ; 16-byte Folded Spill
	add	x29, sp, #48
	.cfi_def_cfa w29, 16
	.cfi_offset w30, -8
	.cfi_offset w29, -16
	stur	x1, [x29, #-16]
	stur	x2, [x29, #-8]
	str	x3, [sp, #16]
	str	x4, [sp, #24]
	str	x0, [sp, #8]
	b	LBB137_1
LBB137_1:                               ; =>This Inner Loop Header: Depth=1
	sub	x0, x29, #16
	add	x1, sp, #16
	bl	__ZNSt3__1neB8ne200100IPyS1_EEbRKNS_16reverse_iteratorIT_EERKNS2_IT0_EE
	tbz	w0, #0, LBB137_4
	b	LBB137_2
LBB137_2:                               ;   in Loop: Header=BB137_1 Depth=1
	ldr	x8, [sp, #8]
	str	x8, [sp]                        ; 8-byte Folded Spill
	sub	x0, x29, #16
	bl	__ZNSt3__112__to_addressB8ne200100INS_16reverse_iteratorIPyEELi0EEEu7__decayIDTclsr19__to_address_helperIT_EE6__callclsr3stdE7declvalIRKS4_EEEEES6_
	mov	x1, x0
	ldr	x0, [sp]                        ; 8-byte Folded Reload
	bl	__ZNSt3__116allocator_traitsINS_9allocatorIyEEE7destroyB8ne200100IyLi0EEEvRS2_PT_
	b	LBB137_3
LBB137_3:                               ;   in Loop: Header=BB137_1 Depth=1
	sub	x0, x29, #16
	bl	__ZNSt3__116reverse_iteratorIPyEppB8ne200100Ev
	b	LBB137_1
LBB137_4:
	ldp	x29, x30, [sp, #48]             ; 16-byte Folded Reload
	add	sp, sp, #64
	ret
	.cfi_endproc
                                        ; -- End function
	.private_extern	__ZNSt3__116reverse_iteratorIPyEC1B8ne200100ES1_ ; -- Begin function _ZNSt3__116reverse_iteratorIPyEC1B8ne200100ES1_
	.globl	__ZNSt3__116reverse_iteratorIPyEC1B8ne200100ES1_
	.weak_def_can_be_hidden	__ZNSt3__116reverse_iteratorIPyEC1B8ne200100ES1_
	.p2align	2
__ZNSt3__116reverse_iteratorIPyEC1B8ne200100ES1_: ; @_ZNSt3__116reverse_iteratorIPyEC1B8ne200100ES1_
	.cfi_startproc
; %bb.0:
	sub	sp, sp, #48
	stp	x29, x30, [sp, #32]             ; 16-byte Folded Spill
	add	x29, sp, #32
	.cfi_def_cfa w29, 16
	.cfi_offset w30, -8
	.cfi_offset w29, -16
	stur	x0, [x29, #-8]
	str	x1, [sp, #16]
	ldur	x0, [x29, #-8]
	str	x0, [sp, #8]                    ; 8-byte Folded Spill
	ldr	x1, [sp, #16]
	bl	__ZNSt3__116reverse_iteratorIPyEC2B8ne200100ES1_
	ldr	x0, [sp, #8]                    ; 8-byte Folded Reload
	ldp	x29, x30, [sp, #32]             ; 16-byte Folded Reload
	add	sp, sp, #48
	ret
	.cfi_endproc
                                        ; -- End function
	.private_extern	__ZNSt3__1neB8ne200100IPyS1_EEbRKNS_16reverse_iteratorIT_EERKNS2_IT0_EE ; -- Begin function _ZNSt3__1neB8ne200100IPyS1_EEbRKNS_16reverse_iteratorIT_EERKNS2_IT0_EE
	.globl	__ZNSt3__1neB8ne200100IPyS1_EEbRKNS_16reverse_iteratorIT_EERKNS2_IT0_EE
	.weak_definition	__ZNSt3__1neB8ne200100IPyS1_EEbRKNS_16reverse_iteratorIT_EERKNS2_IT0_EE
	.p2align	2
__ZNSt3__1neB8ne200100IPyS1_EEbRKNS_16reverse_iteratorIT_EERKNS2_IT0_EE: ; @_ZNSt3__1neB8ne200100IPyS1_EEbRKNS_16reverse_iteratorIT_EERKNS2_IT0_EE
	.cfi_startproc
; %bb.0:
	sub	sp, sp, #48
	stp	x29, x30, [sp, #32]             ; 16-byte Folded Spill
	add	x29, sp, #32
	.cfi_def_cfa w29, 16
	.cfi_offset w30, -8
	.cfi_offset w29, -16
	stur	x0, [x29, #-8]
	str	x1, [sp, #16]
	ldur	x0, [x29, #-8]
	bl	__ZNKSt3__116reverse_iteratorIPyE4baseB8ne200100Ev
	str	x0, [sp, #8]                    ; 8-byte Folded Spill
	ldr	x0, [sp, #16]
	bl	__ZNKSt3__116reverse_iteratorIPyE4baseB8ne200100Ev
	mov	x8, x0
	ldr	x0, [sp, #8]                    ; 8-byte Folded Reload
	subs	x8, x0, x8
	cset	w0, ne
	ldp	x29, x30, [sp, #32]             ; 16-byte Folded Reload
	add	sp, sp, #48
	ret
	.cfi_endproc
                                        ; -- End function
	.globl	__ZNSt3__116allocator_traitsINS_9allocatorIyEEE7destroyB8ne200100IyLi0EEEvRS2_PT_ ; -- Begin function _ZNSt3__116allocator_traitsINS_9allocatorIyEEE7destroyB8ne200100IyLi0EEEvRS2_PT_
	.weak_definition	__ZNSt3__116allocator_traitsINS_9allocatorIyEEE7destroyB8ne200100IyLi0EEEvRS2_PT_
	.p2align	2
__ZNSt3__116allocator_traitsINS_9allocatorIyEEE7destroyB8ne200100IyLi0EEEvRS2_PT_: ; @_ZNSt3__116allocator_traitsINS_9allocatorIyEEE7destroyB8ne200100IyLi0EEEvRS2_PT_
	.cfi_startproc
; %bb.0:
	sub	sp, sp, #32
	stp	x29, x30, [sp, #16]             ; 16-byte Folded Spill
	add	x29, sp, #16
	.cfi_def_cfa w29, 16
	.cfi_offset w30, -8
	.cfi_offset w29, -16
	str	x0, [sp, #8]
	str	x1, [sp]
	ldr	x0, [sp, #8]
	ldr	x1, [sp]
	bl	__ZNSt3__19allocatorIyE7destroyB8ne200100EPy
	ldp	x29, x30, [sp, #16]             ; 16-byte Folded Reload
	add	sp, sp, #32
	ret
	.cfi_endproc
                                        ; -- End function
	.private_extern	__ZNSt3__112__to_addressB8ne200100INS_16reverse_iteratorIPyEELi0EEEu7__decayIDTclsr19__to_address_helperIT_EE6__callclsr3stdE7declvalIRKS4_EEEEES6_ ; -- Begin function _ZNSt3__112__to_addressB8ne200100INS_16reverse_iteratorIPyEELi0EEEu7__decayIDTclsr19__to_address_helperIT_EE6__callclsr3stdE7declvalIRKS4_EEEEES6_
	.globl	__ZNSt3__112__to_addressB8ne200100INS_16reverse_iteratorIPyEELi0EEEu7__decayIDTclsr19__to_address_helperIT_EE6__callclsr3stdE7declvalIRKS4_EEEEES6_
	.weak_definition	__ZNSt3__112__to_addressB8ne200100INS_16reverse_iteratorIPyEELi0EEEu7__decayIDTclsr19__to_address_helperIT_EE6__callclsr3stdE7declvalIRKS4_EEEEES6_
	.p2align	2
__ZNSt3__112__to_addressB8ne200100INS_16reverse_iteratorIPyEELi0EEEu7__decayIDTclsr19__to_address_helperIT_EE6__callclsr3stdE7declvalIRKS4_EEEEES6_: ; @_ZNSt3__112__to_addressB8ne200100INS_16reverse_iteratorIPyEELi0EEEu7__decayIDTclsr19__to_address_helperIT_EE6__callclsr3stdE7declvalIRKS4_EEEEES6_
	.cfi_startproc
; %bb.0:
	sub	sp, sp, #32
	stp	x29, x30, [sp, #16]             ; 16-byte Folded Spill
	add	x29, sp, #16
	.cfi_def_cfa w29, 16
	.cfi_offset w30, -8
	.cfi_offset w29, -16
	str	x0, [sp, #8]
	ldr	x0, [sp, #8]
	bl	__ZNSt3__119__to_address_helperINS_16reverse_iteratorIPyEEvE6__callB8ne200100ERKS3_
	ldp	x29, x30, [sp, #16]             ; 16-byte Folded Reload
	add	sp, sp, #32
	ret
	.cfi_endproc
                                        ; -- End function
	.private_extern	__ZNSt3__116reverse_iteratorIPyEppB8ne200100Ev ; -- Begin function _ZNSt3__116reverse_iteratorIPyEppB8ne200100Ev
	.globl	__ZNSt3__116reverse_iteratorIPyEppB8ne200100Ev
	.weak_definition	__ZNSt3__116reverse_iteratorIPyEppB8ne200100Ev
	.p2align	2
__ZNSt3__116reverse_iteratorIPyEppB8ne200100Ev: ; @_ZNSt3__116reverse_iteratorIPyEppB8ne200100Ev
	.cfi_startproc
; %bb.0:
	sub	sp, sp, #16
	.cfi_def_cfa_offset 16
	str	x0, [sp, #8]
	ldr	x0, [sp, #8]
	ldr	x8, [x0, #8]
	subs	x8, x8, #8
	str	x8, [x0, #8]
	add	sp, sp, #16
	ret
	.cfi_endproc
                                        ; -- End function
	.private_extern	__ZNKSt3__116reverse_iteratorIPyE4baseB8ne200100Ev ; -- Begin function _ZNKSt3__116reverse_iteratorIPyE4baseB8ne200100Ev
	.globl	__ZNKSt3__116reverse_iteratorIPyE4baseB8ne200100Ev
	.weak_definition	__ZNKSt3__116reverse_iteratorIPyE4baseB8ne200100Ev
	.p2align	2
__ZNKSt3__116reverse_iteratorIPyE4baseB8ne200100Ev: ; @_ZNKSt3__116reverse_iteratorIPyE4baseB8ne200100Ev
	.cfi_startproc
; %bb.0:
	sub	sp, sp, #16
	.cfi_def_cfa_offset 16
	str	x0, [sp, #8]
	ldr	x8, [sp, #8]
	ldr	x0, [x8, #8]
	add	sp, sp, #16
	ret
	.cfi_endproc
                                        ; -- End function
	.private_extern	__ZNSt3__19allocatorIyE7destroyB8ne200100EPy ; -- Begin function _ZNSt3__19allocatorIyE7destroyB8ne200100EPy
	.globl	__ZNSt3__19allocatorIyE7destroyB8ne200100EPy
	.weak_definition	__ZNSt3__19allocatorIyE7destroyB8ne200100EPy
	.p2align	2
__ZNSt3__19allocatorIyE7destroyB8ne200100EPy: ; @_ZNSt3__19allocatorIyE7destroyB8ne200100EPy
	.cfi_startproc
; %bb.0:
	sub	sp, sp, #16
	.cfi_def_cfa_offset 16
	str	x0, [sp, #8]
	str	x1, [sp]
	add	sp, sp, #16
	ret
	.cfi_endproc
                                        ; -- End function
	.private_extern	__ZNSt3__119__to_address_helperINS_16reverse_iteratorIPyEEvE6__callB8ne200100ERKS3_ ; -- Begin function _ZNSt3__119__to_address_helperINS_16reverse_iteratorIPyEEvE6__callB8ne200100ERKS3_
	.globl	__ZNSt3__119__to_address_helperINS_16reverse_iteratorIPyEEvE6__callB8ne200100ERKS3_
	.weak_definition	__ZNSt3__119__to_address_helperINS_16reverse_iteratorIPyEEvE6__callB8ne200100ERKS3_
	.p2align	2
__ZNSt3__119__to_address_helperINS_16reverse_iteratorIPyEEvE6__callB8ne200100ERKS3_: ; @_ZNSt3__119__to_address_helperINS_16reverse_iteratorIPyEEvE6__callB8ne200100ERKS3_
Lfunc_begin12:
	.cfi_startproc
	.cfi_personality 155, ___gxx_personality_v0
	.cfi_lsda 16, Lexception12
; %bb.0:
	sub	sp, sp, #32
	stp	x29, x30, [sp, #16]             ; 16-byte Folded Spill
	add	x29, sp, #16
	.cfi_def_cfa w29, 16
	.cfi_offset w30, -8
	.cfi_offset w29, -16
	str	x0, [sp, #8]
	ldr	x0, [sp, #8]
Ltmp215:
	bl	__ZNKSt3__116reverse_iteratorIPyEptB8ne200100Ev
	str	x0, [sp]                        ; 8-byte Folded Spill
Ltmp216:
	b	LBB145_1
LBB145_1:
	ldr	x0, [sp]                        ; 8-byte Folded Reload
	bl	__ZNSt3__112__to_addressB8ne200100IyEEPT_S2_
	ldp	x29, x30, [sp, #16]             ; 16-byte Folded Reload
	add	sp, sp, #32
	ret
LBB145_2:
Ltmp217:
	bl	___clang_call_terminate
Lfunc_end12:
	.cfi_endproc
	.section	__TEXT,__gcc_except_tab
	.p2align	2, 0x0
GCC_except_table145:
Lexception12:
	.byte	255                             ; @LPStart Encoding = omit
	.byte	155                             ; @TType Encoding = indirect pcrel sdata4
	.uleb128 Lttbase5-Lttbaseref5
Lttbaseref5:
	.byte	1                               ; Call site Encoding = uleb128
	.uleb128 Lcst_end12-Lcst_begin12
Lcst_begin12:
	.uleb128 Ltmp215-Lfunc_begin12          ; >> Call Site 1 <<
	.uleb128 Ltmp216-Ltmp215                ;   Call between Ltmp215 and Ltmp216
	.uleb128 Ltmp217-Lfunc_begin12          ;     jumps to Ltmp217
	.byte	1                               ;   On action: 1
Lcst_end12:
	.byte	1                               ; >> Action Record 1 <<
                                        ;   Catch TypeInfo 1
	.byte	0                               ;   No further actions
	.p2align	2, 0x0
                                        ; >> Catch TypeInfos <<
	.long	0                               ; TypeInfo 1
Lttbase5:
	.p2align	2, 0x0
                                        ; -- End function
	.section	__TEXT,__text,regular,pure_instructions
	.private_extern	__ZNKSt3__116reverse_iteratorIPyEptB8ne200100Ev ; -- Begin function _ZNKSt3__116reverse_iteratorIPyEptB8ne200100Ev
	.globl	__ZNKSt3__116reverse_iteratorIPyEptB8ne200100Ev
	.weak_definition	__ZNKSt3__116reverse_iteratorIPyEptB8ne200100Ev
	.p2align	2
__ZNKSt3__116reverse_iteratorIPyEptB8ne200100Ev: ; @_ZNKSt3__116reverse_iteratorIPyEptB8ne200100Ev
	.cfi_startproc
; %bb.0:
	sub	sp, sp, #32
	stp	x29, x30, [sp, #16]             ; 16-byte Folded Spill
	add	x29, sp, #16
	.cfi_def_cfa w29, 16
	.cfi_offset w30, -8
	.cfi_offset w29, -16
	str	x0, [sp, #8]
	ldr	x0, [sp, #8]
	bl	__ZNKSt3__116reverse_iteratorIPyEdeB8ne200100Ev
	ldp	x29, x30, [sp, #16]             ; 16-byte Folded Reload
	add	sp, sp, #32
	ret
	.cfi_endproc
                                        ; -- End function
	.private_extern	__ZNKSt3__116reverse_iteratorIPyEdeB8ne200100Ev ; -- Begin function _ZNKSt3__116reverse_iteratorIPyEdeB8ne200100Ev
	.globl	__ZNKSt3__116reverse_iteratorIPyEdeB8ne200100Ev
	.weak_definition	__ZNKSt3__116reverse_iteratorIPyEdeB8ne200100Ev
	.p2align	2
__ZNKSt3__116reverse_iteratorIPyEdeB8ne200100Ev: ; @_ZNKSt3__116reverse_iteratorIPyEdeB8ne200100Ev
	.cfi_startproc
; %bb.0:
	sub	sp, sp, #16
	.cfi_def_cfa_offset 16
	str	x0, [sp, #8]
	ldr	x8, [sp, #8]
	ldr	x8, [x8, #8]
	str	x8, [sp]
	ldr	x8, [sp]
	subs	x0, x8, #8
	str	x0, [sp]
	add	sp, sp, #16
	ret
	.cfi_endproc
                                        ; -- End function
	.private_extern	__ZNSt3__116reverse_iteratorIPyEC2B8ne200100ES1_ ; -- Begin function _ZNSt3__116reverse_iteratorIPyEC2B8ne200100ES1_
	.globl	__ZNSt3__116reverse_iteratorIPyEC2B8ne200100ES1_
	.weak_def_can_be_hidden	__ZNSt3__116reverse_iteratorIPyEC2B8ne200100ES1_
	.p2align	2
__ZNSt3__116reverse_iteratorIPyEC2B8ne200100ES1_: ; @_ZNSt3__116reverse_iteratorIPyEC2B8ne200100ES1_
	.cfi_startproc
; %bb.0:
	sub	sp, sp, #16
	.cfi_def_cfa_offset 16
	str	x0, [sp, #8]
	str	x1, [sp]
	ldr	x0, [sp, #8]
	ldr	x8, [sp]
	str	x8, [x0]
	ldr	x8, [sp]
	str	x8, [x0, #8]
	add	sp, sp, #16
	ret
	.cfi_endproc
                                        ; -- End function
	.private_extern	__ZNSt3__118__unwrap_iter_implIPyLb1EE8__unwrapB8ne200100ES1_ ; -- Begin function _ZNSt3__118__unwrap_iter_implIPyLb1EE8__unwrapB8ne200100ES1_
	.globl	__ZNSt3__118__unwrap_iter_implIPyLb1EE8__unwrapB8ne200100ES1_
	.weak_definition	__ZNSt3__118__unwrap_iter_implIPyLb1EE8__unwrapB8ne200100ES1_
	.p2align	2
__ZNSt3__118__unwrap_iter_implIPyLb1EE8__unwrapB8ne200100ES1_: ; @_ZNSt3__118__unwrap_iter_implIPyLb1EE8__unwrapB8ne200100ES1_
	.cfi_startproc
; %bb.0:
	sub	sp, sp, #32
	stp	x29, x30, [sp, #16]             ; 16-byte Folded Spill
	add	x29, sp, #16
	.cfi_def_cfa w29, 16
	.cfi_offset w30, -8
	.cfi_offset w29, -16
	str	x0, [sp, #8]
	ldr	x0, [sp, #8]
	bl	__ZNSt3__112__to_addressB8ne200100IyEEPT_S2_
	ldp	x29, x30, [sp, #16]             ; 16-byte Folded Reload
	add	sp, sp, #32
	ret
	.cfi_endproc
                                        ; -- End function
	.private_extern	__ZNSt3__118__unwrap_iter_implIPyLb1EE8__rewrapB8ne200100ES1_S1_ ; -- Begin function _ZNSt3__118__unwrap_iter_implIPyLb1EE8__rewrapB8ne200100ES1_S1_
	.globl	__ZNSt3__118__unwrap_iter_implIPyLb1EE8__rewrapB8ne200100ES1_S1_
	.weak_definition	__ZNSt3__118__unwrap_iter_implIPyLb1EE8__rewrapB8ne200100ES1_S1_
	.p2align	2
__ZNSt3__118__unwrap_iter_implIPyLb1EE8__rewrapB8ne200100ES1_S1_: ; @_ZNSt3__118__unwrap_iter_implIPyLb1EE8__rewrapB8ne200100ES1_S1_
	.cfi_startproc
; %bb.0:
	sub	sp, sp, #48
	stp	x29, x30, [sp, #32]             ; 16-byte Folded Spill
	add	x29, sp, #32
	.cfi_def_cfa w29, 16
	.cfi_offset w30, -8
	.cfi_offset w29, -16
	stur	x0, [x29, #-8]
	str	x1, [sp, #16]
	ldur	x8, [x29, #-8]
	str	x8, [sp, #8]                    ; 8-byte Folded Spill
	ldr	x8, [sp, #16]
	str	x8, [sp]                        ; 8-byte Folded Spill
	ldur	x0, [x29, #-8]
	bl	__ZNSt3__112__to_addressB8ne200100IyEEPT_S2_
	ldr	x9, [sp]                        ; 8-byte Folded Reload
	ldr	x8, [sp, #8]                    ; 8-byte Folded Reload
	subs	x9, x9, x0
	mov	x10, #8                         ; =0x8
	sdiv	x9, x9, x10
	add	x0, x8, x9, lsl #3
	ldp	x29, x30, [sp, #32]             ; 16-byte Folded Reload
	add	sp, sp, #48
	ret
	.cfi_endproc
                                        ; -- End function
	.private_extern	__ZNSt3__16vectorIyNS_9allocatorIyEEE21_ConstructTransactionD2B8ne200100Ev ; -- Begin function _ZNSt3__16vectorIyNS_9allocatorIyEEE21_ConstructTransactionD2B8ne200100Ev
	.globl	__ZNSt3__16vectorIyNS_9allocatorIyEEE21_ConstructTransactionD2B8ne200100Ev
	.weak_def_can_be_hidden	__ZNSt3__16vectorIyNS_9allocatorIyEEE21_ConstructTransactionD2B8ne200100Ev
	.p2align	2
__ZNSt3__16vectorIyNS_9allocatorIyEEE21_ConstructTransactionD2B8ne200100Ev: ; @_ZNSt3__16vectorIyNS_9allocatorIyEEE21_ConstructTransactionD2B8ne200100Ev
	.cfi_startproc
; %bb.0:
	sub	sp, sp, #16
	.cfi_def_cfa_offset 16
	str	x0, [sp, #8]
	ldr	x0, [sp, #8]
	ldr	x8, [x0, #8]
	ldr	x9, [x0]
	str	x8, [x9, #8]
	add	sp, sp, #16
	ret
	.cfi_endproc
                                        ; -- End function
	.private_extern	__ZNSt3__128__exception_guard_exceptionsINS_6vectorIyNS_9allocatorIyEEE16__destroy_vectorEED2B8ne200100Ev ; -- Begin function _ZNSt3__128__exception_guard_exceptionsINS_6vectorIyNS_9allocatorIyEEE16__destroy_vectorEED2B8ne200100Ev
	.globl	__ZNSt3__128__exception_guard_exceptionsINS_6vectorIyNS_9allocatorIyEEE16__destroy_vectorEED2B8ne200100Ev
	.weak_def_can_be_hidden	__ZNSt3__128__exception_guard_exceptionsINS_6vectorIyNS_9allocatorIyEEE16__destroy_vectorEED2B8ne200100Ev
	.p2align	2
__ZNSt3__128__exception_guard_exceptionsINS_6vectorIyNS_9allocatorIyEEE16__destroy_vectorEED2B8ne200100Ev: ; @_ZNSt3__128__exception_guard_exceptionsINS_6vectorIyNS_9allocatorIyEEE16__destroy_vectorEED2B8ne200100Ev
Lfunc_begin13:
	.cfi_startproc
	.cfi_personality 155, ___gxx_personality_v0
	.cfi_lsda 16, Lexception13
; %bb.0:
	sub	sp, sp, #48
	stp	x29, x30, [sp, #32]             ; 16-byte Folded Spill
	add	x29, sp, #32
	.cfi_def_cfa w29, 16
	.cfi_offset w30, -8
	.cfi_offset w29, -16
	str	x0, [sp, #16]
	ldr	x8, [sp, #16]
	str	x8, [sp, #8]                    ; 8-byte Folded Spill
	mov	x9, x8
	stur	x9, [x29, #-8]
	ldrb	w8, [x8, #8]
	tbnz	w8, #0, LBB152_3
	b	LBB152_1
LBB152_1:
Ltmp221:
	ldr	x0, [sp, #8]                    ; 8-byte Folded Reload
	bl	__ZNSt3__16vectorIyNS_9allocatorIyEEE16__destroy_vectorclB8ne200100Ev
Ltmp222:
	b	LBB152_2
LBB152_2:
	b	LBB152_3
LBB152_3:
	ldur	x0, [x29, #-8]
	ldp	x29, x30, [sp, #32]             ; 16-byte Folded Reload
	add	sp, sp, #48
	ret
LBB152_4:
Ltmp223:
	bl	___clang_call_terminate
Lfunc_end13:
	.cfi_endproc
	.section	__TEXT,__gcc_except_tab
	.p2align	2, 0x0
GCC_except_table152:
Lexception13:
	.byte	255                             ; @LPStart Encoding = omit
	.byte	155                             ; @TType Encoding = indirect pcrel sdata4
	.uleb128 Lttbase6-Lttbaseref6
Lttbaseref6:
	.byte	1                               ; Call site Encoding = uleb128
	.uleb128 Lcst_end13-Lcst_begin13
Lcst_begin13:
	.uleb128 Ltmp221-Lfunc_begin13          ; >> Call Site 1 <<
	.uleb128 Ltmp222-Ltmp221                ;   Call between Ltmp221 and Ltmp222
	.uleb128 Ltmp223-Lfunc_begin13          ;     jumps to Ltmp223
	.byte	1                               ;   On action: 1
Lcst_end13:
	.byte	1                               ; >> Action Record 1 <<
                                        ;   Catch TypeInfo 1
	.byte	0                               ;   No further actions
	.p2align	2, 0x0
                                        ; >> Catch TypeInfos <<
	.long	0                               ; TypeInfo 1
Lttbase6:
	.p2align	2, 0x0
                                        ; -- End function
	.section	__TEXT,__text,regular,pure_instructions
	.private_extern	__ZNSt3__16vectorIyNS_9allocatorIyEEE16__destroy_vectorclB8ne200100Ev ; -- Begin function _ZNSt3__16vectorIyNS_9allocatorIyEEE16__destroy_vectorclB8ne200100Ev
	.globl	__ZNSt3__16vectorIyNS_9allocatorIyEEE16__destroy_vectorclB8ne200100Ev
	.weak_definition	__ZNSt3__16vectorIyNS_9allocatorIyEEE16__destroy_vectorclB8ne200100Ev
	.p2align	2
__ZNSt3__16vectorIyNS_9allocatorIyEEE16__destroy_vectorclB8ne200100Ev: ; @_ZNSt3__16vectorIyNS_9allocatorIyEEE16__destroy_vectorclB8ne200100Ev
	.cfi_startproc
; %bb.0:
	sub	sp, sp, #48
	stp	x29, x30, [sp, #32]             ; 16-byte Folded Spill
	add	x29, sp, #32
	.cfi_def_cfa w29, 16
	.cfi_offset w30, -8
	.cfi_offset w29, -16
	stur	x0, [x29, #-8]
	ldur	x8, [x29, #-8]
	str	x8, [sp, #16]                   ; 8-byte Folded Spill
	ldr	x8, [x8]
	ldr	x8, [x8]
	cbz	x8, LBB153_2
	b	LBB153_1
LBB153_1:
	ldr	x8, [sp, #16]                   ; 8-byte Folded Reload
	ldr	x0, [x8]
	bl	__ZNSt3__16vectorIyNS_9allocatorIyEEE5clearB8ne200100Ev
	ldr	x8, [sp, #16]                   ; 8-byte Folded Reload
	ldr	x0, [x8]
	bl	__ZNKSt3__16vectorIyNS_9allocatorIyEEE17__annotate_deleteB8ne200100Ev
	ldr	x8, [sp, #16]                   ; 8-byte Folded Reload
	ldr	x9, [x8]
	add	x9, x9, #16
	str	x9, [sp, #8]                    ; 8-byte Folded Spill
	ldr	x9, [x8]
	ldr	x9, [x9]
	str	x9, [sp]                        ; 8-byte Folded Spill
	ldr	x0, [x8]
	bl	__ZNKSt3__16vectorIyNS_9allocatorIyEEE8capacityB8ne200100Ev
	ldr	x1, [sp]                        ; 8-byte Folded Reload
	mov	x2, x0
	ldr	x0, [sp, #8]                    ; 8-byte Folded Reload
	bl	__ZNSt3__116allocator_traitsINS_9allocatorIyEEE10deallocateB8ne200100ERS2_Pym
	b	LBB153_2
LBB153_2:
	ldp	x29, x30, [sp, #32]             ; 16-byte Folded Reload
	add	sp, sp, #48
	ret
	.cfi_endproc
                                        ; -- End function
	.private_extern	__ZNSt3__16vectorIyNS_9allocatorIyEEE5clearB8ne200100Ev ; -- Begin function _ZNSt3__16vectorIyNS_9allocatorIyEEE5clearB8ne200100Ev
	.globl	__ZNSt3__16vectorIyNS_9allocatorIyEEE5clearB8ne200100Ev
	.weak_definition	__ZNSt3__16vectorIyNS_9allocatorIyEEE5clearB8ne200100Ev
	.p2align	2
__ZNSt3__16vectorIyNS_9allocatorIyEEE5clearB8ne200100Ev: ; @_ZNSt3__16vectorIyNS_9allocatorIyEEE5clearB8ne200100Ev
	.cfi_startproc
; %bb.0:
	sub	sp, sp, #48
	stp	x29, x30, [sp, #32]             ; 16-byte Folded Spill
	add	x29, sp, #32
	.cfi_def_cfa w29, 16
	.cfi_offset w30, -8
	.cfi_offset w29, -16
	stur	x0, [x29, #-8]
	ldur	x0, [x29, #-8]
	str	x0, [sp, #8]                    ; 8-byte Folded Spill
	bl	__ZNKSt3__16vectorIyNS_9allocatorIyEEE4sizeB8ne200100Ev
	mov	x8, x0
	ldr	x0, [sp, #8]                    ; 8-byte Folded Reload
	str	x8, [sp, #16]
	ldr	x1, [x0]
	bl	__ZNSt3__16vectorIyNS_9allocatorIyEEE22__base_destruct_at_endB8ne200100EPy
	ldr	x0, [sp, #8]                    ; 8-byte Folded Reload
	ldr	x1, [sp, #16]
	bl	__ZNKSt3__16vectorIyNS_9allocatorIyEEE17__annotate_shrinkB8ne200100Em
	ldp	x29, x30, [sp, #32]             ; 16-byte Folded Reload
	add	sp, sp, #48
	ret
	.cfi_endproc
                                        ; -- End function
	.private_extern	__ZNKSt3__16vectorIyNS_9allocatorIyEEE17__annotate_deleteB8ne200100Ev ; -- Begin function _ZNKSt3__16vectorIyNS_9allocatorIyEEE17__annotate_deleteB8ne200100Ev
	.globl	__ZNKSt3__16vectorIyNS_9allocatorIyEEE17__annotate_deleteB8ne200100Ev
	.weak_definition	__ZNKSt3__16vectorIyNS_9allocatorIyEEE17__annotate_deleteB8ne200100Ev
	.p2align	2
__ZNKSt3__16vectorIyNS_9allocatorIyEEE17__annotate_deleteB8ne200100Ev: ; @_ZNKSt3__16vectorIyNS_9allocatorIyEEE17__annotate_deleteB8ne200100Ev
	.cfi_startproc
; %bb.0:
	sub	sp, sp, #16
	.cfi_def_cfa_offset 16
	str	x0, [sp, #8]
	add	sp, sp, #16
	ret
	.cfi_endproc
                                        ; -- End function
	.private_extern	__ZNSt3__116allocator_traitsINS_9allocatorIyEEE10deallocateB8ne200100ERS2_Pym ; -- Begin function _ZNSt3__116allocator_traitsINS_9allocatorIyEEE10deallocateB8ne200100ERS2_Pym
	.globl	__ZNSt3__116allocator_traitsINS_9allocatorIyEEE10deallocateB8ne200100ERS2_Pym
	.weak_definition	__ZNSt3__116allocator_traitsINS_9allocatorIyEEE10deallocateB8ne200100ERS2_Pym
	.p2align	2
__ZNSt3__116allocator_traitsINS_9allocatorIyEEE10deallocateB8ne200100ERS2_Pym: ; @_ZNSt3__116allocator_traitsINS_9allocatorIyEEE10deallocateB8ne200100ERS2_Pym
	.cfi_startproc
; %bb.0:
	sub	sp, sp, #48
	stp	x29, x30, [sp, #32]             ; 16-byte Folded Spill
	add	x29, sp, #32
	.cfi_def_cfa w29, 16
	.cfi_offset w30, -8
	.cfi_offset w29, -16
	stur	x0, [x29, #-8]
	str	x1, [sp, #16]
	str	x2, [sp, #8]
	ldur	x0, [x29, #-8]
	ldr	x1, [sp, #16]
	ldr	x2, [sp, #8]
	bl	__ZNSt3__19allocatorIyE10deallocateB8ne200100EPym
	ldp	x29, x30, [sp, #32]             ; 16-byte Folded Reload
	add	sp, sp, #48
	ret
	.cfi_endproc
                                        ; -- End function
	.private_extern	__ZNKSt3__16vectorIyNS_9allocatorIyEEE8capacityB8ne200100Ev ; -- Begin function _ZNKSt3__16vectorIyNS_9allocatorIyEEE8capacityB8ne200100Ev
	.globl	__ZNKSt3__16vectorIyNS_9allocatorIyEEE8capacityB8ne200100Ev
	.weak_definition	__ZNKSt3__16vectorIyNS_9allocatorIyEEE8capacityB8ne200100Ev
	.p2align	2
__ZNKSt3__16vectorIyNS_9allocatorIyEEE8capacityB8ne200100Ev: ; @_ZNKSt3__16vectorIyNS_9allocatorIyEEE8capacityB8ne200100Ev
	.cfi_startproc
; %bb.0:
	sub	sp, sp, #16
	.cfi_def_cfa_offset 16
	str	x0, [sp, #8]
	ldr	x9, [sp, #8]
	ldr	x8, [x9, #16]
	ldr	x9, [x9]
	subs	x8, x8, x9
	mov	x9, #8                          ; =0x8
	sdiv	x0, x8, x9
	add	sp, sp, #16
	ret
	.cfi_endproc
                                        ; -- End function
	.private_extern	__ZNKSt3__16vectorIyNS_9allocatorIyEEE4sizeB8ne200100Ev ; -- Begin function _ZNKSt3__16vectorIyNS_9allocatorIyEEE4sizeB8ne200100Ev
	.globl	__ZNKSt3__16vectorIyNS_9allocatorIyEEE4sizeB8ne200100Ev
	.weak_definition	__ZNKSt3__16vectorIyNS_9allocatorIyEEE4sizeB8ne200100Ev
	.p2align	2
__ZNKSt3__16vectorIyNS_9allocatorIyEEE4sizeB8ne200100Ev: ; @_ZNKSt3__16vectorIyNS_9allocatorIyEEE4sizeB8ne200100Ev
	.cfi_startproc
; %bb.0:
	sub	sp, sp, #16
	.cfi_def_cfa_offset 16
	str	x0, [sp, #8]
	ldr	x9, [sp, #8]
	ldr	x8, [x9, #8]
	ldr	x9, [x9]
	subs	x8, x8, x9
	mov	x9, #8                          ; =0x8
	sdiv	x0, x8, x9
	add	sp, sp, #16
	ret
	.cfi_endproc
                                        ; -- End function
	.private_extern	__ZNSt3__16vectorIyNS_9allocatorIyEEE22__base_destruct_at_endB8ne200100EPy ; -- Begin function _ZNSt3__16vectorIyNS_9allocatorIyEEE22__base_destruct_at_endB8ne200100EPy
	.globl	__ZNSt3__16vectorIyNS_9allocatorIyEEE22__base_destruct_at_endB8ne200100EPy
	.weak_definition	__ZNSt3__16vectorIyNS_9allocatorIyEEE22__base_destruct_at_endB8ne200100EPy
	.p2align	2
__ZNSt3__16vectorIyNS_9allocatorIyEEE22__base_destruct_at_endB8ne200100EPy: ; @_ZNSt3__16vectorIyNS_9allocatorIyEEE22__base_destruct_at_endB8ne200100EPy
Lfunc_begin14:
	.cfi_startproc
	.cfi_personality 155, ___gxx_personality_v0
	.cfi_lsda 16, Lexception14
; %bb.0:
	sub	sp, sp, #64
	stp	x29, x30, [sp, #48]             ; 16-byte Folded Spill
	add	x29, sp, #48
	.cfi_def_cfa w29, 16
	.cfi_offset w30, -8
	.cfi_offset w29, -16
	stur	x0, [x29, #-8]
	stur	x1, [x29, #-16]
	ldur	x8, [x29, #-8]
	str	x8, [sp, #16]                   ; 8-byte Folded Spill
	ldr	x8, [x8, #8]
	str	x8, [sp, #24]
	b	LBB159_1
LBB159_1:                               ; =>This Inner Loop Header: Depth=1
	ldur	x8, [x29, #-16]
	ldr	x9, [sp, #24]
	subs	x8, x8, x9
	b.eq	LBB159_4
	b	LBB159_2
LBB159_2:                               ;   in Loop: Header=BB159_1 Depth=1
	ldr	x8, [sp, #16]                   ; 8-byte Folded Reload
	add	x8, x8, #16
	str	x8, [sp, #8]                    ; 8-byte Folded Spill
	ldr	x8, [sp, #24]
	subs	x0, x8, #8
	str	x0, [sp, #24]
	bl	__ZNSt3__112__to_addressB8ne200100IyEEPT_S2_
	mov	x1, x0
	ldr	x0, [sp, #8]                    ; 8-byte Folded Reload
Ltmp227:
	bl	__ZNSt3__116allocator_traitsINS_9allocatorIyEEE7destroyB8ne200100IyLi0EEEvRS2_PT_
Ltmp228:
	b	LBB159_3
LBB159_3:                               ;   in Loop: Header=BB159_1 Depth=1
	b	LBB159_1
LBB159_4:
	ldr	x9, [sp, #16]                   ; 8-byte Folded Reload
	ldur	x8, [x29, #-16]
	str	x8, [x9, #8]
	ldp	x29, x30, [sp, #48]             ; 16-byte Folded Reload
	add	sp, sp, #64
	ret
LBB159_5:
Ltmp229:
	bl	___clang_call_terminate
Lfunc_end14:
	.cfi_endproc
	.section	__TEXT,__gcc_except_tab
	.p2align	2, 0x0
GCC_except_table159:
Lexception14:
	.byte	255                             ; @LPStart Encoding = omit
	.byte	155                             ; @TType Encoding = indirect pcrel sdata4
	.uleb128 Lttbase7-Lttbaseref7
Lttbaseref7:
	.byte	1                               ; Call site Encoding = uleb128
	.uleb128 Lcst_end14-Lcst_begin14
Lcst_begin14:
	.uleb128 Ltmp227-Lfunc_begin14          ; >> Call Site 1 <<
	.uleb128 Ltmp228-Ltmp227                ;   Call between Ltmp227 and Ltmp228
	.uleb128 Ltmp229-Lfunc_begin14          ;     jumps to Ltmp229
	.byte	1                               ;   On action: 1
Lcst_end14:
	.byte	1                               ; >> Action Record 1 <<
                                        ;   Catch TypeInfo 1
	.byte	0                               ;   No further actions
	.p2align	2, 0x0
                                        ; >> Catch TypeInfos <<
	.long	0                               ; TypeInfo 1
Lttbase7:
	.p2align	2, 0x0
                                        ; -- End function
	.section	__TEXT,__text,regular,pure_instructions
	.private_extern	__ZNKSt3__16vectorIyNS_9allocatorIyEEE17__annotate_shrinkB8ne200100Em ; -- Begin function _ZNKSt3__16vectorIyNS_9allocatorIyEEE17__annotate_shrinkB8ne200100Em
	.globl	__ZNKSt3__16vectorIyNS_9allocatorIyEEE17__annotate_shrinkB8ne200100Em
	.weak_definition	__ZNKSt3__16vectorIyNS_9allocatorIyEEE17__annotate_shrinkB8ne200100Em
	.p2align	2
__ZNKSt3__16vectorIyNS_9allocatorIyEEE17__annotate_shrinkB8ne200100Em: ; @_ZNKSt3__16vectorIyNS_9allocatorIyEEE17__annotate_shrinkB8ne200100Em
	.cfi_startproc
; %bb.0:
	sub	sp, sp, #16
	.cfi_def_cfa_offset 16
	str	x0, [sp, #8]
	str	x1, [sp]
	add	sp, sp, #16
	ret
	.cfi_endproc
                                        ; -- End function
	.private_extern	__ZNSt3__19allocatorIyE10deallocateB8ne200100EPym ; -- Begin function _ZNSt3__19allocatorIyE10deallocateB8ne200100EPym
	.globl	__ZNSt3__19allocatorIyE10deallocateB8ne200100EPym
	.weak_definition	__ZNSt3__19allocatorIyE10deallocateB8ne200100EPym
	.p2align	2
__ZNSt3__19allocatorIyE10deallocateB8ne200100EPym: ; @_ZNSt3__19allocatorIyE10deallocateB8ne200100EPym
	.cfi_startproc
; %bb.0:
	sub	sp, sp, #48
	stp	x29, x30, [sp, #32]             ; 16-byte Folded Spill
	add	x29, sp, #32
	.cfi_def_cfa w29, 16
	.cfi_offset w30, -8
	.cfi_offset w29, -16
	stur	x0, [x29, #-8]
	str	x1, [sp, #16]
	str	x2, [sp, #8]
	ldr	x0, [sp, #16]
	ldr	x1, [sp, #8]
	mov	x2, #8                          ; =0x8
	bl	__ZNSt3__119__libcpp_deallocateB8ne200100IyEEvPNS_15__type_identityIT_E4typeENS_15__element_countEm
	ldp	x29, x30, [sp, #32]             ; 16-byte Folded Reload
	add	sp, sp, #48
	ret
	.cfi_endproc
                                        ; -- End function
	.private_extern	__ZNSt3__119__libcpp_deallocateB8ne200100IyEEvPNS_15__type_identityIT_E4typeENS_15__element_countEm ; -- Begin function _ZNSt3__119__libcpp_deallocateB8ne200100IyEEvPNS_15__type_identityIT_E4typeENS_15__element_countEm
	.globl	__ZNSt3__119__libcpp_deallocateB8ne200100IyEEvPNS_15__type_identityIT_E4typeENS_15__element_countEm
	.weak_definition	__ZNSt3__119__libcpp_deallocateB8ne200100IyEEvPNS_15__type_identityIT_E4typeENS_15__element_countEm
	.p2align	2
__ZNSt3__119__libcpp_deallocateB8ne200100IyEEvPNS_15__type_identityIT_E4typeENS_15__element_countEm: ; @_ZNSt3__119__libcpp_deallocateB8ne200100IyEEvPNS_15__type_identityIT_E4typeENS_15__element_countEm
	.cfi_startproc
; %bb.0:
	sub	sp, sp, #48
	stp	x29, x30, [sp, #32]             ; 16-byte Folded Spill
	add	x29, sp, #32
	.cfi_def_cfa w29, 16
	.cfi_offset w30, -8
	.cfi_offset w29, -16
	stur	x0, [x29, #-8]
	str	x1, [sp, #16]
	str	x2, [sp, #8]
	ldr	x8, [sp, #16]
	lsl	x8, x8, #3
	str	x8, [sp]
	ldur	x0, [x29, #-8]
	bl	__ZNSt3__124__libcpp_operator_deleteB8ne200100IJPyEEEvDpT_
	ldp	x29, x30, [sp, #32]             ; 16-byte Folded Reload
	add	sp, sp, #48
	ret
	.cfi_endproc
                                        ; -- End function
	.private_extern	__ZNSt3__124__libcpp_operator_deleteB8ne200100IJPyEEEvDpT_ ; -- Begin function _ZNSt3__124__libcpp_operator_deleteB8ne200100IJPyEEEvDpT_
	.globl	__ZNSt3__124__libcpp_operator_deleteB8ne200100IJPyEEEvDpT_
	.weak_definition	__ZNSt3__124__libcpp_operator_deleteB8ne200100IJPyEEEvDpT_
	.p2align	2
__ZNSt3__124__libcpp_operator_deleteB8ne200100IJPyEEEvDpT_: ; @_ZNSt3__124__libcpp_operator_deleteB8ne200100IJPyEEEvDpT_
	.cfi_startproc
; %bb.0:
	sub	sp, sp, #32
	stp	x29, x30, [sp, #16]             ; 16-byte Folded Spill
	add	x29, sp, #16
	.cfi_def_cfa w29, 16
	.cfi_offset w30, -8
	.cfi_offset w29, -16
	str	x0, [sp, #8]
	ldr	x0, [sp, #8]
	bl	__ZdlPv
	ldp	x29, x30, [sp, #16]             ; 16-byte Folded Reload
	add	sp, sp, #32
	ret
	.cfi_endproc
                                        ; -- End function
	.private_extern	__ZNSt3__16vectorIyNS_9allocatorIyEEED2B8ne200100Ev ; -- Begin function _ZNSt3__16vectorIyNS_9allocatorIyEEED2B8ne200100Ev
	.globl	__ZNSt3__16vectorIyNS_9allocatorIyEEED2B8ne200100Ev
	.weak_def_can_be_hidden	__ZNSt3__16vectorIyNS_9allocatorIyEEED2B8ne200100Ev
	.p2align	2
__ZNSt3__16vectorIyNS_9allocatorIyEEED2B8ne200100Ev: ; @_ZNSt3__16vectorIyNS_9allocatorIyEEED2B8ne200100Ev
Lfunc_begin15:
	.cfi_startproc
	.cfi_personality 155, ___gxx_personality_v0
	.cfi_lsda 16, Lexception15
; %bb.0:
	sub	sp, sp, #48
	stp	x29, x30, [sp, #32]             ; 16-byte Folded Spill
	add	x29, sp, #32
	.cfi_def_cfa w29, 16
	.cfi_offset w30, -8
	.cfi_offset w29, -16
	stur	x0, [x29, #-8]
	ldur	x1, [x29, #-8]
	str	x1, [sp, #8]                    ; 8-byte Folded Spill
Ltmp231:
	add	x0, sp, #16
	bl	__ZNSt3__16vectorIyNS_9allocatorIyEEE16__destroy_vectorC1B8ne200100ERS3_
Ltmp232:
	b	LBB164_1
LBB164_1:
	add	x0, sp, #16
	bl	__ZNSt3__16vectorIyNS_9allocatorIyEEE16__destroy_vectorclB8ne200100Ev
	ldr	x0, [sp, #8]                    ; 8-byte Folded Reload
	ldp	x29, x30, [sp, #32]             ; 16-byte Folded Reload
	add	sp, sp, #48
	ret
LBB164_2:
Ltmp233:
	bl	___clang_call_terminate
Lfunc_end15:
	.cfi_endproc
	.section	__TEXT,__gcc_except_tab
	.p2align	2, 0x0
GCC_except_table164:
Lexception15:
	.byte	255                             ; @LPStart Encoding = omit
	.byte	155                             ; @TType Encoding = indirect pcrel sdata4
	.uleb128 Lttbase8-Lttbaseref8
Lttbaseref8:
	.byte	1                               ; Call site Encoding = uleb128
	.uleb128 Lcst_end15-Lcst_begin15
Lcst_begin15:
	.uleb128 Ltmp231-Lfunc_begin15          ; >> Call Site 1 <<
	.uleb128 Ltmp232-Ltmp231                ;   Call between Ltmp231 and Ltmp232
	.uleb128 Ltmp233-Lfunc_begin15          ;     jumps to Ltmp233
	.byte	1                               ;   On action: 1
Lcst_end15:
	.byte	1                               ; >> Action Record 1 <<
                                        ;   Catch TypeInfo 1
	.byte	0                               ;   No further actions
	.p2align	2, 0x0
                                        ; >> Catch TypeInfos <<
	.long	0                               ; TypeInfo 1
Lttbase8:
	.p2align	2, 0x0
                                        ; -- End function
	.section	__TEXT,__text,regular,pure_instructions
	.private_extern	__ZNSt3__18ios_base9precisionB8ne200100El ; -- Begin function _ZNSt3__18ios_base9precisionB8ne200100El
	.globl	__ZNSt3__18ios_base9precisionB8ne200100El
	.weak_definition	__ZNSt3__18ios_base9precisionB8ne200100El
	.p2align	2
__ZNSt3__18ios_base9precisionB8ne200100El: ; @_ZNSt3__18ios_base9precisionB8ne200100El
	.cfi_startproc
; %bb.0:
	sub	sp, sp, #32
	.cfi_def_cfa_offset 32
	str	x0, [sp, #24]
	str	x1, [sp, #16]
	ldr	x9, [sp, #24]
	ldr	x8, [x9, #16]
	str	x8, [sp, #8]
	ldr	x8, [sp, #16]
	str	x8, [x9, #16]
	ldr	x0, [sp, #8]
	add	sp, sp, #32
	ret
	.cfi_endproc
                                        ; -- End function
	.private_extern	__ZNSt3__16vectorIyNS_9allocatorIyEEE11__make_iterB8ne200100EPy ; -- Begin function _ZNSt3__16vectorIyNS_9allocatorIyEEE11__make_iterB8ne200100EPy
	.globl	__ZNSt3__16vectorIyNS_9allocatorIyEEE11__make_iterB8ne200100EPy
	.weak_definition	__ZNSt3__16vectorIyNS_9allocatorIyEEE11__make_iterB8ne200100EPy
	.p2align	2
__ZNSt3__16vectorIyNS_9allocatorIyEEE11__make_iterB8ne200100EPy: ; @_ZNSt3__16vectorIyNS_9allocatorIyEEE11__make_iterB8ne200100EPy
	.cfi_startproc
; %bb.0:
	sub	sp, sp, #48
	stp	x29, x30, [sp, #32]             ; 16-byte Folded Spill
	add	x29, sp, #32
	.cfi_def_cfa w29, 16
	.cfi_offset w30, -8
	.cfi_offset w29, -16
	str	x0, [sp, #16]
	str	x1, [sp, #8]
	ldr	x1, [sp, #8]
	sub	x0, x29, #8
	bl	__ZNSt3__111__wrap_iterIPyEC1B8ne200100ES1_
	ldur	x0, [x29, #-8]
	ldp	x29, x30, [sp, #32]             ; 16-byte Folded Reload
	add	sp, sp, #48
	ret
	.cfi_endproc
                                        ; -- End function
	.globl	__ZNSt3__16vectorIyNS_9allocatorIyEEE26__add_alignment_assumptionB8ne200100IPyLi0EEES5_T_ ; -- Begin function _ZNSt3__16vectorIyNS_9allocatorIyEEE26__add_alignment_assumptionB8ne200100IPyLi0EEES5_T_
	.weak_definition	__ZNSt3__16vectorIyNS_9allocatorIyEEE26__add_alignment_assumptionB8ne200100IPyLi0EEES5_T_
	.p2align	2
__ZNSt3__16vectorIyNS_9allocatorIyEEE26__add_alignment_assumptionB8ne200100IPyLi0EEES5_T_: ; @_ZNSt3__16vectorIyNS_9allocatorIyEEE26__add_alignment_assumptionB8ne200100IPyLi0EEES5_T_
	.cfi_startproc
; %bb.0:
	sub	sp, sp, #16
	.cfi_def_cfa_offset 16
	str	x0, [sp, #8]
	ldr	x0, [sp, #8]
	add	sp, sp, #16
	ret
	.cfi_endproc
                                        ; -- End function
	.private_extern	__ZNSt3__111__wrap_iterIPyEC1B8ne200100ES1_ ; -- Begin function _ZNSt3__111__wrap_iterIPyEC1B8ne200100ES1_
	.globl	__ZNSt3__111__wrap_iterIPyEC1B8ne200100ES1_
	.weak_def_can_be_hidden	__ZNSt3__111__wrap_iterIPyEC1B8ne200100ES1_
	.p2align	2
__ZNSt3__111__wrap_iterIPyEC1B8ne200100ES1_: ; @_ZNSt3__111__wrap_iterIPyEC1B8ne200100ES1_
	.cfi_startproc
; %bb.0:
	sub	sp, sp, #48
	stp	x29, x30, [sp, #32]             ; 16-byte Folded Spill
	add	x29, sp, #32
	.cfi_def_cfa w29, 16
	.cfi_offset w30, -8
	.cfi_offset w29, -16
	stur	x0, [x29, #-8]
	str	x1, [sp, #16]
	ldur	x0, [x29, #-8]
	str	x0, [sp, #8]                    ; 8-byte Folded Spill
	ldr	x1, [sp, #16]
	bl	__ZNSt3__111__wrap_iterIPyEC2B8ne200100ES1_
	ldr	x0, [sp, #8]                    ; 8-byte Folded Reload
	ldp	x29, x30, [sp, #32]             ; 16-byte Folded Reload
	add	sp, sp, #48
	ret
	.cfi_endproc
                                        ; -- End function
	.private_extern	__ZNSt3__111__wrap_iterIPyEC2B8ne200100ES1_ ; -- Begin function _ZNSt3__111__wrap_iterIPyEC2B8ne200100ES1_
	.globl	__ZNSt3__111__wrap_iterIPyEC2B8ne200100ES1_
	.weak_def_can_be_hidden	__ZNSt3__111__wrap_iterIPyEC2B8ne200100ES1_
	.p2align	2
__ZNSt3__111__wrap_iterIPyEC2B8ne200100ES1_: ; @_ZNSt3__111__wrap_iterIPyEC2B8ne200100ES1_
	.cfi_startproc
; %bb.0:
	sub	sp, sp, #16
	.cfi_def_cfa_offset 16
	str	x0, [sp, #8]
	str	x1, [sp]
	ldr	x0, [sp, #8]
	ldr	x8, [sp]
	str	x8, [x0]
	add	sp, sp, #16
	ret
	.cfi_endproc
                                        ; -- End function
	.p2align	2                               ; -- Begin function _ZZ4mainENK3$_0clEx
__ZZ4mainENK3$_0clEx:                   ; @"_ZZ4mainENK3$_0clEx"
	.cfi_startproc
; %bb.0:
	sub	sp, sp, #64
	stp	x29, x30, [sp, #48]             ; 16-byte Folded Spill
	add	x29, sp, #48
	.cfi_def_cfa w29, 16
	.cfi_offset w30, -8
	.cfi_offset w29, -16
	stur	x0, [x29, #-8]
	stur	x1, [x29, #-16]
	ldur	x8, [x29, #-8]
	str	x8, [sp, #8]                    ; 8-byte Folded Spill
	ldr	x8, [x8]
	ldr	x8, [x8]
	str	x8, [sp, #24]
	str	xzr, [sp, #16]
	b	LBB170_1
LBB170_1:                               ; =>This Inner Loop Header: Depth=1
	ldr	x8, [sp, #16]
	ldur	x9, [x29, #-16]
	subs	x8, x8, x9
	b.ge	LBB170_4
	b	LBB170_2
LBB170_2:                               ;   in Loop: Header=BB170_1 Depth=1
	ldr	x8, [sp, #8]                    ; 8-byte Folded Reload
	ldr	x0, [sp, #24]
	ldr	x9, [x8, #8]
	ldr	x1, [x9]
	ldr	x8, [x8, #16]
	ldr	x2, [x8]
	bl	__Z14classic_modaddyyy
	str	x0, [sp, #24]
	b	LBB170_3
LBB170_3:                               ;   in Loop: Header=BB170_1 Depth=1
	ldr	x8, [sp, #16]
	add	x8, x8, #1
	str	x8, [sp, #16]
	b	LBB170_1
LBB170_4:
	ldr	x8, [sp, #24]
	adrp	x9, __ZL6g_sink@PAGE
	str	x8, [x9, __ZL6g_sink@PAGEOFF]
	ldp	x29, x30, [sp, #48]             ; 16-byte Folded Reload
	add	sp, sp, #64
	ret
	.cfi_endproc
                                        ; -- End function
	.private_extern	__ZNSt3__16chronomiB8ne200100INS0_12steady_clockENS0_8durationIxNS_5ratioILl1ELl1000000000EEEEES6_EENS_11common_typeIJT0_T1_EE4typeERKNS0_10time_pointIT_S8_EERKNSC_ISD_S9_EE ; -- Begin function _ZNSt3__16chronomiB8ne200100INS0_12steady_clockENS0_8durationIxNS_5ratioILl1ELl1000000000EEEEES6_EENS_11common_typeIJT0_T1_EE4typeERKNS0_10time_pointIT_S8_EERKNSC_ISD_S9_EE
	.globl	__ZNSt3__16chronomiB8ne200100INS0_12steady_clockENS0_8durationIxNS_5ratioILl1ELl1000000000EEEEES6_EENS_11common_typeIJT0_T1_EE4typeERKNS0_10time_pointIT_S8_EERKNSC_ISD_S9_EE
	.weak_definition	__ZNSt3__16chronomiB8ne200100INS0_12steady_clockENS0_8durationIxNS_5ratioILl1ELl1000000000EEEEES6_EENS_11common_typeIJT0_T1_EE4typeERKNS0_10time_pointIT_S8_EERKNSC_ISD_S9_EE
	.p2align	2
__ZNSt3__16chronomiB8ne200100INS0_12steady_clockENS0_8durationIxNS_5ratioILl1ELl1000000000EEEEES6_EENS_11common_typeIJT0_T1_EE4typeERKNS0_10time_pointIT_S8_EERKNSC_ISD_S9_EE: ; @_ZNSt3__16chronomiB8ne200100INS0_12steady_clockENS0_8durationIxNS_5ratioILl1ELl1000000000EEEEES6_EENS_11common_typeIJT0_T1_EE4typeERKNS0_10time_pointIT_S8_EERKNSC_ISD_S9_EE
	.cfi_startproc
; %bb.0:
	sub	sp, sp, #64
	stp	x29, x30, [sp, #48]             ; 16-byte Folded Spill
	add	x29, sp, #48
	.cfi_def_cfa w29, 16
	.cfi_offset w30, -8
	.cfi_offset w29, -16
	stur	x0, [x29, #-16]
	str	x1, [sp, #24]
	ldur	x0, [x29, #-16]
	bl	__ZNKSt3__16chrono10time_pointINS0_12steady_clockENS0_8durationIxNS_5ratioILl1ELl1000000000EEEEEE16time_since_epochB8ne200100Ev
	add	x8, sp, #16
	str	x8, [sp]                        ; 8-byte Folded Spill
	str	x0, [sp, #16]
	ldr	x0, [sp, #24]
	bl	__ZNKSt3__16chrono10time_pointINS0_12steady_clockENS0_8durationIxNS_5ratioILl1ELl1000000000EEEEEE16time_since_epochB8ne200100Ev
	mov	x8, x0
	ldr	x0, [sp]                        ; 8-byte Folded Reload
	add	x1, sp, #8
	str	x8, [sp, #8]
	bl	__ZNSt3__16chronomiB8ne200100IxNS_5ratioILl1ELl1000000000EEExS3_EENS_11common_typeIJNS0_8durationIT_T0_EENS5_IT1_T2_EEEE4typeERKS8_RKSB_
	stur	x0, [x29, #-8]
	ldur	x0, [x29, #-8]
	ldp	x29, x30, [sp, #48]             ; 16-byte Folded Reload
	add	sp, sp, #64
	ret
	.cfi_endproc
                                        ; -- End function
	.globl	__ZNSt3__16chrono8durationIdNS_5ratioILl1ELl1EEEEC1B8ne200100IxNS2_ILl1ELl1000000000EEELi0EEERKNS1_IT_T0_EE ; -- Begin function _ZNSt3__16chrono8durationIdNS_5ratioILl1ELl1EEEEC1B8ne200100IxNS2_ILl1ELl1000000000EEELi0EEERKNS1_IT_T0_EE
	.weak_def_can_be_hidden	__ZNSt3__16chrono8durationIdNS_5ratioILl1ELl1EEEEC1B8ne200100IxNS2_ILl1ELl1000000000EEELi0EEERKNS1_IT_T0_EE
	.p2align	2
__ZNSt3__16chrono8durationIdNS_5ratioILl1ELl1EEEEC1B8ne200100IxNS2_ILl1ELl1000000000EEELi0EEERKNS1_IT_T0_EE: ; @_ZNSt3__16chrono8durationIdNS_5ratioILl1ELl1EEEEC1B8ne200100IxNS2_ILl1ELl1000000000EEELi0EEERKNS1_IT_T0_EE
	.cfi_startproc
; %bb.0:
	sub	sp, sp, #48
	stp	x29, x30, [sp, #32]             ; 16-byte Folded Spill
	add	x29, sp, #32
	.cfi_def_cfa w29, 16
	.cfi_offset w30, -8
	.cfi_offset w29, -16
	stur	x0, [x29, #-8]
	str	x1, [sp, #16]
	ldur	x0, [x29, #-8]
	str	x0, [sp, #8]                    ; 8-byte Folded Spill
	ldr	x1, [sp, #16]
	bl	__ZNSt3__16chrono8durationIdNS_5ratioILl1ELl1EEEEC2B8ne200100IxNS2_ILl1ELl1000000000EEELi0EEERKNS1_IT_T0_EE
	ldr	x0, [sp, #8]                    ; 8-byte Folded Reload
	ldp	x29, x30, [sp, #32]             ; 16-byte Folded Reload
	add	sp, sp, #48
	ret
	.cfi_endproc
                                        ; -- End function
	.private_extern	__ZNKSt3__16chrono8durationIdNS_5ratioILl1ELl1EEEE5countB8ne200100Ev ; -- Begin function _ZNKSt3__16chrono8durationIdNS_5ratioILl1ELl1EEEE5countB8ne200100Ev
	.globl	__ZNKSt3__16chrono8durationIdNS_5ratioILl1ELl1EEEE5countB8ne200100Ev
	.weak_definition	__ZNKSt3__16chrono8durationIdNS_5ratioILl1ELl1EEEE5countB8ne200100Ev
	.p2align	2
__ZNKSt3__16chrono8durationIdNS_5ratioILl1ELl1EEEE5countB8ne200100Ev: ; @_ZNKSt3__16chrono8durationIdNS_5ratioILl1ELl1EEEE5countB8ne200100Ev
	.cfi_startproc
; %bb.0:
	sub	sp, sp, #16
	.cfi_def_cfa_offset 16
	str	x0, [sp, #8]
	ldr	x8, [sp, #8]
	ldr	d0, [x8]
	add	sp, sp, #16
	ret
	.cfi_endproc
                                        ; -- End function
	.private_extern	__ZNSt3__16chronomiB8ne200100IxNS_5ratioILl1ELl1000000000EEExS3_EENS_11common_typeIJNS0_8durationIT_T0_EENS5_IT1_T2_EEEE4typeERKS8_RKSB_ ; -- Begin function _ZNSt3__16chronomiB8ne200100IxNS_5ratioILl1ELl1000000000EEExS3_EENS_11common_typeIJNS0_8durationIT_T0_EENS5_IT1_T2_EEEE4typeERKS8_RKSB_
	.globl	__ZNSt3__16chronomiB8ne200100IxNS_5ratioILl1ELl1000000000EEExS3_EENS_11common_typeIJNS0_8durationIT_T0_EENS5_IT1_T2_EEEE4typeERKS8_RKSB_
	.weak_definition	__ZNSt3__16chronomiB8ne200100IxNS_5ratioILl1ELl1000000000EEExS3_EENS_11common_typeIJNS0_8durationIT_T0_EENS5_IT1_T2_EEEE4typeERKS8_RKSB_
	.p2align	2
__ZNSt3__16chronomiB8ne200100IxNS_5ratioILl1ELl1000000000EEExS3_EENS_11common_typeIJNS0_8durationIT_T0_EENS5_IT1_T2_EEEE4typeERKS8_RKSB_: ; @_ZNSt3__16chronomiB8ne200100IxNS_5ratioILl1ELl1000000000EEExS3_EENS_11common_typeIJNS0_8durationIT_T0_EENS5_IT1_T2_EEEE4typeERKS8_RKSB_
	.cfi_startproc
; %bb.0:
	sub	sp, sp, #80
	stp	x29, x30, [sp, #64]             ; 16-byte Folded Spill
	add	x29, sp, #64
	.cfi_def_cfa w29, 16
	.cfi_offset w30, -8
	.cfi_offset w29, -16
	stur	x0, [x29, #-16]
	stur	x1, [x29, #-24]
	ldur	x8, [x29, #-16]
	ldr	x8, [x8]
	add	x0, sp, #24
	str	x8, [sp, #24]
	bl	__ZNKSt3__16chrono8durationIxNS_5ratioILl1ELl1000000000EEEE5countB8ne200100Ev
	str	x0, [sp, #8]                    ; 8-byte Folded Spill
	ldur	x8, [x29, #-24]
	ldr	x8, [x8]
	add	x0, sp, #16
	str	x8, [sp, #16]
	bl	__ZNKSt3__16chrono8durationIxNS_5ratioILl1ELl1000000000EEEE5countB8ne200100Ev
	mov	x8, x0
	ldr	x0, [sp, #8]                    ; 8-byte Folded Reload
	subs	x8, x0, x8
	add	x1, sp, #32
	str	x8, [sp, #32]
	sub	x0, x29, #8
	bl	__ZNSt3__16chrono8durationIxNS_5ratioILl1ELl1000000000EEEEC1B8ne200100IxLi0EEERKT_
	ldur	x0, [x29, #-8]
	ldp	x29, x30, [sp, #64]             ; 16-byte Folded Reload
	add	sp, sp, #80
	ret
	.cfi_endproc
                                        ; -- End function
	.private_extern	__ZNKSt3__16chrono10time_pointINS0_12steady_clockENS0_8durationIxNS_5ratioILl1ELl1000000000EEEEEE16time_since_epochB8ne200100Ev ; -- Begin function _ZNKSt3__16chrono10time_pointINS0_12steady_clockENS0_8durationIxNS_5ratioILl1ELl1000000000EEEEEE16time_since_epochB8ne200100Ev
	.globl	__ZNKSt3__16chrono10time_pointINS0_12steady_clockENS0_8durationIxNS_5ratioILl1ELl1000000000EEEEEE16time_since_epochB8ne200100Ev
	.weak_definition	__ZNKSt3__16chrono10time_pointINS0_12steady_clockENS0_8durationIxNS_5ratioILl1ELl1000000000EEEEEE16time_since_epochB8ne200100Ev
	.p2align	2
__ZNKSt3__16chrono10time_pointINS0_12steady_clockENS0_8durationIxNS_5ratioILl1ELl1000000000EEEEEE16time_since_epochB8ne200100Ev: ; @_ZNKSt3__16chrono10time_pointINS0_12steady_clockENS0_8durationIxNS_5ratioILl1ELl1000000000EEEEEE16time_since_epochB8ne200100Ev
	.cfi_startproc
; %bb.0:
	sub	sp, sp, #16
	.cfi_def_cfa_offset 16
	str	x0, [sp]
	ldr	x8, [sp]
	ldr	x8, [x8]
	str	x8, [sp, #8]
	ldr	x0, [sp, #8]
	add	sp, sp, #16
	ret
	.cfi_endproc
                                        ; -- End function
	.private_extern	__ZNKSt3__16chrono8durationIxNS_5ratioILl1ELl1000000000EEEE5countB8ne200100Ev ; -- Begin function _ZNKSt3__16chrono8durationIxNS_5ratioILl1ELl1000000000EEEE5countB8ne200100Ev
	.globl	__ZNKSt3__16chrono8durationIxNS_5ratioILl1ELl1000000000EEEE5countB8ne200100Ev
	.weak_definition	__ZNKSt3__16chrono8durationIxNS_5ratioILl1ELl1000000000EEEE5countB8ne200100Ev
	.p2align	2
__ZNKSt3__16chrono8durationIxNS_5ratioILl1ELl1000000000EEEE5countB8ne200100Ev: ; @_ZNKSt3__16chrono8durationIxNS_5ratioILl1ELl1000000000EEEE5countB8ne200100Ev
	.cfi_startproc
; %bb.0:
	sub	sp, sp, #16
	.cfi_def_cfa_offset 16
	str	x0, [sp, #8]
	ldr	x8, [sp, #8]
	ldr	x0, [x8]
	add	sp, sp, #16
	ret
	.cfi_endproc
                                        ; -- End function
	.globl	__ZNSt3__16chrono8durationIxNS_5ratioILl1ELl1000000000EEEEC1B8ne200100IxLi0EEERKT_ ; -- Begin function _ZNSt3__16chrono8durationIxNS_5ratioILl1ELl1000000000EEEEC1B8ne200100IxLi0EEERKT_
	.weak_def_can_be_hidden	__ZNSt3__16chrono8durationIxNS_5ratioILl1ELl1000000000EEEEC1B8ne200100IxLi0EEERKT_
	.p2align	2
__ZNSt3__16chrono8durationIxNS_5ratioILl1ELl1000000000EEEEC1B8ne200100IxLi0EEERKT_: ; @_ZNSt3__16chrono8durationIxNS_5ratioILl1ELl1000000000EEEEC1B8ne200100IxLi0EEERKT_
	.cfi_startproc
; %bb.0:
	sub	sp, sp, #48
	stp	x29, x30, [sp, #32]             ; 16-byte Folded Spill
	add	x29, sp, #32
	.cfi_def_cfa w29, 16
	.cfi_offset w30, -8
	.cfi_offset w29, -16
	stur	x0, [x29, #-8]
	str	x1, [sp, #16]
	ldur	x0, [x29, #-8]
	str	x0, [sp, #8]                    ; 8-byte Folded Spill
	ldr	x1, [sp, #16]
	bl	__ZNSt3__16chrono8durationIxNS_5ratioILl1ELl1000000000EEEEC2B8ne200100IxLi0EEERKT_
	ldr	x0, [sp, #8]                    ; 8-byte Folded Reload
	ldp	x29, x30, [sp, #32]             ; 16-byte Folded Reload
	add	sp, sp, #48
	ret
	.cfi_endproc
                                        ; -- End function
	.globl	__ZNSt3__16chrono8durationIxNS_5ratioILl1ELl1000000000EEEEC2B8ne200100IxLi0EEERKT_ ; -- Begin function _ZNSt3__16chrono8durationIxNS_5ratioILl1ELl1000000000EEEEC2B8ne200100IxLi0EEERKT_
	.weak_def_can_be_hidden	__ZNSt3__16chrono8durationIxNS_5ratioILl1ELl1000000000EEEEC2B8ne200100IxLi0EEERKT_
	.p2align	2
__ZNSt3__16chrono8durationIxNS_5ratioILl1ELl1000000000EEEEC2B8ne200100IxLi0EEERKT_: ; @_ZNSt3__16chrono8durationIxNS_5ratioILl1ELl1000000000EEEEC2B8ne200100IxLi0EEERKT_
	.cfi_startproc
; %bb.0:
	sub	sp, sp, #16
	.cfi_def_cfa_offset 16
	str	x0, [sp, #8]
	str	x1, [sp]
	ldr	x0, [sp, #8]
	ldr	x8, [sp]
	ldr	x8, [x8]
	str	x8, [x0]
	add	sp, sp, #16
	ret
	.cfi_endproc
                                        ; -- End function
	.globl	__ZNSt3__16chrono8durationIdNS_5ratioILl1ELl1EEEEC2B8ne200100IxNS2_ILl1ELl1000000000EEELi0EEERKNS1_IT_T0_EE ; -- Begin function _ZNSt3__16chrono8durationIdNS_5ratioILl1ELl1EEEEC2B8ne200100IxNS2_ILl1ELl1000000000EEELi0EEERKNS1_IT_T0_EE
	.weak_def_can_be_hidden	__ZNSt3__16chrono8durationIdNS_5ratioILl1ELl1EEEEC2B8ne200100IxNS2_ILl1ELl1000000000EEELi0EEERKNS1_IT_T0_EE
	.p2align	2
__ZNSt3__16chrono8durationIdNS_5ratioILl1ELl1EEEEC2B8ne200100IxNS2_ILl1ELl1000000000EEELi0EEERKNS1_IT_T0_EE: ; @_ZNSt3__16chrono8durationIdNS_5ratioILl1ELl1EEEEC2B8ne200100IxNS2_ILl1ELl1000000000EEELi0EEERKNS1_IT_T0_EE
	.cfi_startproc
; %bb.0:
	sub	sp, sp, #48
	stp	x29, x30, [sp, #32]             ; 16-byte Folded Spill
	add	x29, sp, #32
	.cfi_def_cfa w29, 16
	.cfi_offset w30, -8
	.cfi_offset w29, -16
	stur	x0, [x29, #-8]
	str	x1, [sp, #16]
	ldur	x8, [x29, #-8]
	str	x8, [sp]                        ; 8-byte Folded Spill
	ldr	x0, [sp, #16]
	bl	__ZNSt3__16chrono13duration_castB8ne200100INS0_8durationIdNS_5ratioILl1ELl1EEEEExNS3_ILl1ELl1000000000EEELi0EEET_RKNS2_IT0_T1_EE
	add	x0, sp, #8
	str	d0, [sp, #8]
	bl	__ZNKSt3__16chrono8durationIdNS_5ratioILl1ELl1EEEE5countB8ne200100Ev
	ldr	x0, [sp]                        ; 8-byte Folded Reload
	str	d0, [x0]
	ldp	x29, x30, [sp, #32]             ; 16-byte Folded Reload
	add	sp, sp, #48
	ret
	.cfi_endproc
                                        ; -- End function
	.private_extern	__ZNSt3__16chrono13duration_castB8ne200100INS0_8durationIdNS_5ratioILl1ELl1EEEEExNS3_ILl1ELl1000000000EEELi0EEET_RKNS2_IT0_T1_EE ; -- Begin function _ZNSt3__16chrono13duration_castB8ne200100INS0_8durationIdNS_5ratioILl1ELl1EEEEExNS3_ILl1ELl1000000000EEELi0EEET_RKNS2_IT0_T1_EE
	.globl	__ZNSt3__16chrono13duration_castB8ne200100INS0_8durationIdNS_5ratioILl1ELl1EEEEExNS3_ILl1ELl1000000000EEELi0EEET_RKNS2_IT0_T1_EE
	.weak_definition	__ZNSt3__16chrono13duration_castB8ne200100INS0_8durationIdNS_5ratioILl1ELl1EEEEExNS3_ILl1ELl1000000000EEELi0EEET_RKNS2_IT0_T1_EE
	.p2align	2
__ZNSt3__16chrono13duration_castB8ne200100INS0_8durationIdNS_5ratioILl1ELl1EEEEExNS3_ILl1ELl1000000000EEELi0EEET_RKNS2_IT0_T1_EE: ; @_ZNSt3__16chrono13duration_castB8ne200100INS0_8durationIdNS_5ratioILl1ELl1EEEEExNS3_ILl1ELl1000000000EEELi0EEET_RKNS2_IT0_T1_EE
	.cfi_startproc
; %bb.0:
	sub	sp, sp, #48
	stp	x29, x30, [sp, #32]             ; 16-byte Folded Spill
	add	x29, sp, #32
	.cfi_def_cfa w29, 16
	.cfi_offset w30, -8
	.cfi_offset w29, -16
	str	x0, [sp, #16]
	ldr	x1, [sp, #16]
	add	x0, sp, #15
	bl	__ZNKSt3__16chrono15__duration_castINS0_8durationIxNS_5ratioILl1ELl1000000000EEEEENS2_IdNS3_ILl1ELl1EEEEES4_Lb1ELb0EEclB8ne200100ERKS5_
	stur	d0, [x29, #-8]
	ldur	d0, [x29, #-8]
	ldp	x29, x30, [sp, #32]             ; 16-byte Folded Reload
	add	sp, sp, #48
	ret
	.cfi_endproc
                                        ; -- End function
	.private_extern	__ZNKSt3__16chrono15__duration_castINS0_8durationIxNS_5ratioILl1ELl1000000000EEEEENS2_IdNS3_ILl1ELl1EEEEES4_Lb1ELb0EEclB8ne200100ERKS5_ ; -- Begin function _ZNKSt3__16chrono15__duration_castINS0_8durationIxNS_5ratioILl1ELl1000000000EEEEENS2_IdNS3_ILl1ELl1EEEEES4_Lb1ELb0EEclB8ne200100ERKS5_
	.globl	__ZNKSt3__16chrono15__duration_castINS0_8durationIxNS_5ratioILl1ELl1000000000EEEEENS2_IdNS3_ILl1ELl1EEEEES4_Lb1ELb0EEclB8ne200100ERKS5_
	.weak_definition	__ZNKSt3__16chrono15__duration_castINS0_8durationIxNS_5ratioILl1ELl1000000000EEEEENS2_IdNS3_ILl1ELl1EEEEES4_Lb1ELb0EEclB8ne200100ERKS5_
	.p2align	2
__ZNKSt3__16chrono15__duration_castINS0_8durationIxNS_5ratioILl1ELl1000000000EEEEENS2_IdNS3_ILl1ELl1EEEEES4_Lb1ELb0EEclB8ne200100ERKS5_: ; @_ZNKSt3__16chrono15__duration_castINS0_8durationIxNS_5ratioILl1ELl1000000000EEEEENS2_IdNS3_ILl1ELl1EEEEES4_Lb1ELb0EEclB8ne200100ERKS5_
	.cfi_startproc
; %bb.0:
	sub	sp, sp, #48
	stp	x29, x30, [sp, #32]             ; 16-byte Folded Spill
	add	x29, sp, #32
	.cfi_def_cfa w29, 16
	.cfi_offset w30, -8
	.cfi_offset w29, -16
	str	x0, [sp, #16]
	str	x1, [sp, #8]
	ldr	x0, [sp, #8]
	bl	__ZNKSt3__16chrono8durationIxNS_5ratioILl1ELl1000000000EEEE5countB8ne200100Ev
	scvtf	d0, x0
	mov	x8, #225833675390976            ; =0xcd6500000000
	movk	x8, #16845, lsl #48
	fmov	d1, x8
	fdiv	d0, d0, d1
	mov	x1, sp
	str	d0, [sp]
	sub	x0, x29, #8
	bl	__ZNSt3__16chrono8durationIdNS_5ratioILl1ELl1EEEEC1B8ne200100IdLi0EEERKT_
	ldur	d0, [x29, #-8]
	ldp	x29, x30, [sp, #32]             ; 16-byte Folded Reload
	add	sp, sp, #48
	ret
	.cfi_endproc
                                        ; -- End function
	.globl	__ZNSt3__16chrono8durationIdNS_5ratioILl1ELl1EEEEC1B8ne200100IdLi0EEERKT_ ; -- Begin function _ZNSt3__16chrono8durationIdNS_5ratioILl1ELl1EEEEC1B8ne200100IdLi0EEERKT_
	.weak_def_can_be_hidden	__ZNSt3__16chrono8durationIdNS_5ratioILl1ELl1EEEEC1B8ne200100IdLi0EEERKT_
	.p2align	2
__ZNSt3__16chrono8durationIdNS_5ratioILl1ELl1EEEEC1B8ne200100IdLi0EEERKT_: ; @_ZNSt3__16chrono8durationIdNS_5ratioILl1ELl1EEEEC1B8ne200100IdLi0EEERKT_
	.cfi_startproc
; %bb.0:
	sub	sp, sp, #48
	stp	x29, x30, [sp, #32]             ; 16-byte Folded Spill
	add	x29, sp, #32
	.cfi_def_cfa w29, 16
	.cfi_offset w30, -8
	.cfi_offset w29, -16
	stur	x0, [x29, #-8]
	str	x1, [sp, #16]
	ldur	x0, [x29, #-8]
	str	x0, [sp, #8]                    ; 8-byte Folded Spill
	ldr	x1, [sp, #16]
	bl	__ZNSt3__16chrono8durationIdNS_5ratioILl1ELl1EEEEC2B8ne200100IdLi0EEERKT_
	ldr	x0, [sp, #8]                    ; 8-byte Folded Reload
	ldp	x29, x30, [sp, #32]             ; 16-byte Folded Reload
	add	sp, sp, #48
	ret
	.cfi_endproc
                                        ; -- End function
	.globl	__ZNSt3__16chrono8durationIdNS_5ratioILl1ELl1EEEEC2B8ne200100IdLi0EEERKT_ ; -- Begin function _ZNSt3__16chrono8durationIdNS_5ratioILl1ELl1EEEEC2B8ne200100IdLi0EEERKT_
	.weak_def_can_be_hidden	__ZNSt3__16chrono8durationIdNS_5ratioILl1ELl1EEEEC2B8ne200100IdLi0EEERKT_
	.p2align	2
__ZNSt3__16chrono8durationIdNS_5ratioILl1ELl1EEEEC2B8ne200100IdLi0EEERKT_: ; @_ZNSt3__16chrono8durationIdNS_5ratioILl1ELl1EEEEC2B8ne200100IdLi0EEERKT_
	.cfi_startproc
; %bb.0:
	sub	sp, sp, #16
	.cfi_def_cfa_offset 16
	str	x0, [sp, #8]
	str	x1, [sp]
	ldr	x0, [sp, #8]
	ldr	x8, [sp]
	ldr	d0, [x8]
	str	d0, [x0]
	add	sp, sp, #16
	ret
	.cfi_endproc
                                        ; -- End function
	.p2align	2                               ; -- Begin function _ZZ4mainENK3$_1clEx
__ZZ4mainENK3$_1clEx:                   ; @"_ZZ4mainENK3$_1clEx"
	.cfi_startproc
; %bb.0:
	sub	sp, sp, #64
	stp	x29, x30, [sp, #48]             ; 16-byte Folded Spill
	add	x29, sp, #48
	.cfi_def_cfa w29, 16
	.cfi_offset w30, -8
	.cfi_offset w29, -16
	stur	x0, [x29, #-8]
	stur	x1, [x29, #-16]
	ldur	x8, [x29, #-8]
	str	x8, [sp, #8]                    ; 8-byte Folded Spill
	ldr	x8, [x8]
	ldr	x8, [x8]
	str	x8, [sp, #24]
	str	xzr, [sp, #16]
	b	LBB184_1
LBB184_1:                               ; =>This Inner Loop Header: Depth=1
	ldr	x8, [sp, #16]
	ldur	x9, [x29, #-16]
	subs	x8, x8, x9
	b.ge	LBB184_4
	b	LBB184_2
LBB184_2:                               ;   in Loop: Header=BB184_1 Depth=1
	ldr	x8, [sp, #8]                    ; 8-byte Folded Reload
	ldr	x0, [sp, #24]
	ldr	x9, [x8, #8]
	ldr	x1, [x9]
	ldr	x8, [x8, #16]
	ldr	x2, [x8]
	bl	__Z12reist_modaddxxx
	str	x0, [sp, #24]
	b	LBB184_3
LBB184_3:                               ;   in Loop: Header=BB184_1 Depth=1
	ldr	x8, [sp, #16]
	add	x8, x8, #1
	str	x8, [sp, #16]
	b	LBB184_1
LBB184_4:
	ldr	x8, [sp, #24]
	tbnz	x8, #63, LBB184_6
	b	LBB184_5
LBB184_5:
	ldr	x8, [sp, #24]
	str	x8, [sp]                        ; 8-byte Folded Spill
	b	LBB184_7
LBB184_6:
	ldr	x9, [sp, #8]                    ; 8-byte Folded Reload
	ldr	x8, [sp, #24]
	ldr	x9, [x9, #16]
	ldr	x9, [x9]
	add	x8, x8, x9
	str	x8, [sp]                        ; 8-byte Folded Spill
	b	LBB184_7
LBB184_7:
	ldr	x8, [sp]                        ; 8-byte Folded Reload
	adrp	x9, __ZL6g_sink@PAGE
	str	x8, [x9, __ZL6g_sink@PAGEOFF]
	ldp	x29, x30, [sp, #48]             ; 16-byte Folded Reload
	add	sp, sp, #64
	ret
	.cfi_endproc
                                        ; -- End function
	.p2align	2                               ; -- Begin function _ZZ4mainENK3$_2clEx
__ZZ4mainENK3$_2clEx:                   ; @"_ZZ4mainENK3$_2clEx"
	.cfi_startproc
; %bb.0:
	sub	sp, sp, #64
	stp	x29, x30, [sp, #48]             ; 16-byte Folded Spill
	add	x29, sp, #48
	.cfi_def_cfa w29, 16
	.cfi_offset w30, -8
	.cfi_offset w29, -16
	stur	x0, [x29, #-8]
	stur	x1, [x29, #-16]
	ldur	x8, [x29, #-8]
	str	x8, [sp, #8]                    ; 8-byte Folded Spill
	ldr	x8, [x8]
	ldr	x8, [x8]
	str	x8, [sp, #24]
	str	xzr, [sp, #16]
	b	LBB185_1
LBB185_1:                               ; =>This Inner Loop Header: Depth=1
	ldr	x8, [sp, #16]
	ldur	x9, [x29, #-16]
	subs	x8, x8, x9
	b.ge	LBB185_4
	b	LBB185_2
LBB185_2:                               ;   in Loop: Header=BB185_1 Depth=1
	ldr	x8, [sp, #8]                    ; 8-byte Folded Reload
	ldr	x0, [x8, #8]
	ldr	x1, [sp, #24]
	ldr	x8, [x8, #16]
	ldr	x2, [x8]
	bl	__ZNK17MontgomeryContext14montgomery_addEyy
	str	x0, [sp, #24]
	b	LBB185_3
LBB185_3:                               ;   in Loop: Header=BB185_1 Depth=1
	ldr	x8, [sp, #16]
	add	x8, x8, #1
	str	x8, [sp, #16]
	b	LBB185_1
LBB185_4:
	ldr	x8, [sp, #8]                    ; 8-byte Folded Reload
	ldr	x0, [x8, #8]
	ldr	x1, [sp, #24]
