	.section	__TEXT,__text,regular,pure_instructions
	.build_version macos, 26, 0	sdk_version 26, 2
	.globl	_main                           ; -- Begin function main
	.p2align	2
_main:                                  ; @main
Lfunc_begin0:
	.cfi_startproc
	.cfi_personality 155, ___gxx_personality_v0
	.cfi_lsda 16, Lexception0
; %bb.0:
	stp	x28, x27, [sp, #-32]!           ; 16-byte Folded Spill
	stp	x29, x30, [sp, #16]             ; 16-byte Folded Spill
	add	x29, sp, #16
	sub	sp, sp, #704
	.cfi_def_cfa w29, 16
	.cfi_offset w30, -8
	.cfi_offset w29, -16
	.cfi_offset w27, -24
	.cfi_offset w28, -32
	mov	x8, #38528                      ; =0x9680
	movk	x8, #152, lsl #16
	str	x8, [sp, #256]                  ; 8-byte Folded Spill
	mov	x9, #54919                      ; =0xd687
	movk	x9, #18, lsl #16
	str	x9, [sp, #264]                  ; 8-byte Folded Spill
	mov	x9, #39043                      ; =0x9883
	movk	x9, #13, lsl #16
	str	x9, [sp, #272]                  ; 8-byte Folded Spill
	adrp	x9, ___stack_chk_guard@GOTPAGE
	ldr	x9, [x9, ___stack_chk_guard@GOTPAGEOFF]
	ldr	x9, [x9]
	stur	x9, [x29, #-24]
	stur	wzr, [x29, #-68]
	stur	x8, [x29, #-80]
	sub	x0, x29, #64
	str	x0, [sp, #280]                  ; 8-byte Folded Spill
	mov	x2, #40                         ; =0x28
	adrp	x1, l_constinit@PAGE
	add	x1, x1, l_constinit@PAGEOFF
	bl	_memcpy
	ldr	x8, [sp, #280]                  ; 8-byte Folded Reload
	stur	x8, [x29, #-120]
	mov	x8, #5                          ; =0x5
	stur	x8, [x29, #-112]
	ldur	x1, [x29, #-120]
	ldur	x2, [x29, #-112]
Ltmp0:
	sub	x0, x29, #104
	bl	__ZNSt3__16vectorIxNS_9allocatorIxEEEC1B8ne200100ESt16initializer_listIxE
Ltmp1:
	b	LBB0_1
LBB0_1:
Ltmp3:
	adrp	x0, __ZNSt3__14coutE@GOTPAGE
	ldr	x0, [x0, __ZNSt3__14coutE@GOTPAGEOFF]
	adrp	x1, __ZNSt3__15fixedB8ne200100ERNS_8ios_baseE@PAGE
	add	x1, x1, __ZNSt3__15fixedB8ne200100ERNS_8ios_baseE@PAGEOFF
	bl	__ZNSt3__113basic_ostreamIcNS_11char_traitsIcEEElsB8ne200100EPFRNS_8ios_baseES5_E
	str	x0, [sp, #248]                  ; 8-byte Folded Spill
Ltmp4:
	b	LBB0_2
LBB0_2:
Ltmp5:
	mov	w0, #6                          ; =0x6
	bl	__ZNSt3__112setprecisionB8ne200100Ei
	str	w0, [sp, #244]                  ; 4-byte Folded Spill
Ltmp6:
	b	LBB0_3
LBB0_3:
	ldr	x0, [sp, #248]                  ; 8-byte Folded Reload
	ldr	w8, [sp, #244]                  ; 4-byte Folded Reload
	sub	x1, x29, #136
	stur	w8, [x29, #-136]
Ltmp7:
	bl	__ZNSt3__1lsB8ne200100IcNS_11char_traitsIcEEEERNS_13basic_ostreamIT_T0_EES7_RKNS_8__iom_t5E
Ltmp8:
	b	LBB0_4
LBB0_4:
Ltmp9:
	adrp	x0, __ZNSt3__14coutE@GOTPAGE
	ldr	x0, [x0, __ZNSt3__14coutE@GOTPAGEOFF]
	adrp	x1, l_.str@PAGE
	add	x1, x1, l_.str@PAGEOFF
	bl	__ZNSt3__1lsB8ne200100INS_11char_traitsIcEEEERNS_13basic_ostreamIcT_EES6_PKc
Ltmp10:
	b	LBB0_5
LBB0_5:
Ltmp11:
	adrp	x0, __ZNSt3__14coutE@GOTPAGE
	ldr	x0, [x0, __ZNSt3__14coutE@GOTPAGEOFF]
	adrp	x1, l_.str.1@PAGE
	add	x1, x1, l_.str.1@PAGEOFF
	bl	__ZNSt3__1lsB8ne200100INS_11char_traitsIcEEEERNS_13basic_ostreamIcT_EES6_PKc
Ltmp12:
	b	LBB0_6
LBB0_6:
Ltmp13:
	adrp	x0, __ZNSt3__14coutE@GOTPAGE
	ldr	x0, [x0, __ZNSt3__14coutE@GOTPAGEOFF]
	adrp	x1, l_.str@PAGE
	add	x1, x1, l_.str@PAGEOFF
	bl	__ZNSt3__1lsB8ne200100INS_11char_traitsIcEEEERNS_13basic_ostreamIcT_EES6_PKc
Ltmp14:
	b	LBB0_7
LBB0_7:
Ltmp15:
	adrp	x0, __ZNSt3__14coutE@GOTPAGE
	ldr	x0, [x0, __ZNSt3__14coutE@GOTPAGEOFF]
	adrp	x1, l_.str.2@PAGE
	add	x1, x1, l_.str.2@PAGEOFF
	bl	__ZNSt3__1lsB8ne200100INS_11char_traitsIcEEEERNS_13basic_ostreamIcT_EES6_PKc
	str	x0, [sp, #232]                  ; 8-byte Folded Spill
Ltmp16:
	b	LBB0_8
LBB0_8:
Ltmp17:
	ldr	x1, [sp, #256]                  ; 8-byte Folded Reload
	ldr	x0, [sp, #232]                  ; 8-byte Folded Reload
	bl	__ZNSt3__113basic_ostreamIcNS_11char_traitsIcEEElsEx
	str	x0, [sp, #224]                  ; 8-byte Folded Spill
Ltmp18:
	b	LBB0_9
LBB0_9:
Ltmp19:
	ldr	x0, [sp, #224]                  ; 8-byte Folded Reload
	adrp	x1, l_.str.3@PAGE
	add	x1, x1, l_.str.3@PAGEOFF
	bl	__ZNSt3__1lsB8ne200100INS_11char_traitsIcEEEERNS_13basic_ostreamIcT_EES6_PKc
Ltmp20:
	b	LBB0_10
LBB0_10:
	sub	x8, x29, #104
	stur	x8, [x29, #-144]
	ldur	x0, [x29, #-144]
	bl	__ZNSt3__16vectorIxNS_9allocatorIxEEE5beginB8ne200100Ev
	stur	x0, [x29, #-152]
	ldur	x0, [x29, #-144]
	bl	__ZNSt3__16vectorIxNS_9allocatorIxEEE3endB8ne200100Ev
	stur	x0, [x29, #-160]
	b	LBB0_11
LBB0_11:                                ; =>This Inner Loop Header: Depth=1
	sub	x0, x29, #152
	sub	x1, x29, #160
	bl	__ZNSt3__1neB8ne200100IPxEEbRKNS_11__wrap_iterIT_EES6_
	tbz	w0, #0, LBB0_55
	b	LBB0_12
LBB0_12:                                ;   in Loop: Header=BB0_11 Depth=1
	sub	x0, x29, #152
	bl	__ZNKSt3__111__wrap_iterIPxEdeB8ne200100Ev
	ldr	x8, [x0]
	stur	x8, [x29, #-168]
Ltmp21:
	adrp	x0, __ZNSt3__14coutE@GOTPAGE
	ldr	x0, [x0, __ZNSt3__14coutE@GOTPAGEOFF]
	adrp	x1, l_.str.4@PAGE
	add	x1, x1, l_.str.4@PAGEOFF
	bl	__ZNSt3__1lsB8ne200100INS_11char_traitsIcEEEERNS_13basic_ostreamIcT_EES6_PKc
Ltmp22:
	b	LBB0_13
LBB0_13:                                ;   in Loop: Header=BB0_11 Depth=1
Ltmp23:
	adrp	x0, __ZNSt3__14coutE@GOTPAGE
	ldr	x0, [x0, __ZNSt3__14coutE@GOTPAGEOFF]
	adrp	x1, l_.str.5@PAGE
	add	x1, x1, l_.str.5@PAGEOFF
	bl	__ZNSt3__1lsB8ne200100INS_11char_traitsIcEEEERNS_13basic_ostreamIcT_EES6_PKc
	str	x0, [sp, #216]                  ; 8-byte Folded Spill
Ltmp24:
	b	LBB0_14
LBB0_14:                                ;   in Loop: Header=BB0_11 Depth=1
	ldr	x0, [sp, #216]                  ; 8-byte Folded Reload
	ldur	x1, [x29, #-168]
Ltmp25:
	bl	__ZNSt3__113basic_ostreamIcNS_11char_traitsIcEEElsEx
	str	x0, [sp, #208]                  ; 8-byte Folded Spill
Ltmp26:
	b	LBB0_15
LBB0_15:                                ;   in Loop: Header=BB0_11 Depth=1
Ltmp27:
	ldr	x0, [sp, #208]                  ; 8-byte Folded Reload
	adrp	x1, l_.str.6@PAGE
	add	x1, x1, l_.str.6@PAGEOFF
	bl	__ZNSt3__1lsB8ne200100INS_11char_traitsIcEEEERNS_13basic_ostreamIcT_EES6_PKc
Ltmp28:
	b	LBB0_16
LBB0_16:                                ;   in Loop: Header=BB0_11 Depth=1
Ltmp29:
	adrp	x0, __ZNSt3__14coutE@GOTPAGE
	ldr	x0, [x0, __ZNSt3__14coutE@GOTPAGEOFF]
	adrp	x1, l_.str.4@PAGE
	add	x1, x1, l_.str.4@PAGEOFF
	bl	__ZNSt3__1lsB8ne200100INS_11char_traitsIcEEEERNS_13basic_ostreamIcT_EES6_PKc
Ltmp30:
	b	LBB0_17
LBB0_17:                                ;   in Loop: Header=BB0_11 Depth=1
	ldr	x0, [sp, #264]                  ; 8-byte Folded Reload
	ldr	x8, [sp, #272]                  ; 8-byte Folded Reload
	ldur	x10, [x29, #-168]
	sdiv	x9, x0, x10
	mul	x9, x9, x10
	subs	x9, x0, x9
	stur	x9, [x29, #-176]
	ldur	x10, [x29, #-168]
	sdiv	x9, x8, x10
	mul	x9, x9, x10
	subs	x8, x8, x9
	stur	x8, [x29, #-184]
	ldur	x1, [x29, #-168]
Ltmp31:
	bl	__Z8center64xx
	str	x0, [sp, #200]                  ; 8-byte Folded Spill
Ltmp32:
	b	LBB0_18
LBB0_18:                                ;   in Loop: Header=BB0_11 Depth=1
	ldr	x0, [sp, #272]                  ; 8-byte Folded Reload
	ldr	x8, [sp, #200]                  ; 8-byte Folded Reload
	stur	x8, [x29, #-192]
	ldur	x1, [x29, #-168]
Ltmp33:
	bl	__Z8center64xx
	str	x0, [sp, #192]                  ; 8-byte Folded Spill
Ltmp34:
	b	LBB0_19
LBB0_19:                                ;   in Loop: Header=BB0_11 Depth=1
	ldr	x8, [sp, #264]                  ; 8-byte Folded Reload
	ldr	x9, [sp, #192]                  ; 8-byte Folded Reload
	stur	x9, [x29, #-200]
	ldur	x9, [x29, #-168]
                                        ; kill: def $w9 killed $w9 killed $x9
	stur	w9, [x29, #-204]
	ldur	x10, [x29, #-168]
	sdiv	x9, x8, x10
	mul	x9, x9, x10
	subs	x8, x8, x9
	mov	x0, x8
	ldur	w1, [x29, #-204]
Ltmp35:
	bl	__Z8center32ii
	str	w0, [sp, #188]                  ; 4-byte Folded Spill
Ltmp36:
	b	LBB0_20
LBB0_20:                                ;   in Loop: Header=BB0_11 Depth=1
	ldr	x8, [sp, #272]                  ; 8-byte Folded Reload
	ldr	w9, [sp, #188]                  ; 4-byte Folded Reload
	stur	w9, [x29, #-208]
	ldur	x10, [x29, #-168]
	sdiv	x9, x8, x10
	mul	x9, x9, x10
	subs	x8, x8, x9
	mov	x0, x8
	ldur	w1, [x29, #-204]
Ltmp37:
	bl	__Z8center32ii
	str	w0, [sp, #184]                  ; 4-byte Folded Spill
Ltmp38:
	b	LBB0_21
LBB0_21:                                ;   in Loop: Header=BB0_11 Depth=1
	ldr	w8, [sp, #184]                  ; 4-byte Folded Reload
	stur	w8, [x29, #-212]
	stur	xzr, [x29, #-224]
	ldur	x1, [x29, #-168]
Ltmp39:
	sub	x0, x29, #256
	bl	__ZN14BarretReistCtxC1Ex
Ltmp40:
	b	LBB0_22
LBB0_22:                                ;   in Loop: Header=BB0_11 Depth=1
	ldur	w1, [x29, #-204]
Ltmp41:
	add	x0, sp, #448
	bl	__ZN16BarretReistCtx32C1Ei
Ltmp42:
	b	LBB0_23
LBB0_23:                                ;   in Loop: Header=BB0_11 Depth=1
	ldr	x1, [sp, #256]                  ; 8-byte Folded Reload
	add	x0, sp, #408
	sub	x8, x29, #176
	str	x8, [sp, #408]
	sub	x8, x29, #184
	str	x8, [sp, #416]
	sub	x8, x29, #168
	str	x8, [sp, #424]
	sub	x8, x29, #224
	str	x8, [sp, #432]
Ltmp43:
	bl	__Z9time_loopIZ4mainE3$_0EdOT_x
	str	d0, [sp, #176]                  ; 8-byte Folded Spill
Ltmp44:
	b	LBB0_24
LBB0_24:                                ;   in Loop: Header=BB0_11 Depth=1
	ldr	x1, [sp, #256]                  ; 8-byte Folded Reload
	ldr	d0, [sp, #176]                  ; 8-byte Folded Reload
	str	d0, [sp, #440]
	add	x0, sp, #368
	sub	x8, x29, #192
	str	x8, [sp, #368]
	sub	x8, x29, #200
	str	x8, [sp, #376]
	sub	x8, x29, #168
	str	x8, [sp, #384]
	sub	x8, x29, #224
	str	x8, [sp, #392]
Ltmp45:
	bl	__Z9time_loopIZ4mainE3$_1EdOT_x
	str	d0, [sp, #168]                  ; 8-byte Folded Spill
Ltmp46:
	b	LBB0_25
LBB0_25:                                ;   in Loop: Header=BB0_11 Depth=1
	ldr	x1, [sp, #256]                  ; 8-byte Folded Reload
	ldr	d0, [sp, #168]                  ; 8-byte Folded Reload
	str	d0, [sp, #400]
	add	x0, sp, #328
	sub	x8, x29, #192
	str	x8, [sp, #328]
	sub	x8, x29, #200
	str	x8, [sp, #336]
	sub	x8, x29, #256
	str	x8, [sp, #344]
	sub	x8, x29, #224
	str	x8, [sp, #352]
Ltmp47:
	bl	__Z9time_loopIZ4mainE3$_2EdOT_x
	str	d0, [sp, #160]                  ; 8-byte Folded Spill
Ltmp48:
	b	LBB0_26
LBB0_26:                                ;   in Loop: Header=BB0_11 Depth=1
	ldr	x1, [sp, #256]                  ; 8-byte Folded Reload
	ldr	d0, [sp, #160]                  ; 8-byte Folded Reload
	str	d0, [sp, #360]
	add	x0, sp, #288
	sub	x8, x29, #208
	str	x8, [sp, #288]
	sub	x8, x29, #212
	str	x8, [sp, #296]
	add	x8, sp, #448
	str	x8, [sp, #304]
	sub	x8, x29, #224
	str	x8, [sp, #312]
Ltmp49:
	bl	__Z9time_loopIZ4mainE3$_3EdOT_x
	str	d0, [sp, #152]                  ; 8-byte Folded Spill
Ltmp50:
	b	LBB0_27
LBB0_27:                                ;   in Loop: Header=BB0_11 Depth=1
	ldr	d0, [sp, #152]                  ; 8-byte Folded Reload
	str	d0, [sp, #320]
Ltmp51:
	adrp	x0, __ZNSt3__14coutE@GOTPAGE
	ldr	x0, [x0, __ZNSt3__14coutE@GOTPAGEOFF]
	adrp	x1, l_.str.7@PAGE
	add	x1, x1, l_.str.7@PAGEOFF
	bl	__ZNSt3__1lsB8ne200100INS_11char_traitsIcEEEERNS_13basic_ostreamIcT_EES6_PKc
	str	x0, [sp, #144]                  ; 8-byte Folded Spill
Ltmp52:
	b	LBB0_28
LBB0_28:                                ;   in Loop: Header=BB0_11 Depth=1
	ldr	x0, [sp, #144]                  ; 8-byte Folded Reload
	ldr	d0, [sp, #440]
Ltmp53:
	bl	__ZNSt3__113basic_ostreamIcNS_11char_traitsIcEEElsEd
	str	x0, [sp, #136]                  ; 8-byte Folded Spill
Ltmp54:
	b	LBB0_29
LBB0_29:                                ;   in Loop: Header=BB0_11 Depth=1
Ltmp55:
	ldr	x0, [sp, #136]                  ; 8-byte Folded Reload
	adrp	x1, l_.str.8@PAGE
	add	x1, x1, l_.str.8@PAGEOFF
	bl	__ZNSt3__1lsB8ne200100INS_11char_traitsIcEEEERNS_13basic_ostreamIcT_EES6_PKc
Ltmp56:
	b	LBB0_30
LBB0_30:                                ;   in Loop: Header=BB0_11 Depth=1
Ltmp57:
	adrp	x0, __ZNSt3__14coutE@GOTPAGE
	ldr	x0, [x0, __ZNSt3__14coutE@GOTPAGEOFF]
	adrp	x1, l_.str.9@PAGE
	add	x1, x1, l_.str.9@PAGEOFF
	bl	__ZNSt3__1lsB8ne200100INS_11char_traitsIcEEEERNS_13basic_ostreamIcT_EES6_PKc
	str	x0, [sp, #128]                  ; 8-byte Folded Spill
Ltmp58:
	b	LBB0_31
LBB0_31:                                ;   in Loop: Header=BB0_11 Depth=1
	ldr	x0, [sp, #128]                  ; 8-byte Folded Reload
	ldr	d0, [sp, #400]
Ltmp59:
	bl	__ZNSt3__113basic_ostreamIcNS_11char_traitsIcEEElsEd
	str	x0, [sp, #120]                  ; 8-byte Folded Spill
Ltmp60:
	b	LBB0_32
LBB0_32:                                ;   in Loop: Header=BB0_11 Depth=1
Ltmp61:
	ldr	x0, [sp, #120]                  ; 8-byte Folded Reload
	adrp	x1, l_.str.8@PAGE
	add	x1, x1, l_.str.8@PAGEOFF
	bl	__ZNSt3__1lsB8ne200100INS_11char_traitsIcEEEERNS_13basic_ostreamIcT_EES6_PKc
Ltmp62:
	b	LBB0_33
LBB0_33:                                ;   in Loop: Header=BB0_11 Depth=1
Ltmp63:
	adrp	x0, __ZNSt3__14coutE@GOTPAGE
	ldr	x0, [x0, __ZNSt3__14coutE@GOTPAGEOFF]
	adrp	x1, l_.str.10@PAGE
	add	x1, x1, l_.str.10@PAGEOFF
	bl	__ZNSt3__1lsB8ne200100INS_11char_traitsIcEEEERNS_13basic_ostreamIcT_EES6_PKc
	str	x0, [sp, #112]                  ; 8-byte Folded Spill
Ltmp64:
	b	LBB0_34
LBB0_34:                                ;   in Loop: Header=BB0_11 Depth=1
	ldr	x0, [sp, #112]                  ; 8-byte Folded Reload
	ldr	d0, [sp, #360]
Ltmp65:
	bl	__ZNSt3__113basic_ostreamIcNS_11char_traitsIcEEElsEd
	str	x0, [sp, #104]                  ; 8-byte Folded Spill
Ltmp66:
	b	LBB0_35
LBB0_35:                                ;   in Loop: Header=BB0_11 Depth=1
Ltmp67:
	ldr	x0, [sp, #104]                  ; 8-byte Folded Reload
	adrp	x1, l_.str.8@PAGE
	add	x1, x1, l_.str.8@PAGEOFF
	bl	__ZNSt3__1lsB8ne200100INS_11char_traitsIcEEEERNS_13basic_ostreamIcT_EES6_PKc
Ltmp68:
	b	LBB0_36
LBB0_36:                                ;   in Loop: Header=BB0_11 Depth=1
Ltmp69:
	adrp	x0, __ZNSt3__14coutE@GOTPAGE
	ldr	x0, [x0, __ZNSt3__14coutE@GOTPAGEOFF]
	adrp	x1, l_.str.11@PAGE
	add	x1, x1, l_.str.11@PAGEOFF
	bl	__ZNSt3__1lsB8ne200100INS_11char_traitsIcEEEERNS_13basic_ostreamIcT_EES6_PKc
	str	x0, [sp, #96]                   ; 8-byte Folded Spill
Ltmp70:
	b	LBB0_37
LBB0_37:                                ;   in Loop: Header=BB0_11 Depth=1
	ldr	x0, [sp, #96]                   ; 8-byte Folded Reload
	ldr	d0, [sp, #320]
Ltmp71:
	bl	__ZNSt3__113basic_ostreamIcNS_11char_traitsIcEEElsEd
	str	x0, [sp, #88]                   ; 8-byte Folded Spill
Ltmp72:
	b	LBB0_38
LBB0_38:                                ;   in Loop: Header=BB0_11 Depth=1
Ltmp73:
	ldr	x0, [sp, #88]                   ; 8-byte Folded Reload
	adrp	x1, l_.str.8@PAGE
	add	x1, x1, l_.str.8@PAGEOFF
	bl	__ZNSt3__1lsB8ne200100INS_11char_traitsIcEEEERNS_13basic_ostreamIcT_EES6_PKc
Ltmp74:
	b	LBB0_39
LBB0_39:                                ;   in Loop: Header=BB0_11 Depth=1
Ltmp75:
	adrp	x0, __ZNSt3__14coutE@GOTPAGE
	ldr	x0, [x0, __ZNSt3__14coutE@GOTPAGEOFF]
	adrp	x1, l_.str.12@PAGE
	add	x1, x1, l_.str.12@PAGEOFF
	bl	__ZNSt3__1lsB8ne200100INS_11char_traitsIcEEEERNS_13basic_ostreamIcT_EES6_PKc
Ltmp76:
	b	LBB0_40
LBB0_40:                                ;   in Loop: Header=BB0_11 Depth=1
Ltmp77:
	adrp	x0, __ZNSt3__14coutE@GOTPAGE
	ldr	x0, [x0, __ZNSt3__14coutE@GOTPAGEOFF]
	adrp	x1, l_.str.13@PAGE
	add	x1, x1, l_.str.13@PAGEOFF
	bl	__ZNSt3__1lsB8ne200100INS_11char_traitsIcEEEERNS_13basic_ostreamIcT_EES6_PKc
	str	x0, [sp, #80]                   ; 8-byte Folded Spill
Ltmp78:
	b	LBB0_41
LBB0_41:                                ;   in Loop: Header=BB0_11 Depth=1
	ldr	x0, [sp, #80]                   ; 8-byte Folded Reload
	ldr	d0, [sp, #440]
	ldr	d1, [sp, #400]
	fdiv	d0, d0, d1
Ltmp79:
	bl	__ZNSt3__113basic_ostreamIcNS_11char_traitsIcEEElsEd
	str	x0, [sp, #72]                   ; 8-byte Folded Spill
Ltmp80:
	b	LBB0_42
LBB0_42:                                ;   in Loop: Header=BB0_11 Depth=1
Ltmp81:
	ldr	x0, [sp, #72]                   ; 8-byte Folded Reload
	adrp	x1, l_.str.14@PAGE
	add	x1, x1, l_.str.14@PAGEOFF
	bl	__ZNSt3__1lsB8ne200100INS_11char_traitsIcEEEERNS_13basic_ostreamIcT_EES6_PKc
Ltmp82:
	b	LBB0_43
LBB0_43:                                ;   in Loop: Header=BB0_11 Depth=1
Ltmp83:
	adrp	x0, __ZNSt3__14coutE@GOTPAGE
	ldr	x0, [x0, __ZNSt3__14coutE@GOTPAGEOFF]
	adrp	x1, l_.str.15@PAGE
	add	x1, x1, l_.str.15@PAGEOFF
	bl	__ZNSt3__1lsB8ne200100INS_11char_traitsIcEEEERNS_13basic_ostreamIcT_EES6_PKc
	str	x0, [sp, #64]                   ; 8-byte Folded Spill
Ltmp84:
	b	LBB0_44
LBB0_44:                                ;   in Loop: Header=BB0_11 Depth=1
	ldr	x0, [sp, #64]                   ; 8-byte Folded Reload
	ldr	d0, [sp, #440]
	ldr	d1, [sp, #360]
	fdiv	d0, d0, d1
Ltmp85:
	bl	__ZNSt3__113basic_ostreamIcNS_11char_traitsIcEEElsEd
	str	x0, [sp, #56]                   ; 8-byte Folded Spill
Ltmp86:
	b	LBB0_45
LBB0_45:                                ;   in Loop: Header=BB0_11 Depth=1
Ltmp87:
	ldr	x0, [sp, #56]                   ; 8-byte Folded Reload
	adrp	x1, l_.str.14@PAGE
	add	x1, x1, l_.str.14@PAGEOFF
	bl	__ZNSt3__1lsB8ne200100INS_11char_traitsIcEEEERNS_13basic_ostreamIcT_EES6_PKc
Ltmp88:
	b	LBB0_46
LBB0_46:                                ;   in Loop: Header=BB0_11 Depth=1
Ltmp89:
	adrp	x0, __ZNSt3__14coutE@GOTPAGE
	ldr	x0, [x0, __ZNSt3__14coutE@GOTPAGEOFF]
	adrp	x1, l_.str.16@PAGE
	add	x1, x1, l_.str.16@PAGEOFF
	bl	__ZNSt3__1lsB8ne200100INS_11char_traitsIcEEEERNS_13basic_ostreamIcT_EES6_PKc
	str	x0, [sp, #48]                   ; 8-byte Folded Spill
Ltmp90:
	b	LBB0_47
LBB0_47:                                ;   in Loop: Header=BB0_11 Depth=1
	ldr	x0, [sp, #48]                   ; 8-byte Folded Reload
	ldr	d0, [sp, #360]
	ldr	d1, [sp, #320]
	fdiv	d0, d0, d1
Ltmp91:
	bl	__ZNSt3__113basic_ostreamIcNS_11char_traitsIcEEElsEd
	str	x0, [sp, #40]                   ; 8-byte Folded Spill
Ltmp92:
	b	LBB0_48
LBB0_48:                                ;   in Loop: Header=BB0_11 Depth=1
Ltmp93:
	ldr	x0, [sp, #40]                   ; 8-byte Folded Reload
	adrp	x1, l_.str.14@PAGE
	add	x1, x1, l_.str.14@PAGEOFF
	bl	__ZNSt3__1lsB8ne200100INS_11char_traitsIcEEEERNS_13basic_ostreamIcT_EES6_PKc
Ltmp94:
	b	LBB0_49
LBB0_49:                                ;   in Loop: Header=BB0_11 Depth=1
Ltmp95:
	adrp	x0, __ZNSt3__14coutE@GOTPAGE
	ldr	x0, [x0, __ZNSt3__14coutE@GOTPAGEOFF]
	adrp	x1, l_.str.17@PAGE
	add	x1, x1, l_.str.17@PAGEOFF
	bl	__ZNSt3__1lsB8ne200100INS_11char_traitsIcEEEERNS_13basic_ostreamIcT_EES6_PKc
	str	x0, [sp, #32]                   ; 8-byte Folded Spill
Ltmp96:
	b	LBB0_50
LBB0_50:                                ;   in Loop: Header=BB0_11 Depth=1
	ldr	x0, [sp, #32]                   ; 8-byte Folded Reload
	ldur	x1, [x29, #-224]
Ltmp97:
	bl	__ZNSt3__113basic_ostreamIcNS_11char_traitsIcEEElsEx
	str	x0, [sp, #24]                   ; 8-byte Folded Spill
Ltmp98:
	b	LBB0_51
LBB0_51:                                ;   in Loop: Header=BB0_11 Depth=1
Ltmp99:
	ldr	x0, [sp, #24]                   ; 8-byte Folded Reload
	adrp	x1, l_.str.3@PAGE
	add	x1, x1, l_.str.3@PAGEOFF
	bl	__ZNSt3__1lsB8ne200100INS_11char_traitsIcEEEERNS_13basic_ostreamIcT_EES6_PKc
Ltmp100:
	b	LBB0_52
LBB0_52:                                ;   in Loop: Header=BB0_11 Depth=1
	b	LBB0_53
LBB0_53:                                ;   in Loop: Header=BB0_11 Depth=1
	sub	x0, x29, #152
	bl	__ZNSt3__111__wrap_iterIPxEppB8ne200100Ev
	b	LBB0_11
LBB0_54:
Ltmp101:
	stur	x0, [x29, #-128]
	mov	x8, x1
	stur	w8, [x29, #-132]
	sub	x0, x29, #104
	bl	__ZNSt3__16vectorIxNS_9allocatorIxEEED1B8ne200100Ev
	b	LBB0_58
LBB0_55:
	stur	wzr, [x29, #-68]
	sub	x0, x29, #104
	bl	__ZNSt3__16vectorIxNS_9allocatorIxEEED1B8ne200100Ev
	ldur	w8, [x29, #-68]
	str	w8, [sp, #20]                   ; 4-byte Folded Spill
	ldur	x9, [x29, #-24]
	adrp	x8, ___stack_chk_guard@GOTPAGE
	ldr	x8, [x8, ___stack_chk_guard@GOTPAGEOFF]
	ldr	x8, [x8]
	subs	x8, x8, x9
	b.eq	LBB0_57
	b	LBB0_56
LBB0_56:
	bl	___stack_chk_fail
LBB0_57:
	ldr	w0, [sp, #20]                   ; 4-byte Folded Reload
	add	sp, sp, #704
	ldp	x29, x30, [sp, #16]             ; 16-byte Folded Reload
	ldp	x28, x27, [sp], #32             ; 16-byte Folded Reload
	ret
LBB0_58:
	ldur	x0, [x29, #-128]
	str	x0, [sp, #8]                    ; 8-byte Folded Spill
	b	LBB0_60
LBB0_59:
Ltmp2:
	str	x0, [sp, #8]                    ; 8-byte Folded Spill
	b	LBB0_60
LBB0_60:
	ldr	x0, [sp, #8]                    ; 8-byte Folded Reload
	bl	__Unwind_Resume
Lfunc_end0:
	.cfi_endproc
	.section	__TEXT,__gcc_except_tab
	.p2align	2, 0x0
GCC_except_table0:
Lexception0:
	.byte	255                             ; @LPStart Encoding = omit
	.byte	255                             ; @TType Encoding = omit
	.byte	1                               ; Call site Encoding = uleb128
	.uleb128 Lcst_end0-Lcst_begin0
Lcst_begin0:
	.uleb128 Lfunc_begin0-Lfunc_begin0      ; >> Call Site 1 <<
	.uleb128 Ltmp0-Lfunc_begin0             ;   Call between Lfunc_begin0 and Ltmp0
	.byte	0                               ;     has no landing pad
	.byte	0                               ;   On action: cleanup
	.uleb128 Ltmp0-Lfunc_begin0             ; >> Call Site 2 <<
	.uleb128 Ltmp1-Ltmp0                    ;   Call between Ltmp0 and Ltmp1
	.uleb128 Ltmp2-Lfunc_begin0             ;     jumps to Ltmp2
	.byte	0                               ;   On action: cleanup
	.uleb128 Ltmp3-Lfunc_begin0             ; >> Call Site 3 <<
	.uleb128 Ltmp100-Ltmp3                  ;   Call between Ltmp3 and Ltmp100
	.uleb128 Ltmp101-Lfunc_begin0           ;     jumps to Ltmp101
	.byte	0                               ;   On action: cleanup
	.uleb128 Ltmp100-Lfunc_begin0           ; >> Call Site 4 <<
	.uleb128 Lfunc_end0-Ltmp100             ;   Call between Ltmp100 and Lfunc_end0
	.byte	0                               ;     has no landing pad
	.byte	0                               ;   On action: cleanup
Lcst_end0:
	.p2align	2, 0x0
                                        ; -- End function
	.section	__TEXT,__text,regular,pure_instructions
	.private_extern	__ZNSt3__16vectorIxNS_9allocatorIxEEEC1B8ne200100ESt16initializer_listIxE ; -- Begin function _ZNSt3__16vectorIxNS_9allocatorIxEEEC1B8ne200100ESt16initializer_listIxE
	.globl	__ZNSt3__16vectorIxNS_9allocatorIxEEEC1B8ne200100ESt16initializer_listIxE
	.weak_def_can_be_hidden	__ZNSt3__16vectorIxNS_9allocatorIxEEEC1B8ne200100ESt16initializer_listIxE
	.p2align	2
__ZNSt3__16vectorIxNS_9allocatorIxEEEC1B8ne200100ESt16initializer_listIxE: ; @_ZNSt3__16vectorIxNS_9allocatorIxEEEC1B8ne200100ESt16initializer_listIxE
	.cfi_startproc
; %bb.0:
	sub	sp, sp, #48
	stp	x29, x30, [sp, #32]             ; 16-byte Folded Spill
	add	x29, sp, #32
	.cfi_def_cfa w29, 16
	.cfi_offset w30, -8
	.cfi_offset w29, -16
	str	x1, [sp, #16]
	str	x2, [sp, #24]
	str	x0, [sp, #8]
	ldr	x0, [sp, #8]
	str	x0, [sp]                        ; 8-byte Folded Spill
	ldr	x1, [sp, #16]
	ldr	x2, [sp, #24]
	bl	__ZNSt3__16vectorIxNS_9allocatorIxEEEC2B8ne200100ESt16initializer_listIxE
	ldr	x0, [sp]                        ; 8-byte Folded Reload
	ldp	x29, x30, [sp, #32]             ; 16-byte Folded Reload
	add	sp, sp, #48
	ret
	.cfi_endproc
                                        ; -- End function
	.private_extern	__ZNSt3__1lsB8ne200100IcNS_11char_traitsIcEEEERNS_13basic_ostreamIT_T0_EES7_RKNS_8__iom_t5E ; -- Begin function _ZNSt3__1lsB8ne200100IcNS_11char_traitsIcEEEERNS_13basic_ostreamIT_T0_EES7_RKNS_8__iom_t5E
	.globl	__ZNSt3__1lsB8ne200100IcNS_11char_traitsIcEEEERNS_13basic_ostreamIT_T0_EES7_RKNS_8__iom_t5E
	.weak_definition	__ZNSt3__1lsB8ne200100IcNS_11char_traitsIcEEEERNS_13basic_ostreamIT_T0_EES7_RKNS_8__iom_t5E
	.p2align	2
__ZNSt3__1lsB8ne200100IcNS_11char_traitsIcEEEERNS_13basic_ostreamIT_T0_EES7_RKNS_8__iom_t5E: ; @_ZNSt3__1lsB8ne200100IcNS_11char_traitsIcEEEERNS_13basic_ostreamIT_T0_EES7_RKNS_8__iom_t5E
	.cfi_startproc
; %bb.0:
	sub	sp, sp, #32
	stp	x29, x30, [sp, #16]             ; 16-byte Folded Spill
	add	x29, sp, #16
	.cfi_def_cfa w29, 16
	.cfi_offset w30, -8
	.cfi_offset w29, -16
	str	x0, [sp, #8]
	str	x1, [sp]
	ldr	x8, [sp, #8]
	ldr	x9, [x8]
	ldur	x9, [x9, #-24]
	ldr	x10, [sp]
	ldrsw	x1, [x10]
	add	x0, x8, x9
	bl	__ZNSt3__18ios_base9precisionB8ne200100El
	ldr	x0, [sp, #8]
	ldp	x29, x30, [sp, #16]             ; 16-byte Folded Reload
	add	sp, sp, #32
	ret
	.cfi_endproc
                                        ; -- End function
	.private_extern	__ZNSt3__113basic_ostreamIcNS_11char_traitsIcEEElsB8ne200100EPFRNS_8ios_baseES5_E ; -- Begin function _ZNSt3__113basic_ostreamIcNS_11char_traitsIcEEElsB8ne200100EPFRNS_8ios_baseES5_E
	.globl	__ZNSt3__113basic_ostreamIcNS_11char_traitsIcEEElsB8ne200100EPFRNS_8ios_baseES5_E
	.weak_definition	__ZNSt3__113basic_ostreamIcNS_11char_traitsIcEEElsB8ne200100EPFRNS_8ios_baseES5_E
	.p2align	2
__ZNSt3__113basic_ostreamIcNS_11char_traitsIcEEElsB8ne200100EPFRNS_8ios_baseES5_E: ; @_ZNSt3__113basic_ostreamIcNS_11char_traitsIcEEElsB8ne200100EPFRNS_8ios_baseES5_E
	.cfi_startproc
; %bb.0:
	sub	sp, sp, #48
	stp	x29, x30, [sp, #32]             ; 16-byte Folded Spill
	add	x29, sp, #32
	.cfi_def_cfa w29, 16
	.cfi_offset w30, -8
	.cfi_offset w29, -16
	stur	x0, [x29, #-8]
	str	x1, [sp, #16]
	ldur	x9, [x29, #-8]
	str	x9, [sp, #8]                    ; 8-byte Folded Spill
	ldr	x8, [sp, #16]
	ldr	x10, [x9]
	ldur	x10, [x10, #-24]
	add	x0, x9, x10
	blr	x8
	ldr	x0, [sp, #8]                    ; 8-byte Folded Reload
	ldp	x29, x30, [sp, #32]             ; 16-byte Folded Reload
	add	sp, sp, #48
	ret
	.cfi_endproc
                                        ; -- End function
	.private_extern	__ZNSt3__15fixedB8ne200100ERNS_8ios_baseE ; -- Begin function _ZNSt3__15fixedB8ne200100ERNS_8ios_baseE
	.globl	__ZNSt3__15fixedB8ne200100ERNS_8ios_baseE
	.weak_definition	__ZNSt3__15fixedB8ne200100ERNS_8ios_baseE
	.p2align	2
__ZNSt3__15fixedB8ne200100ERNS_8ios_baseE: ; @_ZNSt3__15fixedB8ne200100ERNS_8ios_baseE
	.cfi_startproc
; %bb.0:
	sub	sp, sp, #32
	stp	x29, x30, [sp, #16]             ; 16-byte Folded Spill
	add	x29, sp, #16
	.cfi_def_cfa w29, 16
	.cfi_offset w30, -8
	.cfi_offset w29, -16
	str	x0, [sp, #8]
	ldr	x0, [sp, #8]
	mov	w1, #4                          ; =0x4
	mov	w2, #260                        ; =0x104
	bl	__ZNSt3__18ios_base4setfB8ne200100Ejj
	ldr	x0, [sp, #8]
	ldp	x29, x30, [sp, #16]             ; 16-byte Folded Reload
	add	sp, sp, #32
	ret
	.cfi_endproc
                                        ; -- End function
	.private_extern	__ZNSt3__112setprecisionB8ne200100Ei ; -- Begin function _ZNSt3__112setprecisionB8ne200100Ei
	.globl	__ZNSt3__112setprecisionB8ne200100Ei
	.weak_definition	__ZNSt3__112setprecisionB8ne200100Ei
	.p2align	2
__ZNSt3__112setprecisionB8ne200100Ei:   ; @_ZNSt3__112setprecisionB8ne200100Ei
	.cfi_startproc
; %bb.0:
	sub	sp, sp, #32
	stp	x29, x30, [sp, #16]             ; 16-byte Folded Spill
	add	x29, sp, #16
	.cfi_def_cfa w29, 16
	.cfi_offset w30, -8
	.cfi_offset w29, -16
	str	w0, [sp, #8]
	ldr	w1, [sp, #8]
	sub	x0, x29, #4
	bl	__ZNSt3__18__iom_t5C1B8ne200100Ei
	ldur	w0, [x29, #-4]
	ldp	x29, x30, [sp, #16]             ; 16-byte Folded Reload
	add	sp, sp, #32
	ret
	.cfi_endproc
                                        ; -- End function
	.private_extern	__ZNSt3__1lsB8ne200100INS_11char_traitsIcEEEERNS_13basic_ostreamIcT_EES6_PKc ; -- Begin function _ZNSt3__1lsB8ne200100INS_11char_traitsIcEEEERNS_13basic_ostreamIcT_EES6_PKc
	.globl	__ZNSt3__1lsB8ne200100INS_11char_traitsIcEEEERNS_13basic_ostreamIcT_EES6_PKc
	.weak_definition	__ZNSt3__1lsB8ne200100INS_11char_traitsIcEEEERNS_13basic_ostreamIcT_EES6_PKc
	.p2align	2
__ZNSt3__1lsB8ne200100INS_11char_traitsIcEEEERNS_13basic_ostreamIcT_EES6_PKc: ; @_ZNSt3__1lsB8ne200100INS_11char_traitsIcEEEERNS_13basic_ostreamIcT_EES6_PKc
	.cfi_startproc
; %bb.0:
	sub	sp, sp, #48
	stp	x29, x30, [sp, #32]             ; 16-byte Folded Spill
	add	x29, sp, #32
	.cfi_def_cfa w29, 16
	.cfi_offset w30, -8
	.cfi_offset w29, -16
	stur	x0, [x29, #-8]
	str	x1, [sp, #16]
	ldur	x8, [x29, #-8]
	str	x8, [sp, #8]                    ; 8-byte Folded Spill
	ldr	x8, [sp, #16]
	str	x8, [sp]                        ; 8-byte Folded Spill
	ldr	x0, [sp, #16]
	bl	__ZNSt3__111char_traitsIcE6lengthB8ne200100EPKc
	ldr	x1, [sp]                        ; 8-byte Folded Reload
	mov	x2, x0
	ldr	x0, [sp, #8]                    ; 8-byte Folded Reload
	bl	__ZNSt3__124__put_character_sequenceB8ne200100IcNS_11char_traitsIcEEEERNS_13basic_ostreamIT_T0_EES7_PKS4_m
	ldp	x29, x30, [sp, #32]             ; 16-byte Folded Reload
	add	sp, sp, #48
	ret
	.cfi_endproc
                                        ; -- End function
	.private_extern	__ZNSt3__16vectorIxNS_9allocatorIxEEE5beginB8ne200100Ev ; -- Begin function _ZNSt3__16vectorIxNS_9allocatorIxEEE5beginB8ne200100Ev
	.globl	__ZNSt3__16vectorIxNS_9allocatorIxEEE5beginB8ne200100Ev
	.weak_definition	__ZNSt3__16vectorIxNS_9allocatorIxEEE5beginB8ne200100Ev
	.p2align	2
__ZNSt3__16vectorIxNS_9allocatorIxEEE5beginB8ne200100Ev: ; @_ZNSt3__16vectorIxNS_9allocatorIxEEE5beginB8ne200100Ev
	.cfi_startproc
; %bb.0:
	sub	sp, sp, #48
	stp	x29, x30, [sp, #32]             ; 16-byte Folded Spill
	add	x29, sp, #32
	.cfi_def_cfa w29, 16
	.cfi_offset w30, -8
	.cfi_offset w29, -16
	str	x0, [sp, #16]
	ldr	x8, [sp, #16]
	str	x8, [sp, #8]                    ; 8-byte Folded Spill
	ldr	x0, [x8]
	bl	__ZNSt3__16vectorIxNS_9allocatorIxEEE26__add_alignment_assumptionB8ne200100IPxLi0EEES5_T_
	mov	x1, x0
	ldr	x0, [sp, #8]                    ; 8-byte Folded Reload
	bl	__ZNSt3__16vectorIxNS_9allocatorIxEEE11__make_iterB8ne200100EPx
	stur	x0, [x29, #-8]
	ldur	x0, [x29, #-8]
	ldp	x29, x30, [sp, #32]             ; 16-byte Folded Reload
	add	sp, sp, #48
	ret
	.cfi_endproc
                                        ; -- End function
	.private_extern	__ZNSt3__16vectorIxNS_9allocatorIxEEE3endB8ne200100Ev ; -- Begin function _ZNSt3__16vectorIxNS_9allocatorIxEEE3endB8ne200100Ev
	.globl	__ZNSt3__16vectorIxNS_9allocatorIxEEE3endB8ne200100Ev
	.weak_definition	__ZNSt3__16vectorIxNS_9allocatorIxEEE3endB8ne200100Ev
	.p2align	2
__ZNSt3__16vectorIxNS_9allocatorIxEEE3endB8ne200100Ev: ; @_ZNSt3__16vectorIxNS_9allocatorIxEEE3endB8ne200100Ev
	.cfi_startproc
; %bb.0:
	sub	sp, sp, #48
	stp	x29, x30, [sp, #32]             ; 16-byte Folded Spill
	add	x29, sp, #32
	.cfi_def_cfa w29, 16
	.cfi_offset w30, -8
	.cfi_offset w29, -16
	str	x0, [sp, #16]
	ldr	x8, [sp, #16]
	str	x8, [sp, #8]                    ; 8-byte Folded Spill
	ldr	x0, [x8, #8]
	bl	__ZNSt3__16vectorIxNS_9allocatorIxEEE26__add_alignment_assumptionB8ne200100IPxLi0EEES5_T_
	mov	x1, x0
	ldr	x0, [sp, #8]                    ; 8-byte Folded Reload
	bl	__ZNSt3__16vectorIxNS_9allocatorIxEEE11__make_iterB8ne200100EPx
	stur	x0, [x29, #-8]
	ldur	x0, [x29, #-8]
	ldp	x29, x30, [sp, #32]             ; 16-byte Folded Reload
	add	sp, sp, #48
	ret
	.cfi_endproc
                                        ; -- End function
	.private_extern	__ZNSt3__1neB8ne200100IPxEEbRKNS_11__wrap_iterIT_EES6_ ; -- Begin function _ZNSt3__1neB8ne200100IPxEEbRKNS_11__wrap_iterIT_EES6_
	.globl	__ZNSt3__1neB8ne200100IPxEEbRKNS_11__wrap_iterIT_EES6_
	.weak_definition	__ZNSt3__1neB8ne200100IPxEEbRKNS_11__wrap_iterIT_EES6_
	.p2align	2
__ZNSt3__1neB8ne200100IPxEEbRKNS_11__wrap_iterIT_EES6_: ; @_ZNSt3__1neB8ne200100IPxEEbRKNS_11__wrap_iterIT_EES6_
	.cfi_startproc
; %bb.0:
	sub	sp, sp, #32
	stp	x29, x30, [sp, #16]             ; 16-byte Folded Spill
	add	x29, sp, #16
	.cfi_def_cfa w29, 16
	.cfi_offset w30, -8
	.cfi_offset w29, -16
	str	x0, [sp, #8]
	str	x1, [sp]
	ldr	x0, [sp, #8]
	ldr	x1, [sp]
	bl	__ZNSt3__1eqB8ne200100IPxEEbRKNS_11__wrap_iterIT_EES6_
	eor	w0, w0, #0x1
	ldp	x29, x30, [sp, #16]             ; 16-byte Folded Reload
	add	sp, sp, #32
	ret
	.cfi_endproc
                                        ; -- End function
	.private_extern	__ZNKSt3__111__wrap_iterIPxEdeB8ne200100Ev ; -- Begin function _ZNKSt3__111__wrap_iterIPxEdeB8ne200100Ev
	.globl	__ZNKSt3__111__wrap_iterIPxEdeB8ne200100Ev
	.weak_definition	__ZNKSt3__111__wrap_iterIPxEdeB8ne200100Ev
	.p2align	2
__ZNKSt3__111__wrap_iterIPxEdeB8ne200100Ev: ; @_ZNKSt3__111__wrap_iterIPxEdeB8ne200100Ev
	.cfi_startproc
; %bb.0:
	sub	sp, sp, #16
	.cfi_def_cfa_offset 16
	str	x0, [sp, #8]
	ldr	x8, [sp, #8]
	ldr	x0, [x8]
	add	sp, sp, #16
	ret
	.cfi_endproc
                                        ; -- End function
	.globl	__Z8center64xx                  ; -- Begin function _Z8center64xx
	.weak_definition	__Z8center64xx
	.p2align	2
__Z8center64xx:                         ; @_Z8center64xx
	.cfi_startproc
; %bb.0:
	sub	sp, sp, #32
	.cfi_def_cfa_offset 32
	str	x0, [sp, #24]
	str	x1, [sp, #16]
	ldr	x8, [sp, #16]
	asr	x8, x8, #1
	str	x8, [sp, #8]
	ldr	x10, [sp, #16]
	ldr	x8, [sp, #24]
	sdiv	x9, x8, x10
	mul	x9, x9, x10
	subs	x8, x8, x9
	str	x8, [sp, #24]
	ldr	x8, [sp, #24]
	ldr	x9, [sp, #8]
	subs	x8, x8, x9
	b.le	LBB11_2
	b	LBB11_1
LBB11_1:
	ldr	x9, [sp, #16]
	ldr	x8, [sp, #24]
	subs	x8, x8, x9
	str	x8, [sp, #24]
	b	LBB11_2
LBB11_2:
	ldr	x0, [sp, #24]
	add	sp, sp, #32
	ret
	.cfi_endproc
                                        ; -- End function
	.globl	__Z8center32ii                  ; -- Begin function _Z8center32ii
	.weak_definition	__Z8center32ii
	.p2align	2
__Z8center32ii:                         ; @_Z8center32ii
	.cfi_startproc
; %bb.0:
	sub	sp, sp, #16
	.cfi_def_cfa_offset 16
	str	w0, [sp, #12]
	str	w1, [sp, #8]
	ldr	w8, [sp, #8]
	asr	w8, w8, #1
	str	w8, [sp, #4]
	ldr	w10, [sp, #8]
	ldr	w8, [sp, #12]
	sdiv	w9, w8, w10
	mul	w9, w9, w10
	subs	w8, w8, w9
	str	w8, [sp, #12]
	ldr	w8, [sp, #12]
	ldr	w9, [sp, #4]
	subs	w8, w8, w9
	b.le	LBB12_2
	b	LBB12_1
LBB12_1:
	ldr	w9, [sp, #8]
	ldr	w8, [sp, #12]
	subs	w8, w8, w9
	str	w8, [sp, #12]
	b	LBB12_2
LBB12_2:
	ldr	w0, [sp, #12]
	add	sp, sp, #16
	ret
	.cfi_endproc
                                        ; -- End function
	.globl	__ZN14BarretReistCtxC1Ex        ; -- Begin function _ZN14BarretReistCtxC1Ex
	.weak_def_can_be_hidden	__ZN14BarretReistCtxC1Ex
	.p2align	2
__ZN14BarretReistCtxC1Ex:               ; @_ZN14BarretReistCtxC1Ex
	.cfi_startproc
; %bb.0:
	sub	sp, sp, #48
	stp	x29, x30, [sp, #32]             ; 16-byte Folded Spill
	add	x29, sp, #32
	.cfi_def_cfa w29, 16
	.cfi_offset w30, -8
	.cfi_offset w29, -16
	stur	x0, [x29, #-8]
	str	x1, [sp, #16]
	ldur	x0, [x29, #-8]
	str	x0, [sp, #8]                    ; 8-byte Folded Spill
	ldr	x1, [sp, #16]
	bl	__ZN14BarretReistCtxC2Ex
	ldr	x0, [sp, #8]                    ; 8-byte Folded Reload
	ldp	x29, x30, [sp, #32]             ; 16-byte Folded Reload
	add	sp, sp, #48
	ret
	.cfi_endproc
                                        ; -- End function
	.globl	__ZN16BarretReistCtx32C1Ei      ; -- Begin function _ZN16BarretReistCtx32C1Ei
	.weak_def_can_be_hidden	__ZN16BarretReistCtx32C1Ei
	.p2align	2
__ZN16BarretReistCtx32C1Ei:             ; @_ZN16BarretReistCtx32C1Ei
	.cfi_startproc
; %bb.0:
	sub	sp, sp, #48
	stp	x29, x30, [sp, #32]             ; 16-byte Folded Spill
	add	x29, sp, #32
	.cfi_def_cfa w29, 16
	.cfi_offset w30, -8
	.cfi_offset w29, -16
	stur	x0, [x29, #-8]
	stur	w1, [x29, #-12]
	ldur	x0, [x29, #-8]
	str	x0, [sp, #8]                    ; 8-byte Folded Spill
	ldur	w1, [x29, #-12]
	bl	__ZN16BarretReistCtx32C2Ei
	ldr	x0, [sp, #8]                    ; 8-byte Folded Reload
	ldp	x29, x30, [sp, #32]             ; 16-byte Folded Reload
	add	sp, sp, #48
	ret
	.cfi_endproc
                                        ; -- End function
	.p2align	2                               ; -- Begin function _Z9time_loopIZ4mainE3$_0EdOT_x
__Z9time_loopIZ4mainE3$_0EdOT_x:        ; @"_Z9time_loopIZ4mainE3$_0EdOT_x"
	.cfi_startproc
; %bb.0:
	sub	sp, sp, #80
	stp	x29, x30, [sp, #64]             ; 16-byte Folded Spill
	add	x29, sp, #64
	.cfi_def_cfa w29, 16
	.cfi_offset w30, -8
	.cfi_offset w29, -16
	stur	x0, [x29, #-8]
	stur	x1, [x29, #-16]
	bl	__ZNSt3__16chrono12steady_clock3nowEv
	sub	x8, x29, #24
	str	x8, [sp]                        ; 8-byte Folded Spill
	stur	x0, [x29, #-24]
	ldur	x0, [x29, #-8]
	ldur	x1, [x29, #-16]
	bl	__ZZ4mainENK3$_0clEx
	bl	__ZNSt3__16chrono12steady_clock3nowEv
	ldr	x1, [sp]                        ; 8-byte Folded Reload
	mov	x8, x0
	add	x0, sp, #32
	str	x8, [sp, #32]
	bl	__ZNSt3__16chronomiB8ne200100INS0_12steady_clockENS0_8durationIxNS_5ratioILl1ELl1000000000EEEEES6_EENS_11common_typeIJT0_T1_EE4typeERKNS0_10time_pointIT_S8_EERKNSC_ISD_S9_EE
	add	x1, sp, #16
	str	x0, [sp, #16]
	add	x0, sp, #24
	str	x0, [sp, #8]                    ; 8-byte Folded Spill
	bl	__ZNSt3__16chrono8durationIdNS_5ratioILl1ELl1EEEEC1B8ne200100IxNS2_ILl1ELl1000000000EEELi0EEERKNS1_IT_T0_EE
	ldr	x0, [sp, #8]                    ; 8-byte Folded Reload
	bl	__ZNKSt3__16chrono8durationIdNS_5ratioILl1ELl1EEEE5countB8ne200100Ev
	ldp	x29, x30, [sp, #64]             ; 16-byte Folded Reload
	add	sp, sp, #80
	ret
	.cfi_endproc
                                        ; -- End function
	.p2align	2                               ; -- Begin function _Z9time_loopIZ4mainE3$_1EdOT_x
__Z9time_loopIZ4mainE3$_1EdOT_x:        ; @"_Z9time_loopIZ4mainE3$_1EdOT_x"
	.cfi_startproc
; %bb.0:
	sub	sp, sp, #80
	stp	x29, x30, [sp, #64]             ; 16-byte Folded Spill
	add	x29, sp, #64
	.cfi_def_cfa w29, 16
	.cfi_offset w30, -8
	.cfi_offset w29, -16
	stur	x0, [x29, #-8]
	stur	x1, [x29, #-16]
	bl	__ZNSt3__16chrono12steady_clock3nowEv
	sub	x8, x29, #24
	str	x8, [sp]                        ; 8-byte Folded Spill
	stur	x0, [x29, #-24]
	ldur	x0, [x29, #-8]
	ldur	x1, [x29, #-16]
	bl	__ZZ4mainENK3$_1clEx
	bl	__ZNSt3__16chrono12steady_clock3nowEv
	ldr	x1, [sp]                        ; 8-byte Folded Reload
	mov	x8, x0
	add	x0, sp, #32
	str	x8, [sp, #32]
	bl	__ZNSt3__16chronomiB8ne200100INS0_12steady_clockENS0_8durationIxNS_5ratioILl1ELl1000000000EEEEES6_EENS_11common_typeIJT0_T1_EE4typeERKNS0_10time_pointIT_S8_EERKNSC_ISD_S9_EE
	add	x1, sp, #16
	str	x0, [sp, #16]
	add	x0, sp, #24
	str	x0, [sp, #8]                    ; 8-byte Folded Spill
	bl	__ZNSt3__16chrono8durationIdNS_5ratioILl1ELl1EEEEC1B8ne200100IxNS2_ILl1ELl1000000000EEELi0EEERKNS1_IT_T0_EE
	ldr	x0, [sp, #8]                    ; 8-byte Folded Reload
	bl	__ZNKSt3__16chrono8durationIdNS_5ratioILl1ELl1EEEE5countB8ne200100Ev
	ldp	x29, x30, [sp, #64]             ; 16-byte Folded Reload
	add	sp, sp, #80
	ret
	.cfi_endproc
                                        ; -- End function
	.p2align	2                               ; -- Begin function _Z9time_loopIZ4mainE3$_2EdOT_x
__Z9time_loopIZ4mainE3$_2EdOT_x:        ; @"_Z9time_loopIZ4mainE3$_2EdOT_x"
	.cfi_startproc
; %bb.0:
	sub	sp, sp, #80
	stp	x29, x30, [sp, #64]             ; 16-byte Folded Spill
	add	x29, sp, #64
	.cfi_def_cfa w29, 16
	.cfi_offset w30, -8
	.cfi_offset w29, -16
	stur	x0, [x29, #-8]
	stur	x1, [x29, #-16]
	bl	__ZNSt3__16chrono12steady_clock3nowEv
	sub	x8, x29, #24
	str	x8, [sp]                        ; 8-byte Folded Spill
	stur	x0, [x29, #-24]
	ldur	x0, [x29, #-8]
	ldur	x1, [x29, #-16]
	bl	__ZZ4mainENK3$_2clEx
	bl	__ZNSt3__16chrono12steady_clock3nowEv
	ldr	x1, [sp]                        ; 8-byte Folded Reload
	mov	x8, x0
	add	x0, sp, #32
	str	x8, [sp, #32]
	bl	__ZNSt3__16chronomiB8ne200100INS0_12steady_clockENS0_8durationIxNS_5ratioILl1ELl1000000000EEEEES6_EENS_11common_typeIJT0_T1_EE4typeERKNS0_10time_pointIT_S8_EERKNSC_ISD_S9_EE
	add	x1, sp, #16
	str	x0, [sp, #16]
	add	x0, sp, #24
	str	x0, [sp, #8]                    ; 8-byte Folded Spill
	bl	__ZNSt3__16chrono8durationIdNS_5ratioILl1ELl1EEEEC1B8ne200100IxNS2_ILl1ELl1000000000EEELi0EEERKNS1_IT_T0_EE
	ldr	x0, [sp, #8]                    ; 8-byte Folded Reload
	bl	__ZNKSt3__16chrono8durationIdNS_5ratioILl1ELl1EEEE5countB8ne200100Ev
	ldp	x29, x30, [sp, #64]             ; 16-byte Folded Reload
	add	sp, sp, #80
	ret
	.cfi_endproc
                                        ; -- End function
	.p2align	2                               ; -- Begin function _Z9time_loopIZ4mainE3$_3EdOT_x
__Z9time_loopIZ4mainE3$_3EdOT_x:        ; @"_Z9time_loopIZ4mainE3$_3EdOT_x"
	.cfi_startproc
; %bb.0:
	sub	sp, sp, #80
	stp	x29, x30, [sp, #64]             ; 16-byte Folded Spill
	add	x29, sp, #64
	.cfi_def_cfa w29, 16
	.cfi_offset w30, -8
	.cfi_offset w29, -16
	stur	x0, [x29, #-8]
	stur	x1, [x29, #-16]
	bl	__ZNSt3__16chrono12steady_clock3nowEv
	sub	x8, x29, #24
	str	x8, [sp]                        ; 8-byte Folded Spill
	stur	x0, [x29, #-24]
	ldur	x0, [x29, #-8]
	ldur	x1, [x29, #-16]
	bl	__ZZ4mainENK3$_3clEx
	bl	__ZNSt3__16chrono12steady_clock3nowEv
	ldr	x1, [sp]                        ; 8-byte Folded Reload
	mov	x8, x0
	add	x0, sp, #32
	str	x8, [sp, #32]
	bl	__ZNSt3__16chronomiB8ne200100INS0_12steady_clockENS0_8durationIxNS_5ratioILl1ELl1000000000EEEEES6_EENS_11common_typeIJT0_T1_EE4typeERKNS0_10time_pointIT_S8_EERKNSC_ISD_S9_EE
	add	x1, sp, #16
	str	x0, [sp, #16]
	add	x0, sp, #24
	str	x0, [sp, #8]                    ; 8-byte Folded Spill
	bl	__ZNSt3__16chrono8durationIdNS_5ratioILl1ELl1EEEEC1B8ne200100IxNS2_ILl1ELl1000000000EEELi0EEERKNS1_IT_T0_EE
	ldr	x0, [sp, #8]                    ; 8-byte Folded Reload
	bl	__ZNKSt3__16chrono8durationIdNS_5ratioILl1ELl1EEEE5countB8ne200100Ev
	ldp	x29, x30, [sp, #64]             ; 16-byte Folded Reload
	add	sp, sp, #80
	ret
	.cfi_endproc
                                        ; -- End function
	.private_extern	__ZNSt3__111__wrap_iterIPxEppB8ne200100Ev ; -- Begin function _ZNSt3__111__wrap_iterIPxEppB8ne200100Ev
	.globl	__ZNSt3__111__wrap_iterIPxEppB8ne200100Ev
	.weak_definition	__ZNSt3__111__wrap_iterIPxEppB8ne200100Ev
	.p2align	2
__ZNSt3__111__wrap_iterIPxEppB8ne200100Ev: ; @_ZNSt3__111__wrap_iterIPxEppB8ne200100Ev
	.cfi_startproc
; %bb.0:
	sub	sp, sp, #16
	.cfi_def_cfa_offset 16
	str	x0, [sp, #8]
	ldr	x0, [sp, #8]
	ldr	x8, [x0]
	add	x8, x8, #8
	str	x8, [x0]
	add	sp, sp, #16
	ret
	.cfi_endproc
                                        ; -- End function
	.private_extern	__ZNSt3__16vectorIxNS_9allocatorIxEEED1B8ne200100Ev ; -- Begin function _ZNSt3__16vectorIxNS_9allocatorIxEEED1B8ne200100Ev
	.globl	__ZNSt3__16vectorIxNS_9allocatorIxEEED1B8ne200100Ev
	.weak_def_can_be_hidden	__ZNSt3__16vectorIxNS_9allocatorIxEEED1B8ne200100Ev
	.p2align	2
__ZNSt3__16vectorIxNS_9allocatorIxEEED1B8ne200100Ev: ; @_ZNSt3__16vectorIxNS_9allocatorIxEEED1B8ne200100Ev
	.cfi_startproc
; %bb.0:
	sub	sp, sp, #32
	stp	x29, x30, [sp, #16]             ; 16-byte Folded Spill
	add	x29, sp, #16
	.cfi_def_cfa w29, 16
	.cfi_offset w30, -8
	.cfi_offset w29, -16
	str	x0, [sp, #8]
	ldr	x0, [sp, #8]
	str	x0, [sp]                        ; 8-byte Folded Spill
	bl	__ZNSt3__16vectorIxNS_9allocatorIxEEED2B8ne200100Ev
	ldr	x0, [sp]                        ; 8-byte Folded Reload
	ldp	x29, x30, [sp, #16]             ; 16-byte Folded Reload
	add	sp, sp, #32
	ret
	.cfi_endproc
                                        ; -- End function
	.private_extern	__ZNSt3__18ios_base4setfB8ne200100Ejj ; -- Begin function _ZNSt3__18ios_base4setfB8ne200100Ejj
	.globl	__ZNSt3__18ios_base4setfB8ne200100Ejj
	.weak_definition	__ZNSt3__18ios_base4setfB8ne200100Ejj
	.p2align	2
__ZNSt3__18ios_base4setfB8ne200100Ejj:  ; @_ZNSt3__18ios_base4setfB8ne200100Ejj
	.cfi_startproc
; %bb.0:
	sub	sp, sp, #48
	stp	x29, x30, [sp, #32]             ; 16-byte Folded Spill
	add	x29, sp, #32
	.cfi_def_cfa w29, 16
	.cfi_offset w30, -8
	.cfi_offset w29, -16
	stur	x0, [x29, #-8]
	stur	w1, [x29, #-12]
	str	w2, [sp, #16]
	ldur	x0, [x29, #-8]
	str	x0, [sp]                        ; 8-byte Folded Spill
	ldr	w8, [x0, #8]
	str	w8, [sp, #12]
	ldr	w1, [sp, #16]
	bl	__ZNSt3__18ios_base6unsetfB8ne200100Ej
	ldr	x9, [sp]                        ; 8-byte Folded Reload
	ldur	w8, [x29, #-12]
	ldr	w10, [sp, #16]
	and	w10, w8, w10
	ldr	w8, [x9, #8]
	orr	w8, w8, w10
	str	w8, [x9, #8]
	ldr	w0, [sp, #12]
	ldp	x29, x30, [sp, #32]             ; 16-byte Folded Reload
	add	sp, sp, #48
	ret
	.cfi_endproc
                                        ; -- End function
	.private_extern	__ZNSt3__18ios_base6unsetfB8ne200100Ej ; -- Begin function _ZNSt3__18ios_base6unsetfB8ne200100Ej
	.globl	__ZNSt3__18ios_base6unsetfB8ne200100Ej
	.weak_definition	__ZNSt3__18ios_base6unsetfB8ne200100Ej
	.p2align	2
__ZNSt3__18ios_base6unsetfB8ne200100Ej: ; @_ZNSt3__18ios_base6unsetfB8ne200100Ej
	.cfi_startproc
; %bb.0:
	sub	sp, sp, #16
	.cfi_def_cfa_offset 16
	str	x0, [sp, #8]
	str	w1, [sp, #4]
	ldr	x9, [sp, #8]
	ldr	w10, [sp, #4]
	ldr	w8, [x9, #8]
	bic	w8, w8, w10
	str	w8, [x9, #8]
	add	sp, sp, #16
	ret
	.cfi_endproc
                                        ; -- End function
	.private_extern	__ZNSt3__18__iom_t5C1B8ne200100Ei ; -- Begin function _ZNSt3__18__iom_t5C1B8ne200100Ei
	.globl	__ZNSt3__18__iom_t5C1B8ne200100Ei
	.weak_def_can_be_hidden	__ZNSt3__18__iom_t5C1B8ne200100Ei
	.p2align	2
__ZNSt3__18__iom_t5C1B8ne200100Ei:      ; @_ZNSt3__18__iom_t5C1B8ne200100Ei
	.cfi_startproc
; %bb.0:
	sub	sp, sp, #48
	stp	x29, x30, [sp, #32]             ; 16-byte Folded Spill
	add	x29, sp, #32
	.cfi_def_cfa w29, 16
	.cfi_offset w30, -8
	.cfi_offset w29, -16
	stur	x0, [x29, #-8]
	stur	w1, [x29, #-12]
	ldur	x0, [x29, #-8]
	str	x0, [sp, #8]                    ; 8-byte Folded Spill
	ldur	w1, [x29, #-12]
	bl	__ZNSt3__18__iom_t5C2B8ne200100Ei
	ldr	x0, [sp, #8]                    ; 8-byte Folded Reload
	ldp	x29, x30, [sp, #32]             ; 16-byte Folded Reload
	add	sp, sp, #48
	ret
	.cfi_endproc
                                        ; -- End function
	.private_extern	__ZNSt3__18__iom_t5C2B8ne200100Ei ; -- Begin function _ZNSt3__18__iom_t5C2B8ne200100Ei
	.globl	__ZNSt3__18__iom_t5C2B8ne200100Ei
	.weak_def_can_be_hidden	__ZNSt3__18__iom_t5C2B8ne200100Ei
	.p2align	2
__ZNSt3__18__iom_t5C2B8ne200100Ei:      ; @_ZNSt3__18__iom_t5C2B8ne200100Ei
	.cfi_startproc
; %bb.0:
	sub	sp, sp, #16
	.cfi_def_cfa_offset 16
	str	x0, [sp, #8]
	str	w1, [sp, #4]
	ldr	x0, [sp, #8]
	ldr	w8, [sp, #4]
	str	w8, [x0]
	add	sp, sp, #16
	ret
	.cfi_endproc
                                        ; -- End function
	.private_extern	__ZNSt3__1eqB8ne200100IPxEEbRKNS_11__wrap_iterIT_EES6_ ; -- Begin function _ZNSt3__1eqB8ne200100IPxEEbRKNS_11__wrap_iterIT_EES6_
	.globl	__ZNSt3__1eqB8ne200100IPxEEbRKNS_11__wrap_iterIT_EES6_
	.weak_definition	__ZNSt3__1eqB8ne200100IPxEEbRKNS_11__wrap_iterIT_EES6_
	.p2align	2
__ZNSt3__1eqB8ne200100IPxEEbRKNS_11__wrap_iterIT_EES6_: ; @_ZNSt3__1eqB8ne200100IPxEEbRKNS_11__wrap_iterIT_EES6_
	.cfi_startproc
; %bb.0:
	sub	sp, sp, #48
	stp	x29, x30, [sp, #32]             ; 16-byte Folded Spill
	add	x29, sp, #32
	.cfi_def_cfa w29, 16
	.cfi_offset w30, -8
	.cfi_offset w29, -16
	stur	x0, [x29, #-8]
	str	x1, [sp, #16]
	ldur	x0, [x29, #-8]
	bl	__ZNKSt3__111__wrap_iterIPxE4baseB8ne200100Ev
	str	x0, [sp, #8]                    ; 8-byte Folded Spill
	ldr	x0, [sp, #16]
	bl	__ZNKSt3__111__wrap_iterIPxE4baseB8ne200100Ev
	mov	x8, x0
	ldr	x0, [sp, #8]                    ; 8-byte Folded Reload
	subs	x8, x0, x8
	cset	w0, eq
	ldp	x29, x30, [sp, #32]             ; 16-byte Folded Reload
	add	sp, sp, #48
	ret
	.cfi_endproc
                                        ; -- End function
	.private_extern	__ZNKSt3__111__wrap_iterIPxE4baseB8ne200100Ev ; -- Begin function _ZNKSt3__111__wrap_iterIPxE4baseB8ne200100Ev
	.globl	__ZNKSt3__111__wrap_iterIPxE4baseB8ne200100Ev
	.weak_definition	__ZNKSt3__111__wrap_iterIPxE4baseB8ne200100Ev
	.p2align	2
__ZNKSt3__111__wrap_iterIPxE4baseB8ne200100Ev: ; @_ZNKSt3__111__wrap_iterIPxE4baseB8ne200100Ev
	.cfi_startproc
; %bb.0:
	sub	sp, sp, #16
	.cfi_def_cfa_offset 16
	str	x0, [sp, #8]
	ldr	x8, [sp, #8]
	ldr	x0, [x8]
	add	sp, sp, #16
	ret
	.cfi_endproc
                                        ; -- End function
	.globl	__ZN14BarretReistCtxC2Ex        ; -- Begin function _ZN14BarretReistCtxC2Ex
	.weak_def_can_be_hidden	__ZN14BarretReistCtxC2Ex
	.p2align	2
__ZN14BarretReistCtxC2Ex:               ; @_ZN14BarretReistCtxC2Ex
	.cfi_startproc
; %bb.0:
	sub	sp, sp, #32
	.cfi_def_cfa_offset 32
	str	x0, [sp, #24]
	str	x1, [sp, #16]
	ldr	x0, [sp, #24]
	ldr	x8, [sp, #16]
	str	x8, [x0]
	ldr	x9, [sp, #16]
	mov	x8, #1                          ; =0x1
	asr	x9, x9, #1
	str	x9, [x0, #8]
	mov	w9, #32                         ; =0x20
	str	w9, [x0, #24]
	ldr	d0, [x0]
	scvtf	d1, d0
	fmov	d0, #1.00000000
	fdiv	d0, d0, d1
	str	d0, [sp, #8]
	ldr	d0, [sp, #8]
	ldr	w9, [x0, #24]
                                        ; kill: def $x9 killed $w9
	lsl	x8, x8, x9
	ucvtf	d1, x8
	fmul	d0, d0, d1
	fcvtzu	x8, d0
	str	x8, [x0, #16]
	add	sp, sp, #32
	ret
	.cfi_endproc
                                        ; -- End function
	.globl	__ZN16BarretReistCtx32C2Ei      ; -- Begin function _ZN16BarretReistCtx32C2Ei
	.weak_def_can_be_hidden	__ZN16BarretReistCtx32C2Ei
	.p2align	2
__ZN16BarretReistCtx32C2Ei:             ; @_ZN16BarretReistCtx32C2Ei
	.cfi_startproc
; %bb.0:
	sub	sp, sp, #32
	.cfi_def_cfa_offset 32
	str	x0, [sp, #24]
	str	w1, [sp, #20]
	ldr	x0, [sp, #24]
	ldr	w8, [sp, #20]
	str	w8, [x0]
	ldr	w9, [sp, #20]
	mov	x8, #1                          ; =0x1
	asr	w9, w9, #1
	str	w9, [x0, #4]
	mov	w9, #32                         ; =0x20
	str	w9, [x0, #12]
	ldr	s1, [x0]
                                        ; implicit-def: $d0
	fmov	s0, s1
	sshll.2d	v0, v0, #0
                                        ; kill: def $d0 killed $d0 killed $q0
	scvtf	d1, d0
	fmov	d0, #1.00000000
	fdiv	d0, d0, d1
	str	d0, [sp, #8]
	ldr	d0, [sp, #8]
	ldr	w9, [x0, #12]
                                        ; kill: def $x9 killed $w9
	lsl	x8, x8, x9
	ucvtf	d1, x8
	fmul	d0, d0, d1
	fcvtzu	w8, d0
	str	w8, [x0, #8]
	add	sp, sp, #32
	ret
	.cfi_endproc
                                        ; -- End function
	.private_extern	__ZNSt3__16vectorIxNS_9allocatorIxEEEC2B8ne200100ESt16initializer_listIxE ; -- Begin function _ZNSt3__16vectorIxNS_9allocatorIxEEEC2B8ne200100ESt16initializer_listIxE
	.globl	__ZNSt3__16vectorIxNS_9allocatorIxEEEC2B8ne200100ESt16initializer_listIxE
	.weak_def_can_be_hidden	__ZNSt3__16vectorIxNS_9allocatorIxEEEC2B8ne200100ESt16initializer_listIxE
	.p2align	2
__ZNSt3__16vectorIxNS_9allocatorIxEEEC2B8ne200100ESt16initializer_listIxE: ; @_ZNSt3__16vectorIxNS_9allocatorIxEEEC2B8ne200100ESt16initializer_listIxE
	.cfi_startproc
; %bb.0:
	sub	sp, sp, #80
	stp	x29, x30, [sp, #64]             ; 16-byte Folded Spill
	add	x29, sp, #64
	.cfi_def_cfa w29, 16
	.cfi_offset w30, -8
	.cfi_offset w29, -16
	sub	x8, x29, #16
	str	x8, [sp, #8]                    ; 8-byte Folded Spill
	stur	x1, [x29, #-16]
	stur	x2, [x29, #-8]
	stur	x0, [x29, #-24]
	ldur	x8, [x29, #-24]
	str	x8, [sp, #32]                   ; 8-byte Folded Spill
                                        ; kill: def $x9 killed $xzr
	str	xzr, [x8]
	str	xzr, [x8, #8]
	str	xzr, [x8, #16]
	add	x0, x8, #16
	bl	__ZNSt3__19allocatorIxEC1B8ne200100Ev
	ldr	x0, [sp, #8]                    ; 8-byte Folded Reload
	bl	__ZNKSt16initializer_listIxE5beginB8ne200100Ev
	mov	x1, x0
	ldr	x0, [sp, #8]                    ; 8-byte Folded Reload
	str	x1, [sp, #16]                   ; 8-byte Folded Spill
	bl	__ZNKSt16initializer_listIxE3endB8ne200100Ev
	mov	x1, x0
	ldr	x0, [sp, #8]                    ; 8-byte Folded Reload
	str	x1, [sp, #24]                   ; 8-byte Folded Spill
	bl	__ZNKSt16initializer_listIxE4sizeB8ne200100Ev
	ldr	x1, [sp, #16]                   ; 8-byte Folded Reload
	ldr	x2, [sp, #24]                   ; 8-byte Folded Reload
	mov	x3, x0
	ldr	x0, [sp, #32]                   ; 8-byte Folded Reload
	bl	__ZNSt3__16vectorIxNS_9allocatorIxEEE16__init_with_sizeB8ne200100IPKxS6_EEvT_T0_m
	ldr	x0, [sp, #32]                   ; 8-byte Folded Reload
	ldp	x29, x30, [sp, #64]             ; 16-byte Folded Reload
	add	sp, sp, #80
	ret
	.cfi_endproc
                                        ; -- End function
	.private_extern	__ZNSt3__19allocatorIxEC1B8ne200100Ev ; -- Begin function _ZNSt3__19allocatorIxEC1B8ne200100Ev
	.globl	__ZNSt3__19allocatorIxEC1B8ne200100Ev
	.weak_def_can_be_hidden	__ZNSt3__19allocatorIxEC1B8ne200100Ev
	.p2align	2
__ZNSt3__19allocatorIxEC1B8ne200100Ev:  ; @_ZNSt3__19allocatorIxEC1B8ne200100Ev
	.cfi_startproc
; %bb.0:
	sub	sp, sp, #32
	stp	x29, x30, [sp, #16]             ; 16-byte Folded Spill
	add	x29, sp, #16
	.cfi_def_cfa w29, 16
	.cfi_offset w30, -8
	.cfi_offset w29, -16
	str	x0, [sp, #8]
	ldr	x0, [sp, #8]
	str	x0, [sp]                        ; 8-byte Folded Spill
	bl	__ZNSt3__19allocatorIxEC2B8ne200100Ev
	ldr	x0, [sp]                        ; 8-byte Folded Reload
	ldp	x29, x30, [sp, #16]             ; 16-byte Folded Reload
	add	sp, sp, #32
	ret
	.cfi_endproc
                                        ; -- End function
	.globl	__ZNSt3__16vectorIxNS_9allocatorIxEEE16__init_with_sizeB8ne200100IPKxS6_EEvT_T0_m ; -- Begin function _ZNSt3__16vectorIxNS_9allocatorIxEEE16__init_with_sizeB8ne200100IPKxS6_EEvT_T0_m
	.weak_definition	__ZNSt3__16vectorIxNS_9allocatorIxEEE16__init_with_sizeB8ne200100IPKxS6_EEvT_T0_m
	.p2align	2
__ZNSt3__16vectorIxNS_9allocatorIxEEE16__init_with_sizeB8ne200100IPKxS6_EEvT_T0_m: ; @_ZNSt3__16vectorIxNS_9allocatorIxEEE16__init_with_sizeB8ne200100IPKxS6_EEvT_T0_m
Lfunc_begin1:
	.cfi_startproc
	.cfi_personality 155, ___gxx_personality_v0
	.cfi_lsda 16, Lexception1
; %bb.0:
	sub	sp, sp, #112
	stp	x29, x30, [sp, #96]             ; 16-byte Folded Spill
	add	x29, sp, #96
	.cfi_def_cfa w29, 16
	.cfi_offset w30, -8
	.cfi_offset w29, -16
	stur	x0, [x29, #-8]
	stur	x1, [x29, #-16]
	stur	x2, [x29, #-24]
	stur	x3, [x29, #-32]
	ldur	x1, [x29, #-8]
	str	x1, [sp, #16]                   ; 8-byte Folded Spill
	add	x0, sp, #40
	bl	__ZNSt3__16vectorIxNS_9allocatorIxEEE16__destroy_vectorC1B8ne200100ERS3_
	ldr	x0, [sp, #40]
	add	x8, sp, #48
	bl	__ZNSt3__122__make_exception_guardB8ne200100INS_6vectorIxNS_9allocatorIxEEE16__destroy_vectorEEENS_28__exception_guard_exceptionsIT_EES7_
	ldur	x8, [x29, #-32]
	subs	x8, x8, #0
	b.ls	LBB31_5
	b	LBB31_1
LBB31_1:
	ldr	x0, [sp, #16]                   ; 8-byte Folded Reload
	ldur	x1, [x29, #-32]
Ltmp111:
	bl	__ZNSt3__16vectorIxNS_9allocatorIxEEE11__vallocateB8ne200100Em
Ltmp112:
	b	LBB31_2
LBB31_2:
	ldr	x0, [sp, #16]                   ; 8-byte Folded Reload
	ldur	x1, [x29, #-16]
	ldur	x2, [x29, #-24]
	ldur	x3, [x29, #-32]
Ltmp113:
	bl	__ZNSt3__16vectorIxNS_9allocatorIxEEE18__construct_at_endIPKxS6_EEvT_T0_m
Ltmp114:
	b	LBB31_3
LBB31_3:
	b	LBB31_5
LBB31_4:
Ltmp115:
	str	x0, [sp, #32]
	mov	x8, x1
	str	w8, [sp, #28]
	add	x0, sp, #48
	bl	__ZNSt3__128__exception_guard_exceptionsINS_6vectorIxNS_9allocatorIxEEE16__destroy_vectorEED1B8ne200100Ev
	b	LBB31_6
LBB31_5:
	add	x0, sp, #48
	str	x0, [sp, #8]                    ; 8-byte Folded Spill
	bl	__ZNSt3__128__exception_guard_exceptionsINS_6vectorIxNS_9allocatorIxEEE16__destroy_vectorEE10__completeB8ne200100Ev
	ldr	x0, [sp, #8]                    ; 8-byte Folded Reload
	bl	__ZNSt3__128__exception_guard_exceptionsINS_6vectorIxNS_9allocatorIxEEE16__destroy_vectorEED1B8ne200100Ev
	ldp	x29, x30, [sp, #96]             ; 16-byte Folded Reload
	add	sp, sp, #112
	ret
LBB31_6:
	ldr	x0, [sp, #32]
	bl	__Unwind_Resume
Lfunc_end1:
	.cfi_endproc
	.section	__TEXT,__gcc_except_tab
	.p2align	2, 0x0
GCC_except_table31:
Lexception1:
	.byte	255                             ; @LPStart Encoding = omit
	.byte	255                             ; @TType Encoding = omit
	.byte	1                               ; Call site Encoding = uleb128
	.uleb128 Lcst_end1-Lcst_begin1
Lcst_begin1:
	.uleb128 Lfunc_begin1-Lfunc_begin1      ; >> Call Site 1 <<
	.uleb128 Ltmp111-Lfunc_begin1           ;   Call between Lfunc_begin1 and Ltmp111
	.byte	0                               ;     has no landing pad
	.byte	0                               ;   On action: cleanup
	.uleb128 Ltmp111-Lfunc_begin1           ; >> Call Site 2 <<
	.uleb128 Ltmp114-Ltmp111                ;   Call between Ltmp111 and Ltmp114
	.uleb128 Ltmp115-Lfunc_begin1           ;     jumps to Ltmp115
	.byte	0                               ;   On action: cleanup
	.uleb128 Ltmp114-Lfunc_begin1           ; >> Call Site 3 <<
	.uleb128 Lfunc_end1-Ltmp114             ;   Call between Ltmp114 and Lfunc_end1
	.byte	0                               ;     has no landing pad
	.byte	0                               ;   On action: cleanup
Lcst_end1:
	.p2align	2, 0x0
                                        ; -- End function
	.section	__TEXT,__text,regular,pure_instructions
	.private_extern	__ZNKSt16initializer_listIxE5beginB8ne200100Ev ; -- Begin function _ZNKSt16initializer_listIxE5beginB8ne200100Ev
	.globl	__ZNKSt16initializer_listIxE5beginB8ne200100Ev
	.weak_definition	__ZNKSt16initializer_listIxE5beginB8ne200100Ev
	.p2align	2
__ZNKSt16initializer_listIxE5beginB8ne200100Ev: ; @_ZNKSt16initializer_listIxE5beginB8ne200100Ev
	.cfi_startproc
; %bb.0:
	sub	sp, sp, #16
	.cfi_def_cfa_offset 16
	str	x0, [sp, #8]
	ldr	x8, [sp, #8]
	ldr	x0, [x8]
	add	sp, sp, #16
	ret
	.cfi_endproc
                                        ; -- End function
	.private_extern	__ZNKSt16initializer_listIxE3endB8ne200100Ev ; -- Begin function _ZNKSt16initializer_listIxE3endB8ne200100Ev
	.globl	__ZNKSt16initializer_listIxE3endB8ne200100Ev
	.weak_definition	__ZNKSt16initializer_listIxE3endB8ne200100Ev
	.p2align	2
__ZNKSt16initializer_listIxE3endB8ne200100Ev: ; @_ZNKSt16initializer_listIxE3endB8ne200100Ev
	.cfi_startproc
; %bb.0:
	sub	sp, sp, #16
	.cfi_def_cfa_offset 16
	str	x0, [sp, #8]
	ldr	x9, [sp, #8]
	ldr	x8, [x9]
	ldr	x9, [x9, #8]
	add	x0, x8, x9, lsl #3
	add	sp, sp, #16
	ret
	.cfi_endproc
                                        ; -- End function
	.private_extern	__ZNKSt16initializer_listIxE4sizeB8ne200100Ev ; -- Begin function _ZNKSt16initializer_listIxE4sizeB8ne200100Ev
	.globl	__ZNKSt16initializer_listIxE4sizeB8ne200100Ev
	.weak_definition	__ZNKSt16initializer_listIxE4sizeB8ne200100Ev
	.p2align	2
__ZNKSt16initializer_listIxE4sizeB8ne200100Ev: ; @_ZNKSt16initializer_listIxE4sizeB8ne200100Ev
	.cfi_startproc
; %bb.0:
	sub	sp, sp, #16
	.cfi_def_cfa_offset 16
	str	x0, [sp, #8]
	ldr	x8, [sp, #8]
	ldr	x0, [x8, #8]
	add	sp, sp, #16
	ret
	.cfi_endproc
                                        ; -- End function
	.private_extern	__ZNSt3__19allocatorIxEC2B8ne200100Ev ; -- Begin function _ZNSt3__19allocatorIxEC2B8ne200100Ev
	.globl	__ZNSt3__19allocatorIxEC2B8ne200100Ev
	.weak_def_can_be_hidden	__ZNSt3__19allocatorIxEC2B8ne200100Ev
	.p2align	2
__ZNSt3__19allocatorIxEC2B8ne200100Ev:  ; @_ZNSt3__19allocatorIxEC2B8ne200100Ev
	.cfi_startproc
; %bb.0:
	sub	sp, sp, #32
	stp	x29, x30, [sp, #16]             ; 16-byte Folded Spill
	add	x29, sp, #16
	.cfi_def_cfa w29, 16
	.cfi_offset w30, -8
	.cfi_offset w29, -16
	str	x0, [sp, #8]
	ldr	x0, [sp, #8]
	str	x0, [sp]                        ; 8-byte Folded Spill
	bl	__ZNSt3__116__non_trivial_ifILb1ENS_9allocatorIxEEEC2B8ne200100Ev
	ldr	x0, [sp]                        ; 8-byte Folded Reload
	ldp	x29, x30, [sp, #16]             ; 16-byte Folded Reload
	add	sp, sp, #32
	ret
	.cfi_endproc
                                        ; -- End function
	.private_extern	__ZNSt3__116__non_trivial_ifILb1ENS_9allocatorIxEEEC2B8ne200100Ev ; -- Begin function _ZNSt3__116__non_trivial_ifILb1ENS_9allocatorIxEEEC2B8ne200100Ev
	.globl	__ZNSt3__116__non_trivial_ifILb1ENS_9allocatorIxEEEC2B8ne200100Ev
	.weak_def_can_be_hidden	__ZNSt3__116__non_trivial_ifILb1ENS_9allocatorIxEEEC2B8ne200100Ev
	.p2align	2
__ZNSt3__116__non_trivial_ifILb1ENS_9allocatorIxEEEC2B8ne200100Ev: ; @_ZNSt3__116__non_trivial_ifILb1ENS_9allocatorIxEEEC2B8ne200100Ev
	.cfi_startproc
; %bb.0:
	sub	sp, sp, #16
	.cfi_def_cfa_offset 16
	str	x0, [sp, #8]
	ldr	x0, [sp, #8]
	add	sp, sp, #16
	ret
	.cfi_endproc
                                        ; -- End function
	.private_extern	__ZNSt3__122__make_exception_guardB8ne200100INS_6vectorIxNS_9allocatorIxEEE16__destroy_vectorEEENS_28__exception_guard_exceptionsIT_EES7_ ; -- Begin function _ZNSt3__122__make_exception_guardB8ne200100INS_6vectorIxNS_9allocatorIxEEE16__destroy_vectorEEENS_28__exception_guard_exceptionsIT_EES7_
	.globl	__ZNSt3__122__make_exception_guardB8ne200100INS_6vectorIxNS_9allocatorIxEEE16__destroy_vectorEEENS_28__exception_guard_exceptionsIT_EES7_
	.weak_definition	__ZNSt3__122__make_exception_guardB8ne200100INS_6vectorIxNS_9allocatorIxEEE16__destroy_vectorEEENS_28__exception_guard_exceptionsIT_EES7_
	.p2align	2
__ZNSt3__122__make_exception_guardB8ne200100INS_6vectorIxNS_9allocatorIxEEE16__destroy_vectorEEENS_28__exception_guard_exceptionsIT_EES7_: ; @_ZNSt3__122__make_exception_guardB8ne200100INS_6vectorIxNS_9allocatorIxEEE16__destroy_vectorEEENS_28__exception_guard_exceptionsIT_EES7_
	.cfi_startproc
; %bb.0:
	sub	sp, sp, #48
	stp	x29, x30, [sp, #32]             ; 16-byte Folded Spill
	add	x29, sp, #32
	.cfi_def_cfa w29, 16
	.cfi_offset w30, -8
	.cfi_offset w29, -16
	str	x8, [sp]                        ; 8-byte Folded Spill
	mov	x8, x0
	ldr	x0, [sp]                        ; 8-byte Folded Reload
	mov	x9, x0
	stur	x9, [x29, #-8]
	str	x8, [sp, #16]
	ldr	x8, [sp, #16]
	str	x8, [sp, #8]
	ldr	x1, [sp, #8]
	bl	__ZNSt3__128__exception_guard_exceptionsINS_6vectorIxNS_9allocatorIxEEE16__destroy_vectorEEC1B8ne200100ES5_
	ldp	x29, x30, [sp, #32]             ; 16-byte Folded Reload
	add	sp, sp, #48
	ret
	.cfi_endproc
                                        ; -- End function
	.private_extern	__ZNSt3__16vectorIxNS_9allocatorIxEEE16__destroy_vectorC1B8ne200100ERS3_ ; -- Begin function _ZNSt3__16vectorIxNS_9allocatorIxEEE16__destroy_vectorC1B8ne200100ERS3_
	.globl	__ZNSt3__16vectorIxNS_9allocatorIxEEE16__destroy_vectorC1B8ne200100ERS3_
	.weak_def_can_be_hidden	__ZNSt3__16vectorIxNS_9allocatorIxEEE16__destroy_vectorC1B8ne200100ERS3_
	.p2align	2
__ZNSt3__16vectorIxNS_9allocatorIxEEE16__destroy_vectorC1B8ne200100ERS3_: ; @_ZNSt3__16vectorIxNS_9allocatorIxEEE16__destroy_vectorC1B8ne200100ERS3_
	.cfi_startproc
; %bb.0:
	sub	sp, sp, #48
	stp	x29, x30, [sp, #32]             ; 16-byte Folded Spill
	add	x29, sp, #32
	.cfi_def_cfa w29, 16
	.cfi_offset w30, -8
	.cfi_offset w29, -16
	stur	x0, [x29, #-8]
	str	x1, [sp, #16]
	ldur	x0, [x29, #-8]
	str	x0, [sp, #8]                    ; 8-byte Folded Spill
	ldr	x1, [sp, #16]
	bl	__ZNSt3__16vectorIxNS_9allocatorIxEEE16__destroy_vectorC2B8ne200100ERS3_
	ldr	x0, [sp, #8]                    ; 8-byte Folded Reload
	ldp	x29, x30, [sp, #32]             ; 16-byte Folded Reload
	add	sp, sp, #48
	ret
	.cfi_endproc
                                        ; -- End function
	.private_extern	__ZNSt3__16vectorIxNS_9allocatorIxEEE11__vallocateB8ne200100Em ; -- Begin function _ZNSt3__16vectorIxNS_9allocatorIxEEE11__vallocateB8ne200100Em
	.globl	__ZNSt3__16vectorIxNS_9allocatorIxEEE11__vallocateB8ne200100Em
	.weak_definition	__ZNSt3__16vectorIxNS_9allocatorIxEEE11__vallocateB8ne200100Em
	.p2align	2
__ZNSt3__16vectorIxNS_9allocatorIxEEE11__vallocateB8ne200100Em: ; @_ZNSt3__16vectorIxNS_9allocatorIxEEE11__vallocateB8ne200100Em
	.cfi_startproc
; %bb.0:
	sub	sp, sp, #64
	stp	x29, x30, [sp, #48]             ; 16-byte Folded Spill
	add	x29, sp, #48
	.cfi_def_cfa w29, 16
	.cfi_offset w30, -8
	.cfi_offset w29, -16
	stur	x0, [x29, #-8]
	stur	x1, [x29, #-16]
	ldur	x0, [x29, #-8]
	str	x0, [sp]                        ; 8-byte Folded Spill
	ldur	x8, [x29, #-16]
	str	x8, [sp, #8]                    ; 8-byte Folded Spill
	bl	__ZNKSt3__16vectorIxNS_9allocatorIxEEE8max_sizeB8ne200100Ev
	ldr	x8, [sp, #8]                    ; 8-byte Folded Reload
	subs	x8, x8, x0
	b.ls	LBB39_2
	b	LBB39_1
LBB39_1:
	bl	__ZNSt3__16vectorIxNS_9allocatorIxEEE20__throw_length_errorB8ne200100Ev
LBB39_2:
	ldr	x8, [sp]                        ; 8-byte Folded Reload
	add	x0, x8, #16
	ldur	x1, [x29, #-16]
	bl	__ZNSt3__119__allocate_at_leastB8ne200100INS_9allocatorIxEEEENS_19__allocation_resultINS_16allocator_traitsIT_E7pointerEEERS5_m
	mov	x8, x0
	ldr	x0, [sp]                        ; 8-byte Folded Reload
	str	x8, [sp, #16]
	str	x1, [sp, #24]
	ldr	x8, [sp, #16]
	str	x8, [x0]
	ldr	x8, [sp, #16]
	str	x8, [x0, #8]
	ldr	x8, [x0]
	ldr	x9, [sp, #24]
	add	x8, x8, x9, lsl #3
	str	x8, [x0, #16]
	mov	x1, #0                          ; =0x0
	bl	__ZNKSt3__16vectorIxNS_9allocatorIxEEE14__annotate_newB8ne200100Em
	ldp	x29, x30, [sp, #48]             ; 16-byte Folded Reload
	add	sp, sp, #64
	ret
	.cfi_endproc
                                        ; -- End function
	.globl	__ZNSt3__16vectorIxNS_9allocatorIxEEE18__construct_at_endIPKxS6_EEvT_T0_m ; -- Begin function _ZNSt3__16vectorIxNS_9allocatorIxEEE18__construct_at_endIPKxS6_EEvT_T0_m
	.weak_definition	__ZNSt3__16vectorIxNS_9allocatorIxEEE18__construct_at_endIPKxS6_EEvT_T0_m
	.p2align	2
__ZNSt3__16vectorIxNS_9allocatorIxEEE18__construct_at_endIPKxS6_EEvT_T0_m: ; @_ZNSt3__16vectorIxNS_9allocatorIxEEE18__construct_at_endIPKxS6_EEvT_T0_m
Lfunc_begin2:
	.cfi_startproc
	.cfi_personality 155, ___gxx_personality_v0
	.cfi_lsda 16, Lexception2
; %bb.0:
	sub	sp, sp, #112
	stp	x29, x30, [sp, #96]             ; 16-byte Folded Spill
	add	x29, sp, #96
	.cfi_def_cfa w29, 16
	.cfi_offset w30, -8
	.cfi_offset w29, -16
	stur	x0, [x29, #-8]
	stur	x1, [x29, #-16]
	stur	x2, [x29, #-24]
	stur	x3, [x29, #-32]
	ldur	x1, [x29, #-8]
	str	x1, [sp, #8]                    ; 8-byte Folded Spill
	ldur	x2, [x29, #-32]
	add	x0, sp, #40
	bl	__ZNSt3__16vectorIxNS_9allocatorIxEEE21_ConstructTransactionC1B8ne200100ERS3_m
	ldr	x8, [sp, #8]                    ; 8-byte Folded Reload
	ldur	x1, [x29, #-16]
	ldur	x2, [x29, #-24]
	ldr	x3, [sp, #48]
Ltmp120:
	add	x0, x8, #16
	bl	__ZNSt3__130__uninitialized_allocator_copyB8ne200100INS_9allocatorIxEEPKxS4_PxEET2_RT_T0_T1_S6_
	str	x0, [sp, #16]                   ; 8-byte Folded Spill
Ltmp121:
	b	LBB40_1
LBB40_1:
	ldr	x8, [sp, #16]                   ; 8-byte Folded Reload
	add	x0, sp, #40
	str	x8, [sp, #48]
	bl	__ZNSt3__16vectorIxNS_9allocatorIxEEE21_ConstructTransactionD1B8ne200100Ev
	ldp	x29, x30, [sp, #96]             ; 16-byte Folded Reload
	add	sp, sp, #112
	ret
LBB40_2:
Ltmp122:
	str	x0, [sp, #32]
	mov	x8, x1
	str	w8, [sp, #28]
	add	x0, sp, #40
	bl	__ZNSt3__16vectorIxNS_9allocatorIxEEE21_ConstructTransactionD1B8ne200100Ev
	b	LBB40_3
LBB40_3:
	ldr	x0, [sp, #32]
	bl	__Unwind_Resume
Lfunc_end2:
	.cfi_endproc
	.section	__TEXT,__gcc_except_tab
	.p2align	2, 0x0
GCC_except_table40:
Lexception2:
	.byte	255                             ; @LPStart Encoding = omit
	.byte	255                             ; @TType Encoding = omit
	.byte	1                               ; Call site Encoding = uleb128
	.uleb128 Lcst_end2-Lcst_begin2
Lcst_begin2:
	.uleb128 Lfunc_begin2-Lfunc_begin2      ; >> Call Site 1 <<
	.uleb128 Ltmp120-Lfunc_begin2           ;   Call between Lfunc_begin2 and Ltmp120
	.byte	0                               ;     has no landing pad
	.byte	0                               ;   On action: cleanup
	.uleb128 Ltmp120-Lfunc_begin2           ; >> Call Site 2 <<
	.uleb128 Ltmp121-Ltmp120                ;   Call between Ltmp120 and Ltmp121
	.uleb128 Ltmp122-Lfunc_begin2           ;     jumps to Ltmp122
	.byte	0                               ;   On action: cleanup
	.uleb128 Ltmp121-Lfunc_begin2           ; >> Call Site 3 <<
	.uleb128 Lfunc_end2-Ltmp121             ;   Call between Ltmp121 and Lfunc_end2
	.byte	0                               ;     has no landing pad
	.byte	0                               ;   On action: cleanup
Lcst_end2:
	.p2align	2, 0x0
                                        ; -- End function
	.section	__TEXT,__text,regular,pure_instructions
	.private_extern	__ZNSt3__128__exception_guard_exceptionsINS_6vectorIxNS_9allocatorIxEEE16__destroy_vectorEE10__completeB8ne200100Ev ; -- Begin function _ZNSt3__128__exception_guard_exceptionsINS_6vectorIxNS_9allocatorIxEEE16__destroy_vectorEE10__completeB8ne200100Ev
	.globl	__ZNSt3__128__exception_guard_exceptionsINS_6vectorIxNS_9allocatorIxEEE16__destroy_vectorEE10__completeB8ne200100Ev
	.weak_definition	__ZNSt3__128__exception_guard_exceptionsINS_6vectorIxNS_9allocatorIxEEE16__destroy_vectorEE10__completeB8ne200100Ev
	.p2align	2
__ZNSt3__128__exception_guard_exceptionsINS_6vectorIxNS_9allocatorIxEEE16__destroy_vectorEE10__completeB8ne200100Ev: ; @_ZNSt3__128__exception_guard_exceptionsINS_6vectorIxNS_9allocatorIxEEE16__destroy_vectorEE10__completeB8ne200100Ev
	.cfi_startproc
; %bb.0:
	sub	sp, sp, #16
	.cfi_def_cfa_offset 16
	str	x0, [sp, #8]
	ldr	x9, [sp, #8]
	mov	w8, #1                          ; =0x1
	strb	w8, [x9, #8]
	add	sp, sp, #16
	ret
	.cfi_endproc
                                        ; -- End function
	.private_extern	__ZNSt3__128__exception_guard_exceptionsINS_6vectorIxNS_9allocatorIxEEE16__destroy_vectorEED1B8ne200100Ev ; -- Begin function _ZNSt3__128__exception_guard_exceptionsINS_6vectorIxNS_9allocatorIxEEE16__destroy_vectorEED1B8ne200100Ev
	.globl	__ZNSt3__128__exception_guard_exceptionsINS_6vectorIxNS_9allocatorIxEEE16__destroy_vectorEED1B8ne200100Ev
	.weak_def_can_be_hidden	__ZNSt3__128__exception_guard_exceptionsINS_6vectorIxNS_9allocatorIxEEE16__destroy_vectorEED1B8ne200100Ev
	.p2align	2
__ZNSt3__128__exception_guard_exceptionsINS_6vectorIxNS_9allocatorIxEEE16__destroy_vectorEED1B8ne200100Ev: ; @_ZNSt3__128__exception_guard_exceptionsINS_6vectorIxNS_9allocatorIxEEE16__destroy_vectorEED1B8ne200100Ev
	.cfi_startproc
; %bb.0:
	sub	sp, sp, #32
	stp	x29, x30, [sp, #16]             ; 16-byte Folded Spill
	add	x29, sp, #16
	.cfi_def_cfa w29, 16
	.cfi_offset w30, -8
	.cfi_offset w29, -16
	str	x0, [sp, #8]
	ldr	x0, [sp, #8]
	str	x0, [sp]                        ; 8-byte Folded Spill
	bl	__ZNSt3__128__exception_guard_exceptionsINS_6vectorIxNS_9allocatorIxEEE16__destroy_vectorEED2B8ne200100Ev
	ldr	x0, [sp]                        ; 8-byte Folded Reload
	ldp	x29, x30, [sp, #16]             ; 16-byte Folded Reload
	add	sp, sp, #32
	ret
	.cfi_endproc
                                        ; -- End function
	.private_extern	__ZNSt3__128__exception_guard_exceptionsINS_6vectorIxNS_9allocatorIxEEE16__destroy_vectorEEC1B8ne200100ES5_ ; -- Begin function _ZNSt3__128__exception_guard_exceptionsINS_6vectorIxNS_9allocatorIxEEE16__destroy_vectorEEC1B8ne200100ES5_
	.globl	__ZNSt3__128__exception_guard_exceptionsINS_6vectorIxNS_9allocatorIxEEE16__destroy_vectorEEC1B8ne200100ES5_
	.weak_def_can_be_hidden	__ZNSt3__128__exception_guard_exceptionsINS_6vectorIxNS_9allocatorIxEEE16__destroy_vectorEEC1B8ne200100ES5_
	.p2align	2
__ZNSt3__128__exception_guard_exceptionsINS_6vectorIxNS_9allocatorIxEEE16__destroy_vectorEEC1B8ne200100ES5_: ; @_ZNSt3__128__exception_guard_exceptionsINS_6vectorIxNS_9allocatorIxEEE16__destroy_vectorEEC1B8ne200100ES5_
	.cfi_startproc
; %bb.0:
	sub	sp, sp, #48
	stp	x29, x30, [sp, #32]             ; 16-byte Folded Spill
	add	x29, sp, #32
	.cfi_def_cfa w29, 16
	.cfi_offset w30, -8
	.cfi_offset w29, -16
	stur	x1, [x29, #-8]
	str	x0, [sp, #16]
	ldr	x0, [sp, #16]
	str	x0, [sp, #8]                    ; 8-byte Folded Spill
	ldur	x1, [x29, #-8]
	bl	__ZNSt3__128__exception_guard_exceptionsINS_6vectorIxNS_9allocatorIxEEE16__destroy_vectorEEC2B8ne200100ES5_
	ldr	x0, [sp, #8]                    ; 8-byte Folded Reload
	ldp	x29, x30, [sp, #32]             ; 16-byte Folded Reload
	add	sp, sp, #48
	ret
	.cfi_endproc
                                        ; -- End function
	.private_extern	__ZNSt3__128__exception_guard_exceptionsINS_6vectorIxNS_9allocatorIxEEE16__destroy_vectorEEC2B8ne200100ES5_ ; -- Begin function _ZNSt3__128__exception_guard_exceptionsINS_6vectorIxNS_9allocatorIxEEE16__destroy_vectorEEC2B8ne200100ES5_
	.globl	__ZNSt3__128__exception_guard_exceptionsINS_6vectorIxNS_9allocatorIxEEE16__destroy_vectorEEC2B8ne200100ES5_
	.weak_def_can_be_hidden	__ZNSt3__128__exception_guard_exceptionsINS_6vectorIxNS_9allocatorIxEEE16__destroy_vectorEEC2B8ne200100ES5_
	.p2align	2
__ZNSt3__128__exception_guard_exceptionsINS_6vectorIxNS_9allocatorIxEEE16__destroy_vectorEEC2B8ne200100ES5_: ; @_ZNSt3__128__exception_guard_exceptionsINS_6vectorIxNS_9allocatorIxEEE16__destroy_vectorEEC2B8ne200100ES5_
	.cfi_startproc
; %bb.0:
	sub	sp, sp, #16
	.cfi_def_cfa_offset 16
	str	x1, [sp, #8]
	str	x0, [sp]
	ldr	x0, [sp]
	ldr	x8, [sp, #8]
	str	x8, [x0]
	strb	wzr, [x0, #8]
	add	sp, sp, #16
	ret
	.cfi_endproc
                                        ; -- End function
	.private_extern	__ZNSt3__16vectorIxNS_9allocatorIxEEE16__destroy_vectorC2B8ne200100ERS3_ ; -- Begin function _ZNSt3__16vectorIxNS_9allocatorIxEEE16__destroy_vectorC2B8ne200100ERS3_
	.globl	__ZNSt3__16vectorIxNS_9allocatorIxEEE16__destroy_vectorC2B8ne200100ERS3_
	.weak_def_can_be_hidden	__ZNSt3__16vectorIxNS_9allocatorIxEEE16__destroy_vectorC2B8ne200100ERS3_
	.p2align	2
__ZNSt3__16vectorIxNS_9allocatorIxEEE16__destroy_vectorC2B8ne200100ERS3_: ; @_ZNSt3__16vectorIxNS_9allocatorIxEEE16__destroy_vectorC2B8ne200100ERS3_
	.cfi_startproc
; %bb.0:
	sub	sp, sp, #16
	.cfi_def_cfa_offset 16
	str	x0, [sp, #8]
	str	x1, [sp]
	ldr	x0, [sp, #8]
	ldr	x8, [sp]
	str	x8, [x0]
	add	sp, sp, #16
	ret
	.cfi_endproc
                                        ; -- End function
	.private_extern	__ZNKSt3__16vectorIxNS_9allocatorIxEEE8max_sizeB8ne200100Ev ; -- Begin function _ZNKSt3__16vectorIxNS_9allocatorIxEEE8max_sizeB8ne200100Ev
	.globl	__ZNKSt3__16vectorIxNS_9allocatorIxEEE8max_sizeB8ne200100Ev
	.weak_definition	__ZNKSt3__16vectorIxNS_9allocatorIxEEE8max_sizeB8ne200100Ev
	.p2align	2
__ZNKSt3__16vectorIxNS_9allocatorIxEEE8max_sizeB8ne200100Ev: ; @_ZNKSt3__16vectorIxNS_9allocatorIxEEE8max_sizeB8ne200100Ev
Lfunc_begin3:
	.cfi_startproc
	.cfi_personality 155, ___gxx_personality_v0
	.cfi_lsda 16, Lexception3
; %bb.0:
	sub	sp, sp, #64
	stp	x29, x30, [sp, #48]             ; 16-byte Folded Spill
	add	x29, sp, #48
	.cfi_def_cfa w29, 16
	.cfi_offset w30, -8
	.cfi_offset w29, -16
	stur	x0, [x29, #-8]
	ldur	x8, [x29, #-8]
	add	x0, x8, #16
	bl	__ZNSt3__116allocator_traitsINS_9allocatorIxEEE8max_sizeB8ne200100IS2_Li0EEEmRKS2_
	sub	x8, x29, #16
	str	x8, [sp, #8]                    ; 8-byte Folded Spill
	stur	x0, [x29, #-16]
	bl	__ZNSt3__114numeric_limitsIlE3maxB8ne200100Ev
	mov	x8, x0
	ldr	x0, [sp, #8]                    ; 8-byte Folded Reload
	add	x1, sp, #24
	str	x8, [sp, #24]
Ltmp126:
	bl	__ZNSt3__13minB8ne200100ImEERKT_S3_S3_
	str	x0, [sp, #16]                   ; 8-byte Folded Spill
Ltmp127:
	b	LBB46_1
LBB46_1:
	ldr	x8, [sp, #16]                   ; 8-byte Folded Reload
	ldr	x0, [x8]
	ldp	x29, x30, [sp, #48]             ; 16-byte Folded Reload
	add	sp, sp, #64
	ret
LBB46_2:
Ltmp128:
	bl	___clang_call_terminate
Lfunc_end3:
	.cfi_endproc
	.section	__TEXT,__gcc_except_tab
	.p2align	2, 0x0
GCC_except_table46:
Lexception3:
	.byte	255                             ; @LPStart Encoding = omit
	.byte	155                             ; @TType Encoding = indirect pcrel sdata4
	.uleb128 Lttbase0-Lttbaseref0
Lttbaseref0:
	.byte	1                               ; Call site Encoding = uleb128
	.uleb128 Lcst_end3-Lcst_begin3
Lcst_begin3:
	.uleb128 Ltmp126-Lfunc_begin3           ; >> Call Site 1 <<
	.uleb128 Ltmp127-Ltmp126                ;   Call between Ltmp126 and Ltmp127
	.uleb128 Ltmp128-Lfunc_begin3           ;     jumps to Ltmp128
	.byte	1                               ;   On action: 1
Lcst_end3:
	.byte	1                               ; >> Action Record 1 <<
                                        ;   Catch TypeInfo 1
	.byte	0                               ;   No further actions
	.p2align	2, 0x0
                                        ; >> Catch TypeInfos <<
	.long	0                               ; TypeInfo 1
Lttbase0:
	.p2align	2, 0x0
                                        ; -- End function
	.section	__TEXT,__text,regular,pure_instructions
	.private_extern	__ZNSt3__16vectorIxNS_9allocatorIxEEE20__throw_length_errorB8ne200100Ev ; -- Begin function _ZNSt3__16vectorIxNS_9allocatorIxEEE20__throw_length_errorB8ne200100Ev
	.globl	__ZNSt3__16vectorIxNS_9allocatorIxEEE20__throw_length_errorB8ne200100Ev
	.weak_definition	__ZNSt3__16vectorIxNS_9allocatorIxEEE20__throw_length_errorB8ne200100Ev
	.p2align	2
__ZNSt3__16vectorIxNS_9allocatorIxEEE20__throw_length_errorB8ne200100Ev: ; @_ZNSt3__16vectorIxNS_9allocatorIxEEE20__throw_length_errorB8ne200100Ev
	.cfi_startproc
; %bb.0:
	stp	x29, x30, [sp, #-16]!           ; 16-byte Folded Spill
	mov	x29, sp
	.cfi_def_cfa w29, 16
	.cfi_offset w30, -8
	.cfi_offset w29, -16
	adrp	x0, l_.str.18@PAGE
	add	x0, x0, l_.str.18@PAGEOFF
	bl	__ZNSt3__120__throw_length_errorB8ne200100EPKc
	.cfi_endproc
                                        ; -- End function
	.private_extern	__ZNSt3__119__allocate_at_leastB8ne200100INS_9allocatorIxEEEENS_19__allocation_resultINS_16allocator_traitsIT_E7pointerEEERS5_m ; -- Begin function _ZNSt3__119__allocate_at_leastB8ne200100INS_9allocatorIxEEEENS_19__allocation_resultINS_16allocator_traitsIT_E7pointerEEERS5_m
	.globl	__ZNSt3__119__allocate_at_leastB8ne200100INS_9allocatorIxEEEENS_19__allocation_resultINS_16allocator_traitsIT_E7pointerEEERS5_m
	.weak_definition	__ZNSt3__119__allocate_at_leastB8ne200100INS_9allocatorIxEEEENS_19__allocation_resultINS_16allocator_traitsIT_E7pointerEEERS5_m
	.p2align	2
__ZNSt3__119__allocate_at_leastB8ne200100INS_9allocatorIxEEEENS_19__allocation_resultINS_16allocator_traitsIT_E7pointerEEERS5_m: ; @_ZNSt3__119__allocate_at_leastB8ne200100INS_9allocatorIxEEEENS_19__allocation_resultINS_16allocator_traitsIT_E7pointerEEERS5_m
	.cfi_startproc
; %bb.0:
	sub	sp, sp, #48
	stp	x29, x30, [sp, #32]             ; 16-byte Folded Spill
	add	x29, sp, #32
	.cfi_def_cfa w29, 16
	.cfi_offset w30, -8
	.cfi_offset w29, -16
	str	x0, [sp, #8]
	str	x1, [sp]
	ldr	x0, [sp, #8]
	ldr	x1, [sp]
	bl	__ZNSt3__19allocatorIxE8allocateB8ne200100Em
	str	x0, [sp, #16]
	ldr	x8, [sp]
	str	x8, [sp, #24]
	ldr	x0, [sp, #16]
	ldr	x1, [sp, #24]
	ldp	x29, x30, [sp, #32]             ; 16-byte Folded Reload
	add	sp, sp, #48
	ret
	.cfi_endproc
                                        ; -- End function
	.private_extern	__ZNKSt3__16vectorIxNS_9allocatorIxEEE14__annotate_newB8ne200100Em ; -- Begin function _ZNKSt3__16vectorIxNS_9allocatorIxEEE14__annotate_newB8ne200100Em
	.globl	__ZNKSt3__16vectorIxNS_9allocatorIxEEE14__annotate_newB8ne200100Em
	.weak_definition	__ZNKSt3__16vectorIxNS_9allocatorIxEEE14__annotate_newB8ne200100Em
	.p2align	2
__ZNKSt3__16vectorIxNS_9allocatorIxEEE14__annotate_newB8ne200100Em: ; @_ZNKSt3__16vectorIxNS_9allocatorIxEEE14__annotate_newB8ne200100Em
	.cfi_startproc
; %bb.0:
	sub	sp, sp, #16
	.cfi_def_cfa_offset 16
	str	x0, [sp, #8]
	str	x1, [sp]
	add	sp, sp, #16
	ret
	.cfi_endproc
                                        ; -- End function
	.private_extern	__ZNSt3__13minB8ne200100ImEERKT_S3_S3_ ; -- Begin function _ZNSt3__13minB8ne200100ImEERKT_S3_S3_
	.globl	__ZNSt3__13minB8ne200100ImEERKT_S3_S3_
	.weak_definition	__ZNSt3__13minB8ne200100ImEERKT_S3_S3_
	.p2align	2
__ZNSt3__13minB8ne200100ImEERKT_S3_S3_: ; @_ZNSt3__13minB8ne200100ImEERKT_S3_S3_
	.cfi_startproc
; %bb.0:
	sub	sp, sp, #48
	stp	x29, x30, [sp, #32]             ; 16-byte Folded Spill
	add	x29, sp, #32
	.cfi_def_cfa w29, 16
	.cfi_offset w30, -8
	.cfi_offset w29, -16
	stur	x0, [x29, #-8]
	str	x1, [sp, #16]
	ldur	x0, [x29, #-8]
	ldr	x1, [sp, #16]
	bl	__ZNSt3__13minB8ne200100ImNS_6__lessIvvEEEERKT_S5_S5_T0_
	ldp	x29, x30, [sp, #32]             ; 16-byte Folded Reload
	add	sp, sp, #48
	ret
	.cfi_endproc
                                        ; -- End function
	.globl	__ZNSt3__116allocator_traitsINS_9allocatorIxEEE8max_sizeB8ne200100IS2_Li0EEEmRKS2_ ; -- Begin function _ZNSt3__116allocator_traitsINS_9allocatorIxEEE8max_sizeB8ne200100IS2_Li0EEEmRKS2_
	.weak_definition	__ZNSt3__116allocator_traitsINS_9allocatorIxEEE8max_sizeB8ne200100IS2_Li0EEEmRKS2_
	.p2align	2
__ZNSt3__116allocator_traitsINS_9allocatorIxEEE8max_sizeB8ne200100IS2_Li0EEEmRKS2_: ; @_ZNSt3__116allocator_traitsINS_9allocatorIxEEE8max_sizeB8ne200100IS2_Li0EEEmRKS2_
	.cfi_startproc
; %bb.0:
	sub	sp, sp, #32
	stp	x29, x30, [sp, #16]             ; 16-byte Folded Spill
	add	x29, sp, #16
	.cfi_def_cfa w29, 16
	.cfi_offset w30, -8
	.cfi_offset w29, -16
	str	x0, [sp, #8]
	ldr	x0, [sp, #8]
	bl	__ZNKSt3__19allocatorIxE8max_sizeB8ne200100Ev
	ldp	x29, x30, [sp, #16]             ; 16-byte Folded Reload
	add	sp, sp, #32
	ret
	.cfi_endproc
                                        ; -- End function
	.private_extern	__ZNSt3__114numeric_limitsIlE3maxB8ne200100Ev ; -- Begin function _ZNSt3__114numeric_limitsIlE3maxB8ne200100Ev
	.globl	__ZNSt3__114numeric_limitsIlE3maxB8ne200100Ev
	.weak_definition	__ZNSt3__114numeric_limitsIlE3maxB8ne200100Ev
	.p2align	2
__ZNSt3__114numeric_limitsIlE3maxB8ne200100Ev: ; @_ZNSt3__114numeric_limitsIlE3maxB8ne200100Ev
	.cfi_startproc
; %bb.0:
	stp	x29, x30, [sp, #-16]!           ; 16-byte Folded Spill
	mov	x29, sp
	.cfi_def_cfa w29, 16
	.cfi_offset w30, -8
	.cfi_offset w29, -16
	bl	__ZNSt3__123__libcpp_numeric_limitsIlLb1EE3maxB8ne200100Ev
	ldp	x29, x30, [sp], #16             ; 16-byte Folded Reload
	ret
	.cfi_endproc
                                        ; -- End function
	.private_extern	___clang_call_terminate ; -- Begin function __clang_call_terminate
	.globl	___clang_call_terminate
	.weak_definition	___clang_call_terminate
	.p2align	2
___clang_call_terminate:                ; @__clang_call_terminate
	.cfi_startproc
; %bb.0:
	stp	x29, x30, [sp, #-16]!           ; 16-byte Folded Spill
	mov	x29, sp
	.cfi_def_cfa w29, 16
	.cfi_offset w30, -8
	.cfi_offset w29, -16
	bl	___cxa_begin_catch
	bl	__ZSt9terminatev
	.cfi_endproc
                                        ; -- End function
	.private_extern	__ZNSt3__13minB8ne200100ImNS_6__lessIvvEEEERKT_S5_S5_T0_ ; -- Begin function _ZNSt3__13minB8ne200100ImNS_6__lessIvvEEEERKT_S5_S5_T0_
	.globl	__ZNSt3__13minB8ne200100ImNS_6__lessIvvEEEERKT_S5_S5_T0_
	.weak_definition	__ZNSt3__13minB8ne200100ImNS_6__lessIvvEEEERKT_S5_S5_T0_
	.p2align	2
__ZNSt3__13minB8ne200100ImNS_6__lessIvvEEEERKT_S5_S5_T0_: ; @_ZNSt3__13minB8ne200100ImNS_6__lessIvvEEEERKT_S5_S5_T0_
	.cfi_startproc
; %bb.0:
	sub	sp, sp, #48
	stp	x29, x30, [sp, #32]             ; 16-byte Folded Spill
	add	x29, sp, #32
	.cfi_def_cfa w29, 16
	.cfi_offset w30, -8
	.cfi_offset w29, -16
	str	x0, [sp, #16]
	str	x1, [sp, #8]
	ldr	x1, [sp, #8]
	ldr	x2, [sp, #16]
	sub	x0, x29, #1
	bl	__ZNKSt3__16__lessIvvEclB8ne200100ImmEEbRKT_RKT0_
	tbz	w0, #0, LBB54_2
	b	LBB54_1
LBB54_1:
	ldr	x8, [sp, #8]
	str	x8, [sp]                        ; 8-byte Folded Spill
	b	LBB54_3
LBB54_2:
	ldr	x8, [sp, #16]
	str	x8, [sp]                        ; 8-byte Folded Spill
	b	LBB54_3
LBB54_3:
	ldr	x0, [sp]                        ; 8-byte Folded Reload
	ldp	x29, x30, [sp, #32]             ; 16-byte Folded Reload
	add	sp, sp, #48
	ret
	.cfi_endproc
                                        ; -- End function
	.private_extern	__ZNKSt3__16__lessIvvEclB8ne200100ImmEEbRKT_RKT0_ ; -- Begin function _ZNKSt3__16__lessIvvEclB8ne200100ImmEEbRKT_RKT0_
	.globl	__ZNKSt3__16__lessIvvEclB8ne200100ImmEEbRKT_RKT0_
	.weak_definition	__ZNKSt3__16__lessIvvEclB8ne200100ImmEEbRKT_RKT0_
	.p2align	2
__ZNKSt3__16__lessIvvEclB8ne200100ImmEEbRKT_RKT0_: ; @_ZNKSt3__16__lessIvvEclB8ne200100ImmEEbRKT_RKT0_
	.cfi_startproc
; %bb.0:
	sub	sp, sp, #32
	.cfi_def_cfa_offset 32
	str	x0, [sp, #24]
	str	x1, [sp, #16]
	str	x2, [sp, #8]
	ldr	x8, [sp, #16]
	ldr	x8, [x8]
	ldr	x9, [sp, #8]
	ldr	x9, [x9]
	subs	x8, x8, x9
	cset	w0, lo
	add	sp, sp, #32
	ret
	.cfi_endproc
                                        ; -- End function
	.private_extern	__ZNKSt3__19allocatorIxE8max_sizeB8ne200100Ev ; -- Begin function _ZNKSt3__19allocatorIxE8max_sizeB8ne200100Ev
	.globl	__ZNKSt3__19allocatorIxE8max_sizeB8ne200100Ev
	.weak_definition	__ZNKSt3__19allocatorIxE8max_sizeB8ne200100Ev
	.p2align	2
__ZNKSt3__19allocatorIxE8max_sizeB8ne200100Ev: ; @_ZNKSt3__19allocatorIxE8max_sizeB8ne200100Ev
	.cfi_startproc
; %bb.0:
	sub	sp, sp, #16
	.cfi_def_cfa_offset 16
	str	x0, [sp, #8]
	mov	x0, #2305843009213693951        ; =0x1fffffffffffffff
	add	sp, sp, #16
	ret
	.cfi_endproc
                                        ; -- End function
	.private_extern	__ZNSt3__123__libcpp_numeric_limitsIlLb1EE3maxB8ne200100Ev ; -- Begin function _ZNSt3__123__libcpp_numeric_limitsIlLb1EE3maxB8ne200100Ev
	.globl	__ZNSt3__123__libcpp_numeric_limitsIlLb1EE3maxB8ne200100Ev
	.weak_definition	__ZNSt3__123__libcpp_numeric_limitsIlLb1EE3maxB8ne200100Ev
	.p2align	2
__ZNSt3__123__libcpp_numeric_limitsIlLb1EE3maxB8ne200100Ev: ; @_ZNSt3__123__libcpp_numeric_limitsIlLb1EE3maxB8ne200100Ev
	.cfi_startproc
; %bb.0:
	mov	x0, #9223372036854775807        ; =0x7fffffffffffffff
	ret
	.cfi_endproc
                                        ; -- End function
	.private_extern	__ZNSt3__120__throw_length_errorB8ne200100EPKc ; -- Begin function _ZNSt3__120__throw_length_errorB8ne200100EPKc
	.globl	__ZNSt3__120__throw_length_errorB8ne200100EPKc
	.weak_definition	__ZNSt3__120__throw_length_errorB8ne200100EPKc
	.p2align	2
__ZNSt3__120__throw_length_errorB8ne200100EPKc: ; @_ZNSt3__120__throw_length_errorB8ne200100EPKc
Lfunc_begin4:
	.cfi_startproc
	.cfi_personality 155, ___gxx_personality_v0
	.cfi_lsda 16, Lexception4
; %bb.0:
	sub	sp, sp, #48
	stp	x29, x30, [sp, #32]             ; 16-byte Folded Spill
	add	x29, sp, #32
	.cfi_def_cfa w29, 16
	.cfi_offset w30, -8
	.cfi_offset w29, -16
	stur	x0, [x29, #-8]
	mov	x0, #16                         ; =0x10
	bl	___cxa_allocate_exception
	str	x0, [sp]                        ; 8-byte Folded Spill
	ldur	x1, [x29, #-8]
Ltmp132:
	bl	__ZNSt12length_errorC1B8ne200100EPKc
Ltmp133:
	b	LBB58_1
LBB58_1:
	ldr	x0, [sp]                        ; 8-byte Folded Reload
	adrp	x1, __ZTISt12length_error@GOTPAGE
	ldr	x1, [x1, __ZTISt12length_error@GOTPAGEOFF]
	adrp	x2, __ZNSt12length_errorD1Ev@GOTPAGE
	ldr	x2, [x2, __ZNSt12length_errorD1Ev@GOTPAGEOFF]
	bl	___cxa_throw
LBB58_2:
Ltmp134:
	mov	x8, x0
	ldr	x0, [sp]                        ; 8-byte Folded Reload
	str	x8, [sp, #16]
	mov	x8, x1
	str	w8, [sp, #12]
	bl	___cxa_free_exception
	b	LBB58_3
LBB58_3:
	ldr	x0, [sp, #16]
	bl	__Unwind_Resume
Lfunc_end4:
	.cfi_endproc
	.section	__TEXT,__gcc_except_tab
	.p2align	2, 0x0
GCC_except_table58:
Lexception4:
	.byte	255                             ; @LPStart Encoding = omit
	.byte	255                             ; @TType Encoding = omit
	.byte	1                               ; Call site Encoding = uleb128
	.uleb128 Lcst_end4-Lcst_begin4
Lcst_begin4:
	.uleb128 Lfunc_begin4-Lfunc_begin4      ; >> Call Site 1 <<
	.uleb128 Ltmp132-Lfunc_begin4           ;   Call between Lfunc_begin4 and Ltmp132
	.byte	0                               ;     has no landing pad
	.byte	0                               ;   On action: cleanup
	.uleb128 Ltmp132-Lfunc_begin4           ; >> Call Site 2 <<
	.uleb128 Ltmp133-Ltmp132                ;   Call between Ltmp132 and Ltmp133
	.uleb128 Ltmp134-Lfunc_begin4           ;     jumps to Ltmp134
	.byte	0                               ;   On action: cleanup
	.uleb128 Ltmp133-Lfunc_begin4           ; >> Call Site 3 <<
	.uleb128 Lfunc_end4-Ltmp133             ;   Call between Ltmp133 and Lfunc_end4
	.byte	0                               ;     has no landing pad
	.byte	0                               ;   On action: cleanup
Lcst_end4:
	.p2align	2, 0x0
                                        ; -- End function
	.section	__TEXT,__text,regular,pure_instructions
	.private_extern	__ZNSt12length_errorC1B8ne200100EPKc ; -- Begin function _ZNSt12length_errorC1B8ne200100EPKc
	.globl	__ZNSt12length_errorC1B8ne200100EPKc
	.weak_def_can_be_hidden	__ZNSt12length_errorC1B8ne200100EPKc
	.p2align	2
__ZNSt12length_errorC1B8ne200100EPKc:   ; @_ZNSt12length_errorC1B8ne200100EPKc
	.cfi_startproc
; %bb.0:
	sub	sp, sp, #48
	stp	x29, x30, [sp, #32]             ; 16-byte Folded Spill
	add	x29, sp, #32
	.cfi_def_cfa w29, 16
	.cfi_offset w30, -8
	.cfi_offset w29, -16
	stur	x0, [x29, #-8]
	str	x1, [sp, #16]
	ldur	x0, [x29, #-8]
	str	x0, [sp, #8]                    ; 8-byte Folded Spill
	ldr	x1, [sp, #16]
	bl	__ZNSt12length_errorC2B8ne200100EPKc
	ldr	x0, [sp, #8]                    ; 8-byte Folded Reload
	ldp	x29, x30, [sp, #32]             ; 16-byte Folded Reload
	add	sp, sp, #48
	ret
	.cfi_endproc
                                        ; -- End function
	.private_extern	__ZNSt12length_errorC2B8ne200100EPKc ; -- Begin function _ZNSt12length_errorC2B8ne200100EPKc
	.globl	__ZNSt12length_errorC2B8ne200100EPKc
	.weak_def_can_be_hidden	__ZNSt12length_errorC2B8ne200100EPKc
	.p2align	2
__ZNSt12length_errorC2B8ne200100EPKc:   ; @_ZNSt12length_errorC2B8ne200100EPKc
	.cfi_startproc
; %bb.0:
	sub	sp, sp, #48
	stp	x29, x30, [sp, #32]             ; 16-byte Folded Spill
	add	x29, sp, #32
	.cfi_def_cfa w29, 16
	.cfi_offset w30, -8
	.cfi_offset w29, -16
	stur	x0, [x29, #-8]
	str	x1, [sp, #16]
	ldur	x0, [x29, #-8]
	str	x0, [sp, #8]                    ; 8-byte Folded Spill
	ldr	x1, [sp, #16]
	bl	__ZNSt11logic_errorC2EPKc
	ldr	x0, [sp, #8]                    ; 8-byte Folded Reload
	adrp	x8, __ZTVSt12length_error@GOTPAGE
	ldr	x8, [x8, __ZTVSt12length_error@GOTPAGEOFF]
	add	x8, x8, #16
	str	x8, [x0]
	ldp	x29, x30, [sp, #32]             ; 16-byte Folded Reload
	add	sp, sp, #48
	ret
	.cfi_endproc
                                        ; -- End function
	.private_extern	__ZNSt3__19allocatorIxE8allocateB8ne200100Em ; -- Begin function _ZNSt3__19allocatorIxE8allocateB8ne200100Em
	.globl	__ZNSt3__19allocatorIxE8allocateB8ne200100Em
	.weak_definition	__ZNSt3__19allocatorIxE8allocateB8ne200100Em
	.p2align	2
__ZNSt3__19allocatorIxE8allocateB8ne200100Em: ; @_ZNSt3__19allocatorIxE8allocateB8ne200100Em
	.cfi_startproc
; %bb.0:
	sub	sp, sp, #48
	stp	x29, x30, [sp, #32]             ; 16-byte Folded Spill
	add	x29, sp, #32
	.cfi_def_cfa w29, 16
	.cfi_offset w30, -8
	.cfi_offset w29, -16
	stur	x0, [x29, #-8]
	str	x1, [sp, #16]
	ldur	x0, [x29, #-8]
	ldr	x8, [sp, #16]
	str	x8, [sp, #8]                    ; 8-byte Folded Spill
	bl	__ZNSt3__116allocator_traitsINS_9allocatorIxEEE8max_sizeB8ne200100IS2_Li0EEEmRKS2_
	ldr	x8, [sp, #8]                    ; 8-byte Folded Reload
	subs	x8, x8, x0
	b.ls	LBB61_2
	b	LBB61_1
LBB61_1:
	bl	__ZSt28__throw_bad_array_new_lengthB8ne200100v
LBB61_2:
	ldr	x0, [sp, #16]
	mov	x1, #8                          ; =0x8
	bl	__ZNSt3__117__libcpp_allocateB8ne200100IxEEPT_NS_15__element_countEm
	ldp	x29, x30, [sp, #32]             ; 16-byte Folded Reload
	add	sp, sp, #48
	ret
	.cfi_endproc
                                        ; -- End function
	.private_extern	__ZSt28__throw_bad_array_new_lengthB8ne200100v ; -- Begin function _ZSt28__throw_bad_array_new_lengthB8ne200100v
	.globl	__ZSt28__throw_bad_array_new_lengthB8ne200100v
	.weak_definition	__ZSt28__throw_bad_array_new_lengthB8ne200100v
	.p2align	2
__ZSt28__throw_bad_array_new_lengthB8ne200100v: ; @_ZSt28__throw_bad_array_new_lengthB8ne200100v
	.cfi_startproc
; %bb.0:
	sub	sp, sp, #32
	stp	x29, x30, [sp, #16]             ; 16-byte Folded Spill
	add	x29, sp, #16
	.cfi_def_cfa w29, 16
	.cfi_offset w30, -8
	.cfi_offset w29, -16
	mov	x0, #8                          ; =0x8
	bl	___cxa_allocate_exception
	str	x0, [sp, #8]                    ; 8-byte Folded Spill
	bl	__ZNSt20bad_array_new_lengthC1Ev
	ldr	x0, [sp, #8]                    ; 8-byte Folded Reload
	adrp	x1, __ZTISt20bad_array_new_length@GOTPAGE
	ldr	x1, [x1, __ZTISt20bad_array_new_length@GOTPAGEOFF]
	adrp	x2, __ZNSt20bad_array_new_lengthD1Ev@GOTPAGE
	ldr	x2, [x2, __ZNSt20bad_array_new_lengthD1Ev@GOTPAGEOFF]
	bl	___cxa_throw
	.cfi_endproc
                                        ; -- End function
	.private_extern	__ZNSt3__117__libcpp_allocateB8ne200100IxEEPT_NS_15__element_countEm ; -- Begin function _ZNSt3__117__libcpp_allocateB8ne200100IxEEPT_NS_15__element_countEm
	.globl	__ZNSt3__117__libcpp_allocateB8ne200100IxEEPT_NS_15__element_countEm
	.weak_definition	__ZNSt3__117__libcpp_allocateB8ne200100IxEEPT_NS_15__element_countEm
	.p2align	2
__ZNSt3__117__libcpp_allocateB8ne200100IxEEPT_NS_15__element_countEm: ; @_ZNSt3__117__libcpp_allocateB8ne200100IxEEPT_NS_15__element_countEm
	.cfi_startproc
; %bb.0:
	sub	sp, sp, #48
	stp	x29, x30, [sp, #32]             ; 16-byte Folded Spill
	add	x29, sp, #32
	.cfi_def_cfa w29, 16
	.cfi_offset w30, -8
	.cfi_offset w29, -16
	stur	x0, [x29, #-8]
	str	x1, [sp, #16]
	ldur	x8, [x29, #-8]
	lsl	x8, x8, #3
	str	x8, [sp, #8]
	ldr	x0, [sp, #8]
	bl	__ZNSt3__121__libcpp_operator_newB8ne200100IxEEPvm
	ldp	x29, x30, [sp, #32]             ; 16-byte Folded Reload
	add	sp, sp, #48
	ret
	.cfi_endproc
                                        ; -- End function
	.private_extern	__ZNSt3__121__libcpp_operator_newB8ne200100IxEEPvm ; -- Begin function _ZNSt3__121__libcpp_operator_newB8ne200100IxEEPvm
	.globl	__ZNSt3__121__libcpp_operator_newB8ne200100IxEEPvm
	.weak_definition	__ZNSt3__121__libcpp_operator_newB8ne200100IxEEPvm
	.p2align	2
__ZNSt3__121__libcpp_operator_newB8ne200100IxEEPvm: ; @_ZNSt3__121__libcpp_operator_newB8ne200100IxEEPvm
	.cfi_startproc
; %bb.0:
	sub	sp, sp, #32
	stp	x29, x30, [sp, #16]             ; 16-byte Folded Spill
	add	x29, sp, #16
	.cfi_def_cfa w29, 16
	.cfi_offset w30, -8
	.cfi_offset w29, -16
	str	x0, [sp, #8]
	ldr	x0, [sp, #8]
	bl	__Znwm
	ldp	x29, x30, [sp, #16]             ; 16-byte Folded Reload
	add	sp, sp, #32
	ret
	.cfi_endproc
                                        ; -- End function
	.private_extern	__ZNSt3__16vectorIxNS_9allocatorIxEEE21_ConstructTransactionC1B8ne200100ERS3_m ; -- Begin function _ZNSt3__16vectorIxNS_9allocatorIxEEE21_ConstructTransactionC1B8ne200100ERS3_m
	.globl	__ZNSt3__16vectorIxNS_9allocatorIxEEE21_ConstructTransactionC1B8ne200100ERS3_m
	.weak_def_can_be_hidden	__ZNSt3__16vectorIxNS_9allocatorIxEEE21_ConstructTransactionC1B8ne200100ERS3_m
	.p2align	2
__ZNSt3__16vectorIxNS_9allocatorIxEEE21_ConstructTransactionC1B8ne200100ERS3_m: ; @_ZNSt3__16vectorIxNS_9allocatorIxEEE21_ConstructTransactionC1B8ne200100ERS3_m
	.cfi_startproc
; %bb.0:
	sub	sp, sp, #48
	stp	x29, x30, [sp, #32]             ; 16-byte Folded Spill
	add	x29, sp, #32
	.cfi_def_cfa w29, 16
	.cfi_offset w30, -8
	.cfi_offset w29, -16
	stur	x0, [x29, #-8]
	str	x1, [sp, #16]
	str	x2, [sp, #8]
	ldur	x0, [x29, #-8]
	str	x0, [sp]                        ; 8-byte Folded Spill
	ldr	x1, [sp, #16]
	ldr	x2, [sp, #8]
	bl	__ZNSt3__16vectorIxNS_9allocatorIxEEE21_ConstructTransactionC2B8ne200100ERS3_m
	ldr	x0, [sp]                        ; 8-byte Folded Reload
	ldp	x29, x30, [sp, #32]             ; 16-byte Folded Reload
	add	sp, sp, #48
	ret
	.cfi_endproc
                                        ; -- End function
	.private_extern	__ZNSt3__130__uninitialized_allocator_copyB8ne200100INS_9allocatorIxEEPKxS4_PxEET2_RT_T0_T1_S6_ ; -- Begin function _ZNSt3__130__uninitialized_allocator_copyB8ne200100INS_9allocatorIxEEPKxS4_PxEET2_RT_T0_T1_S6_
	.globl	__ZNSt3__130__uninitialized_allocator_copyB8ne200100INS_9allocatorIxEEPKxS4_PxEET2_RT_T0_T1_S6_
	.weak_definition	__ZNSt3__130__uninitialized_allocator_copyB8ne200100INS_9allocatorIxEEPKxS4_PxEET2_RT_T0_T1_S6_
	.p2align	2
__ZNSt3__130__uninitialized_allocator_copyB8ne200100INS_9allocatorIxEEPKxS4_PxEET2_RT_T0_T1_S6_: ; @_ZNSt3__130__uninitialized_allocator_copyB8ne200100INS_9allocatorIxEEPKxS4_PxEET2_RT_T0_T1_S6_
	.cfi_startproc
; %bb.0:
	sub	sp, sp, #96
	stp	x29, x30, [sp, #80]             ; 16-byte Folded Spill
	add	x29, sp, #80
	.cfi_def_cfa w29, 16
	.cfi_offset w30, -8
	.cfi_offset w29, -16
	stur	x0, [x29, #-8]
	stur	x1, [x29, #-16]
	stur	x2, [x29, #-24]
	stur	x3, [x29, #-32]
	ldur	x0, [x29, #-16]
	ldur	x1, [x29, #-24]
	bl	__ZNSt3__114__unwrap_rangeB8ne200100IPKxS2_EENS_4pairIT0_S4_EET_S6_
	str	x0, [sp, #32]
	str	x1, [sp, #40]
	ldur	x8, [x29, #-8]
	str	x8, [sp, #16]                   ; 8-byte Folded Spill
	ldr	x8, [sp, #32]
	str	x8, [sp]                        ; 8-byte Folded Spill
	ldr	x8, [sp, #40]
	str	x8, [sp, #8]                    ; 8-byte Folded Spill
	ldur	x0, [x29, #-32]
	bl	__ZNSt3__113__unwrap_iterB8ne200100IPxNS_18__unwrap_iter_implIS1_Lb1EEELi0EEEDTclsrT0_8__unwrapclsr3stdE7declvalIT_EEEES5_
	ldr	x1, [sp]                        ; 8-byte Folded Reload
	ldr	x2, [sp, #8]                    ; 8-byte Folded Reload
	mov	x3, x0
	ldr	x0, [sp, #16]                   ; 8-byte Folded Reload
	bl	__ZNSt3__135__uninitialized_allocator_copy_implB8ne200100INS_9allocatorIxEEPKxS4_PxEET2_RT_T0_T1_S6_
	str	x0, [sp, #24]
	ldur	x0, [x29, #-32]
	ldr	x1, [sp, #24]
	bl	__ZNSt3__113__rewrap_iterB8ne200100IPxS1_NS_18__unwrap_iter_implIS1_Lb1EEEEET_S4_T0_
	ldp	x29, x30, [sp, #80]             ; 16-byte Folded Reload
	add	sp, sp, #96
	ret
	.cfi_endproc
                                        ; -- End function
	.private_extern	__ZNSt3__16vectorIxNS_9allocatorIxEEE21_ConstructTransactionD1B8ne200100Ev ; -- Begin function _ZNSt3__16vectorIxNS_9allocatorIxEEE21_ConstructTransactionD1B8ne200100Ev
	.globl	__ZNSt3__16vectorIxNS_9allocatorIxEEE21_ConstructTransactionD1B8ne200100Ev
	.weak_def_can_be_hidden	__ZNSt3__16vectorIxNS_9allocatorIxEEE21_ConstructTransactionD1B8ne200100Ev
	.p2align	2
__ZNSt3__16vectorIxNS_9allocatorIxEEE21_ConstructTransactionD1B8ne200100Ev: ; @_ZNSt3__16vectorIxNS_9allocatorIxEEE21_ConstructTransactionD1B8ne200100Ev
	.cfi_startproc
; %bb.0:
	sub	sp, sp, #32
	stp	x29, x30, [sp, #16]             ; 16-byte Folded Spill
	add	x29, sp, #16
	.cfi_def_cfa w29, 16
	.cfi_offset w30, -8
	.cfi_offset w29, -16
	str	x0, [sp, #8]
	ldr	x0, [sp, #8]
	str	x0, [sp]                        ; 8-byte Folded Spill
	bl	__ZNSt3__16vectorIxNS_9allocatorIxEEE21_ConstructTransactionD2B8ne200100Ev
	ldr	x0, [sp]                        ; 8-byte Folded Reload
	ldp	x29, x30, [sp, #16]             ; 16-byte Folded Reload
	add	sp, sp, #32
	ret
	.cfi_endproc
                                        ; -- End function
	.private_extern	__ZNSt3__16vectorIxNS_9allocatorIxEEE21_ConstructTransactionC2B8ne200100ERS3_m ; -- Begin function _ZNSt3__16vectorIxNS_9allocatorIxEEE21_ConstructTransactionC2B8ne200100ERS3_m
	.globl	__ZNSt3__16vectorIxNS_9allocatorIxEEE21_ConstructTransactionC2B8ne200100ERS3_m
	.weak_def_can_be_hidden	__ZNSt3__16vectorIxNS_9allocatorIxEEE21_ConstructTransactionC2B8ne200100ERS3_m
	.p2align	2
__ZNSt3__16vectorIxNS_9allocatorIxEEE21_ConstructTransactionC2B8ne200100ERS3_m: ; @_ZNSt3__16vectorIxNS_9allocatorIxEEE21_ConstructTransactionC2B8ne200100ERS3_m
	.cfi_startproc
; %bb.0:
	sub	sp, sp, #32
	.cfi_def_cfa_offset 32
	str	x0, [sp, #24]
	str	x1, [sp, #16]
	str	x2, [sp, #8]
	ldr	x0, [sp, #24]
	ldr	x8, [sp, #16]
	str	x8, [x0]
	ldr	x8, [sp, #16]
	ldr	x8, [x8, #8]
	str	x8, [x0, #8]
	ldr	x8, [sp, #16]
	ldr	x8, [x8, #8]
	ldr	x9, [sp, #8]
	add	x8, x8, x9, lsl #3
	str	x8, [x0, #16]
	add	sp, sp, #32
	ret
	.cfi_endproc
                                        ; -- End function
	.private_extern	__ZNSt3__114__unwrap_rangeB8ne200100IPKxS2_EENS_4pairIT0_S4_EET_S6_ ; -- Begin function _ZNSt3__114__unwrap_rangeB8ne200100IPKxS2_EENS_4pairIT0_S4_EET_S6_
	.globl	__ZNSt3__114__unwrap_rangeB8ne200100IPKxS2_EENS_4pairIT0_S4_EET_S6_
	.weak_definition	__ZNSt3__114__unwrap_rangeB8ne200100IPKxS2_EENS_4pairIT0_S4_EET_S6_
	.p2align	2
__ZNSt3__114__unwrap_rangeB8ne200100IPKxS2_EENS_4pairIT0_S4_EET_S6_: ; @_ZNSt3__114__unwrap_rangeB8ne200100IPKxS2_EENS_4pairIT0_S4_EET_S6_
	.cfi_startproc
; %bb.0:
	sub	sp, sp, #80
	stp	x29, x30, [sp, #64]             ; 16-byte Folded Spill
	add	x29, sp, #64
	.cfi_def_cfa w29, 16
	.cfi_offset w30, -8
	.cfi_offset w29, -16
	stur	x0, [x29, #-24]
	str	x1, [sp, #32]
	ldur	x0, [x29, #-24]
	bl	__ZNSt3__113__unwrap_iterB8ne200100IPKxNS_18__unwrap_iter_implIS2_Lb1EEELi0EEEDTclsrT0_8__unwrapclsr3stdE7declvalIT_EEEES6_
	add	x8, sp, #24
	str	x8, [sp, #8]                    ; 8-byte Folded Spill
	str	x0, [sp, #24]
	ldr	x0, [sp, #32]
	bl	__ZNSt3__113__unwrap_iterB8ne200100IPKxNS_18__unwrap_iter_implIS2_Lb1EEELi0EEEDTclsrT0_8__unwrapclsr3stdE7declvalIT_EEEES6_
	mov	x8, x0
	ldr	x0, [sp, #8]                    ; 8-byte Folded Reload
	add	x1, sp, #16
	str	x8, [sp, #16]
	bl	__ZNSt3__19make_pairB8ne200100IPKxS2_EENS_4pairINS_18__unwrap_referenceIu7__decayIT_EE4typeENS4_Iu7__decayIT0_EE4typeEEEOS5_OS9_
	stur	x0, [x29, #-16]
	stur	x1, [x29, #-8]
	ldur	x0, [x29, #-16]
	ldur	x1, [x29, #-8]
	ldp	x29, x30, [sp, #64]             ; 16-byte Folded Reload
	add	sp, sp, #80
	ret
	.cfi_endproc
                                        ; -- End function
	.private_extern	__ZNSt3__135__uninitialized_allocator_copy_implB8ne200100INS_9allocatorIxEEPKxS4_PxEET2_RT_T0_T1_S6_ ; -- Begin function _ZNSt3__135__uninitialized_allocator_copy_implB8ne200100INS_9allocatorIxEEPKxS4_PxEET2_RT_T0_T1_S6_
	.globl	__ZNSt3__135__uninitialized_allocator_copy_implB8ne200100INS_9allocatorIxEEPKxS4_PxEET2_RT_T0_T1_S6_
	.weak_definition	__ZNSt3__135__uninitialized_allocator_copy_implB8ne200100INS_9allocatorIxEEPKxS4_PxEET2_RT_T0_T1_S6_
	.p2align	2
__ZNSt3__135__uninitialized_allocator_copy_implB8ne200100INS_9allocatorIxEEPKxS4_PxEET2_RT_T0_T1_S6_: ; @_ZNSt3__135__uninitialized_allocator_copy_implB8ne200100INS_9allocatorIxEEPKxS4_PxEET2_RT_T0_T1_S6_
Lfunc_begin5:
	.cfi_startproc
	.cfi_personality 155, ___gxx_personality_v0
	.cfi_lsda 16, Lexception5
; %bb.0:
	sub	sp, sp, #160
	stp	x29, x30, [sp, #144]            ; 16-byte Folded Spill
	add	x29, sp, #144
	.cfi_def_cfa w29, 16
	.cfi_offset w30, -8
	.cfi_offset w29, -16
	mov	x8, x3
	stur	x0, [x29, #-8]
	stur	x1, [x29, #-16]
	stur	x2, [x29, #-24]
	sub	x3, x29, #32
	stur	x8, [x29, #-32]
	ldur	x8, [x29, #-32]
	sub	x2, x29, #40
	stur	x8, [x29, #-40]
	ldur	x1, [x29, #-8]
	add	x0, sp, #48
	str	x0, [sp, #24]                   ; 8-byte Folded Spill
	bl	__ZNSt3__129_AllocatorDestroyRangeReverseINS_9allocatorIxEEPxEC1B8ne200100ERS2_RS3_S6_
	ldr	x0, [sp, #24]                   ; 8-byte Folded Reload
	add	x8, sp, #72
	bl	__ZNSt3__122__make_exception_guardB8ne200100INS_29_AllocatorDestroyRangeReverseINS_9allocatorIxEEPxEEEENS_28__exception_guard_exceptionsIT_EES7_
	b	LBB70_1
LBB70_1:                                ; =>This Inner Loop Header: Depth=1
	ldur	x8, [x29, #-16]
	ldur	x9, [x29, #-24]
	subs	x8, x8, x9
	b.eq	LBB70_5
	b	LBB70_2
LBB70_2:                                ;   in Loop: Header=BB70_1 Depth=1
	ldur	x8, [x29, #-8]
	str	x8, [sp, #16]                   ; 8-byte Folded Spill
	ldur	x0, [x29, #-32]
	bl	__ZNSt3__112__to_addressB8ne200100IxEEPT_S2_
	mov	x1, x0
	ldr	x0, [sp, #16]                   ; 8-byte Folded Reload
	ldur	x2, [x29, #-16]
Ltmp136:
	bl	__ZNSt3__116allocator_traitsINS_9allocatorIxEEE9constructB8ne200100IxJRKxELi0EEEvRS2_PT_DpOT0_
Ltmp137:
	b	LBB70_3
LBB70_3:                                ;   in Loop: Header=BB70_1 Depth=1
	ldur	x8, [x29, #-16]
	add	x8, x8, #8
	stur	x8, [x29, #-16]
	ldur	x8, [x29, #-32]
	add	x8, x8, #8
	stur	x8, [x29, #-32]
	b	LBB70_1
LBB70_4:
Ltmp138:
	str	x0, [sp, #40]
	mov	x8, x1
	str	w8, [sp, #36]
	add	x0, sp, #72
	bl	__ZNSt3__128__exception_guard_exceptionsINS_29_AllocatorDestroyRangeReverseINS_9allocatorIxEEPxEEED1B8ne200100Ev
	b	LBB70_6
LBB70_5:
	add	x0, sp, #72
	str	x0, [sp]                        ; 8-byte Folded Spill
	bl	__ZNSt3__128__exception_guard_exceptionsINS_29_AllocatorDestroyRangeReverseINS_9allocatorIxEEPxEEE10__completeB8ne200100Ev
	ldr	x0, [sp]                        ; 8-byte Folded Reload
	ldur	x8, [x29, #-32]
	str	x8, [sp, #8]                    ; 8-byte Folded Spill
	bl	__ZNSt3__128__exception_guard_exceptionsINS_29_AllocatorDestroyRangeReverseINS_9allocatorIxEEPxEEED1B8ne200100Ev
	ldr	x0, [sp, #8]                    ; 8-byte Folded Reload
	ldp	x29, x30, [sp, #144]            ; 16-byte Folded Reload
	add	sp, sp, #160
	ret
LBB70_6:
	ldr	x0, [sp, #40]
	bl	__Unwind_Resume
Lfunc_end5:
	.cfi_endproc
	.section	__TEXT,__gcc_except_tab
	.p2align	2, 0x0
GCC_except_table70:
Lexception5:
	.byte	255                             ; @LPStart Encoding = omit
	.byte	255                             ; @TType Encoding = omit
	.byte	1                               ; Call site Encoding = uleb128
	.uleb128 Lcst_end5-Lcst_begin5
Lcst_begin5:
	.uleb128 Lfunc_begin5-Lfunc_begin5      ; >> Call Site 1 <<
	.uleb128 Ltmp136-Lfunc_begin5           ;   Call between Lfunc_begin5 and Ltmp136
	.byte	0                               ;     has no landing pad
	.byte	0                               ;   On action: cleanup
	.uleb128 Ltmp136-Lfunc_begin5           ; >> Call Site 2 <<
	.uleb128 Ltmp137-Ltmp136                ;   Call between Ltmp136 and Ltmp137
	.uleb128 Ltmp138-Lfunc_begin5           ;     jumps to Ltmp138
	.byte	0                               ;   On action: cleanup
	.uleb128 Ltmp137-Lfunc_begin5           ; >> Call Site 3 <<
	.uleb128 Lfunc_end5-Ltmp137             ;   Call between Ltmp137 and Lfunc_end5
	.byte	0                               ;     has no landing pad
	.byte	0                               ;   On action: cleanup
Lcst_end5:
	.p2align	2, 0x0
                                        ; -- End function
	.section	__TEXT,__text,regular,pure_instructions
	.private_extern	__ZNSt3__113__unwrap_iterB8ne200100IPxNS_18__unwrap_iter_implIS1_Lb1EEELi0EEEDTclsrT0_8__unwrapclsr3stdE7declvalIT_EEEES5_ ; -- Begin function _ZNSt3__113__unwrap_iterB8ne200100IPxNS_18__unwrap_iter_implIS1_Lb1EEELi0EEEDTclsrT0_8__unwrapclsr3stdE7declvalIT_EEEES5_
	.globl	__ZNSt3__113__unwrap_iterB8ne200100IPxNS_18__unwrap_iter_implIS1_Lb1EEELi0EEEDTclsrT0_8__unwrapclsr3stdE7declvalIT_EEEES5_
	.weak_definition	__ZNSt3__113__unwrap_iterB8ne200100IPxNS_18__unwrap_iter_implIS1_Lb1EEELi0EEEDTclsrT0_8__unwrapclsr3stdE7declvalIT_EEEES5_
	.p2align	2
__ZNSt3__113__unwrap_iterB8ne200100IPxNS_18__unwrap_iter_implIS1_Lb1EEELi0EEEDTclsrT0_8__unwrapclsr3stdE7declvalIT_EEEES5_: ; @_ZNSt3__113__unwrap_iterB8ne200100IPxNS_18__unwrap_iter_implIS1_Lb1EEELi0EEEDTclsrT0_8__unwrapclsr3stdE7declvalIT_EEEES5_
	.cfi_startproc
; %bb.0:
	sub	sp, sp, #32
	stp	x29, x30, [sp, #16]             ; 16-byte Folded Spill
	add	x29, sp, #16
	.cfi_def_cfa w29, 16
	.cfi_offset w30, -8
	.cfi_offset w29, -16
	str	x0, [sp, #8]
	ldr	x0, [sp, #8]
	bl	__ZNSt3__118__unwrap_iter_implIPxLb1EE8__unwrapB8ne200100ES1_
	ldp	x29, x30, [sp, #16]             ; 16-byte Folded Reload
	add	sp, sp, #32
	ret
	.cfi_endproc
                                        ; -- End function
	.private_extern	__ZNSt3__113__rewrap_iterB8ne200100IPxS1_NS_18__unwrap_iter_implIS1_Lb1EEEEET_S4_T0_ ; -- Begin function _ZNSt3__113__rewrap_iterB8ne200100IPxS1_NS_18__unwrap_iter_implIS1_Lb1EEEEET_S4_T0_
	.globl	__ZNSt3__113__rewrap_iterB8ne200100IPxS1_NS_18__unwrap_iter_implIS1_Lb1EEEEET_S4_T0_
	.weak_definition	__ZNSt3__113__rewrap_iterB8ne200100IPxS1_NS_18__unwrap_iter_implIS1_Lb1EEEEET_S4_T0_
	.p2align	2
__ZNSt3__113__rewrap_iterB8ne200100IPxS1_NS_18__unwrap_iter_implIS1_Lb1EEEEET_S4_T0_: ; @_ZNSt3__113__rewrap_iterB8ne200100IPxS1_NS_18__unwrap_iter_implIS1_Lb1EEEEET_S4_T0_
Lfunc_begin6:
	.cfi_startproc
	.cfi_personality 155, ___gxx_personality_v0
	.cfi_lsda 16, Lexception6
; %bb.0:
	sub	sp, sp, #48
	stp	x29, x30, [sp, #32]             ; 16-byte Folded Spill
	add	x29, sp, #32
	.cfi_def_cfa w29, 16
	.cfi_offset w30, -8
	.cfi_offset w29, -16
	stur	x0, [x29, #-8]
	str	x1, [sp, #16]
	ldur	x0, [x29, #-8]
	ldr	x1, [sp, #16]
Ltmp139:
	bl	__ZNSt3__118__unwrap_iter_implIPxLb1EE8__rewrapB8ne200100ES1_S1_
	str	x0, [sp, #8]                    ; 8-byte Folded Spill
Ltmp140:
	b	LBB72_1
LBB72_1:
	ldr	x0, [sp, #8]                    ; 8-byte Folded Reload
	ldp	x29, x30, [sp, #32]             ; 16-byte Folded Reload
	add	sp, sp, #48
	ret
LBB72_2:
Ltmp141:
	bl	___clang_call_terminate
Lfunc_end6:
	.cfi_endproc
	.section	__TEXT,__gcc_except_tab
	.p2align	2, 0x0
GCC_except_table72:
Lexception6:
	.byte	255                             ; @LPStart Encoding = omit
	.byte	155                             ; @TType Encoding = indirect pcrel sdata4
	.uleb128 Lttbase1-Lttbaseref1
Lttbaseref1:
	.byte	1                               ; Call site Encoding = uleb128
	.uleb128 Lcst_end6-Lcst_begin6
Lcst_begin6:
	.uleb128 Ltmp139-Lfunc_begin6           ; >> Call Site 1 <<
	.uleb128 Ltmp140-Ltmp139                ;   Call between Ltmp139 and Ltmp140
	.uleb128 Ltmp141-Lfunc_begin6           ;     jumps to Ltmp141
	.byte	1                               ;   On action: 1
Lcst_end6:
	.byte	1                               ; >> Action Record 1 <<
                                        ;   Catch TypeInfo 1
	.byte	0                               ;   No further actions
	.p2align	2, 0x0
                                        ; >> Catch TypeInfos <<
	.long	0                               ; TypeInfo 1
Lttbase1:
	.p2align	2, 0x0
                                        ; -- End function
	.section	__TEXT,__text,regular,pure_instructions
	.private_extern	__ZNSt3__19make_pairB8ne200100IPKxS2_EENS_4pairINS_18__unwrap_referenceIu7__decayIT_EE4typeENS4_Iu7__decayIT0_EE4typeEEEOS5_OS9_ ; -- Begin function _ZNSt3__19make_pairB8ne200100IPKxS2_EENS_4pairINS_18__unwrap_referenceIu7__decayIT_EE4typeENS4_Iu7__decayIT0_EE4typeEEEOS5_OS9_
	.globl	__ZNSt3__19make_pairB8ne200100IPKxS2_EENS_4pairINS_18__unwrap_referenceIu7__decayIT_EE4typeENS4_Iu7__decayIT0_EE4typeEEEOS5_OS9_
	.weak_definition	__ZNSt3__19make_pairB8ne200100IPKxS2_EENS_4pairINS_18__unwrap_referenceIu7__decayIT_EE4typeENS4_Iu7__decayIT0_EE4typeEEEOS5_OS9_
	.p2align	2
__ZNSt3__19make_pairB8ne200100IPKxS2_EENS_4pairINS_18__unwrap_referenceIu7__decayIT_EE4typeENS4_Iu7__decayIT0_EE4typeEEEOS5_OS9_: ; @_ZNSt3__19make_pairB8ne200100IPKxS2_EENS_4pairINS_18__unwrap_referenceIu7__decayIT_EE4typeENS4_Iu7__decayIT0_EE4typeEEEOS5_OS9_
	.cfi_startproc
; %bb.0:
	sub	sp, sp, #48
	stp	x29, x30, [sp, #32]             ; 16-byte Folded Spill
	add	x29, sp, #32
	.cfi_def_cfa w29, 16
	.cfi_offset w30, -8
	.cfi_offset w29, -16
	str	x0, [sp, #8]
	str	x1, [sp]
	ldr	x1, [sp, #8]
	ldr	x2, [sp]
	add	x0, sp, #16
	bl	__ZNSt3__14pairIPKxS2_EC1B8ne200100IS2_S2_Li0EEEOT_OT0_
	ldr	x0, [sp, #16]
	ldr	x1, [sp, #24]
	ldp	x29, x30, [sp, #32]             ; 16-byte Folded Reload
	add	sp, sp, #48
	ret
	.cfi_endproc
                                        ; -- End function
	.private_extern	__ZNSt3__113__unwrap_iterB8ne200100IPKxNS_18__unwrap_iter_implIS2_Lb1EEELi0EEEDTclsrT0_8__unwrapclsr3stdE7declvalIT_EEEES6_ ; -- Begin function _ZNSt3__113__unwrap_iterB8ne200100IPKxNS_18__unwrap_iter_implIS2_Lb1EEELi0EEEDTclsrT0_8__unwrapclsr3stdE7declvalIT_EEEES6_
	.globl	__ZNSt3__113__unwrap_iterB8ne200100IPKxNS_18__unwrap_iter_implIS2_Lb1EEELi0EEEDTclsrT0_8__unwrapclsr3stdE7declvalIT_EEEES6_
	.weak_definition	__ZNSt3__113__unwrap_iterB8ne200100IPKxNS_18__unwrap_iter_implIS2_Lb1EEELi0EEEDTclsrT0_8__unwrapclsr3stdE7declvalIT_EEEES6_
	.p2align	2
__ZNSt3__113__unwrap_iterB8ne200100IPKxNS_18__unwrap_iter_implIS2_Lb1EEELi0EEEDTclsrT0_8__unwrapclsr3stdE7declvalIT_EEEES6_: ; @_ZNSt3__113__unwrap_iterB8ne200100IPKxNS_18__unwrap_iter_implIS2_Lb1EEELi0EEEDTclsrT0_8__unwrapclsr3stdE7declvalIT_EEEES6_
	.cfi_startproc
; %bb.0:
	sub	sp, sp, #32
	stp	x29, x30, [sp, #16]             ; 16-byte Folded Spill
	add	x29, sp, #16
	.cfi_def_cfa w29, 16
	.cfi_offset w30, -8
	.cfi_offset w29, -16
	str	x0, [sp, #8]
	ldr	x0, [sp, #8]
	bl	__ZNSt3__118__unwrap_iter_implIPKxLb1EE8__unwrapB8ne200100ES2_
	ldp	x29, x30, [sp, #16]             ; 16-byte Folded Reload
	add	sp, sp, #32
	ret
	.cfi_endproc
                                        ; -- End function
	.globl	__ZNSt3__14pairIPKxS2_EC1B8ne200100IS2_S2_Li0EEEOT_OT0_ ; -- Begin function _ZNSt3__14pairIPKxS2_EC1B8ne200100IS2_S2_Li0EEEOT_OT0_
	.weak_def_can_be_hidden	__ZNSt3__14pairIPKxS2_EC1B8ne200100IS2_S2_Li0EEEOT_OT0_
	.p2align	2
__ZNSt3__14pairIPKxS2_EC1B8ne200100IS2_S2_Li0EEEOT_OT0_: ; @_ZNSt3__14pairIPKxS2_EC1B8ne200100IS2_S2_Li0EEEOT_OT0_
	.cfi_startproc
; %bb.0:
	sub	sp, sp, #48
	stp	x29, x30, [sp, #32]             ; 16-byte Folded Spill
	add	x29, sp, #32
	.cfi_def_cfa w29, 16
	.cfi_offset w30, -8
	.cfi_offset w29, -16
	stur	x0, [x29, #-8]
	str	x1, [sp, #16]
	str	x2, [sp, #8]
	ldur	x0, [x29, #-8]
	str	x0, [sp]                        ; 8-byte Folded Spill
	ldr	x1, [sp, #16]
	ldr	x2, [sp, #8]
	bl	__ZNSt3__14pairIPKxS2_EC2B8ne200100IS2_S2_Li0EEEOT_OT0_
	ldr	x0, [sp]                        ; 8-byte Folded Reload
	ldp	x29, x30, [sp, #32]             ; 16-byte Folded Reload
	add	sp, sp, #48
	ret
	.cfi_endproc
                                        ; -- End function
	.globl	__ZNSt3__14pairIPKxS2_EC2B8ne200100IS2_S2_Li0EEEOT_OT0_ ; -- Begin function _ZNSt3__14pairIPKxS2_EC2B8ne200100IS2_S2_Li0EEEOT_OT0_
	.weak_def_can_be_hidden	__ZNSt3__14pairIPKxS2_EC2B8ne200100IS2_S2_Li0EEEOT_OT0_
	.p2align	2
__ZNSt3__14pairIPKxS2_EC2B8ne200100IS2_S2_Li0EEEOT_OT0_: ; @_ZNSt3__14pairIPKxS2_EC2B8ne200100IS2_S2_Li0EEEOT_OT0_
	.cfi_startproc
; %bb.0:
	sub	sp, sp, #32
	.cfi_def_cfa_offset 32
	str	x0, [sp, #24]
	str	x1, [sp, #16]
	str	x2, [sp, #8]
	ldr	x0, [sp, #24]
	ldr	x8, [sp, #16]
	ldr	x8, [x8]
	str	x8, [x0]
	ldr	x8, [sp, #8]
	ldr	x8, [x8]
	str	x8, [x0, #8]
	add	sp, sp, #32
	ret
	.cfi_endproc
                                        ; -- End function
	.private_extern	__ZNSt3__118__unwrap_iter_implIPKxLb1EE8__unwrapB8ne200100ES2_ ; -- Begin function _ZNSt3__118__unwrap_iter_implIPKxLb1EE8__unwrapB8ne200100ES2_
	.globl	__ZNSt3__118__unwrap_iter_implIPKxLb1EE8__unwrapB8ne200100ES2_
	.weak_definition	__ZNSt3__118__unwrap_iter_implIPKxLb1EE8__unwrapB8ne200100ES2_
	.p2align	2
__ZNSt3__118__unwrap_iter_implIPKxLb1EE8__unwrapB8ne200100ES2_: ; @_ZNSt3__118__unwrap_iter_implIPKxLb1EE8__unwrapB8ne200100ES2_
	.cfi_startproc
; %bb.0:
	sub	sp, sp, #32
	stp	x29, x30, [sp, #16]             ; 16-byte Folded Spill
	add	x29, sp, #16
	.cfi_def_cfa w29, 16
	.cfi_offset w30, -8
	.cfi_offset w29, -16
	str	x0, [sp, #8]
	ldr	x0, [sp, #8]
	bl	__ZNSt3__112__to_addressB8ne200100IKxEEPT_S3_
	ldp	x29, x30, [sp, #16]             ; 16-byte Folded Reload
	add	sp, sp, #32
	ret
	.cfi_endproc
                                        ; -- End function
	.private_extern	__ZNSt3__112__to_addressB8ne200100IKxEEPT_S3_ ; -- Begin function _ZNSt3__112__to_addressB8ne200100IKxEEPT_S3_
	.globl	__ZNSt3__112__to_addressB8ne200100IKxEEPT_S3_
	.weak_definition	__ZNSt3__112__to_addressB8ne200100IKxEEPT_S3_
	.p2align	2
__ZNSt3__112__to_addressB8ne200100IKxEEPT_S3_: ; @_ZNSt3__112__to_addressB8ne200100IKxEEPT_S3_
	.cfi_startproc
; %bb.0:
	sub	sp, sp, #16
	.cfi_def_cfa_offset 16
	str	x0, [sp, #8]
	ldr	x0, [sp, #8]
	add	sp, sp, #16
	ret
	.cfi_endproc
                                        ; -- End function
	.private_extern	__ZNSt3__122__make_exception_guardB8ne200100INS_29_AllocatorDestroyRangeReverseINS_9allocatorIxEEPxEEEENS_28__exception_guard_exceptionsIT_EES7_ ; -- Begin function _ZNSt3__122__make_exception_guardB8ne200100INS_29_AllocatorDestroyRangeReverseINS_9allocatorIxEEPxEEEENS_28__exception_guard_exceptionsIT_EES7_
	.globl	__ZNSt3__122__make_exception_guardB8ne200100INS_29_AllocatorDestroyRangeReverseINS_9allocatorIxEEPxEEEENS_28__exception_guard_exceptionsIT_EES7_
	.weak_definition	__ZNSt3__122__make_exception_guardB8ne200100INS_29_AllocatorDestroyRangeReverseINS_9allocatorIxEEPxEEEENS_28__exception_guard_exceptionsIT_EES7_
	.p2align	2
__ZNSt3__122__make_exception_guardB8ne200100INS_29_AllocatorDestroyRangeReverseINS_9allocatorIxEEPxEEEENS_28__exception_guard_exceptionsIT_EES7_: ; @_ZNSt3__122__make_exception_guardB8ne200100INS_29_AllocatorDestroyRangeReverseINS_9allocatorIxEEPxEEEENS_28__exception_guard_exceptionsIT_EES7_
	.cfi_startproc
; %bb.0:
	sub	sp, sp, #80
	stp	x29, x30, [sp, #64]             ; 16-byte Folded Spill
	add	x29, sp, #64
	.cfi_def_cfa w29, 16
	.cfi_offset w30, -8
	.cfi_offset w29, -16
	str	x8, [sp, #8]                    ; 8-byte Folded Spill
	mov	x8, x0
	ldr	x0, [sp, #8]                    ; 8-byte Folded Reload
	mov	x9, x0
	stur	x9, [x29, #-8]
	mov	x9, x8
	stur	x9, [x29, #-16]
	ldr	q0, [x8]
	add	x1, sp, #16
	str	q0, [sp, #16]
	ldr	x8, [x8, #16]
	str	x8, [sp, #32]
	bl	__ZNSt3__128__exception_guard_exceptionsINS_29_AllocatorDestroyRangeReverseINS_9allocatorIxEEPxEEEC1B8ne200100ES5_
	ldp	x29, x30, [sp, #64]             ; 16-byte Folded Reload
	add	sp, sp, #80
	ret
	.cfi_endproc
                                        ; -- End function
	.private_extern	__ZNSt3__129_AllocatorDestroyRangeReverseINS_9allocatorIxEEPxEC1B8ne200100ERS2_RS3_S6_ ; -- Begin function _ZNSt3__129_AllocatorDestroyRangeReverseINS_9allocatorIxEEPxEC1B8ne200100ERS2_RS3_S6_
	.globl	__ZNSt3__129_AllocatorDestroyRangeReverseINS_9allocatorIxEEPxEC1B8ne200100ERS2_RS3_S6_
	.weak_def_can_be_hidden	__ZNSt3__129_AllocatorDestroyRangeReverseINS_9allocatorIxEEPxEC1B8ne200100ERS2_RS3_S6_
	.p2align	2
__ZNSt3__129_AllocatorDestroyRangeReverseINS_9allocatorIxEEPxEC1B8ne200100ERS2_RS3_S6_: ; @_ZNSt3__129_AllocatorDestroyRangeReverseINS_9allocatorIxEEPxEC1B8ne200100ERS2_RS3_S6_
	.cfi_startproc
; %bb.0:
	sub	sp, sp, #64
	stp	x29, x30, [sp, #48]             ; 16-byte Folded Spill
	add	x29, sp, #48
	.cfi_def_cfa w29, 16
	.cfi_offset w30, -8
	.cfi_offset w29, -16
	stur	x0, [x29, #-8]
	stur	x1, [x29, #-16]
	str	x2, [sp, #24]
	str	x3, [sp, #16]
	ldur	x0, [x29, #-8]
	str	x0, [sp, #8]                    ; 8-byte Folded Spill
	ldur	x1, [x29, #-16]
	ldr	x2, [sp, #24]
	ldr	x3, [sp, #16]
	bl	__ZNSt3__129_AllocatorDestroyRangeReverseINS_9allocatorIxEEPxEC2B8ne200100ERS2_RS3_S6_
	ldr	x0, [sp, #8]                    ; 8-byte Folded Reload
	ldp	x29, x30, [sp, #48]             ; 16-byte Folded Reload
	add	sp, sp, #64
	ret
	.cfi_endproc
                                        ; -- End function
	.globl	__ZNSt3__116allocator_traitsINS_9allocatorIxEEE9constructB8ne200100IxJRKxELi0EEEvRS2_PT_DpOT0_ ; -- Begin function _ZNSt3__116allocator_traitsINS_9allocatorIxEEE9constructB8ne200100IxJRKxELi0EEEvRS2_PT_DpOT0_
	.weak_definition	__ZNSt3__116allocator_traitsINS_9allocatorIxEEE9constructB8ne200100IxJRKxELi0EEEvRS2_PT_DpOT0_
	.p2align	2
__ZNSt3__116allocator_traitsINS_9allocatorIxEEE9constructB8ne200100IxJRKxELi0EEEvRS2_PT_DpOT0_: ; @_ZNSt3__116allocator_traitsINS_9allocatorIxEEE9constructB8ne200100IxJRKxELi0EEEvRS2_PT_DpOT0_
	.cfi_startproc
; %bb.0:
	sub	sp, sp, #48
	stp	x29, x30, [sp, #32]             ; 16-byte Folded Spill
	add	x29, sp, #32
	.cfi_def_cfa w29, 16
	.cfi_offset w30, -8
	.cfi_offset w29, -16
	stur	x0, [x29, #-8]
	str	x1, [sp, #16]
	str	x2, [sp, #8]
	ldur	x0, [x29, #-8]
	ldr	x1, [sp, #16]
	ldr	x2, [sp, #8]
	bl	__ZNSt3__19allocatorIxE9constructB8ne200100IxJRKxEEEvPT_DpOT0_
	ldp	x29, x30, [sp, #32]             ; 16-byte Folded Reload
	add	sp, sp, #48
	ret
	.cfi_endproc
                                        ; -- End function
	.private_extern	__ZNSt3__112__to_addressB8ne200100IxEEPT_S2_ ; -- Begin function _ZNSt3__112__to_addressB8ne200100IxEEPT_S2_
	.globl	__ZNSt3__112__to_addressB8ne200100IxEEPT_S2_
	.weak_definition	__ZNSt3__112__to_addressB8ne200100IxEEPT_S2_
	.p2align	2
__ZNSt3__112__to_addressB8ne200100IxEEPT_S2_: ; @_ZNSt3__112__to_addressB8ne200100IxEEPT_S2_
	.cfi_startproc
; %bb.0:
	sub	sp, sp, #16
	.cfi_def_cfa_offset 16
	str	x0, [sp, #8]
	ldr	x0, [sp, #8]
	add	sp, sp, #16
	ret
	.cfi_endproc
                                        ; -- End function
	.private_extern	__ZNSt3__128__exception_guard_exceptionsINS_29_AllocatorDestroyRangeReverseINS_9allocatorIxEEPxEEE10__completeB8ne200100Ev ; -- Begin function _ZNSt3__128__exception_guard_exceptionsINS_29_AllocatorDestroyRangeReverseINS_9allocatorIxEEPxEEE10__completeB8ne200100Ev
	.globl	__ZNSt3__128__exception_guard_exceptionsINS_29_AllocatorDestroyRangeReverseINS_9allocatorIxEEPxEEE10__completeB8ne200100Ev
	.weak_definition	__ZNSt3__128__exception_guard_exceptionsINS_29_AllocatorDestroyRangeReverseINS_9allocatorIxEEPxEEE10__completeB8ne200100Ev
	.p2align	2
__ZNSt3__128__exception_guard_exceptionsINS_29_AllocatorDestroyRangeReverseINS_9allocatorIxEEPxEEE10__completeB8ne200100Ev: ; @_ZNSt3__128__exception_guard_exceptionsINS_29_AllocatorDestroyRangeReverseINS_9allocatorIxEEPxEEE10__completeB8ne200100Ev
	.cfi_startproc
; %bb.0:
	sub	sp, sp, #16
	.cfi_def_cfa_offset 16
	str	x0, [sp, #8]
	ldr	x9, [sp, #8]
	mov	w8, #1                          ; =0x1
	strb	w8, [x9, #24]
	add	sp, sp, #16
	ret
	.cfi_endproc
                                        ; -- End function
	.private_extern	__ZNSt3__128__exception_guard_exceptionsINS_29_AllocatorDestroyRangeReverseINS_9allocatorIxEEPxEEED1B8ne200100Ev ; -- Begin function _ZNSt3__128__exception_guard_exceptionsINS_29_AllocatorDestroyRangeReverseINS_9allocatorIxEEPxEEED1B8ne200100Ev
	.globl	__ZNSt3__128__exception_guard_exceptionsINS_29_AllocatorDestroyRangeReverseINS_9allocatorIxEEPxEEED1B8ne200100Ev
	.weak_def_can_be_hidden	__ZNSt3__128__exception_guard_exceptionsINS_29_AllocatorDestroyRangeReverseINS_9allocatorIxEEPxEEED1B8ne200100Ev
	.p2align	2
__ZNSt3__128__exception_guard_exceptionsINS_29_AllocatorDestroyRangeReverseINS_9allocatorIxEEPxEEED1B8ne200100Ev: ; @_ZNSt3__128__exception_guard_exceptionsINS_29_AllocatorDestroyRangeReverseINS_9allocatorIxEEPxEEED1B8ne200100Ev
	.cfi_startproc
; %bb.0:
	sub	sp, sp, #32
	stp	x29, x30, [sp, #16]             ; 16-byte Folded Spill
	add	x29, sp, #16
	.cfi_def_cfa w29, 16
	.cfi_offset w30, -8
	.cfi_offset w29, -16
	str	x0, [sp, #8]
	ldr	x0, [sp, #8]
	str	x0, [sp]                        ; 8-byte Folded Spill
	bl	__ZNSt3__128__exception_guard_exceptionsINS_29_AllocatorDestroyRangeReverseINS_9allocatorIxEEPxEEED2B8ne200100Ev
	ldr	x0, [sp]                        ; 8-byte Folded Reload
	ldp	x29, x30, [sp, #16]             ; 16-byte Folded Reload
	add	sp, sp, #32
	ret
	.cfi_endproc
                                        ; -- End function
	.private_extern	__ZNSt3__128__exception_guard_exceptionsINS_29_AllocatorDestroyRangeReverseINS_9allocatorIxEEPxEEEC1B8ne200100ES5_ ; -- Begin function _ZNSt3__128__exception_guard_exceptionsINS_29_AllocatorDestroyRangeReverseINS_9allocatorIxEEPxEEEC1B8ne200100ES5_
	.globl	__ZNSt3__128__exception_guard_exceptionsINS_29_AllocatorDestroyRangeReverseINS_9allocatorIxEEPxEEEC1B8ne200100ES5_
	.weak_def_can_be_hidden	__ZNSt3__128__exception_guard_exceptionsINS_29_AllocatorDestroyRangeReverseINS_9allocatorIxEEPxEEEC1B8ne200100ES5_
	.p2align	2
__ZNSt3__128__exception_guard_exceptionsINS_29_AllocatorDestroyRangeReverseINS_9allocatorIxEEPxEEEC1B8ne200100ES5_: ; @_ZNSt3__128__exception_guard_exceptionsINS_29_AllocatorDestroyRangeReverseINS_9allocatorIxEEPxEEEC1B8ne200100ES5_
	.cfi_startproc
; %bb.0:
	sub	sp, sp, #48
	stp	x29, x30, [sp, #32]             ; 16-byte Folded Spill
	add	x29, sp, #32
	.cfi_def_cfa w29, 16
	.cfi_offset w30, -8
	.cfi_offset w29, -16
	stur	x0, [x29, #-8]
	mov	x8, x1
	str	x8, [sp, #16]
	ldur	x0, [x29, #-8]
	str	x0, [sp, #8]                    ; 8-byte Folded Spill
	bl	__ZNSt3__128__exception_guard_exceptionsINS_29_AllocatorDestroyRangeReverseINS_9allocatorIxEEPxEEEC2B8ne200100ES5_
	ldr	x0, [sp, #8]                    ; 8-byte Folded Reload
	ldp	x29, x30, [sp, #32]             ; 16-byte Folded Reload
	add	sp, sp, #48
	ret
	.cfi_endproc
                                        ; -- End function
	.private_extern	__ZNSt3__128__exception_guard_exceptionsINS_29_AllocatorDestroyRangeReverseINS_9allocatorIxEEPxEEEC2B8ne200100ES5_ ; -- Begin function _ZNSt3__128__exception_guard_exceptionsINS_29_AllocatorDestroyRangeReverseINS_9allocatorIxEEPxEEEC2B8ne200100ES5_
	.globl	__ZNSt3__128__exception_guard_exceptionsINS_29_AllocatorDestroyRangeReverseINS_9allocatorIxEEPxEEEC2B8ne200100ES5_
	.weak_def_can_be_hidden	__ZNSt3__128__exception_guard_exceptionsINS_29_AllocatorDestroyRangeReverseINS_9allocatorIxEEPxEEEC2B8ne200100ES5_
	.p2align	2
__ZNSt3__128__exception_guard_exceptionsINS_29_AllocatorDestroyRangeReverseINS_9allocatorIxEEPxEEEC2B8ne200100ES5_: ; @_ZNSt3__128__exception_guard_exceptionsINS_29_AllocatorDestroyRangeReverseINS_9allocatorIxEEPxEEEC2B8ne200100ES5_
	.cfi_startproc
; %bb.0:
	sub	sp, sp, #16
	.cfi_def_cfa_offset 16
	str	x0, [sp, #8]
	mov	x8, x1
	str	x8, [sp]
	ldr	x0, [sp, #8]
	ldr	q0, [x1]
	str	q0, [x0]
	ldr	x8, [x1, #16]
	str	x8, [x0, #16]
	strb	wzr, [x0, #24]
	add	sp, sp, #16
	ret
	.cfi_endproc
                                        ; -- End function
	.private_extern	__ZNSt3__129_AllocatorDestroyRangeReverseINS_9allocatorIxEEPxEC2B8ne200100ERS2_RS3_S6_ ; -- Begin function _ZNSt3__129_AllocatorDestroyRangeReverseINS_9allocatorIxEEPxEC2B8ne200100ERS2_RS3_S6_
	.globl	__ZNSt3__129_AllocatorDestroyRangeReverseINS_9allocatorIxEEPxEC2B8ne200100ERS2_RS3_S6_
	.weak_def_can_be_hidden	__ZNSt3__129_AllocatorDestroyRangeReverseINS_9allocatorIxEEPxEC2B8ne200100ERS2_RS3_S6_
	.p2align	2
__ZNSt3__129_AllocatorDestroyRangeReverseINS_9allocatorIxEEPxEC2B8ne200100ERS2_RS3_S6_: ; @_ZNSt3__129_AllocatorDestroyRangeReverseINS_9allocatorIxEEPxEC2B8ne200100ERS2_RS3_S6_
	.cfi_startproc
; %bb.0:
	sub	sp, sp, #32
	.cfi_def_cfa_offset 32
	str	x0, [sp, #24]
	str	x1, [sp, #16]
	str	x2, [sp, #8]
	str	x3, [sp]
	ldr	x0, [sp, #24]
	ldr	x8, [sp, #16]
	str	x8, [x0]
	ldr	x8, [sp, #8]
	str	x8, [x0, #8]
	ldr	x8, [sp]
	str	x8, [x0, #16]
	add	sp, sp, #32
	ret
	.cfi_endproc
                                        ; -- End function
	.globl	__ZNSt3__19allocatorIxE9constructB8ne200100IxJRKxEEEvPT_DpOT0_ ; -- Begin function _ZNSt3__19allocatorIxE9constructB8ne200100IxJRKxEEEvPT_DpOT0_
	.weak_definition	__ZNSt3__19allocatorIxE9constructB8ne200100IxJRKxEEEvPT_DpOT0_
	.p2align	2
__ZNSt3__19allocatorIxE9constructB8ne200100IxJRKxEEEvPT_DpOT0_: ; @_ZNSt3__19allocatorIxE9constructB8ne200100IxJRKxEEEvPT_DpOT0_
	.cfi_startproc
; %bb.0:
	sub	sp, sp, #32
	.cfi_def_cfa_offset 32
	str	x0, [sp, #24]
	str	x1, [sp, #16]
	str	x2, [sp, #8]
	ldr	x9, [sp, #16]
	ldr	x8, [sp, #8]
	ldr	x8, [x8]
	str	x8, [x9]
	add	sp, sp, #32
	ret
	.cfi_endproc
                                        ; -- End function
	.private_extern	__ZNSt3__128__exception_guard_exceptionsINS_29_AllocatorDestroyRangeReverseINS_9allocatorIxEEPxEEED2B8ne200100Ev ; -- Begin function _ZNSt3__128__exception_guard_exceptionsINS_29_AllocatorDestroyRangeReverseINS_9allocatorIxEEPxEEED2B8ne200100Ev
	.globl	__ZNSt3__128__exception_guard_exceptionsINS_29_AllocatorDestroyRangeReverseINS_9allocatorIxEEPxEEED2B8ne200100Ev
	.weak_def_can_be_hidden	__ZNSt3__128__exception_guard_exceptionsINS_29_AllocatorDestroyRangeReverseINS_9allocatorIxEEPxEEED2B8ne200100Ev
	.p2align	2
__ZNSt3__128__exception_guard_exceptionsINS_29_AllocatorDestroyRangeReverseINS_9allocatorIxEEPxEEED2B8ne200100Ev: ; @_ZNSt3__128__exception_guard_exceptionsINS_29_AllocatorDestroyRangeReverseINS_9allocatorIxEEPxEEED2B8ne200100Ev
Lfunc_begin7:
	.cfi_startproc
	.cfi_personality 155, ___gxx_personality_v0
	.cfi_lsda 16, Lexception7
; %bb.0:
	sub	sp, sp, #48
	stp	x29, x30, [sp, #32]             ; 16-byte Folded Spill
	add	x29, sp, #32
	.cfi_def_cfa w29, 16
	.cfi_offset w30, -8
	.cfi_offset w29, -16
	str	x0, [sp, #16]
	ldr	x8, [sp, #16]
	str	x8, [sp, #8]                    ; 8-byte Folded Spill
	mov	x9, x8
	stur	x9, [x29, #-8]
	ldrb	w8, [x8, #24]
	tbnz	w8, #0, LBB89_3
	b	LBB89_1
LBB89_1:
Ltmp149:
	ldr	x0, [sp, #8]                    ; 8-byte Folded Reload
	bl	__ZNKSt3__129_AllocatorDestroyRangeReverseINS_9allocatorIxEEPxEclB8ne200100Ev
Ltmp150:
	b	LBB89_2
LBB89_2:
	b	LBB89_3
LBB89_3:
	ldur	x0, [x29, #-8]
	ldp	x29, x30, [sp, #32]             ; 16-byte Folded Reload
	add	sp, sp, #48
	ret
LBB89_4:
Ltmp151:
	bl	___clang_call_terminate
Lfunc_end7:
	.cfi_endproc
	.section	__TEXT,__gcc_except_tab
	.p2align	2, 0x0
GCC_except_table89:
Lexception7:
	.byte	255                             ; @LPStart Encoding = omit
	.byte	155                             ; @TType Encoding = indirect pcrel sdata4
	.uleb128 Lttbase2-Lttbaseref2
Lttbaseref2:
	.byte	1                               ; Call site Encoding = uleb128
	.uleb128 Lcst_end7-Lcst_begin7
Lcst_begin7:
	.uleb128 Ltmp149-Lfunc_begin7           ; >> Call Site 1 <<
	.uleb128 Ltmp150-Ltmp149                ;   Call between Ltmp149 and Ltmp150
	.uleb128 Ltmp151-Lfunc_begin7           ;     jumps to Ltmp151
	.byte	1                               ;   On action: 1
Lcst_end7:
	.byte	1                               ; >> Action Record 1 <<
                                        ;   Catch TypeInfo 1
	.byte	0                               ;   No further actions
	.p2align	2, 0x0
                                        ; >> Catch TypeInfos <<
	.long	0                               ; TypeInfo 1
Lttbase2:
	.p2align	2, 0x0
                                        ; -- End function
	.section	__TEXT,__text,regular,pure_instructions
	.private_extern	__ZNKSt3__129_AllocatorDestroyRangeReverseINS_9allocatorIxEEPxEclB8ne200100Ev ; -- Begin function _ZNKSt3__129_AllocatorDestroyRangeReverseINS_9allocatorIxEEPxEclB8ne200100Ev
	.globl	__ZNKSt3__129_AllocatorDestroyRangeReverseINS_9allocatorIxEEPxEclB8ne200100Ev
	.weak_definition	__ZNKSt3__129_AllocatorDestroyRangeReverseINS_9allocatorIxEEPxEclB8ne200100Ev
	.p2align	2
__ZNKSt3__129_AllocatorDestroyRangeReverseINS_9allocatorIxEEPxEclB8ne200100Ev: ; @_ZNKSt3__129_AllocatorDestroyRangeReverseINS_9allocatorIxEEPxEclB8ne200100Ev
	.cfi_startproc
; %bb.0:
	sub	sp, sp, #80
	stp	x29, x30, [sp, #64]             ; 16-byte Folded Spill
	add	x29, sp, #64
	.cfi_def_cfa w29, 16
	.cfi_offset w30, -8
	.cfi_offset w29, -16
	stur	x0, [x29, #-8]
	ldur	x8, [x29, #-8]
	str	x8, [sp, #8]                    ; 8-byte Folded Spill
	ldr	x9, [x8]
	str	x9, [sp, #16]                   ; 8-byte Folded Spill
	ldr	x8, [x8, #16]
	ldr	x1, [x8]
	sub	x0, x29, #24
	bl	__ZNSt3__116reverse_iteratorIPxEC1B8ne200100ES1_
	ldr	x8, [sp, #8]                    ; 8-byte Folded Reload
	ldr	x8, [x8, #8]
	ldr	x1, [x8]
	add	x0, sp, #24
	bl	__ZNSt3__116reverse_iteratorIPxEC1B8ne200100ES1_
	ldr	x0, [sp, #16]                   ; 8-byte Folded Reload
	ldur	x1, [x29, #-24]
	ldur	x2, [x29, #-16]
	ldr	x3, [sp, #24]
	ldr	x4, [sp, #32]
	bl	__ZNSt3__119__allocator_destroyB8ne200100INS_9allocatorIxEENS_16reverse_iteratorIPxEES5_EEvRT_T0_T1_
	ldp	x29, x30, [sp, #64]             ; 16-byte Folded Reload
	add	sp, sp, #80
	ret
	.cfi_endproc
                                        ; -- End function
	.private_extern	__ZNSt3__119__allocator_destroyB8ne200100INS_9allocatorIxEENS_16reverse_iteratorIPxEES5_EEvRT_T0_T1_ ; -- Begin function _ZNSt3__119__allocator_destroyB8ne200100INS_9allocatorIxEENS_16reverse_iteratorIPxEES5_EEvRT_T0_T1_
	.globl	__ZNSt3__119__allocator_destroyB8ne200100INS_9allocatorIxEENS_16reverse_iteratorIPxEES5_EEvRT_T0_T1_
	.weak_definition	__ZNSt3__119__allocator_destroyB8ne200100INS_9allocatorIxEENS_16reverse_iteratorIPxEES5_EEvRT_T0_T1_
	.p2align	2
__ZNSt3__119__allocator_destroyB8ne200100INS_9allocatorIxEENS_16reverse_iteratorIPxEES5_EEvRT_T0_T1_: ; @_ZNSt3__119__allocator_destroyB8ne200100INS_9allocatorIxEENS_16reverse_iteratorIPxEES5_EEvRT_T0_T1_
	.cfi_startproc
; %bb.0:
	sub	sp, sp, #64
	stp	x29, x30, [sp, #48]             ; 16-byte Folded Spill
	add	x29, sp, #48
	.cfi_def_cfa w29, 16
	.cfi_offset w30, -8
	.cfi_offset w29, -16
	stur	x1, [x29, #-16]
	stur	x2, [x29, #-8]
	str	x3, [sp, #16]
	str	x4, [sp, #24]
	str	x0, [sp, #8]
	b	LBB91_1
LBB91_1:                                ; =>This Inner Loop Header: Depth=1
	sub	x0, x29, #16
	add	x1, sp, #16
	bl	__ZNSt3__1neB8ne200100IPxS1_EEbRKNS_16reverse_iteratorIT_EERKNS2_IT0_EE
	tbz	w0, #0, LBB91_4
	b	LBB91_2
LBB91_2:                                ;   in Loop: Header=BB91_1 Depth=1
	ldr	x8, [sp, #8]
	str	x8, [sp]                        ; 8-byte Folded Spill
	sub	x0, x29, #16
	bl	__ZNSt3__112__to_addressB8ne200100INS_16reverse_iteratorIPxEELi0EEEu7__decayIDTclsr19__to_address_helperIT_EE6__callclsr3stdE7declvalIRKS4_EEEEES6_
	mov	x1, x0
	ldr	x0, [sp]                        ; 8-byte Folded Reload
	bl	__ZNSt3__116allocator_traitsINS_9allocatorIxEEE7destroyB8ne200100IxLi0EEEvRS2_PT_
	b	LBB91_3
LBB91_3:                                ;   in Loop: Header=BB91_1 Depth=1
	sub	x0, x29, #16
	bl	__ZNSt3__116reverse_iteratorIPxEppB8ne200100Ev
	b	LBB91_1
LBB91_4:
	ldp	x29, x30, [sp, #48]             ; 16-byte Folded Reload
	add	sp, sp, #64
	ret
	.cfi_endproc
                                        ; -- End function
	.private_extern	__ZNSt3__116reverse_iteratorIPxEC1B8ne200100ES1_ ; -- Begin function _ZNSt3__116reverse_iteratorIPxEC1B8ne200100ES1_
	.globl	__ZNSt3__116reverse_iteratorIPxEC1B8ne200100ES1_
	.weak_def_can_be_hidden	__ZNSt3__116reverse_iteratorIPxEC1B8ne200100ES1_
	.p2align	2
__ZNSt3__116reverse_iteratorIPxEC1B8ne200100ES1_: ; @_ZNSt3__116reverse_iteratorIPxEC1B8ne200100ES1_
	.cfi_startproc
; %bb.0:
	sub	sp, sp, #48
	stp	x29, x30, [sp, #32]             ; 16-byte Folded Spill
	add	x29, sp, #32
	.cfi_def_cfa w29, 16
	.cfi_offset w30, -8
	.cfi_offset w29, -16
	stur	x0, [x29, #-8]
	str	x1, [sp, #16]
	ldur	x0, [x29, #-8]
	str	x0, [sp, #8]                    ; 8-byte Folded Spill
	ldr	x1, [sp, #16]
	bl	__ZNSt3__116reverse_iteratorIPxEC2B8ne200100ES1_
	ldr	x0, [sp, #8]                    ; 8-byte Folded Reload
	ldp	x29, x30, [sp, #32]             ; 16-byte Folded Reload
	add	sp, sp, #48
	ret
	.cfi_endproc
                                        ; -- End function
	.private_extern	__ZNSt3__1neB8ne200100IPxS1_EEbRKNS_16reverse_iteratorIT_EERKNS2_IT0_EE ; -- Begin function _ZNSt3__1neB8ne200100IPxS1_EEbRKNS_16reverse_iteratorIT_EERKNS2_IT0_EE
	.globl	__ZNSt3__1neB8ne200100IPxS1_EEbRKNS_16reverse_iteratorIT_EERKNS2_IT0_EE
	.weak_definition	__ZNSt3__1neB8ne200100IPxS1_EEbRKNS_16reverse_iteratorIT_EERKNS2_IT0_EE
	.p2align	2
__ZNSt3__1neB8ne200100IPxS1_EEbRKNS_16reverse_iteratorIT_EERKNS2_IT0_EE: ; @_ZNSt3__1neB8ne200100IPxS1_EEbRKNS_16reverse_iteratorIT_EERKNS2_IT0_EE
	.cfi_startproc
; %bb.0:
	sub	sp, sp, #48
	stp	x29, x30, [sp, #32]             ; 16-byte Folded Spill
	add	x29, sp, #32
	.cfi_def_cfa w29, 16
	.cfi_offset w30, -8
	.cfi_offset w29, -16
	stur	x0, [x29, #-8]
	str	x1, [sp, #16]
	ldur	x0, [x29, #-8]
	bl	__ZNKSt3__116reverse_iteratorIPxE4baseB8ne200100Ev
	str	x0, [sp, #8]                    ; 8-byte Folded Spill
	ldr	x0, [sp, #16]
	bl	__ZNKSt3__116reverse_iteratorIPxE4baseB8ne200100Ev
	mov	x8, x0
	ldr	x0, [sp, #8]                    ; 8-byte Folded Reload
	subs	x8, x0, x8
	cset	w0, ne
	ldp	x29, x30, [sp, #32]             ; 16-byte Folded Reload
	add	sp, sp, #48
	ret
	.cfi_endproc
                                        ; -- End function
	.globl	__ZNSt3__116allocator_traitsINS_9allocatorIxEEE7destroyB8ne200100IxLi0EEEvRS2_PT_ ; -- Begin function _ZNSt3__116allocator_traitsINS_9allocatorIxEEE7destroyB8ne200100IxLi0EEEvRS2_PT_
	.weak_definition	__ZNSt3__116allocator_traitsINS_9allocatorIxEEE7destroyB8ne200100IxLi0EEEvRS2_PT_
	.p2align	2
__ZNSt3__116allocator_traitsINS_9allocatorIxEEE7destroyB8ne200100IxLi0EEEvRS2_PT_: ; @_ZNSt3__116allocator_traitsINS_9allocatorIxEEE7destroyB8ne200100IxLi0EEEvRS2_PT_
	.cfi_startproc
; %bb.0:
	sub	sp, sp, #32
	stp	x29, x30, [sp, #16]             ; 16-byte Folded Spill
	add	x29, sp, #16
	.cfi_def_cfa w29, 16
	.cfi_offset w30, -8
	.cfi_offset w29, -16
	str	x0, [sp, #8]
	str	x1, [sp]
	ldr	x0, [sp, #8]
	ldr	x1, [sp]
	bl	__ZNSt3__19allocatorIxE7destroyB8ne200100EPx
	ldp	x29, x30, [sp, #16]             ; 16-byte Folded Reload
	add	sp, sp, #32
	ret
	.cfi_endproc
                                        ; -- End function
	.private_extern	__ZNSt3__112__to_addressB8ne200100INS_16reverse_iteratorIPxEELi0EEEu7__decayIDTclsr19__to_address_helperIT_EE6__callclsr3stdE7declvalIRKS4_EEEEES6_ ; -- Begin function _ZNSt3__112__to_addressB8ne200100INS_16reverse_iteratorIPxEELi0EEEu7__decayIDTclsr19__to_address_helperIT_EE6__callclsr3stdE7declvalIRKS4_EEEEES6_
	.globl	__ZNSt3__112__to_addressB8ne200100INS_16reverse_iteratorIPxEELi0EEEu7__decayIDTclsr19__to_address_helperIT_EE6__callclsr3stdE7declvalIRKS4_EEEEES6_
	.weak_definition	__ZNSt3__112__to_addressB8ne200100INS_16reverse_iteratorIPxEELi0EEEu7__decayIDTclsr19__to_address_helperIT_EE6__callclsr3stdE7declvalIRKS4_EEEEES6_
	.p2align	2
__ZNSt3__112__to_addressB8ne200100INS_16reverse_iteratorIPxEELi0EEEu7__decayIDTclsr19__to_address_helperIT_EE6__callclsr3stdE7declvalIRKS4_EEEEES6_: ; @_ZNSt3__112__to_addressB8ne200100INS_16reverse_iteratorIPxEELi0EEEu7__decayIDTclsr19__to_address_helperIT_EE6__callclsr3stdE7declvalIRKS4_EEEEES6_
	.cfi_startproc
; %bb.0:
	sub	sp, sp, #32
	stp	x29, x30, [sp, #16]             ; 16-byte Folded Spill
	add	x29, sp, #16
	.cfi_def_cfa w29, 16
	.cfi_offset w30, -8
	.cfi_offset w29, -16
	str	x0, [sp, #8]
	ldr	x0, [sp, #8]
	bl	__ZNSt3__119__to_address_helperINS_16reverse_iteratorIPxEEvE6__callB8ne200100ERKS3_
	ldp	x29, x30, [sp, #16]             ; 16-byte Folded Reload
	add	sp, sp, #32
	ret
	.cfi_endproc
                                        ; -- End function
	.private_extern	__ZNSt3__116reverse_iteratorIPxEppB8ne200100Ev ; -- Begin function _ZNSt3__116reverse_iteratorIPxEppB8ne200100Ev
	.globl	__ZNSt3__116reverse_iteratorIPxEppB8ne200100Ev
	.weak_definition	__ZNSt3__116reverse_iteratorIPxEppB8ne200100Ev
	.p2align	2
__ZNSt3__116reverse_iteratorIPxEppB8ne200100Ev: ; @_ZNSt3__116reverse_iteratorIPxEppB8ne200100Ev
	.cfi_startproc
; %bb.0:
	sub	sp, sp, #16
	.cfi_def_cfa_offset 16
	str	x0, [sp, #8]
	ldr	x0, [sp, #8]
	ldr	x8, [x0, #8]
	subs	x8, x8, #8
	str	x8, [x0, #8]
	add	sp, sp, #16
	ret
	.cfi_endproc
                                        ; -- End function
	.private_extern	__ZNKSt3__116reverse_iteratorIPxE4baseB8ne200100Ev ; -- Begin function _ZNKSt3__116reverse_iteratorIPxE4baseB8ne200100Ev
	.globl	__ZNKSt3__116reverse_iteratorIPxE4baseB8ne200100Ev
	.weak_definition	__ZNKSt3__116reverse_iteratorIPxE4baseB8ne200100Ev
	.p2align	2
__ZNKSt3__116reverse_iteratorIPxE4baseB8ne200100Ev: ; @_ZNKSt3__116reverse_iteratorIPxE4baseB8ne200100Ev
	.cfi_startproc
; %bb.0:
	sub	sp, sp, #16
	.cfi_def_cfa_offset 16
	str	x0, [sp, #8]
	ldr	x8, [sp, #8]
	ldr	x0, [x8, #8]
	add	sp, sp, #16
	ret
	.cfi_endproc
                                        ; -- End function
	.private_extern	__ZNSt3__19allocatorIxE7destroyB8ne200100EPx ; -- Begin function _ZNSt3__19allocatorIxE7destroyB8ne200100EPx
	.globl	__ZNSt3__19allocatorIxE7destroyB8ne200100EPx
	.weak_definition	__ZNSt3__19allocatorIxE7destroyB8ne200100EPx
	.p2align	2
__ZNSt3__19allocatorIxE7destroyB8ne200100EPx: ; @_ZNSt3__19allocatorIxE7destroyB8ne200100EPx
	.cfi_startproc
; %bb.0:
	sub	sp, sp, #16
	.cfi_def_cfa_offset 16
	str	x0, [sp, #8]
	str	x1, [sp]
	add	sp, sp, #16
	ret
	.cfi_endproc
                                        ; -- End function
	.private_extern	__ZNSt3__119__to_address_helperINS_16reverse_iteratorIPxEEvE6__callB8ne200100ERKS3_ ; -- Begin function _ZNSt3__119__to_address_helperINS_16reverse_iteratorIPxEEvE6__callB8ne200100ERKS3_
	.globl	__ZNSt3__119__to_address_helperINS_16reverse_iteratorIPxEEvE6__callB8ne200100ERKS3_
	.weak_definition	__ZNSt3__119__to_address_helperINS_16reverse_iteratorIPxEEvE6__callB8ne200100ERKS3_
	.p2align	2
__ZNSt3__119__to_address_helperINS_16reverse_iteratorIPxEEvE6__callB8ne200100ERKS3_: ; @_ZNSt3__119__to_address_helperINS_16reverse_iteratorIPxEEvE6__callB8ne200100ERKS3_
Lfunc_begin8:
	.cfi_startproc
	.cfi_personality 155, ___gxx_personality_v0
	.cfi_lsda 16, Lexception8
; %bb.0:
	sub	sp, sp, #32
	stp	x29, x30, [sp, #16]             ; 16-byte Folded Spill
	add	x29, sp, #16
	.cfi_def_cfa w29, 16
	.cfi_offset w30, -8
	.cfi_offset w29, -16
	str	x0, [sp, #8]
	ldr	x0, [sp, #8]
Ltmp155:
	bl	__ZNKSt3__116reverse_iteratorIPxEptB8ne200100Ev
	str	x0, [sp]                        ; 8-byte Folded Spill
Ltmp156:
	b	LBB99_1
LBB99_1:
	ldr	x0, [sp]                        ; 8-byte Folded Reload
	bl	__ZNSt3__112__to_addressB8ne200100IxEEPT_S2_
	ldp	x29, x30, [sp, #16]             ; 16-byte Folded Reload
	add	sp, sp, #32
	ret
LBB99_2:
Ltmp157:
	bl	___clang_call_terminate
Lfunc_end8:
	.cfi_endproc
	.section	__TEXT,__gcc_except_tab
	.p2align	2, 0x0
GCC_except_table99:
Lexception8:
	.byte	255                             ; @LPStart Encoding = omit
	.byte	155                             ; @TType Encoding = indirect pcrel sdata4
	.uleb128 Lttbase3-Lttbaseref3
Lttbaseref3:
	.byte	1                               ; Call site Encoding = uleb128
	.uleb128 Lcst_end8-Lcst_begin8
Lcst_begin8:
	.uleb128 Ltmp155-Lfunc_begin8           ; >> Call Site 1 <<
	.uleb128 Ltmp156-Ltmp155                ;   Call between Ltmp155 and Ltmp156
	.uleb128 Ltmp157-Lfunc_begin8           ;     jumps to Ltmp157
	.byte	1                               ;   On action: 1
Lcst_end8:
	.byte	1                               ; >> Action Record 1 <<
                                        ;   Catch TypeInfo 1
	.byte	0                               ;   No further actions
	.p2align	2, 0x0
                                        ; >> Catch TypeInfos <<
	.long	0                               ; TypeInfo 1
Lttbase3:
	.p2align	2, 0x0
                                        ; -- End function
	.section	__TEXT,__text,regular,pure_instructions
	.private_extern	__ZNKSt3__116reverse_iteratorIPxEptB8ne200100Ev ; -- Begin function _ZNKSt3__116reverse_iteratorIPxEptB8ne200100Ev
	.globl	__ZNKSt3__116reverse_iteratorIPxEptB8ne200100Ev
	.weak_definition	__ZNKSt3__116reverse_iteratorIPxEptB8ne200100Ev
	.p2align	2
__ZNKSt3__116reverse_iteratorIPxEptB8ne200100Ev: ; @_ZNKSt3__116reverse_iteratorIPxEptB8ne200100Ev
	.cfi_startproc
; %bb.0:
	sub	sp, sp, #32
	stp	x29, x30, [sp, #16]             ; 16-byte Folded Spill
	add	x29, sp, #16
	.cfi_def_cfa w29, 16
	.cfi_offset w30, -8
	.cfi_offset w29, -16
	str	x0, [sp, #8]
	ldr	x0, [sp, #8]
	bl	__ZNKSt3__116reverse_iteratorIPxEdeB8ne200100Ev
	ldp	x29, x30, [sp, #16]             ; 16-byte Folded Reload
	add	sp, sp, #32
	ret
	.cfi_endproc
                                        ; -- End function
	.private_extern	__ZNKSt3__116reverse_iteratorIPxEdeB8ne200100Ev ; -- Begin function _ZNKSt3__116reverse_iteratorIPxEdeB8ne200100Ev
	.globl	__ZNKSt3__116reverse_iteratorIPxEdeB8ne200100Ev
	.weak_definition	__ZNKSt3__116reverse_iteratorIPxEdeB8ne200100Ev
	.p2align	2
__ZNKSt3__116reverse_iteratorIPxEdeB8ne200100Ev: ; @_ZNKSt3__116reverse_iteratorIPxEdeB8ne200100Ev
	.cfi_startproc
; %bb.0:
	sub	sp, sp, #16
	.cfi_def_cfa_offset 16
	str	x0, [sp, #8]
	ldr	x8, [sp, #8]
	ldr	x8, [x8, #8]
	str	x8, [sp]
	ldr	x8, [sp]
	subs	x0, x8, #8
	str	x0, [sp]
	add	sp, sp, #16
	ret
	.cfi_endproc
                                        ; -- End function
	.private_extern	__ZNSt3__116reverse_iteratorIPxEC2B8ne200100ES1_ ; -- Begin function _ZNSt3__116reverse_iteratorIPxEC2B8ne200100ES1_
	.globl	__ZNSt3__116reverse_iteratorIPxEC2B8ne200100ES1_
	.weak_def_can_be_hidden	__ZNSt3__116reverse_iteratorIPxEC2B8ne200100ES1_
	.p2align	2
__ZNSt3__116reverse_iteratorIPxEC2B8ne200100ES1_: ; @_ZNSt3__116reverse_iteratorIPxEC2B8ne200100ES1_
	.cfi_startproc
; %bb.0:
	sub	sp, sp, #16
	.cfi_def_cfa_offset 16
	str	x0, [sp, #8]
	str	x1, [sp]
	ldr	x0, [sp, #8]
	ldr	x8, [sp]
	str	x8, [x0]
	ldr	x8, [sp]
	str	x8, [x0, #8]
	add	sp, sp, #16
	ret
	.cfi_endproc
                                        ; -- End function
	.private_extern	__ZNSt3__118__unwrap_iter_implIPxLb1EE8__unwrapB8ne200100ES1_ ; -- Begin function _ZNSt3__118__unwrap_iter_implIPxLb1EE8__unwrapB8ne200100ES1_
	.globl	__ZNSt3__118__unwrap_iter_implIPxLb1EE8__unwrapB8ne200100ES1_
	.weak_definition	__ZNSt3__118__unwrap_iter_implIPxLb1EE8__unwrapB8ne200100ES1_
	.p2align	2
__ZNSt3__118__unwrap_iter_implIPxLb1EE8__unwrapB8ne200100ES1_: ; @_ZNSt3__118__unwrap_iter_implIPxLb1EE8__unwrapB8ne200100ES1_
	.cfi_startproc
; %bb.0:
	sub	sp, sp, #32
	stp	x29, x30, [sp, #16]             ; 16-byte Folded Spill
	add	x29, sp, #16
	.cfi_def_cfa w29, 16
	.cfi_offset w30, -8
	.cfi_offset w29, -16
	str	x0, [sp, #8]
	ldr	x0, [sp, #8]
	bl	__ZNSt3__112__to_addressB8ne200100IxEEPT_S2_
	ldp	x29, x30, [sp, #16]             ; 16-byte Folded Reload
	add	sp, sp, #32
	ret
	.cfi_endproc
                                        ; -- End function
	.private_extern	__ZNSt3__118__unwrap_iter_implIPxLb1EE8__rewrapB8ne200100ES1_S1_ ; -- Begin function _ZNSt3__118__unwrap_iter_implIPxLb1EE8__rewrapB8ne200100ES1_S1_
	.globl	__ZNSt3__118__unwrap_iter_implIPxLb1EE8__rewrapB8ne200100ES1_S1_
	.weak_definition	__ZNSt3__118__unwrap_iter_implIPxLb1EE8__rewrapB8ne200100ES1_S1_
	.p2align	2
__ZNSt3__118__unwrap_iter_implIPxLb1EE8__rewrapB8ne200100ES1_S1_: ; @_ZNSt3__118__unwrap_iter_implIPxLb1EE8__rewrapB8ne200100ES1_S1_
	.cfi_startproc
; %bb.0:
	sub	sp, sp, #48
	stp	x29, x30, [sp, #32]             ; 16-byte Folded Spill
	add	x29, sp, #32
	.cfi_def_cfa w29, 16
	.cfi_offset w30, -8
	.cfi_offset w29, -16
	stur	x0, [x29, #-8]
	str	x1, [sp, #16]
	ldur	x8, [x29, #-8]
	str	x8, [sp, #8]                    ; 8-byte Folded Spill
	ldr	x8, [sp, #16]
	str	x8, [sp]                        ; 8-byte Folded Spill
	ldur	x0, [x29, #-8]
	bl	__ZNSt3__112__to_addressB8ne200100IxEEPT_S2_
	ldr	x9, [sp]                        ; 8-byte Folded Reload
	ldr	x8, [sp, #8]                    ; 8-byte Folded Reload
	subs	x9, x9, x0
	mov	x10, #8                         ; =0x8
	sdiv	x9, x9, x10
	add	x0, x8, x9, lsl #3
	ldp	x29, x30, [sp, #32]             ; 16-byte Folded Reload
	add	sp, sp, #48
	ret
	.cfi_endproc
                                        ; -- End function
	.private_extern	__ZNSt3__16vectorIxNS_9allocatorIxEEE21_ConstructTransactionD2B8ne200100Ev ; -- Begin function _ZNSt3__16vectorIxNS_9allocatorIxEEE21_ConstructTransactionD2B8ne200100Ev
	.globl	__ZNSt3__16vectorIxNS_9allocatorIxEEE21_ConstructTransactionD2B8ne200100Ev
	.weak_def_can_be_hidden	__ZNSt3__16vectorIxNS_9allocatorIxEEE21_ConstructTransactionD2B8ne200100Ev
	.p2align	2
__ZNSt3__16vectorIxNS_9allocatorIxEEE21_ConstructTransactionD2B8ne200100Ev: ; @_ZNSt3__16vectorIxNS_9allocatorIxEEE21_ConstructTransactionD2B8ne200100Ev
	.cfi_startproc
; %bb.0:
	sub	sp, sp, #16
	.cfi_def_cfa_offset 16
	str	x0, [sp, #8]
	ldr	x0, [sp, #8]
	ldr	x8, [x0, #8]
	ldr	x9, [x0]
	str	x8, [x9, #8]
	add	sp, sp, #16
	ret
	.cfi_endproc
                                        ; -- End function
	.private_extern	__ZNSt3__128__exception_guard_exceptionsINS_6vectorIxNS_9allocatorIxEEE16__destroy_vectorEED2B8ne200100Ev ; -- Begin function _ZNSt3__128__exception_guard_exceptionsINS_6vectorIxNS_9allocatorIxEEE16__destroy_vectorEED2B8ne200100Ev
	.globl	__ZNSt3__128__exception_guard_exceptionsINS_6vectorIxNS_9allocatorIxEEE16__destroy_vectorEED2B8ne200100Ev
	.weak_def_can_be_hidden	__ZNSt3__128__exception_guard_exceptionsINS_6vectorIxNS_9allocatorIxEEE16__destroy_vectorEED2B8ne200100Ev
	.p2align	2
__ZNSt3__128__exception_guard_exceptionsINS_6vectorIxNS_9allocatorIxEEE16__destroy_vectorEED2B8ne200100Ev: ; @_ZNSt3__128__exception_guard_exceptionsINS_6vectorIxNS_9allocatorIxEEE16__destroy_vectorEED2B8ne200100Ev
Lfunc_begin9:
	.cfi_startproc
	.cfi_personality 155, ___gxx_personality_v0
	.cfi_lsda 16, Lexception9
; %bb.0:
	sub	sp, sp, #48
	stp	x29, x30, [sp, #32]             ; 16-byte Folded Spill
	add	x29, sp, #32
	.cfi_def_cfa w29, 16
	.cfi_offset w30, -8
	.cfi_offset w29, -16
	str	x0, [sp, #16]
	ldr	x8, [sp, #16]
	str	x8, [sp, #8]                    ; 8-byte Folded Spill
	mov	x9, x8
	stur	x9, [x29, #-8]
	ldrb	w8, [x8, #8]
	tbnz	w8, #0, LBB106_3
	b	LBB106_1
LBB106_1:
Ltmp161:
	ldr	x0, [sp, #8]                    ; 8-byte Folded Reload
	bl	__ZNSt3__16vectorIxNS_9allocatorIxEEE16__destroy_vectorclB8ne200100Ev
Ltmp162:
	b	LBB106_2
LBB106_2:
	b	LBB106_3
LBB106_3:
	ldur	x0, [x29, #-8]
	ldp	x29, x30, [sp, #32]             ; 16-byte Folded Reload
	add	sp, sp, #48
	ret
LBB106_4:
Ltmp163:
	bl	___clang_call_terminate
Lfunc_end9:
	.cfi_endproc
	.section	__TEXT,__gcc_except_tab
	.p2align	2, 0x0
GCC_except_table106:
Lexception9:
	.byte	255                             ; @LPStart Encoding = omit
	.byte	155                             ; @TType Encoding = indirect pcrel sdata4
	.uleb128 Lttbase4-Lttbaseref4
Lttbaseref4:
	.byte	1                               ; Call site Encoding = uleb128
	.uleb128 Lcst_end9-Lcst_begin9
Lcst_begin9:
	.uleb128 Ltmp161-Lfunc_begin9           ; >> Call Site 1 <<
	.uleb128 Ltmp162-Ltmp161                ;   Call between Ltmp161 and Ltmp162
	.uleb128 Ltmp163-Lfunc_begin9           ;     jumps to Ltmp163
	.byte	1                               ;   On action: 1
Lcst_end9:
	.byte	1                               ; >> Action Record 1 <<
                                        ;   Catch TypeInfo 1
	.byte	0                               ;   No further actions
	.p2align	2, 0x0
                                        ; >> Catch TypeInfos <<
	.long	0                               ; TypeInfo 1
Lttbase4:
	.p2align	2, 0x0
                                        ; -- End function
	.section	__TEXT,__text,regular,pure_instructions
	.private_extern	__ZNSt3__16vectorIxNS_9allocatorIxEEE16__destroy_vectorclB8ne200100Ev ; -- Begin function _ZNSt3__16vectorIxNS_9allocatorIxEEE16__destroy_vectorclB8ne200100Ev
	.globl	__ZNSt3__16vectorIxNS_9allocatorIxEEE16__destroy_vectorclB8ne200100Ev
	.weak_definition	__ZNSt3__16vectorIxNS_9allocatorIxEEE16__destroy_vectorclB8ne200100Ev
	.p2align	2
__ZNSt3__16vectorIxNS_9allocatorIxEEE16__destroy_vectorclB8ne200100Ev: ; @_ZNSt3__16vectorIxNS_9allocatorIxEEE16__destroy_vectorclB8ne200100Ev
	.cfi_startproc
; %bb.0:
	sub	sp, sp, #48
	stp	x29, x30, [sp, #32]             ; 16-byte Folded Spill
	add	x29, sp, #32
	.cfi_def_cfa w29, 16
	.cfi_offset w30, -8
	.cfi_offset w29, -16
	stur	x0, [x29, #-8]
	ldur	x8, [x29, #-8]
	str	x8, [sp, #16]                   ; 8-byte Folded Spill
	ldr	x8, [x8]
	ldr	x8, [x8]
	cbz	x8, LBB107_2
	b	LBB107_1
LBB107_1:
	ldr	x8, [sp, #16]                   ; 8-byte Folded Reload
	ldr	x0, [x8]
	bl	__ZNSt3__16vectorIxNS_9allocatorIxEEE5clearB8ne200100Ev
	ldr	x8, [sp, #16]                   ; 8-byte Folded Reload
	ldr	x0, [x8]
	bl	__ZNKSt3__16vectorIxNS_9allocatorIxEEE17__annotate_deleteB8ne200100Ev
	ldr	x8, [sp, #16]                   ; 8-byte Folded Reload
	ldr	x9, [x8]
	add	x9, x9, #16
	str	x9, [sp, #8]                    ; 8-byte Folded Spill
	ldr	x9, [x8]
	ldr	x9, [x9]
	str	x9, [sp]                        ; 8-byte Folded Spill
	ldr	x0, [x8]
	bl	__ZNKSt3__16vectorIxNS_9allocatorIxEEE8capacityB8ne200100Ev
	ldr	x1, [sp]                        ; 8-byte Folded Reload
	mov	x2, x0
	ldr	x0, [sp, #8]                    ; 8-byte Folded Reload
	bl	__ZNSt3__116allocator_traitsINS_9allocatorIxEEE10deallocateB8ne200100ERS2_Pxm
	b	LBB107_2
LBB107_2:
	ldp	x29, x30, [sp, #32]             ; 16-byte Folded Reload
	add	sp, sp, #48
	ret
	.cfi_endproc
                                        ; -- End function
	.private_extern	__ZNSt3__16vectorIxNS_9allocatorIxEEE5clearB8ne200100Ev ; -- Begin function _ZNSt3__16vectorIxNS_9allocatorIxEEE5clearB8ne200100Ev
	.globl	__ZNSt3__16vectorIxNS_9allocatorIxEEE5clearB8ne200100Ev
	.weak_definition	__ZNSt3__16vectorIxNS_9allocatorIxEEE5clearB8ne200100Ev
	.p2align	2
__ZNSt3__16vectorIxNS_9allocatorIxEEE5clearB8ne200100Ev: ; @_ZNSt3__16vectorIxNS_9allocatorIxEEE5clearB8ne200100Ev
	.cfi_startproc
; %bb.0:
	sub	sp, sp, #48
	stp	x29, x30, [sp, #32]             ; 16-byte Folded Spill
	add	x29, sp, #32
	.cfi_def_cfa w29, 16
	.cfi_offset w30, -8
	.cfi_offset w29, -16
	stur	x0, [x29, #-8]
	ldur	x0, [x29, #-8]
	str	x0, [sp, #8]                    ; 8-byte Folded Spill
	bl	__ZNKSt3__16vectorIxNS_9allocatorIxEEE4sizeB8ne200100Ev
	mov	x8, x0
	ldr	x0, [sp, #8]                    ; 8-byte Folded Reload
	str	x8, [sp, #16]
	ldr	x1, [x0]
	bl	__ZNSt3__16vectorIxNS_9allocatorIxEEE22__base_destruct_at_endB8ne200100EPx
	ldr	x0, [sp, #8]                    ; 8-byte Folded Reload
	ldr	x1, [sp, #16]
	bl	__ZNKSt3__16vectorIxNS_9allocatorIxEEE17__annotate_shrinkB8ne200100Em
	ldp	x29, x30, [sp, #32]             ; 16-byte Folded Reload
	add	sp, sp, #48
	ret
	.cfi_endproc
                                        ; -- End function
	.private_extern	__ZNKSt3__16vectorIxNS_9allocatorIxEEE17__annotate_deleteB8ne200100Ev ; -- Begin function _ZNKSt3__16vectorIxNS_9allocatorIxEEE17__annotate_deleteB8ne200100Ev
	.globl	__ZNKSt3__16vectorIxNS_9allocatorIxEEE17__annotate_deleteB8ne200100Ev
	.weak_definition	__ZNKSt3__16vectorIxNS_9allocatorIxEEE17__annotate_deleteB8ne200100Ev
	.p2align	2
__ZNKSt3__16vectorIxNS_9allocatorIxEEE17__annotate_deleteB8ne200100Ev: ; @_ZNKSt3__16vectorIxNS_9allocatorIxEEE17__annotate_deleteB8ne200100Ev
	.cfi_startproc
; %bb.0:
	sub	sp, sp, #16
	.cfi_def_cfa_offset 16
	str	x0, [sp, #8]
	add	sp, sp, #16
	ret
	.cfi_endproc
                                        ; -- End function
	.private_extern	__ZNSt3__116allocator_traitsINS_9allocatorIxEEE10deallocateB8ne200100ERS2_Pxm ; -- Begin function _ZNSt3__116allocator_traitsINS_9allocatorIxEEE10deallocateB8ne200100ERS2_Pxm
	.globl	__ZNSt3__116allocator_traitsINS_9allocatorIxEEE10deallocateB8ne200100ERS2_Pxm
	.weak_definition	__ZNSt3__116allocator_traitsINS_9allocatorIxEEE10deallocateB8ne200100ERS2_Pxm
	.p2align	2
__ZNSt3__116allocator_traitsINS_9allocatorIxEEE10deallocateB8ne200100ERS2_Pxm: ; @_ZNSt3__116allocator_traitsINS_9allocatorIxEEE10deallocateB8ne200100ERS2_Pxm
	.cfi_startproc
; %bb.0:
	sub	sp, sp, #48
	stp	x29, x30, [sp, #32]             ; 16-byte Folded Spill
	add	x29, sp, #32
	.cfi_def_cfa w29, 16
	.cfi_offset w30, -8
	.cfi_offset w29, -16
	stur	x0, [x29, #-8]
	str	x1, [sp, #16]
	str	x2, [sp, #8]
	ldur	x0, [x29, #-8]
	ldr	x1, [sp, #16]
	ldr	x2, [sp, #8]
	bl	__ZNSt3__19allocatorIxE10deallocateB8ne200100EPxm
	ldp	x29, x30, [sp, #32]             ; 16-byte Folded Reload
	add	sp, sp, #48
	ret
	.cfi_endproc
                                        ; -- End function
	.private_extern	__ZNKSt3__16vectorIxNS_9allocatorIxEEE8capacityB8ne200100Ev ; -- Begin function _ZNKSt3__16vectorIxNS_9allocatorIxEEE8capacityB8ne200100Ev
	.globl	__ZNKSt3__16vectorIxNS_9allocatorIxEEE8capacityB8ne200100Ev
	.weak_definition	__ZNKSt3__16vectorIxNS_9allocatorIxEEE8capacityB8ne200100Ev
	.p2align	2
__ZNKSt3__16vectorIxNS_9allocatorIxEEE8capacityB8ne200100Ev: ; @_ZNKSt3__16vectorIxNS_9allocatorIxEEE8capacityB8ne200100Ev
	.cfi_startproc
; %bb.0:
	sub	sp, sp, #16
	.cfi_def_cfa_offset 16
	str	x0, [sp, #8]
	ldr	x9, [sp, #8]
	ldr	x8, [x9, #16]
	ldr	x9, [x9]
	subs	x8, x8, x9
	mov	x9, #8                          ; =0x8
	sdiv	x0, x8, x9
	add	sp, sp, #16
	ret
	.cfi_endproc
                                        ; -- End function
	.private_extern	__ZNKSt3__16vectorIxNS_9allocatorIxEEE4sizeB8ne200100Ev ; -- Begin function _ZNKSt3__16vectorIxNS_9allocatorIxEEE4sizeB8ne200100Ev
	.globl	__ZNKSt3__16vectorIxNS_9allocatorIxEEE4sizeB8ne200100Ev
	.weak_definition	__ZNKSt3__16vectorIxNS_9allocatorIxEEE4sizeB8ne200100Ev
	.p2align	2
__ZNKSt3__16vectorIxNS_9allocatorIxEEE4sizeB8ne200100Ev: ; @_ZNKSt3__16vectorIxNS_9allocatorIxEEE4sizeB8ne200100Ev
	.cfi_startproc
; %bb.0:
	sub	sp, sp, #16
	.cfi_def_cfa_offset 16
	str	x0, [sp, #8]
	ldr	x9, [sp, #8]
	ldr	x8, [x9, #8]
	ldr	x9, [x9]
	subs	x8, x8, x9
	mov	x9, #8                          ; =0x8
	sdiv	x0, x8, x9
	add	sp, sp, #16
	ret
	.cfi_endproc
                                        ; -- End function
	.private_extern	__ZNSt3__16vectorIxNS_9allocatorIxEEE22__base_destruct_at_endB8ne200100EPx ; -- Begin function _ZNSt3__16vectorIxNS_9allocatorIxEEE22__base_destruct_at_endB8ne200100EPx
	.globl	__ZNSt3__16vectorIxNS_9allocatorIxEEE22__base_destruct_at_endB8ne200100EPx
	.weak_definition	__ZNSt3__16vectorIxNS_9allocatorIxEEE22__base_destruct_at_endB8ne200100EPx
	.p2align	2
__ZNSt3__16vectorIxNS_9allocatorIxEEE22__base_destruct_at_endB8ne200100EPx: ; @_ZNSt3__16vectorIxNS_9allocatorIxEEE22__base_destruct_at_endB8ne200100EPx
Lfunc_begin10:
	.cfi_startproc
	.cfi_personality 155, ___gxx_personality_v0
	.cfi_lsda 16, Lexception10
; %bb.0:
	sub	sp, sp, #64
	stp	x29, x30, [sp, #48]             ; 16-byte Folded Spill
	add	x29, sp, #48
	.cfi_def_cfa w29, 16
	.cfi_offset w30, -8
	.cfi_offset w29, -16
	stur	x0, [x29, #-8]
	stur	x1, [x29, #-16]
	ldur	x8, [x29, #-8]
	str	x8, [sp, #16]                   ; 8-byte Folded Spill
	ldr	x8, [x8, #8]
	str	x8, [sp, #24]
	b	LBB113_1
LBB113_1:                               ; =>This Inner Loop Header: Depth=1
	ldur	x8, [x29, #-16]
	ldr	x9, [sp, #24]
	subs	x8, x8, x9
	b.eq	LBB113_4
	b	LBB113_2
LBB113_2:                               ;   in Loop: Header=BB113_1 Depth=1
	ldr	x8, [sp, #16]                   ; 8-byte Folded Reload
	add	x8, x8, #16
	str	x8, [sp, #8]                    ; 8-byte Folded Spill
	ldr	x8, [sp, #24]
	subs	x0, x8, #8
	str	x0, [sp, #24]
	bl	__ZNSt3__112__to_addressB8ne200100IxEEPT_S2_
	mov	x1, x0
	ldr	x0, [sp, #8]                    ; 8-byte Folded Reload
Ltmp167:
	bl	__ZNSt3__116allocator_traitsINS_9allocatorIxEEE7destroyB8ne200100IxLi0EEEvRS2_PT_
Ltmp168:
	b	LBB113_3
LBB113_3:                               ;   in Loop: Header=BB113_1 Depth=1
	b	LBB113_1
LBB113_4:
	ldr	x9, [sp, #16]                   ; 8-byte Folded Reload
	ldur	x8, [x29, #-16]
	str	x8, [x9, #8]
	ldp	x29, x30, [sp, #48]             ; 16-byte Folded Reload
	add	sp, sp, #64
	ret
LBB113_5:
Ltmp169:
	bl	___clang_call_terminate
Lfunc_end10:
	.cfi_endproc
	.section	__TEXT,__gcc_except_tab
	.p2align	2, 0x0
GCC_except_table113:
Lexception10:
	.byte	255                             ; @LPStart Encoding = omit
	.byte	155                             ; @TType Encoding = indirect pcrel sdata4
	.uleb128 Lttbase5-Lttbaseref5
Lttbaseref5:
	.byte	1                               ; Call site Encoding = uleb128
	.uleb128 Lcst_end10-Lcst_begin10
Lcst_begin10:
	.uleb128 Ltmp167-Lfunc_begin10          ; >> Call Site 1 <<
	.uleb128 Ltmp168-Ltmp167                ;   Call between Ltmp167 and Ltmp168
	.uleb128 Ltmp169-Lfunc_begin10          ;     jumps to Ltmp169
	.byte	1                               ;   On action: 1
Lcst_end10:
	.byte	1                               ; >> Action Record 1 <<
                                        ;   Catch TypeInfo 1
	.byte	0                               ;   No further actions
	.p2align	2, 0x0
                                        ; >> Catch TypeInfos <<
	.long	0                               ; TypeInfo 1
Lttbase5:
	.p2align	2, 0x0
                                        ; -- End function
	.section	__TEXT,__text,regular,pure_instructions
	.private_extern	__ZNKSt3__16vectorIxNS_9allocatorIxEEE17__annotate_shrinkB8ne200100Em ; -- Begin function _ZNKSt3__16vectorIxNS_9allocatorIxEEE17__annotate_shrinkB8ne200100Em
	.globl	__ZNKSt3__16vectorIxNS_9allocatorIxEEE17__annotate_shrinkB8ne200100Em
	.weak_definition	__ZNKSt3__16vectorIxNS_9allocatorIxEEE17__annotate_shrinkB8ne200100Em
	.p2align	2
__ZNKSt3__16vectorIxNS_9allocatorIxEEE17__annotate_shrinkB8ne200100Em: ; @_ZNKSt3__16vectorIxNS_9allocatorIxEEE17__annotate_shrinkB8ne200100Em
	.cfi_startproc
; %bb.0:
	sub	sp, sp, #16
	.cfi_def_cfa_offset 16
	str	x0, [sp, #8]
	str	x1, [sp]
	add	sp, sp, #16
	ret
	.cfi_endproc
                                        ; -- End function
	.private_extern	__ZNSt3__19allocatorIxE10deallocateB8ne200100EPxm ; -- Begin function _ZNSt3__19allocatorIxE10deallocateB8ne200100EPxm
	.globl	__ZNSt3__19allocatorIxE10deallocateB8ne200100EPxm
	.weak_definition	__ZNSt3__19allocatorIxE10deallocateB8ne200100EPxm
	.p2align	2
__ZNSt3__19allocatorIxE10deallocateB8ne200100EPxm: ; @_ZNSt3__19allocatorIxE10deallocateB8ne200100EPxm
	.cfi_startproc
; %bb.0:
	sub	sp, sp, #48
	stp	x29, x30, [sp, #32]             ; 16-byte Folded Spill
	add	x29, sp, #32
	.cfi_def_cfa w29, 16
	.cfi_offset w30, -8
	.cfi_offset w29, -16
	stur	x0, [x29, #-8]
	str	x1, [sp, #16]
	str	x2, [sp, #8]
	ldr	x0, [sp, #16]
	ldr	x1, [sp, #8]
	mov	x2, #8                          ; =0x8
	bl	__ZNSt3__119__libcpp_deallocateB8ne200100IxEEvPNS_15__type_identityIT_E4typeENS_15__element_countEm
	ldp	x29, x30, [sp, #32]             ; 16-byte Folded Reload
	add	sp, sp, #48
	ret
	.cfi_endproc
                                        ; -- End function
	.private_extern	__ZNSt3__119__libcpp_deallocateB8ne200100IxEEvPNS_15__type_identityIT_E4typeENS_15__element_countEm ; -- Begin function _ZNSt3__119__libcpp_deallocateB8ne200100IxEEvPNS_15__type_identityIT_E4typeENS_15__element_countEm
	.globl	__ZNSt3__119__libcpp_deallocateB8ne200100IxEEvPNS_15__type_identityIT_E4typeENS_15__element_countEm
	.weak_definition	__ZNSt3__119__libcpp_deallocateB8ne200100IxEEvPNS_15__type_identityIT_E4typeENS_15__element_countEm
	.p2align	2
__ZNSt3__119__libcpp_deallocateB8ne200100IxEEvPNS_15__type_identityIT_E4typeENS_15__element_countEm: ; @_ZNSt3__119__libcpp_deallocateB8ne200100IxEEvPNS_15__type_identityIT_E4typeENS_15__element_countEm
	.cfi_startproc
; %bb.0:
	sub	sp, sp, #48
	stp	x29, x30, [sp, #32]             ; 16-byte Folded Spill
	add	x29, sp, #32
	.cfi_def_cfa w29, 16
	.cfi_offset w30, -8
	.cfi_offset w29, -16
	stur	x0, [x29, #-8]
	str	x1, [sp, #16]
	str	x2, [sp, #8]
	ldr	x8, [sp, #16]
	lsl	x8, x8, #3
	str	x8, [sp]
	ldur	x0, [x29, #-8]
	bl	__ZNSt3__124__libcpp_operator_deleteB8ne200100IJPxEEEvDpT_
	ldp	x29, x30, [sp, #32]             ; 16-byte Folded Reload
	add	sp, sp, #48
	ret
	.cfi_endproc
                                        ; -- End function
	.private_extern	__ZNSt3__124__libcpp_operator_deleteB8ne200100IJPxEEEvDpT_ ; -- Begin function _ZNSt3__124__libcpp_operator_deleteB8ne200100IJPxEEEvDpT_
	.globl	__ZNSt3__124__libcpp_operator_deleteB8ne200100IJPxEEEvDpT_
	.weak_definition	__ZNSt3__124__libcpp_operator_deleteB8ne200100IJPxEEEvDpT_
	.p2align	2
__ZNSt3__124__libcpp_operator_deleteB8ne200100IJPxEEEvDpT_: ; @_ZNSt3__124__libcpp_operator_deleteB8ne200100IJPxEEEvDpT_
	.cfi_startproc
; %bb.0:
	sub	sp, sp, #32
	stp	x29, x30, [sp, #16]             ; 16-byte Folded Spill
	add	x29, sp, #16
	.cfi_def_cfa w29, 16
	.cfi_offset w30, -8
	.cfi_offset w29, -16
	str	x0, [sp, #8]
	ldr	x0, [sp, #8]
	bl	__ZdlPv
	ldp	x29, x30, [sp, #16]             ; 16-byte Folded Reload
	add	sp, sp, #32
	ret
	.cfi_endproc
                                        ; -- End function
	.private_extern	__ZNSt3__16vectorIxNS_9allocatorIxEEED2B8ne200100Ev ; -- Begin function _ZNSt3__16vectorIxNS_9allocatorIxEEED2B8ne200100Ev
	.globl	__ZNSt3__16vectorIxNS_9allocatorIxEEED2B8ne200100Ev
	.weak_def_can_be_hidden	__ZNSt3__16vectorIxNS_9allocatorIxEEED2B8ne200100Ev
	.p2align	2
__ZNSt3__16vectorIxNS_9allocatorIxEEED2B8ne200100Ev: ; @_ZNSt3__16vectorIxNS_9allocatorIxEEED2B8ne200100Ev
Lfunc_begin11:
	.cfi_startproc
	.cfi_personality 155, ___gxx_personality_v0
	.cfi_lsda 16, Lexception11
; %bb.0:
	sub	sp, sp, #48
	stp	x29, x30, [sp, #32]             ; 16-byte Folded Spill
	add	x29, sp, #32
	.cfi_def_cfa w29, 16
	.cfi_offset w30, -8
	.cfi_offset w29, -16
	stur	x0, [x29, #-8]
	ldur	x1, [x29, #-8]
	str	x1, [sp, #8]                    ; 8-byte Folded Spill
Ltmp171:
	add	x0, sp, #16
	bl	__ZNSt3__16vectorIxNS_9allocatorIxEEE16__destroy_vectorC1B8ne200100ERS3_
Ltmp172:
	b	LBB118_1
LBB118_1:
	add	x0, sp, #16
	bl	__ZNSt3__16vectorIxNS_9allocatorIxEEE16__destroy_vectorclB8ne200100Ev
	ldr	x0, [sp, #8]                    ; 8-byte Folded Reload
	ldp	x29, x30, [sp, #32]             ; 16-byte Folded Reload
	add	sp, sp, #48
	ret
LBB118_2:
Ltmp173:
	bl	___clang_call_terminate
Lfunc_end11:
	.cfi_endproc
	.section	__TEXT,__gcc_except_tab
	.p2align	2, 0x0
GCC_except_table118:
Lexception11:
	.byte	255                             ; @LPStart Encoding = omit
	.byte	155                             ; @TType Encoding = indirect pcrel sdata4
	.uleb128 Lttbase6-Lttbaseref6
Lttbaseref6:
	.byte	1                               ; Call site Encoding = uleb128
	.uleb128 Lcst_end11-Lcst_begin11
Lcst_begin11:
	.uleb128 Ltmp171-Lfunc_begin11          ; >> Call Site 1 <<
	.uleb128 Ltmp172-Ltmp171                ;   Call between Ltmp171 and Ltmp172
	.uleb128 Ltmp173-Lfunc_begin11          ;     jumps to Ltmp173
	.byte	1                               ;   On action: 1
Lcst_end11:
	.byte	1                               ; >> Action Record 1 <<
                                        ;   Catch TypeInfo 1
	.byte	0                               ;   No further actions
	.p2align	2, 0x0
                                        ; >> Catch TypeInfos <<
	.long	0                               ; TypeInfo 1
Lttbase6:
	.p2align	2, 0x0
                                        ; -- End function
	.section	__TEXT,__text,regular,pure_instructions
	.private_extern	__ZNSt3__18ios_base9precisionB8ne200100El ; -- Begin function _ZNSt3__18ios_base9precisionB8ne200100El
	.globl	__ZNSt3__18ios_base9precisionB8ne200100El
	.weak_definition	__ZNSt3__18ios_base9precisionB8ne200100El
	.p2align	2
__ZNSt3__18ios_base9precisionB8ne200100El: ; @_ZNSt3__18ios_base9precisionB8ne200100El
	.cfi_startproc
; %bb.0:
	sub	sp, sp, #32
	.cfi_def_cfa_offset 32
	str	x0, [sp, #24]
	str	x1, [sp, #16]
	ldr	x9, [sp, #24]
	ldr	x8, [x9, #16]
	str	x8, [sp, #8]
	ldr	x8, [sp, #16]
	str	x8, [x9, #16]
	ldr	x0, [sp, #8]
	add	sp, sp, #32
	ret
	.cfi_endproc
                                        ; -- End function
	.private_extern	__ZNSt3__124__put_character_sequenceB8ne200100IcNS_11char_traitsIcEEEERNS_13basic_ostreamIT_T0_EES7_PKS4_m ; -- Begin function _ZNSt3__124__put_character_sequenceB8ne200100IcNS_11char_traitsIcEEEERNS_13basic_ostreamIT_T0_EES7_PKS4_m
	.globl	__ZNSt3__124__put_character_sequenceB8ne200100IcNS_11char_traitsIcEEEERNS_13basic_ostreamIT_T0_EES7_PKS4_m
	.weak_definition	__ZNSt3__124__put_character_sequenceB8ne200100IcNS_11char_traitsIcEEEERNS_13basic_ostreamIT_T0_EES7_PKS4_m
	.p2align	2
__ZNSt3__124__put_character_sequenceB8ne200100IcNS_11char_traitsIcEEEERNS_13basic_ostreamIT_T0_EES7_PKS4_m: ; @_ZNSt3__124__put_character_sequenceB8ne200100IcNS_11char_traitsIcEEEERNS_13basic_ostreamIT_T0_EES7_PKS4_m
Lfunc_begin12:
	.cfi_startproc
	.cfi_personality 155, ___gxx_personality_v0
	.cfi_lsda 16, Lexception12
; %bb.0:
	sub	sp, sp, #160
	stp	x29, x30, [sp, #144]            ; 16-byte Folded Spill
	add	x29, sp, #144
	.cfi_def_cfa w29, 16
	.cfi_offset w30, -8
	.cfi_offset w29, -16
	stur	x0, [x29, #-8]
	stur	x1, [x29, #-16]
	stur	x2, [x29, #-24]
	ldur	x1, [x29, #-8]
Ltmp175:
	sub	x0, x29, #40
	bl	__ZNSt3__113basic_ostreamIcNS_11char_traitsIcEEE6sentryC1ERS3_
Ltmp176:
	b	LBB120_1
LBB120_1:
Ltmp178:
	sub	x0, x29, #40
	bl	__ZNKSt3__113basic_ostreamIcNS_11char_traitsIcEEE6sentrycvbB8ne200100Ev
	str	w0, [sp, #68]                   ; 4-byte Folded Spill
Ltmp179:
	b	LBB120_2
LBB120_2:
	ldr	w8, [sp, #68]                   ; 4-byte Folded Reload
	tbz	w8, #0, LBB120_18
	b	LBB120_3
LBB120_3:
	ldur	x1, [x29, #-8]
	add	x0, sp, #72
	bl	__ZNSt3__119ostreambuf_iteratorIcNS_11char_traitsIcEEEC1B8ne200100ERNS_13basic_ostreamIcS2_EE
	ldur	x8, [x29, #-16]
	str	x8, [sp, #56]                   ; 8-byte Folded Spill
	ldur	x8, [x29, #-8]
	ldr	x9, [x8]
	ldur	x9, [x9, #-24]
	add	x0, x8, x9
Ltmp180:
	bl	__ZNKSt3__18ios_base5flagsB8ne200100Ev
	str	w0, [sp, #64]                   ; 4-byte Folded Spill
Ltmp181:
	b	LBB120_4
LBB120_4:
	ldr	w8, [sp, #64]                   ; 4-byte Folded Reload
	mov	w9, #176                        ; =0xb0
	and	w8, w8, w9
	subs	w8, w8, #32
	b.ne	LBB120_6
	b	LBB120_5
LBB120_5:
	ldur	x8, [x29, #-16]
	ldur	x9, [x29, #-24]
	add	x8, x8, x9
	str	x8, [sp, #48]                   ; 8-byte Folded Spill
	b	LBB120_7
LBB120_6:
	ldur	x8, [x29, #-16]
	str	x8, [sp, #48]                   ; 8-byte Folded Spill
	b	LBB120_7
LBB120_7:
	ldr	x8, [sp, #48]                   ; 8-byte Folded Reload
	str	x8, [sp, #16]                   ; 8-byte Folded Spill
	ldur	x8, [x29, #-16]
	ldur	x9, [x29, #-24]
	add	x8, x8, x9
	str	x8, [sp, #24]                   ; 8-byte Folded Spill
	ldur	x8, [x29, #-8]
	ldr	x9, [x8]
	ldur	x9, [x9, #-24]
	add	x8, x8, x9
	str	x8, [sp, #32]                   ; 8-byte Folded Spill
	ldur	x8, [x29, #-8]
	ldr	x9, [x8]
	ldur	x9, [x9, #-24]
	add	x0, x8, x9
Ltmp182:
	bl	__ZNKSt3__19basic_iosIcNS_11char_traitsIcEEE4fillB8ne200100Ev
	str	w0, [sp, #44]                   ; 4-byte Folded Spill
Ltmp183:
	b	LBB120_8
LBB120_8:
	ldr	w5, [sp, #44]                   ; 4-byte Folded Reload
	ldr	x4, [sp, #32]                   ; 8-byte Folded Reload
	ldr	x3, [sp, #24]                   ; 8-byte Folded Reload
	ldr	x2, [sp, #16]                   ; 8-byte Folded Reload
	ldr	x1, [sp, #56]                   ; 8-byte Folded Reload
	ldr	x0, [sp, #72]
Ltmp184:
	bl	__ZNSt3__116__pad_and_outputB8ne200100IcNS_11char_traitsIcEEEENS_19ostreambuf_iteratorIT_T0_EES6_PKS4_S8_S8_RNS_8ios_baseES4_
	str	x0, [sp, #8]                    ; 8-byte Folded Spill
Ltmp185:
	b	LBB120_9
LBB120_9:
	ldr	x8, [sp, #8]                    ; 8-byte Folded Reload
	sub	x0, x29, #64
	stur	x8, [x29, #-64]
	bl	__ZNKSt3__119ostreambuf_iteratorIcNS_11char_traitsIcEEE6failedB8ne200100Ev
	tbz	w0, #0, LBB120_17
	b	LBB120_10
LBB120_10:
	ldur	x8, [x29, #-8]
	ldr	x9, [x8]
	ldur	x9, [x9, #-24]
	add	x0, x8, x9
Ltmp186:
	mov	w1, #5                          ; =0x5
	bl	__ZNSt3__19basic_iosIcNS_11char_traitsIcEEE8setstateB8ne200100Ej
Ltmp187:
	b	LBB120_11
LBB120_11:
	b	LBB120_17
LBB120_12:
Ltmp177:
	stur	x0, [x29, #-48]
	mov	x8, x1
	stur	w8, [x29, #-52]
	b	LBB120_14
LBB120_13:
Ltmp188:
	stur	x0, [x29, #-48]
	mov	x8, x1
	stur	w8, [x29, #-52]
	sub	x0, x29, #40
	bl	__ZNSt3__113basic_ostreamIcNS_11char_traitsIcEEE6sentryD1Ev
	b	LBB120_14
LBB120_14:
	ldur	x0, [x29, #-48]
	bl	___cxa_begin_catch
	ldur	x8, [x29, #-8]
	ldr	x9, [x8]
	ldur	x9, [x9, #-24]
	add	x0, x8, x9
Ltmp189:
	bl	__ZNSt3__18ios_base33__set_badbit_and_consider_rethrowEv
Ltmp190:
	b	LBB120_15
LBB120_15:
	bl	___cxa_end_catch
	b	LBB120_16
LBB120_16:
	ldur	x0, [x29, #-8]
	ldp	x29, x30, [sp, #144]            ; 16-byte Folded Reload
	add	sp, sp, #160
	ret
LBB120_17:
	b	LBB120_18
LBB120_18:
	sub	x0, x29, #40
	bl	__ZNSt3__113basic_ostreamIcNS_11char_traitsIcEEE6sentryD1Ev
	b	LBB120_16
LBB120_19:
Ltmp191:
	stur	x0, [x29, #-48]
	mov	x8, x1
	stur	w8, [x29, #-52]
Ltmp192:
	bl	___cxa_end_catch
Ltmp193:
	b	LBB120_20
LBB120_20:
	b	LBB120_21
LBB120_21:
	ldur	x0, [x29, #-48]
	bl	__Unwind_Resume
LBB120_22:
Ltmp194:
	bl	___clang_call_terminate
Lfunc_end12:
	.cfi_endproc
	.section	__TEXT,__gcc_except_tab
	.p2align	2, 0x0
GCC_except_table120:
Lexception12:
	.byte	255                             ; @LPStart Encoding = omit
	.byte	155                             ; @TType Encoding = indirect pcrel sdata4
	.uleb128 Lttbase7-Lttbaseref7
Lttbaseref7:
	.byte	1                               ; Call site Encoding = uleb128
	.uleb128 Lcst_end12-Lcst_begin12
Lcst_begin12:
	.uleb128 Ltmp175-Lfunc_begin12          ; >> Call Site 1 <<
	.uleb128 Ltmp176-Ltmp175                ;   Call between Ltmp175 and Ltmp176
	.uleb128 Ltmp177-Lfunc_begin12          ;     jumps to Ltmp177
	.byte	1                               ;   On action: 1
	.uleb128 Ltmp178-Lfunc_begin12          ; >> Call Site 2 <<
	.uleb128 Ltmp187-Ltmp178                ;   Call between Ltmp178 and Ltmp187
	.uleb128 Ltmp188-Lfunc_begin12          ;     jumps to Ltmp188
	.byte	1                               ;   On action: 1
	.uleb128 Ltmp187-Lfunc_begin12          ; >> Call Site 3 <<
	.uleb128 Ltmp189-Ltmp187                ;   Call between Ltmp187 and Ltmp189
	.byte	0                               ;     has no landing pad
	.byte	0                               ;   On action: cleanup
	.uleb128 Ltmp189-Lfunc_begin12          ; >> Call Site 4 <<
	.uleb128 Ltmp190-Ltmp189                ;   Call between Ltmp189 and Ltmp190
	.uleb128 Ltmp191-Lfunc_begin12          ;     jumps to Ltmp191
	.byte	0                               ;   On action: cleanup
	.uleb128 Ltmp190-Lfunc_begin12          ; >> Call Site 5 <<
	.uleb128 Ltmp192-Ltmp190                ;   Call between Ltmp190 and Ltmp192
	.byte	0                               ;     has no landing pad
	.byte	0                               ;   On action: cleanup
	.uleb128 Ltmp192-Lfunc_begin12          ; >> Call Site 6 <<
	.uleb128 Ltmp193-Ltmp192                ;   Call between Ltmp192 and Ltmp193
	.uleb128 Ltmp194-Lfunc_begin12          ;     jumps to Ltmp194
	.byte	1                               ;   On action: 1
	.uleb128 Ltmp193-Lfunc_begin12          ; >> Call Site 7 <<
	.uleb128 Lfunc_end12-Ltmp193            ;   Call between Ltmp193 and Lfunc_end12
	.byte	0                               ;     has no landing pad
	.byte	0                               ;   On action: cleanup
Lcst_end12:
	.byte	1                               ; >> Action Record 1 <<
                                        ;   Catch TypeInfo 1
	.byte	0                               ;   No further actions
	.p2align	2, 0x0
                                        ; >> Catch TypeInfos <<
	.long	0                               ; TypeInfo 1
Lttbase7:
	.p2align	2, 0x0
                                        ; -- End function
	.section	__TEXT,__text,regular,pure_instructions
	.private_extern	__ZNSt3__111char_traitsIcE6lengthB8ne200100EPKc ; -- Begin function _ZNSt3__111char_traitsIcE6lengthB8ne200100EPKc
	.globl	__ZNSt3__111char_traitsIcE6lengthB8ne200100EPKc
	.weak_definition	__ZNSt3__111char_traitsIcE6lengthB8ne200100EPKc
	.p2align	2
__ZNSt3__111char_traitsIcE6lengthB8ne200100EPKc: ; @_ZNSt3__111char_traitsIcE6lengthB8ne200100EPKc
	.cfi_startproc
; %bb.0:
	sub	sp, sp, #32
	stp	x29, x30, [sp, #16]             ; 16-byte Folded Spill
	add	x29, sp, #16
	.cfi_def_cfa w29, 16
	.cfi_offset w30, -8
	.cfi_offset w29, -16
	str	x0, [sp, #8]
	ldr	x0, [sp, #8]
	bl	__ZNSt3__118__constexpr_strlenB8ne200100IcEEmPKT_
	ldp	x29, x30, [sp, #16]             ; 16-byte Folded Reload
	add	sp, sp, #32
	ret
	.cfi_endproc
                                        ; -- End function
	.private_extern	__ZNKSt3__113basic_ostreamIcNS_11char_traitsIcEEE6sentrycvbB8ne200100Ev ; -- Begin function _ZNKSt3__113basic_ostreamIcNS_11char_traitsIcEEE6sentrycvbB8ne200100Ev
	.globl	__ZNKSt3__113basic_ostreamIcNS_11char_traitsIcEEE6sentrycvbB8ne200100Ev
	.weak_definition	__ZNKSt3__113basic_ostreamIcNS_11char_traitsIcEEE6sentrycvbB8ne200100Ev
	.p2align	2
__ZNKSt3__113basic_ostreamIcNS_11char_traitsIcEEE6sentrycvbB8ne200100Ev: ; @_ZNKSt3__113basic_ostreamIcNS_11char_traitsIcEEE6sentrycvbB8ne200100Ev
	.cfi_startproc
; %bb.0:
	sub	sp, sp, #16
	.cfi_def_cfa_offset 16
	str	x0, [sp, #8]
	ldr	x8, [sp, #8]
	ldrb	w8, [x8]
	and	w0, w8, #0x1
	add	sp, sp, #16
	ret
	.cfi_endproc
                                        ; -- End function
	.private_extern	__ZNSt3__116__pad_and_outputB8ne200100IcNS_11char_traitsIcEEEENS_19ostreambuf_iteratorIT_T0_EES6_PKS4_S8_S8_RNS_8ios_baseES4_ ; -- Begin function _ZNSt3__116__pad_and_outputB8ne200100IcNS_11char_traitsIcEEEENS_19ostreambuf_iteratorIT_T0_EES6_PKS4_S8_S8_RNS_8ios_baseES4_
	.globl	__ZNSt3__116__pad_and_outputB8ne200100IcNS_11char_traitsIcEEEENS_19ostreambuf_iteratorIT_T0_EES6_PKS4_S8_S8_RNS_8ios_baseES4_
	.weak_definition	__ZNSt3__116__pad_and_outputB8ne200100IcNS_11char_traitsIcEEEENS_19ostreambuf_iteratorIT_T0_EES6_PKS4_S8_S8_RNS_8ios_baseES4_
	.p2align	2
__ZNSt3__116__pad_and_outputB8ne200100IcNS_11char_traitsIcEEEENS_19ostreambuf_iteratorIT_T0_EES6_PKS4_S8_S8_RNS_8ios_baseES4_: ; @_ZNSt3__116__pad_and_outputB8ne200100IcNS_11char_traitsIcEEEENS_19ostreambuf_iteratorIT_T0_EES6_PKS4_S8_S8_RNS_8ios_baseES4_
Lfunc_begin13:
	.cfi_startproc
	.cfi_personality 155, ___gxx_personality_v0
	.cfi_lsda 16, Lexception13
; %bb.0:
	sub	sp, sp, #160
	stp	x29, x30, [sp, #144]            ; 16-byte Folded Spill
	add	x29, sp, #144
	.cfi_def_cfa w29, 16
	.cfi_offset w30, -8
	.cfi_offset w29, -16
	stur	x0, [x29, #-16]
	stur	x1, [x29, #-24]
	stur	x2, [x29, #-32]
	stur	x3, [x29, #-40]
	stur	x4, [x29, #-48]
	sturb	w5, [x29, #-49]
	ldur	x8, [x29, #-16]
	cbnz	x8, LBB123_2
	b	LBB123_1
LBB123_1:
	ldur	x8, [x29, #-16]
	stur	x8, [x29, #-8]
	b	LBB123_23
LBB123_2:
	ldur	x8, [x29, #-40]
	ldur	x9, [x29, #-24]
	subs	x8, x8, x9
	stur	x8, [x29, #-64]
	ldur	x0, [x29, #-48]
	bl	__ZNKSt3__18ios_base5widthB8ne200100Ev
	str	x0, [sp, #72]
	ldr	x8, [sp, #72]
	ldur	x9, [x29, #-64]
	subs	x8, x8, x9
	b.le	LBB123_4
	b	LBB123_3
LBB123_3:
	ldur	x9, [x29, #-64]
	ldr	x8, [sp, #72]
	subs	x8, x8, x9
	str	x8, [sp, #72]
	b	LBB123_5
LBB123_4:
	str	xzr, [sp, #72]
	b	LBB123_5
LBB123_5:
	ldur	x8, [x29, #-32]
	ldur	x9, [x29, #-24]
	subs	x8, x8, x9
	str	x8, [sp, #64]
	ldr	x8, [sp, #64]
	subs	x8, x8, #0
	b.le	LBB123_9
	b	LBB123_6
LBB123_6:
	ldur	x0, [x29, #-16]
	ldur	x1, [x29, #-24]
	ldr	x2, [sp, #64]
	bl	__ZNSt3__115basic_streambufIcNS_11char_traitsIcEEE5sputnB8ne200100EPKcl
	ldr	x8, [sp, #64]
	subs	x8, x0, x8
	b.eq	LBB123_8
	b	LBB123_7
LBB123_7:
                                        ; kill: def $x8 killed $xzr
	stur	xzr, [x29, #-16]
	ldur	x8, [x29, #-16]
	stur	x8, [x29, #-8]
	b	LBB123_23
LBB123_8:
	b	LBB123_9
LBB123_9:
	ldr	x8, [sp, #72]
	subs	x8, x8, #0
	b.le	LBB123_18
	b	LBB123_10
LBB123_10:
	ldr	x1, [sp, #72]
	ldursb	w2, [x29, #-49]
	add	x0, sp, #40
	str	x0, [sp]                        ; 8-byte Folded Spill
	bl	__ZNSt3__112basic_stringIcNS_11char_traitsIcEENS_9allocatorIcEEEC1B8ne200100Emc
	ldr	x0, [sp]                        ; 8-byte Folded Reload
	ldur	x8, [x29, #-16]
	str	x8, [sp, #8]                    ; 8-byte Folded Spill
	bl	__ZNKSt3__112basic_stringIcNS_11char_traitsIcEENS_9allocatorIcEEE4dataB8ne200100Ev
	mov	x1, x0
	ldr	x0, [sp, #8]                    ; 8-byte Folded Reload
	ldr	x2, [sp, #72]
Ltmp196:
	bl	__ZNSt3__115basic_streambufIcNS_11char_traitsIcEEE5sputnB8ne200100EPKcl
	str	x0, [sp, #16]                   ; 8-byte Folded Spill
Ltmp197:
	b	LBB123_11
LBB123_11:
	ldr	x8, [sp, #16]                   ; 8-byte Folded Reload
	ldr	x9, [sp, #72]
	subs	x8, x8, x9
	b.eq	LBB123_14
	b	LBB123_12
LBB123_12:
                                        ; kill: def $x8 killed $xzr
	stur	xzr, [x29, #-16]
	ldur	x8, [x29, #-16]
	stur	x8, [x29, #-8]
	mov	w8, #1                          ; =0x1
	str	w8, [sp, #24]
	b	LBB123_15
LBB123_13:
Ltmp198:
	str	x0, [sp, #32]
	mov	x8, x1
	str	w8, [sp, #28]
	add	x0, sp, #40
	bl	__ZNSt3__112basic_stringIcNS_11char_traitsIcEENS_9allocatorIcEEED1Ev
	b	LBB123_24
LBB123_14:
	str	wzr, [sp, #24]
	b	LBB123_15
LBB123_15:
	add	x0, sp, #40
	bl	__ZNSt3__112basic_stringIcNS_11char_traitsIcEENS_9allocatorIcEEED1Ev
	ldr	w8, [sp, #24]
	cbz	w8, LBB123_17
	b	LBB123_16
LBB123_16:
	b	LBB123_23
LBB123_17:
	b	LBB123_18
LBB123_18:
	ldur	x8, [x29, #-40]
	ldur	x9, [x29, #-32]
	subs	x8, x8, x9
	str	x8, [sp, #64]
	ldr	x8, [sp, #64]
	subs	x8, x8, #0
	b.le	LBB123_22
	b	LBB123_19
LBB123_19:
	ldur	x0, [x29, #-16]
	ldur	x1, [x29, #-32]
	ldr	x2, [sp, #64]
	bl	__ZNSt3__115basic_streambufIcNS_11char_traitsIcEEE5sputnB8ne200100EPKcl
	ldr	x8, [sp, #64]
	subs	x8, x0, x8
	b.eq	LBB123_21
	b	LBB123_20
LBB123_20:
                                        ; kill: def $x8 killed $xzr
	stur	xzr, [x29, #-16]
	ldur	x8, [x29, #-16]
	stur	x8, [x29, #-8]
	b	LBB123_23
LBB123_21:
	b	LBB123_22
LBB123_22:
	ldur	x0, [x29, #-48]
	mov	x1, #0                          ; =0x0
	bl	__ZNSt3__18ios_base5widthB8ne200100El
	ldur	x8, [x29, #-16]
	stur	x8, [x29, #-8]
	b	LBB123_23
LBB123_23:
	ldur	x0, [x29, #-8]
	ldp	x29, x30, [sp, #144]            ; 16-byte Folded Reload
	add	sp, sp, #160
	ret
LBB123_24:
	ldr	x0, [sp, #32]
	bl	__Unwind_Resume
; %bb.25:
Lfunc_end13:
	.cfi_endproc
	.section	__TEXT,__gcc_except_tab
	.p2align	2, 0x0
GCC_except_table123:
Lexception13:
	.byte	255                             ; @LPStart Encoding = omit
	.byte	255                             ; @TType Encoding = omit
	.byte	1                               ; Call site Encoding = uleb128
	.uleb128 Lcst_end13-Lcst_begin13
Lcst_begin13:
	.uleb128 Lfunc_begin13-Lfunc_begin13    ; >> Call Site 1 <<
	.uleb128 Ltmp196-Lfunc_begin13          ;   Call between Lfunc_begin13 and Ltmp196
	.byte	0                               ;     has no landing pad
	.byte	0                               ;   On action: cleanup
	.uleb128 Ltmp196-Lfunc_begin13          ; >> Call Site 2 <<
	.uleb128 Ltmp197-Ltmp196                ;   Call between Ltmp196 and Ltmp197
	.uleb128 Ltmp198-Lfunc_begin13          ;     jumps to Ltmp198
	.byte	0                               ;   On action: cleanup
	.uleb128 Ltmp197-Lfunc_begin13          ; >> Call Site 3 <<
	.uleb128 Lfunc_end13-Ltmp197            ;   Call between Ltmp197 and Lfunc_end13
	.byte	0                               ;     has no landing pad
	.byte	0                               ;   On action: cleanup
Lcst_end13:
	.p2align	2, 0x0
                                        ; -- End function
	.section	__TEXT,__text,regular,pure_instructions
	.private_extern	__ZNSt3__119ostreambuf_iteratorIcNS_11char_traitsIcEEEC1B8ne200100ERNS_13basic_ostreamIcS2_EE ; -- Begin function _ZNSt3__119ostreambuf_iteratorIcNS_11char_traitsIcEEEC1B8ne200100ERNS_13basic_ostreamIcS2_EE
	.globl	__ZNSt3__119ostreambuf_iteratorIcNS_11char_traitsIcEEEC1B8ne200100ERNS_13basic_ostreamIcS2_EE
	.weak_def_can_be_hidden	__ZNSt3__119ostreambuf_iteratorIcNS_11char_traitsIcEEEC1B8ne200100ERNS_13basic_ostreamIcS2_EE
	.p2align	2
__ZNSt3__119ostreambuf_iteratorIcNS_11char_traitsIcEEEC1B8ne200100ERNS_13basic_ostreamIcS2_EE: ; @_ZNSt3__119ostreambuf_iteratorIcNS_11char_traitsIcEEEC1B8ne200100ERNS_13basic_ostreamIcS2_EE
	.cfi_startproc
; %bb.0:
	sub	sp, sp, #48
	stp	x29, x30, [sp, #32]             ; 16-byte Folded Spill
	add	x29, sp, #32
	.cfi_def_cfa w29, 16
	.cfi_offset w30, -8
	.cfi_offset w29, -16
	stur	x0, [x29, #-8]
	str	x1, [sp, #16]
	ldur	x0, [x29, #-8]
	str	x0, [sp, #8]                    ; 8-byte Folded Spill
	ldr	x1, [sp, #16]
	bl	__ZNSt3__119ostreambuf_iteratorIcNS_11char_traitsIcEEEC2B8ne200100ERNS_13basic_ostreamIcS2_EE
	ldr	x0, [sp, #8]                    ; 8-byte Folded Reload
	ldp	x29, x30, [sp, #32]             ; 16-byte Folded Reload
	add	sp, sp, #48
	ret
	.cfi_endproc
                                        ; -- End function
	.private_extern	__ZNKSt3__18ios_base5flagsB8ne200100Ev ; -- Begin function _ZNKSt3__18ios_base5flagsB8ne200100Ev
	.globl	__ZNKSt3__18ios_base5flagsB8ne200100Ev
	.weak_definition	__ZNKSt3__18ios_base5flagsB8ne200100Ev
	.p2align	2
__ZNKSt3__18ios_base5flagsB8ne200100Ev: ; @_ZNKSt3__18ios_base5flagsB8ne200100Ev
	.cfi_startproc
; %bb.0:
	sub	sp, sp, #16
	.cfi_def_cfa_offset 16
	str	x0, [sp, #8]
	ldr	x8, [sp, #8]
	ldr	w0, [x8, #8]
	add	sp, sp, #16
	ret
	.cfi_endproc
                                        ; -- End function
	.private_extern	__ZNKSt3__19basic_iosIcNS_11char_traitsIcEEE4fillB8ne200100Ev ; -- Begin function _ZNKSt3__19basic_iosIcNS_11char_traitsIcEEE4fillB8ne200100Ev
	.globl	__ZNKSt3__19basic_iosIcNS_11char_traitsIcEEE4fillB8ne200100Ev
	.weak_definition	__ZNKSt3__19basic_iosIcNS_11char_traitsIcEEE4fillB8ne200100Ev
	.p2align	2
__ZNKSt3__19basic_iosIcNS_11char_traitsIcEEE4fillB8ne200100Ev: ; @_ZNKSt3__19basic_iosIcNS_11char_traitsIcEEE4fillB8ne200100Ev
	.cfi_startproc
; %bb.0:
	sub	sp, sp, #32
	stp	x29, x30, [sp, #16]             ; 16-byte Folded Spill
	add	x29, sp, #16
	.cfi_def_cfa w29, 16
	.cfi_offset w30, -8
	.cfi_offset w29, -16
	str	x0, [sp, #8]
	ldr	x8, [sp, #8]
	str	x8, [sp]                        ; 8-byte Folded Spill
	add	x0, x8, #144
	bl	__ZNKSt3__118_SentinelValueFillINS_11char_traitsIcEEE8__is_setB8ne200100Ev
	tbnz	w0, #0, LBB126_2
	b	LBB126_1
LBB126_1:
	ldr	x0, [sp]                        ; 8-byte Folded Reload
	mov	w1, #32                         ; =0x20
	bl	__ZNKSt3__19basic_iosIcNS_11char_traitsIcEEE5widenB8ne200100Ec
	ldr	x8, [sp]                        ; 8-byte Folded Reload
	mov	x1, x0
	add	x0, x8, #144
	bl	__ZNSt3__118_SentinelValueFillINS_11char_traitsIcEEEaSB8ne200100Ei
	b	LBB126_2
LBB126_2:
	ldr	x8, [sp]                        ; 8-byte Folded Reload
	add	x0, x8, #144
	bl	__ZNKSt3__118_SentinelValueFillINS_11char_traitsIcEEE5__getB8ne200100Ev
	sxtb	w0, w0
	ldp	x29, x30, [sp, #16]             ; 16-byte Folded Reload
	add	sp, sp, #32
	ret
	.cfi_endproc
                                        ; -- End function
	.private_extern	__ZNKSt3__119ostreambuf_iteratorIcNS_11char_traitsIcEEE6failedB8ne200100Ev ; -- Begin function _ZNKSt3__119ostreambuf_iteratorIcNS_11char_traitsIcEEE6failedB8ne200100Ev
	.globl	__ZNKSt3__119ostreambuf_iteratorIcNS_11char_traitsIcEEE6failedB8ne200100Ev
	.weak_definition	__ZNKSt3__119ostreambuf_iteratorIcNS_11char_traitsIcEEE6failedB8ne200100Ev
	.p2align	2
__ZNKSt3__119ostreambuf_iteratorIcNS_11char_traitsIcEEE6failedB8ne200100Ev: ; @_ZNKSt3__119ostreambuf_iteratorIcNS_11char_traitsIcEEE6failedB8ne200100Ev
	.cfi_startproc
; %bb.0:
	sub	sp, sp, #16
	.cfi_def_cfa_offset 16
	str	x0, [sp, #8]
	ldr	x8, [sp, #8]
	ldr	x8, [x8]
	subs	x8, x8, #0
	cset	w0, eq
	add	sp, sp, #16
	ret
	.cfi_endproc
                                        ; -- End function
	.private_extern	__ZNSt3__19basic_iosIcNS_11char_traitsIcEEE8setstateB8ne200100Ej ; -- Begin function _ZNSt3__19basic_iosIcNS_11char_traitsIcEEE8setstateB8ne200100Ej
	.globl	__ZNSt3__19basic_iosIcNS_11char_traitsIcEEE8setstateB8ne200100Ej
	.weak_definition	__ZNSt3__19basic_iosIcNS_11char_traitsIcEEE8setstateB8ne200100Ej
	.p2align	2
__ZNSt3__19basic_iosIcNS_11char_traitsIcEEE8setstateB8ne200100Ej: ; @_ZNSt3__19basic_iosIcNS_11char_traitsIcEEE8setstateB8ne200100Ej
	.cfi_startproc
; %bb.0:
	sub	sp, sp, #32
	stp	x29, x30, [sp, #16]             ; 16-byte Folded Spill
	add	x29, sp, #16
	.cfi_def_cfa w29, 16
	.cfi_offset w30, -8
	.cfi_offset w29, -16
	str	x0, [sp, #8]
	str	w1, [sp, #4]
	ldr	x0, [sp, #8]
	ldr	w1, [sp, #4]
	bl	__ZNSt3__18ios_base8setstateB8ne200100Ej
	ldp	x29, x30, [sp, #16]             ; 16-byte Folded Reload
	add	sp, sp, #32
	ret
	.cfi_endproc
                                        ; -- End function
	.private_extern	__ZNKSt3__18ios_base5widthB8ne200100Ev ; -- Begin function _ZNKSt3__18ios_base5widthB8ne200100Ev
	.globl	__ZNKSt3__18ios_base5widthB8ne200100Ev
	.weak_definition	__ZNKSt3__18ios_base5widthB8ne200100Ev
	.p2align	2
__ZNKSt3__18ios_base5widthB8ne200100Ev: ; @_ZNKSt3__18ios_base5widthB8ne200100Ev
	.cfi_startproc
; %bb.0:
	sub	sp, sp, #16
	.cfi_def_cfa_offset 16
	str	x0, [sp, #8]
	ldr	x8, [sp, #8]
	ldr	x0, [x8, #24]
	add	sp, sp, #16
	ret
	.cfi_endproc
                                        ; -- End function
	.private_extern	__ZNSt3__115basic_streambufIcNS_11char_traitsIcEEE5sputnB8ne200100EPKcl ; -- Begin function _ZNSt3__115basic_streambufIcNS_11char_traitsIcEEE5sputnB8ne200100EPKcl
	.globl	__ZNSt3__115basic_streambufIcNS_11char_traitsIcEEE5sputnB8ne200100EPKcl
	.weak_definition	__ZNSt3__115basic_streambufIcNS_11char_traitsIcEEE5sputnB8ne200100EPKcl
	.p2align	2
__ZNSt3__115basic_streambufIcNS_11char_traitsIcEEE5sputnB8ne200100EPKcl: ; @_ZNSt3__115basic_streambufIcNS_11char_traitsIcEEE5sputnB8ne200100EPKcl
	.cfi_startproc
; %bb.0:
	sub	sp, sp, #48
	stp	x29, x30, [sp, #32]             ; 16-byte Folded Spill
	add	x29, sp, #32
	.cfi_def_cfa w29, 16
	.cfi_offset w30, -8
	.cfi_offset w29, -16
	stur	x0, [x29, #-8]
	str	x1, [sp, #16]
	str	x2, [sp, #8]
	ldur	x0, [x29, #-8]
	ldr	x1, [sp, #16]
	ldr	x2, [sp, #8]
	ldr	x8, [x0]
	ldr	x8, [x8, #96]
	blr	x8
	ldp	x29, x30, [sp, #32]             ; 16-byte Folded Reload
	add	sp, sp, #48
	ret
	.cfi_endproc
                                        ; -- End function
	.private_extern	__ZNSt3__112basic_stringIcNS_11char_traitsIcEENS_9allocatorIcEEEC1B8ne200100Emc ; -- Begin function _ZNSt3__112basic_stringIcNS_11char_traitsIcEENS_9allocatorIcEEEC1B8ne200100Emc
	.globl	__ZNSt3__112basic_stringIcNS_11char_traitsIcEENS_9allocatorIcEEEC1B8ne200100Emc
	.weak_def_can_be_hidden	__ZNSt3__112basic_stringIcNS_11char_traitsIcEENS_9allocatorIcEEEC1B8ne200100Emc
	.p2align	2
__ZNSt3__112basic_stringIcNS_11char_traitsIcEENS_9allocatorIcEEEC1B8ne200100Emc: ; @_ZNSt3__112basic_stringIcNS_11char_traitsIcEENS_9allocatorIcEEEC1B8ne200100Emc
	.cfi_startproc
; %bb.0:
	sub	sp, sp, #48
	stp	x29, x30, [sp, #32]             ; 16-byte Folded Spill
	add	x29, sp, #32
	.cfi_def_cfa w29, 16
	.cfi_offset w30, -8
	.cfi_offset w29, -16
	stur	x0, [x29, #-8]
	str	x1, [sp, #16]
	strb	w2, [sp, #15]
	ldur	x0, [x29, #-8]
	str	x0, [sp]                        ; 8-byte Folded Spill
	ldr	x1, [sp, #16]
	ldrsb	w2, [sp, #15]
	bl	__ZNSt3__112basic_stringIcNS_11char_traitsIcEENS_9allocatorIcEEEC2B8ne200100Emc
	ldr	x0, [sp]                        ; 8-byte Folded Reload
	ldp	x29, x30, [sp, #32]             ; 16-byte Folded Reload
	add	sp, sp, #48
	ret
	.cfi_endproc
                                        ; -- End function
	.private_extern	__ZNKSt3__112basic_stringIcNS_11char_traitsIcEENS_9allocatorIcEEE4dataB8ne200100Ev ; -- Begin function _ZNKSt3__112basic_stringIcNS_11char_traitsIcEENS_9allocatorIcEEE4dataB8ne200100Ev
	.globl	__ZNKSt3__112basic_stringIcNS_11char_traitsIcEENS_9allocatorIcEEE4dataB8ne200100Ev
	.weak_definition	__ZNKSt3__112basic_stringIcNS_11char_traitsIcEENS_9allocatorIcEEE4dataB8ne200100Ev
	.p2align	2
__ZNKSt3__112basic_stringIcNS_11char_traitsIcEENS_9allocatorIcEEE4dataB8ne200100Ev: ; @_ZNKSt3__112basic_stringIcNS_11char_traitsIcEENS_9allocatorIcEEE4dataB8ne200100Ev
	.cfi_startproc
; %bb.0:
	sub	sp, sp, #32
	stp	x29, x30, [sp, #16]             ; 16-byte Folded Spill
	add	x29, sp, #16
	.cfi_def_cfa w29, 16
	.cfi_offset w30, -8
	.cfi_offset w29, -16
	str	x0, [sp, #8]
	ldr	x0, [sp, #8]
	bl	__ZNKSt3__112basic_stringIcNS_11char_traitsIcEENS_9allocatorIcEEE13__get_pointerB8ne200100Ev
	bl	__ZNSt3__112__to_addressB8ne200100IKcEEPT_S3_
	ldp	x29, x30, [sp, #16]             ; 16-byte Folded Reload
	add	sp, sp, #32
	ret
	.cfi_endproc
                                        ; -- End function
	.private_extern	__ZNSt3__18ios_base5widthB8ne200100El ; -- Begin function _ZNSt3__18ios_base5widthB8ne200100El
	.globl	__ZNSt3__18ios_base5widthB8ne200100El
	.weak_definition	__ZNSt3__18ios_base5widthB8ne200100El
	.p2align	2
__ZNSt3__18ios_base5widthB8ne200100El:  ; @_ZNSt3__18ios_base5widthB8ne200100El
	.cfi_startproc
; %bb.0:
	sub	sp, sp, #32
	.cfi_def_cfa_offset 32
	str	x0, [sp, #24]
	str	x1, [sp, #16]
	ldr	x9, [sp, #24]
	ldr	x8, [x9, #24]
	str	x8, [sp, #8]
	ldr	x8, [sp, #16]
	str	x8, [x9, #24]
	ldr	x0, [sp, #8]
	add	sp, sp, #32
	ret
	.cfi_endproc
                                        ; -- End function
	.private_extern	__ZNSt3__112basic_stringIcNS_11char_traitsIcEENS_9allocatorIcEEEC2B8ne200100Emc ; -- Begin function _ZNSt3__112basic_stringIcNS_11char_traitsIcEENS_9allocatorIcEEEC2B8ne200100Emc
	.globl	__ZNSt3__112basic_stringIcNS_11char_traitsIcEENS_9allocatorIcEEEC2B8ne200100Emc
	.weak_def_can_be_hidden	__ZNSt3__112basic_stringIcNS_11char_traitsIcEENS_9allocatorIcEEEC2B8ne200100Emc
	.p2align	2
__ZNSt3__112basic_stringIcNS_11char_traitsIcEENS_9allocatorIcEEEC2B8ne200100Emc: ; @_ZNSt3__112basic_stringIcNS_11char_traitsIcEENS_9allocatorIcEEEC2B8ne200100Emc
	.cfi_startproc
; %bb.0:
	sub	sp, sp, #48
	stp	x29, x30, [sp, #32]             ; 16-byte Folded Spill
	add	x29, sp, #32
	.cfi_def_cfa w29, 16
	.cfi_offset w30, -8
	.cfi_offset w29, -16
	stur	x0, [x29, #-8]
	str	x1, [sp, #16]
	strb	w2, [sp, #15]
	ldur	x0, [x29, #-8]
	str	x0, [sp]                        ; 8-byte Folded Spill
	bl	__ZNSt3__19allocatorIcEC1B8ne200100Ev
	ldr	x0, [sp]                        ; 8-byte Folded Reload
	ldr	x1, [sp, #16]
	ldrsb	w2, [sp, #15]
	bl	__ZNSt3__112basic_stringIcNS_11char_traitsIcEENS_9allocatorIcEEE6__initEmc
	ldr	x0, [sp]                        ; 8-byte Folded Reload
	ldp	x29, x30, [sp, #32]             ; 16-byte Folded Reload
	add	sp, sp, #48
	ret
	.cfi_endproc
                                        ; -- End function
	.private_extern	__ZNSt3__19allocatorIcEC1B8ne200100Ev ; -- Begin function _ZNSt3__19allocatorIcEC1B8ne200100Ev
	.globl	__ZNSt3__19allocatorIcEC1B8ne200100Ev
	.weak_def_can_be_hidden	__ZNSt3__19allocatorIcEC1B8ne200100Ev
	.p2align	2
__ZNSt3__19allocatorIcEC1B8ne200100Ev:  ; @_ZNSt3__19allocatorIcEC1B8ne200100Ev
	.cfi_startproc
; %bb.0:
	sub	sp, sp, #32
	stp	x29, x30, [sp, #16]             ; 16-byte Folded Spill
	add	x29, sp, #16
	.cfi_def_cfa w29, 16
	.cfi_offset w30, -8
	.cfi_offset w29, -16
	str	x0, [sp, #8]
	ldr	x0, [sp, #8]
	str	x0, [sp]                        ; 8-byte Folded Spill
	bl	__ZNSt3__19allocatorIcEC2B8ne200100Ev
	ldr	x0, [sp]                        ; 8-byte Folded Reload
	ldp	x29, x30, [sp, #16]             ; 16-byte Folded Reload
	add	sp, sp, #32
	ret
	.cfi_endproc
                                        ; -- End function
	.private_extern	__ZNSt3__19allocatorIcEC2B8ne200100Ev ; -- Begin function _ZNSt3__19allocatorIcEC2B8ne200100Ev
	.globl	__ZNSt3__19allocatorIcEC2B8ne200100Ev
	.weak_def_can_be_hidden	__ZNSt3__19allocatorIcEC2B8ne200100Ev
	.p2align	2
__ZNSt3__19allocatorIcEC2B8ne200100Ev:  ; @_ZNSt3__19allocatorIcEC2B8ne200100Ev
	.cfi_startproc
; %bb.0:
	sub	sp, sp, #32
	stp	x29, x30, [sp, #16]             ; 16-byte Folded Spill
	add	x29, sp, #16
	.cfi_def_cfa w29, 16
	.cfi_offset w30, -8
	.cfi_offset w29, -16
	str	x0, [sp, #8]
	ldr	x0, [sp, #8]
	str	x0, [sp]                        ; 8-byte Folded Spill
	bl	__ZNSt3__116__non_trivial_ifILb1ENS_9allocatorIcEEEC2B8ne200100Ev
	ldr	x0, [sp]                        ; 8-byte Folded Reload
	ldp	x29, x30, [sp, #16]             ; 16-byte Folded Reload
	add	sp, sp, #32
	ret
	.cfi_endproc
                                        ; -- End function
	.private_extern	__ZNSt3__116__non_trivial_ifILb1ENS_9allocatorIcEEEC2B8ne200100Ev ; -- Begin function _ZNSt3__116__non_trivial_ifILb1ENS_9allocatorIcEEEC2B8ne200100Ev
	.globl	__ZNSt3__116__non_trivial_ifILb1ENS_9allocatorIcEEEC2B8ne200100Ev
	.weak_def_can_be_hidden	__ZNSt3__116__non_trivial_ifILb1ENS_9allocatorIcEEEC2B8ne200100Ev
	.p2align	2
__ZNSt3__116__non_trivial_ifILb1ENS_9allocatorIcEEEC2B8ne200100Ev: ; @_ZNSt3__116__non_trivial_ifILb1ENS_9allocatorIcEEEC2B8ne200100Ev
	.cfi_startproc
; %bb.0:
	sub	sp, sp, #16
	.cfi_def_cfa_offset 16
	str	x0, [sp, #8]
	ldr	x0, [sp, #8]
	add	sp, sp, #16
	ret
	.cfi_endproc
                                        ; -- End function
	.private_extern	__ZNSt3__112__to_addressB8ne200100IKcEEPT_S3_ ; -- Begin function _ZNSt3__112__to_addressB8ne200100IKcEEPT_S3_
	.globl	__ZNSt3__112__to_addressB8ne200100IKcEEPT_S3_
	.weak_definition	__ZNSt3__112__to_addressB8ne200100IKcEEPT_S3_
	.p2align	2
__ZNSt3__112__to_addressB8ne200100IKcEEPT_S3_: ; @_ZNSt3__112__to_addressB8ne200100IKcEEPT_S3_
	.cfi_startproc
; %bb.0:
	sub	sp, sp, #16
	.cfi_def_cfa_offset 16
	str	x0, [sp, #8]
	ldr	x0, [sp, #8]
	add	sp, sp, #16
	ret
	.cfi_endproc
                                        ; -- End function
	.private_extern	__ZNKSt3__112basic_stringIcNS_11char_traitsIcEENS_9allocatorIcEEE13__get_pointerB8ne200100Ev ; -- Begin function _ZNKSt3__112basic_stringIcNS_11char_traitsIcEENS_9allocatorIcEEE13__get_pointerB8ne200100Ev
	.globl	__ZNKSt3__112basic_stringIcNS_11char_traitsIcEENS_9allocatorIcEEE13__get_pointerB8ne200100Ev
	.weak_definition	__ZNKSt3__112basic_stringIcNS_11char_traitsIcEENS_9allocatorIcEEE13__get_pointerB8ne200100Ev
	.p2align	2
__ZNKSt3__112basic_stringIcNS_11char_traitsIcEENS_9allocatorIcEEE13__get_pointerB8ne200100Ev: ; @_ZNKSt3__112basic_stringIcNS_11char_traitsIcEENS_9allocatorIcEEE13__get_pointerB8ne200100Ev
	.cfi_startproc
; %bb.0:
	sub	sp, sp, #48
	stp	x29, x30, [sp, #32]             ; 16-byte Folded Spill
	add	x29, sp, #32
	.cfi_def_cfa w29, 16
	.cfi_offset w30, -8
	.cfi_offset w29, -16
	stur	x0, [x29, #-8]
	ldur	x0, [x29, #-8]
	str	x0, [sp, #16]                   ; 8-byte Folded Spill
	bl	__ZNKSt3__112basic_stringIcNS_11char_traitsIcEENS_9allocatorIcEEE9__is_longB8ne200100Ev
	tbz	w0, #0, LBB139_2
	b	LBB139_1
LBB139_1:
	ldr	x0, [sp, #16]                   ; 8-byte Folded Reload
	bl	__ZNKSt3__112basic_stringIcNS_11char_traitsIcEENS_9allocatorIcEEE18__get_long_pointerB8ne200100Ev
	str	x0, [sp, #8]                    ; 8-byte Folded Spill
	b	LBB139_3
LBB139_2:
	ldr	x0, [sp, #16]                   ; 8-byte Folded Reload
	bl	__ZNKSt3__112basic_stringIcNS_11char_traitsIcEENS_9allocatorIcEEE19__get_short_pointerB8ne200100Ev
	str	x0, [sp, #8]                    ; 8-byte Folded Spill
	b	LBB139_3
LBB139_3:
	ldr	x0, [sp, #8]                    ; 8-byte Folded Reload
	ldp	x29, x30, [sp, #32]             ; 16-byte Folded Reload
	add	sp, sp, #48
	ret
	.cfi_endproc
                                        ; -- End function
	.private_extern	__ZNKSt3__112basic_stringIcNS_11char_traitsIcEENS_9allocatorIcEEE9__is_longB8ne200100Ev ; -- Begin function _ZNKSt3__112basic_stringIcNS_11char_traitsIcEENS_9allocatorIcEEE9__is_longB8ne200100Ev
	.globl	__ZNKSt3__112basic_stringIcNS_11char_traitsIcEENS_9allocatorIcEEE9__is_longB8ne200100Ev
	.weak_definition	__ZNKSt3__112basic_stringIcNS_11char_traitsIcEENS_9allocatorIcEEE9__is_longB8ne200100Ev
	.p2align	2
__ZNKSt3__112basic_stringIcNS_11char_traitsIcEENS_9allocatorIcEEE9__is_longB8ne200100Ev: ; @_ZNKSt3__112basic_stringIcNS_11char_traitsIcEENS_9allocatorIcEEE9__is_longB8ne200100Ev
	.cfi_startproc
; %bb.0:
	sub	sp, sp, #16
	.cfi_def_cfa_offset 16
	str	x0, [sp, #8]
	ldr	x8, [sp, #8]
	ldrb	w8, [x8, #23]
	lsr	w8, w8, #7
	subs	w8, w8, #0
	cset	w0, ne
	add	sp, sp, #16
	ret
	.cfi_endproc
                                        ; -- End function
	.private_extern	__ZNKSt3__112basic_stringIcNS_11char_traitsIcEENS_9allocatorIcEEE18__get_long_pointerB8ne200100Ev ; -- Begin function _ZNKSt3__112basic_stringIcNS_11char_traitsIcEENS_9allocatorIcEEE18__get_long_pointerB8ne200100Ev
	.globl	__ZNKSt3__112basic_stringIcNS_11char_traitsIcEENS_9allocatorIcEEE18__get_long_pointerB8ne200100Ev
	.weak_definition	__ZNKSt3__112basic_stringIcNS_11char_traitsIcEENS_9allocatorIcEEE18__get_long_pointerB8ne200100Ev
	.p2align	2
__ZNKSt3__112basic_stringIcNS_11char_traitsIcEENS_9allocatorIcEEE18__get_long_pointerB8ne200100Ev: ; @_ZNKSt3__112basic_stringIcNS_11char_traitsIcEENS_9allocatorIcEEE18__get_long_pointerB8ne200100Ev
	.cfi_startproc
; %bb.0:
	sub	sp, sp, #16
	.cfi_def_cfa_offset 16
	str	x0, [sp, #8]
	ldr	x8, [sp, #8]
	ldr	x0, [x8]
	add	sp, sp, #16
	ret
	.cfi_endproc
                                        ; -- End function
	.private_extern	__ZNKSt3__112basic_stringIcNS_11char_traitsIcEENS_9allocatorIcEEE19__get_short_pointerB8ne200100Ev ; -- Begin function _ZNKSt3__112basic_stringIcNS_11char_traitsIcEENS_9allocatorIcEEE19__get_short_pointerB8ne200100Ev
	.globl	__ZNKSt3__112basic_stringIcNS_11char_traitsIcEENS_9allocatorIcEEE19__get_short_pointerB8ne200100Ev
	.weak_definition	__ZNKSt3__112basic_stringIcNS_11char_traitsIcEENS_9allocatorIcEEE19__get_short_pointerB8ne200100Ev
	.p2align	2
__ZNKSt3__112basic_stringIcNS_11char_traitsIcEENS_9allocatorIcEEE19__get_short_pointerB8ne200100Ev: ; @_ZNKSt3__112basic_stringIcNS_11char_traitsIcEENS_9allocatorIcEEE19__get_short_pointerB8ne200100Ev
	.cfi_startproc
; %bb.0:
	sub	sp, sp, #32
	stp	x29, x30, [sp, #16]             ; 16-byte Folded Spill
	add	x29, sp, #16
	.cfi_def_cfa w29, 16
	.cfi_offset w30, -8
	.cfi_offset w29, -16
	str	x0, [sp, #8]
	ldr	x0, [sp, #8]
	bl	__ZNSt3__114pointer_traitsIPKcE10pointer_toB8ne200100ERS1_
	ldp	x29, x30, [sp, #16]             ; 16-byte Folded Reload
	add	sp, sp, #32
	ret
	.cfi_endproc
                                        ; -- End function
	.private_extern	__ZNSt3__114pointer_traitsIPKcE10pointer_toB8ne200100ERS1_ ; -- Begin function _ZNSt3__114pointer_traitsIPKcE10pointer_toB8ne200100ERS1_
	.globl	__ZNSt3__114pointer_traitsIPKcE10pointer_toB8ne200100ERS1_
	.weak_definition	__ZNSt3__114pointer_traitsIPKcE10pointer_toB8ne200100ERS1_
	.p2align	2
__ZNSt3__114pointer_traitsIPKcE10pointer_toB8ne200100ERS1_: ; @_ZNSt3__114pointer_traitsIPKcE10pointer_toB8ne200100ERS1_
	.cfi_startproc
; %bb.0:
	sub	sp, sp, #16
	.cfi_def_cfa_offset 16
	str	x0, [sp, #8]
	ldr	x0, [sp, #8]
	add	sp, sp, #16
	ret
	.cfi_endproc
                                        ; -- End function
	.private_extern	__ZNSt3__119ostreambuf_iteratorIcNS_11char_traitsIcEEEC2B8ne200100ERNS_13basic_ostreamIcS2_EE ; -- Begin function _ZNSt3__119ostreambuf_iteratorIcNS_11char_traitsIcEEEC2B8ne200100ERNS_13basic_ostreamIcS2_EE
	.globl	__ZNSt3__119ostreambuf_iteratorIcNS_11char_traitsIcEEEC2B8ne200100ERNS_13basic_ostreamIcS2_EE
	.weak_def_can_be_hidden	__ZNSt3__119ostreambuf_iteratorIcNS_11char_traitsIcEEEC2B8ne200100ERNS_13basic_ostreamIcS2_EE
	.p2align	2
__ZNSt3__119ostreambuf_iteratorIcNS_11char_traitsIcEEEC2B8ne200100ERNS_13basic_ostreamIcS2_EE: ; @_ZNSt3__119ostreambuf_iteratorIcNS_11char_traitsIcEEEC2B8ne200100ERNS_13basic_ostreamIcS2_EE
Lfunc_begin14:
	.cfi_startproc
	.cfi_personality 155, ___gxx_personality_v0
	.cfi_lsda 16, Lexception14
; %bb.0:
	sub	sp, sp, #48
	stp	x29, x30, [sp, #32]             ; 16-byte Folded Spill
	add	x29, sp, #32
	.cfi_def_cfa w29, 16
	.cfi_offset w30, -8
	.cfi_offset w29, -16
	stur	x0, [x29, #-8]
	str	x1, [sp, #16]
	ldur	x8, [x29, #-8]
	str	x8, [sp]                        ; 8-byte Folded Spill
	ldr	x8, [sp, #16]
	ldr	x9, [x8]
	ldur	x9, [x9, #-24]
Ltmp208:
	add	x0, x8, x9
	bl	__ZNKSt3__19basic_iosIcNS_11char_traitsIcEEE5rdbufB8ne200100Ev
	str	x0, [sp, #8]                    ; 8-byte Folded Spill
Ltmp209:
	b	LBB144_1
LBB144_1:
	ldr	x0, [sp]                        ; 8-byte Folded Reload
	ldr	x8, [sp, #8]                    ; 8-byte Folded Reload
	str	x8, [x0]
	ldp	x29, x30, [sp, #32]             ; 16-byte Folded Reload
	add	sp, sp, #48
	ret
LBB144_2:
Ltmp210:
	bl	___clang_call_terminate
Lfunc_end14:
	.cfi_endproc
	.section	__TEXT,__gcc_except_tab
	.p2align	2, 0x0
GCC_except_table144:
Lexception14:
	.byte	255                             ; @LPStart Encoding = omit
	.byte	155                             ; @TType Encoding = indirect pcrel sdata4
	.uleb128 Lttbase8-Lttbaseref8
Lttbaseref8:
	.byte	1                               ; Call site Encoding = uleb128
	.uleb128 Lcst_end14-Lcst_begin14
Lcst_begin14:
	.uleb128 Ltmp208-Lfunc_begin14          ; >> Call Site 1 <<
	.uleb128 Ltmp209-Ltmp208                ;   Call between Ltmp208 and Ltmp209
	.uleb128 Ltmp210-Lfunc_begin14          ;     jumps to Ltmp210
	.byte	1                               ;   On action: 1
Lcst_end14:
	.byte	1                               ; >> Action Record 1 <<
                                        ;   Catch TypeInfo 1
	.byte	0                               ;   No further actions
	.p2align	2, 0x0
                                        ; >> Catch TypeInfos <<
	.long	0                               ; TypeInfo 1
Lttbase8:
	.p2align	2, 0x0
                                        ; -- End function
	.section	__TEXT,__text,regular,pure_instructions
	.private_extern	__ZNKSt3__19basic_iosIcNS_11char_traitsIcEEE5rdbufB8ne200100Ev ; -- Begin function _ZNKSt3__19basic_iosIcNS_11char_traitsIcEEE5rdbufB8ne200100Ev
	.globl	__ZNKSt3__19basic_iosIcNS_11char_traitsIcEEE5rdbufB8ne200100Ev
	.weak_definition	__ZNKSt3__19basic_iosIcNS_11char_traitsIcEEE5rdbufB8ne200100Ev
	.p2align	2
__ZNKSt3__19basic_iosIcNS_11char_traitsIcEEE5rdbufB8ne200100Ev: ; @_ZNKSt3__19basic_iosIcNS_11char_traitsIcEEE5rdbufB8ne200100Ev
	.cfi_startproc
; %bb.0:
	sub	sp, sp, #32
	stp	x29, x30, [sp, #16]             ; 16-byte Folded Spill
	add	x29, sp, #16
	.cfi_def_cfa w29, 16
	.cfi_offset w30, -8
	.cfi_offset w29, -16
	str	x0, [sp, #8]
	ldr	x0, [sp, #8]
	bl	__ZNKSt3__18ios_base5rdbufB8ne200100Ev
	ldp	x29, x30, [sp, #16]             ; 16-byte Folded Reload
	add	sp, sp, #32
	ret
	.cfi_endproc
                                        ; -- End function
	.private_extern	__ZNKSt3__18ios_base5rdbufB8ne200100Ev ; -- Begin function _ZNKSt3__18ios_base5rdbufB8ne200100Ev
	.globl	__ZNKSt3__18ios_base5rdbufB8ne200100Ev
	.weak_definition	__ZNKSt3__18ios_base5rdbufB8ne200100Ev
	.p2align	2
__ZNKSt3__18ios_base5rdbufB8ne200100Ev: ; @_ZNKSt3__18ios_base5rdbufB8ne200100Ev
	.cfi_startproc
; %bb.0:
	sub	sp, sp, #16
	.cfi_def_cfa_offset 16
	str	x0, [sp, #8]
	ldr	x8, [sp, #8]
	ldr	x0, [x8, #40]
	add	sp, sp, #16
	ret
	.cfi_endproc
                                        ; -- End function
	.private_extern	__ZNKSt3__118_SentinelValueFillINS_11char_traitsIcEEE8__is_setB8ne200100Ev ; -- Begin function _ZNKSt3__118_SentinelValueFillINS_11char_traitsIcEEE8__is_setB8ne200100Ev
	.globl	__ZNKSt3__118_SentinelValueFillINS_11char_traitsIcEEE8__is_setB8ne200100Ev
	.weak_definition	__ZNKSt3__118_SentinelValueFillINS_11char_traitsIcEEE8__is_setB8ne200100Ev
	.p2align	2
__ZNKSt3__118_SentinelValueFillINS_11char_traitsIcEEE8__is_setB8ne200100Ev: ; @_ZNKSt3__118_SentinelValueFillINS_11char_traitsIcEEE8__is_setB8ne200100Ev
	.cfi_startproc
; %bb.0:
	sub	sp, sp, #32
	stp	x29, x30, [sp, #16]             ; 16-byte Folded Spill
	add	x29, sp, #16
	.cfi_def_cfa w29, 16
	.cfi_offset w30, -8
	.cfi_offset w29, -16
	str	x0, [sp, #8]
	ldr	x8, [sp, #8]
	ldr	w8, [x8]
	str	w8, [sp, #4]                    ; 4-byte Folded Spill
	bl	__ZNSt3__111char_traitsIcE3eofB8ne200100Ev
	ldr	w8, [sp, #4]                    ; 4-byte Folded Reload
	subs	w8, w8, w0
	cset	w0, ne
	ldp	x29, x30, [sp, #16]             ; 16-byte Folded Reload
	add	sp, sp, #32
	ret
	.cfi_endproc
                                        ; -- End function
	.private_extern	__ZNKSt3__19basic_iosIcNS_11char_traitsIcEEE5widenB8ne200100Ec ; -- Begin function _ZNKSt3__19basic_iosIcNS_11char_traitsIcEEE5widenB8ne200100Ec
	.globl	__ZNKSt3__19basic_iosIcNS_11char_traitsIcEEE5widenB8ne200100Ec
	.weak_definition	__ZNKSt3__19basic_iosIcNS_11char_traitsIcEEE5widenB8ne200100Ec
	.p2align	2
__ZNKSt3__19basic_iosIcNS_11char_traitsIcEEE5widenB8ne200100Ec: ; @_ZNKSt3__19basic_iosIcNS_11char_traitsIcEEE5widenB8ne200100Ec
Lfunc_begin15:
	.cfi_startproc
	.cfi_personality 155, ___gxx_personality_v0
	.cfi_lsda 16, Lexception15
; %bb.0:
	sub	sp, sp, #80
	stp	x29, x30, [sp, #64]             ; 16-byte Folded Spill
	add	x29, sp, #64
	.cfi_def_cfa w29, 16
	.cfi_offset w30, -8
	.cfi_offset w29, -16
	stur	x0, [x29, #-8]
	sturb	w1, [x29, #-9]
	ldur	x0, [x29, #-8]
	sub	x8, x29, #24
	str	x8, [sp, #8]                    ; 8-byte Folded Spill
	bl	__ZNKSt3__18ios_base6getlocEv
	ldr	x0, [sp, #8]                    ; 8-byte Folded Reload
Ltmp212:
	bl	__ZNSt3__19use_facetB8ne200100INS_5ctypeIcEEEERKT_RKNS_6localeE
	str	x0, [sp, #16]                   ; 8-byte Folded Spill
Ltmp213:
	b	LBB148_1
LBB148_1:
	ldr	x0, [sp, #16]                   ; 8-byte Folded Reload
	ldursb	w1, [x29, #-9]
Ltmp214:
	bl	__ZNKSt3__15ctypeIcE5widenB8ne200100Ec
	str	w0, [sp, #4]                    ; 4-byte Folded Spill
Ltmp215:
	b	LBB148_2
LBB148_2:
	sub	x0, x29, #24
	bl	__ZNSt3__16localeD1Ev
	ldr	w0, [sp, #4]                    ; 4-byte Folded Reload
	ldp	x29, x30, [sp, #64]             ; 16-byte Folded Reload
	add	sp, sp, #80
	ret
LBB148_3:
Ltmp216:
	str	x0, [sp, #32]
	mov	x8, x1
	str	w8, [sp, #28]
	sub	x0, x29, #24
	bl	__ZNSt3__16localeD1Ev
	b	LBB148_4
LBB148_4:
	ldr	x0, [sp, #32]
	bl	__Unwind_Resume
Lfunc_end15:
	.cfi_endproc
	.section	__TEXT,__gcc_except_tab
	.p2align	2, 0x0
GCC_except_table148:
Lexception15:
	.byte	255                             ; @LPStart Encoding = omit
	.byte	255                             ; @TType Encoding = omit
	.byte	1                               ; Call site Encoding = uleb128
	.uleb128 Lcst_end15-Lcst_begin15
Lcst_begin15:
	.uleb128 Lfunc_begin15-Lfunc_begin15    ; >> Call Site 1 <<
	.uleb128 Ltmp212-Lfunc_begin15          ;   Call between Lfunc_begin15 and Ltmp212
	.byte	0                               ;     has no landing pad
	.byte	0                               ;   On action: cleanup
	.uleb128 Ltmp212-Lfunc_begin15          ; >> Call Site 2 <<
	.uleb128 Ltmp215-Ltmp212                ;   Call between Ltmp212 and Ltmp215
	.uleb128 Ltmp216-Lfunc_begin15          ;     jumps to Ltmp216
	.byte	0                               ;   On action: cleanup
	.uleb128 Ltmp215-Lfunc_begin15          ; >> Call Site 3 <<
	.uleb128 Lfunc_end15-Ltmp215            ;   Call between Ltmp215 and Lfunc_end15
	.byte	0                               ;     has no landing pad
	.byte	0                               ;   On action: cleanup
Lcst_end15:
	.p2align	2, 0x0
                                        ; -- End function
	.section	__TEXT,__text,regular,pure_instructions
	.private_extern	__ZNSt3__118_SentinelValueFillINS_11char_traitsIcEEEaSB8ne200100Ei ; -- Begin function _ZNSt3__118_SentinelValueFillINS_11char_traitsIcEEEaSB8ne200100Ei
	.globl	__ZNSt3__118_SentinelValueFillINS_11char_traitsIcEEEaSB8ne200100Ei
	.weak_definition	__ZNSt3__118_SentinelValueFillINS_11char_traitsIcEEEaSB8ne200100Ei
	.p2align	2
__ZNSt3__118_SentinelValueFillINS_11char_traitsIcEEEaSB8ne200100Ei: ; @_ZNSt3__118_SentinelValueFillINS_11char_traitsIcEEEaSB8ne200100Ei
	.cfi_startproc
; %bb.0:
	sub	sp, sp, #16
	.cfi_def_cfa_offset 16
	str	x0, [sp, #8]
	str	w1, [sp, #4]
	ldr	x0, [sp, #8]
	ldr	w8, [sp, #4]
	str	w8, [x0]
	add	sp, sp, #16
	ret
	.cfi_endproc
                                        ; -- End function
	.private_extern	__ZNKSt3__118_SentinelValueFillINS_11char_traitsIcEEE5__getB8ne200100Ev ; -- Begin function _ZNKSt3__118_SentinelValueFillINS_11char_traitsIcEEE5__getB8ne200100Ev
	.globl	__ZNKSt3__118_SentinelValueFillINS_11char_traitsIcEEE5__getB8ne200100Ev
	.weak_definition	__ZNKSt3__118_SentinelValueFillINS_11char_traitsIcEEE5__getB8ne200100Ev
	.p2align	2
__ZNKSt3__118_SentinelValueFillINS_11char_traitsIcEEE5__getB8ne200100Ev: ; @_ZNKSt3__118_SentinelValueFillINS_11char_traitsIcEEE5__getB8ne200100Ev
	.cfi_startproc
; %bb.0:
	sub	sp, sp, #16
	.cfi_def_cfa_offset 16
	str	x0, [sp, #8]
	ldr	x8, [sp, #8]
	ldr	w0, [x8]
	add	sp, sp, #16
	ret
	.cfi_endproc
                                        ; -- End function
	.private_extern	__ZNSt3__111char_traitsIcE3eofB8ne200100Ev ; -- Begin function _ZNSt3__111char_traitsIcE3eofB8ne200100Ev
	.globl	__ZNSt3__111char_traitsIcE3eofB8ne200100Ev
	.weak_definition	__ZNSt3__111char_traitsIcE3eofB8ne200100Ev
	.p2align	2
__ZNSt3__111char_traitsIcE3eofB8ne200100Ev: ; @_ZNSt3__111char_traitsIcE3eofB8ne200100Ev
	.cfi_startproc
; %bb.0:
	mov	w0, #-1                         ; =0xffffffff
	ret
	.cfi_endproc
                                        ; -- End function
	.private_extern	__ZNSt3__19use_facetB8ne200100INS_5ctypeIcEEEERKT_RKNS_6localeE ; -- Begin function _ZNSt3__19use_facetB8ne200100INS_5ctypeIcEEEERKT_RKNS_6localeE
	.globl	__ZNSt3__19use_facetB8ne200100INS_5ctypeIcEEEERKT_RKNS_6localeE
	.weak_definition	__ZNSt3__19use_facetB8ne200100INS_5ctypeIcEEEERKT_RKNS_6localeE
	.p2align	2
__ZNSt3__19use_facetB8ne200100INS_5ctypeIcEEEERKT_RKNS_6localeE: ; @_ZNSt3__19use_facetB8ne200100INS_5ctypeIcEEEERKT_RKNS_6localeE
	.cfi_startproc
; %bb.0:
	sub	sp, sp, #32
	stp	x29, x30, [sp, #16]             ; 16-byte Folded Spill
	add	x29, sp, #16
	.cfi_def_cfa w29, 16
	.cfi_offset w30, -8
	.cfi_offset w29, -16
	str	x0, [sp, #8]
	ldr	x0, [sp, #8]
	adrp	x1, __ZNSt3__15ctypeIcE2idE@GOTPAGE
	ldr	x1, [x1, __ZNSt3__15ctypeIcE2idE@GOTPAGEOFF]
	bl	__ZNKSt3__16locale9use_facetERNS0_2idE
	ldp	x29, x30, [sp, #16]             ; 16-byte Folded Reload
	add	sp, sp, #32
	ret
	.cfi_endproc
                                        ; -- End function
	.private_extern	__ZNKSt3__15ctypeIcE5widenB8ne200100Ec ; -- Begin function _ZNKSt3__15ctypeIcE5widenB8ne200100Ec
	.globl	__ZNKSt3__15ctypeIcE5widenB8ne200100Ec
	.weak_definition	__ZNKSt3__15ctypeIcE5widenB8ne200100Ec
	.p2align	2
__ZNKSt3__15ctypeIcE5widenB8ne200100Ec: ; @_ZNKSt3__15ctypeIcE5widenB8ne200100Ec
	.cfi_startproc
; %bb.0:
	sub	sp, sp, #32
	stp	x29, x30, [sp, #16]             ; 16-byte Folded Spill
	add	x29, sp, #16
	.cfi_def_cfa w29, 16
	.cfi_offset w30, -8
	.cfi_offset w29, -16
	str	x0, [sp, #8]
	strb	w1, [sp, #7]
	ldr	x0, [sp, #8]
	ldrsb	w1, [sp, #7]
	ldr	x8, [x0]
	ldr	x8, [x8, #56]
	blr	x8
	ldp	x29, x30, [sp, #16]             ; 16-byte Folded Reload
	add	sp, sp, #32
	ret
	.cfi_endproc
                                        ; -- End function
	.private_extern	__ZNSt3__18ios_base8setstateB8ne200100Ej ; -- Begin function _ZNSt3__18ios_base8setstateB8ne200100Ej
	.globl	__ZNSt3__18ios_base8setstateB8ne200100Ej
	.weak_definition	__ZNSt3__18ios_base8setstateB8ne200100Ej
	.p2align	2
__ZNSt3__18ios_base8setstateB8ne200100Ej: ; @_ZNSt3__18ios_base8setstateB8ne200100Ej
	.cfi_startproc
; %bb.0:
	sub	sp, sp, #32
	stp	x29, x30, [sp, #16]             ; 16-byte Folded Spill
	add	x29, sp, #16
	.cfi_def_cfa w29, 16
	.cfi_offset w30, -8
	.cfi_offset w29, -16
	str	x0, [sp, #8]
	str	w1, [sp, #4]
	ldr	x0, [sp, #8]
	ldr	w8, [x0, #32]
	ldr	w9, [sp, #4]
	orr	w1, w8, w9
	bl	__ZNSt3__18ios_base5clearEj
	ldp	x29, x30, [sp, #16]             ; 16-byte Folded Reload
	add	sp, sp, #32
	ret
	.cfi_endproc
                                        ; -- End function
	.private_extern	__ZNSt3__118__constexpr_strlenB8ne200100IcEEmPKT_ ; -- Begin function _ZNSt3__118__constexpr_strlenB8ne200100IcEEmPKT_
	.globl	__ZNSt3__118__constexpr_strlenB8ne200100IcEEmPKT_
	.weak_definition	__ZNSt3__118__constexpr_strlenB8ne200100IcEEmPKT_
	.p2align	2
__ZNSt3__118__constexpr_strlenB8ne200100IcEEmPKT_: ; @_ZNSt3__118__constexpr_strlenB8ne200100IcEEmPKT_
	.cfi_startproc
; %bb.0:
	sub	sp, sp, #32
	stp	x29, x30, [sp, #16]             ; 16-byte Folded Spill
	add	x29, sp, #16
	.cfi_def_cfa w29, 16
	.cfi_offset w30, -8
	.cfi_offset w29, -16
	str	x0, [sp, #8]
	ldr	x0, [sp, #8]
	bl	_strlen
	ldp	x29, x30, [sp, #16]             ; 16-byte Folded Reload
	add	sp, sp, #32
	ret
	.cfi_endproc
                                        ; -- End function
	.private_extern	__ZNSt3__16vectorIxNS_9allocatorIxEEE11__make_iterB8ne200100EPx ; -- Begin function _ZNSt3__16vectorIxNS_9allocatorIxEEE11__make_iterB8ne200100EPx
	.globl	__ZNSt3__16vectorIxNS_9allocatorIxEEE11__make_iterB8ne200100EPx
	.weak_definition	__ZNSt3__16vectorIxNS_9allocatorIxEEE11__make_iterB8ne200100EPx
	.p2align	2
__ZNSt3__16vectorIxNS_9allocatorIxEEE11__make_iterB8ne200100EPx: ; @_ZNSt3__16vectorIxNS_9allocatorIxEEE11__make_iterB8ne200100EPx
	.cfi_startproc
; %bb.0:
	sub	sp, sp, #48
	stp	x29, x30, [sp, #32]             ; 16-byte Folded Spill
	add	x29, sp, #32
	.cfi_def_cfa w29, 16
	.cfi_offset w30, -8
	.cfi_offset w29, -16
	str	x0, [sp, #16]
	str	x1, [sp, #8]
	ldr	x1, [sp, #8]
	sub	x0, x29, #8
	bl	__ZNSt3__111__wrap_iterIPxEC1B8ne200100ES1_
	ldur	x0, [x29, #-8]
	ldp	x29, x30, [sp, #32]             ; 16-byte Folded Reload
	add	sp, sp, #48
	ret
	.cfi_endproc
                                        ; -- End function
	.globl	__ZNSt3__16vectorIxNS_9allocatorIxEEE26__add_alignment_assumptionB8ne200100IPxLi0EEES5_T_ ; -- Begin function _ZNSt3__16vectorIxNS_9allocatorIxEEE26__add_alignment_assumptionB8ne200100IPxLi0EEES5_T_
	.weak_definition	__ZNSt3__16vectorIxNS_9allocatorIxEEE26__add_alignment_assumptionB8ne200100IPxLi0EEES5_T_
	.p2align	2
__ZNSt3__16vectorIxNS_9allocatorIxEEE26__add_alignment_assumptionB8ne200100IPxLi0EEES5_T_: ; @_ZNSt3__16vectorIxNS_9allocatorIxEEE26__add_alignment_assumptionB8ne200100IPxLi0EEES5_T_
	.cfi_startproc
; %bb.0:
	sub	sp, sp, #16
	.cfi_def_cfa_offset 16
	str	x0, [sp, #8]
	ldr	x0, [sp, #8]
	add	sp, sp, #16
	ret
	.cfi_endproc
                                        ; -- End function
	.private_extern	__ZNSt3__111__wrap_iterIPxEC1B8ne200100ES1_ ; -- Begin function _ZNSt3__111__wrap_iterIPxEC1B8ne200100ES1_
	.globl	__ZNSt3__111__wrap_iterIPxEC1B8ne200100ES1_
	.weak_def_can_be_hidden	__ZNSt3__111__wrap_iterIPxEC1B8ne200100ES1_
	.p2align	2
__ZNSt3__111__wrap_iterIPxEC1B8ne200100ES1_: ; @_ZNSt3__111__wrap_iterIPxEC1B8ne200100ES1_
	.cfi_startproc
; %bb.0:
	sub	sp, sp, #48
	stp	x29, x30, [sp, #32]             ; 16-byte Folded Spill
	add	x29, sp, #32
	.cfi_def_cfa w29, 16
	.cfi_offset w30, -8
	.cfi_offset w29, -16
	stur	x0, [x29, #-8]
	str	x1, [sp, #16]
	ldur	x0, [x29, #-8]
	str	x0, [sp, #8]                    ; 8-byte Folded Spill
	ldr	x1, [sp, #16]
	bl	__ZNSt3__111__wrap_iterIPxEC2B8ne200100ES1_
	ldr	x0, [sp, #8]                    ; 8-byte Folded Reload
	ldp	x29, x30, [sp, #32]             ; 16-byte Folded Reload
	add	sp, sp, #48
	ret
	.cfi_endproc
                                        ; -- End function
	.private_extern	__ZNSt3__111__wrap_iterIPxEC2B8ne200100ES1_ ; -- Begin function _ZNSt3__111__wrap_iterIPxEC2B8ne200100ES1_
	.globl	__ZNSt3__111__wrap_iterIPxEC2B8ne200100ES1_
	.weak_def_can_be_hidden	__ZNSt3__111__wrap_iterIPxEC2B8ne200100ES1_
	.p2align	2
__ZNSt3__111__wrap_iterIPxEC2B8ne200100ES1_: ; @_ZNSt3__111__wrap_iterIPxEC2B8ne200100ES1_
	.cfi_startproc
; %bb.0:
	sub	sp, sp, #16
	.cfi_def_cfa_offset 16
	str	x0, [sp, #8]
	str	x1, [sp]
	ldr	x0, [sp, #8]
	ldr	x8, [sp]
	str	x8, [x0]
	add	sp, sp, #16
	ret
	.cfi_endproc
                                        ; -- End function
	.p2align	2                               ; -- Begin function _ZZ4mainENK3$_0clEx
__ZZ4mainENK3$_0clEx:                   ; @"_ZZ4mainENK3$_0clEx"
	.cfi_startproc
; %bb.0:
	sub	sp, sp, #64
	stp	x29, x30, [sp, #48]             ; 16-byte Folded Spill
	add	x29, sp, #48
	.cfi_def_cfa w29, 16
	.cfi_offset w30, -8
	.cfi_offset w29, -16
	stur	x0, [x29, #-8]
	stur	x1, [x29, #-16]
	ldur	x8, [x29, #-8]
	str	x8, [sp]                        ; 8-byte Folded Spill
	ldr	x9, [x8]
	ldr	x9, [x9]
	str	x9, [sp, #24]
	ldr	x8, [x8, #8]
	ldr	x8, [x8]
	str	x8, [sp, #16]
	str	xzr, [sp, #8]
	b	LBB160_1
LBB160_1:                               ; =>This Inner Loop Header: Depth=1
	ldr	x8, [sp, #8]
	ldur	x9, [x29, #-16]
	subs	x8, x8, x9
	b.ge	LBB160_4
	b	LBB160_2
LBB160_2:                               ;   in Loop: Header=BB160_1 Depth=1
	ldr	x8, [sp]                        ; 8-byte Folded Reload
	ldr	x0, [sp, #24]
	ldr	x1, [sp, #16]
	ldr	x8, [x8, #16]
	ldr	x2, [x8]
	bl	__Z14classic_modaddxxx
	str	x0, [sp, #24]
	b	LBB160_3
LBB160_3:                               ;   in Loop: Header=BB160_1 Depth=1
	ldr	x8, [sp, #8]
	add	x8, x8, #1
	str	x8, [sp, #8]
	b	LBB160_1
LBB160_4:
	ldr	x9, [sp]                        ; 8-byte Folded Reload
	ldr	x8, [sp, #24]
	ldr	x9, [x9, #24]
	str	x8, [x9]
	ldp	x29, x30, [sp, #48]             ; 16-byte Folded Reload
	add	sp, sp, #64
	ret
	.cfi_endproc
                                        ; -- End function
	.private_extern	__ZNSt3__16chronomiB8ne200100INS0_12steady_clockENS0_8durationIxNS_5ratioILl1ELl1000000000EEEEES6_EENS_11common_typeIJT0_T1_EE4typeERKNS0_10time_pointIT_S8_EERKNSC_ISD_S9_EE ; -- Begin function _ZNSt3__16chronomiB8ne200100INS0_12steady_clockENS0_8durationIxNS_5ratioILl1ELl1000000000EEEEES6_EENS_11common_typeIJT0_T1_EE4typeERKNS0_10time_pointIT_S8_EERKNSC_ISD_S9_EE
	.globl	__ZNSt3__16chronomiB8ne200100INS0_12steady_clockENS0_8durationIxNS_5ratioILl1ELl1000000000EEEEES6_EENS_11common_typeIJT0_T1_EE4typeERKNS0_10time_pointIT_S8_EERKNSC_ISD_S9_EE
	.weak_definition	__ZNSt3__16chronomiB8ne200100INS0_12steady_clockENS0_8durationIxNS_5ratioILl1ELl1000000000EEEEES6_EENS_11common_typeIJT0_T1_EE4typeERKNS0_10time_pointIT_S8_EERKNSC_ISD_S9_EE
	.p2align	2
__ZNSt3__16chronomiB8ne200100INS0_12steady_clockENS0_8durationIxNS_5ratioILl1ELl1000000000EEEEES6_EENS_11common_typeIJT0_T1_EE4typeERKNS0_10time_pointIT_S8_EERKNSC_ISD_S9_EE: ; @_ZNSt3__16chronomiB8ne200100INS0_12steady_clockENS0_8durationIxNS_5ratioILl1ELl1000000000EEEEES6_EENS_11common_typeIJT0_T1_EE4typeERKNS0_10time_pointIT_S8_EERKNSC_ISD_S9_EE
	.cfi_startproc
; %bb.0:
	sub	sp, sp, #64
	stp	x29, x30, [sp, #48]             ; 16-byte Folded Spill
	add	x29, sp, #48
	.cfi_def_cfa w29, 16
	.cfi_offset w30, -8
	.cfi_offset w29, -16
	stur	x0, [x29, #-16]
	str	x1, [sp, #24]
	ldur	x0, [x29, #-16]
	bl	__ZNKSt3__16chrono10time_pointINS0_12steady_clockENS0_8durationIxNS_5ratioILl1ELl1000000000EEEEEE16time_since_epochB8ne200100Ev
	add	x8, sp, #16
	str	x8, [sp]                        ; 8-byte Folded Spill
	str	x0, [sp, #16]
	ldr	x0, [sp, #24]
	bl	__ZNKSt3__16chrono10time_pointINS0_12steady_clockENS0_8durationIxNS_5ratioILl1ELl1000000000EEEEEE16time_since_epochB8ne200100Ev
	mov	x8, x0
	ldr	x0, [sp]                        ; 8-byte Folded Reload
	add	x1, sp, #8
	str	x8, [sp, #8]
	bl	__ZNSt3__16chronomiB8ne200100IxNS_5ratioILl1ELl1000000000EEExS3_EENS_11common_typeIJNS0_8durationIT_T0_EENS5_IT1_T2_EEEE4typeERKS8_RKSB_
	stur	x0, [x29, #-8]
	ldur	x0, [x29, #-8]
	ldp	x29, x30, [sp, #48]             ; 16-byte Folded Reload
	add	sp, sp, #64
	ret
	.cfi_endproc
                                        ; -- End function
	.globl	__ZNSt3__16chrono8durationIdNS_5ratioILl1ELl1EEEEC1B8ne200100IxNS2_ILl1ELl1000000000EEELi0EEERKNS1_IT_T0_EE ; -- Begin function _ZNSt3__16chrono8durationIdNS_5ratioILl1ELl1EEEEC1B8ne200100IxNS2_ILl1ELl1000000000EEELi0EEERKNS1_IT_T0_EE
	.weak_def_can_be_hidden	__ZNSt3__16chrono8durationIdNS_5ratioILl1ELl1EEEEC1B8ne200100IxNS2_ILl1ELl1000000000EEELi0EEERKNS1_IT_T0_EE
	.p2align	2
__ZNSt3__16chrono8durationIdNS_5ratioILl1ELl1EEEEC1B8ne200100IxNS2_ILl1ELl1000000000EEELi0EEERKNS1_IT_T0_EE: ; @_ZNSt3__16chrono8durationIdNS_5ratioILl1ELl1EEEEC1B8ne200100IxNS2_ILl1ELl1000000000EEELi0EEERKNS1_IT_T0_EE
	.cfi_startproc
; %bb.0:
	sub	sp, sp, #48
	stp	x29, x30, [sp, #32]             ; 16-byte Folded Spill
	add	x29, sp, #32
	.cfi_def_cfa w29, 16
	.cfi_offset w30, -8
	.cfi_offset w29, -16
	stur	x0, [x29, #-8]
	str	x1, [sp, #16]
	ldur	x0, [x29, #-8]
	str	x0, [sp, #8]                    ; 8-byte Folded Spill
	ldr	x1, [sp, #16]
	bl	__ZNSt3__16chrono8durationIdNS_5ratioILl1ELl1EEEEC2B8ne200100IxNS2_ILl1ELl1000000000EEELi0EEERKNS1_IT_T0_EE
	ldr	x0, [sp, #8]                    ; 8-byte Folded Reload
	ldp	x29, x30, [sp, #32]             ; 16-byte Folded Reload
	add	sp, sp, #48
	ret
	.cfi_endproc
                                        ; -- End function
	.private_extern	__ZNKSt3__16chrono8durationIdNS_5ratioILl1ELl1EEEE5countB8ne200100Ev ; -- Begin function _ZNKSt3__16chrono8durationIdNS_5ratioILl1ELl1EEEE5countB8ne200100Ev
	.globl	__ZNKSt3__16chrono8durationIdNS_5ratioILl1ELl1EEEE5countB8ne200100Ev
	.weak_definition	__ZNKSt3__16chrono8durationIdNS_5ratioILl1ELl1EEEE5countB8ne200100Ev
	.p2align	2
__ZNKSt3__16chrono8durationIdNS_5ratioILl1ELl1EEEE5countB8ne200100Ev: ; @_ZNKSt3__16chrono8durationIdNS_5ratioILl1ELl1EEEE5countB8ne200100Ev
	.cfi_startproc
; %bb.0:
	sub	sp, sp, #16
	.cfi_def_cfa_offset 16
	str	x0, [sp, #8]
	ldr	x8, [sp, #8]
	ldr	d0, [x8]
	add	sp, sp, #16
	ret
	.cfi_endproc
                                        ; -- End function
	.globl	__Z14classic_modaddxxx          ; -- Begin function _Z14classic_modaddxxx
	.weak_definition	__Z14classic_modaddxxx
	.p2align	2
__Z14classic_modaddxxx:                 ; @_Z14classic_modaddxxx
	.cfi_startproc
; %bb.0:
	sub	sp, sp, #32
	.cfi_def_cfa_offset 32
	str	x0, [sp, #24]
	str	x1, [sp, #16]
	str	x2, [sp, #8]
	ldr	x8, [sp, #24]
	ldr	x9, [sp, #16]
	add	x8, x8, x9
	ldr	x10, [sp, #8]
	sdiv	x9, x8, x10
	mul	x9, x9, x10
	subs	x0, x8, x9
	add	sp, sp, #32
	ret
	.cfi_endproc
                                        ; -- End function
	.private_extern	__ZNSt3__16chronomiB8ne200100IxNS_5ratioILl1ELl1000000000EEExS3_EENS_11common_typeIJNS0_8durationIT_T0_EENS5_IT1_T2_EEEE4typeERKS8_RKSB_ ; -- Begin function _ZNSt3__16chronomiB8ne200100IxNS_5ratioILl1ELl1000000000EEExS3_EENS_11common_typeIJNS0_8durationIT_T0_EENS5_IT1_T2_EEEE4typeERKS8_RKSB_
	.globl	__ZNSt3__16chronomiB8ne200100IxNS_5ratioILl1ELl1000000000EEExS3_EENS_11common_typeIJNS0_8durationIT_T0_EENS5_IT1_T2_EEEE4typeERKS8_RKSB_
	.weak_definition	__ZNSt3__16chronomiB8ne200100IxNS_5ratioILl1ELl1000000000EEExS3_EENS_11common_typeIJNS0_8durationIT_T0_EENS5_IT1_T2_EEEE4typeERKS8_RKSB_
	.p2align	2
__ZNSt3__16chronomiB8ne200100IxNS_5ratioILl1ELl1000000000EEExS3_EENS_11common_typeIJNS0_8durationIT_T0_EENS5_IT1_T2_EEEE4typeERKS8_RKSB_: ; @_ZNSt3__16chronomiB8ne200100IxNS_5ratioILl1ELl1000000000EEExS3_EENS_11common_typeIJNS0_8durationIT_T0_EENS5_IT1_T2_EEEE4typeERKS8_RKSB_
	.cfi_startproc
; %bb.0:
	sub	sp, sp, #80
	stp	x29, x30, [sp, #64]             ; 16-byte Folded Spill
	add	x29, sp, #64
	.cfi_def_cfa w29, 16
	.cfi_offset w30, -8
	.cfi_offset w29, -16
	stur	x0, [x29, #-16]
	stur	x1, [x29, #-24]
	ldur	x8, [x29, #-16]
	ldr	x8, [x8]
	add	x0, sp, #24
	str	x8, [sp, #24]
	bl	__ZNKSt3__16chrono8durationIxNS_5ratioILl1ELl1000000000EEEE5countB8ne200100Ev
	str	x0, [sp, #8]                    ; 8-byte Folded Spill
	ldur	x8, [x29, #-24]
	ldr	x8, [x8]
	add	x0, sp, #16
	str	x8, [sp, #16]
	bl	__ZNKSt3__16chrono8durationIxNS_5ratioILl1ELl1000000000EEEE5countB8ne200100Ev
	mov	x8, x0
	ldr	x0, [sp, #8]                    ; 8-byte Folded Reload
	subs	x8, x0, x8
	add	x1, sp, #32
	str	x8, [sp, #32]
	sub	x0, x29, #8
	bl	__ZNSt3__16chrono8durationIxNS_5ratioILl1ELl1000000000EEEEC1B8ne200100IxLi0EEERKT_
	ldur	x0, [x29, #-8]
	ldp	x29, x30, [sp, #64]             ; 16-byte Folded Reload
	add	sp, sp, #80
	ret
	.cfi_endproc
                                        ; -- End function
	.private_extern	__ZNKSt3__16chrono10time_pointINS0_12steady_clockENS0_8durationIxNS_5ratioILl1ELl1000000000EEEEEE16time_since_epochB8ne200100Ev ; -- Begin function _ZNKSt3__16chrono10time_pointINS0_12steady_clockENS0_8durationIxNS_5ratioILl1ELl1000000000EEEEEE16time_since_epochB8ne200100Ev
	.globl	__ZNKSt3__16chrono10time_pointINS0_12steady_clockENS0_8durationIxNS_5ratioILl1ELl1000000000EEEEEE16time_since_epochB8ne200100Ev
	.weak_definition	__ZNKSt3__16chrono10time_pointINS0_12steady_clockENS0_8durationIxNS_5ratioILl1ELl1000000000EEEEEE16time_since_epochB8ne200100Ev
	.p2align	2
__ZNKSt3__16chrono10time_pointINS0_12steady_clockENS0_8durationIxNS_5ratioILl1ELl1000000000EEEEEE16time_since_epochB8ne200100Ev: ; @_ZNKSt3__16chrono10time_pointINS0_12steady_clockENS0_8durationIxNS_5ratioILl1ELl1000000000EEEEEE16time_since_epochB8ne200100Ev
	.cfi_startproc
; %bb.0:
	sub	sp, sp, #16
	.cfi_def_cfa_offset 16
	str	x0, [sp]
	ldr	x8, [sp]
	ldr	x8, [x8]
	str	x8, [sp, #8]
	ldr	x0, [sp, #8]
	add	sp, sp, #16
	ret
	.cfi_endproc
                                        ; -- End function
	.private_extern	__ZNKSt3__16chrono8durationIxNS_5ratioILl1ELl1000000000EEEE5countB8ne200100Ev ; -- Begin function _ZNKSt3__16chrono8durationIxNS_5ratioILl1ELl1000000000EEEE5countB8ne200100Ev
	.globl	__ZNKSt3__16chrono8durationIxNS_5ratioILl1ELl1000000000EEEE5countB8ne200100Ev
	.weak_definition	__ZNKSt3__16chrono8durationIxNS_5ratioILl1ELl1000000000EEEE5countB8ne200100Ev
	.p2align	2
__ZNKSt3__16chrono8durationIxNS_5ratioILl1ELl1000000000EEEE5countB8ne200100Ev: ; @_ZNKSt3__16chrono8durationIxNS_5ratioILl1ELl1000000000EEEE5countB8ne200100Ev
	.cfi_startproc
; %bb.0:
	sub	sp, sp, #16
	.cfi_def_cfa_offset 16
	str	x0, [sp, #8]
	ldr	x8, [sp, #8]
	ldr	x0, [x8]
	add	sp, sp, #16
	ret
	.cfi_endproc
                                        ; -- End function
	.globl	__ZNSt3__16chrono8durationIxNS_5ratioILl1ELl1000000000EEEEC1B8ne200100IxLi0EEERKT_ ; -- Begin function _ZNSt3__16chrono8durationIxNS_5ratioILl1ELl1000000000EEEEC1B8ne200100IxLi0EEERKT_
	.weak_def_can_be_hidden	__ZNSt3__16chrono8durationIxNS_5ratioILl1ELl1000000000EEEEC1B8ne200100IxLi0EEERKT_
	.p2align	2
__ZNSt3__16chrono8durationIxNS_5ratioILl1ELl1000000000EEEEC1B8ne200100IxLi0EEERKT_: ; @_ZNSt3__16chrono8durationIxNS_5ratioILl1ELl1000000000EEEEC1B8ne200100IxLi0EEERKT_
	.cfi_startproc
; %bb.0:
	sub	sp, sp, #48
	stp	x29, x30, [sp, #32]             ; 16-byte Folded Spill
	add	x29, sp, #32
	.cfi_def_cfa w29, 16
	.cfi_offset w30, -8
	.cfi_offset w29, -16
	stur	x0, [x29, #-8]
	str	x1, [sp, #16]
	ldur	x0, [x29, #-8]
	str	x0, [sp, #8]                    ; 8-byte Folded Spill
	ldr	x1, [sp, #16]
	bl	__ZNSt3__16chrono8durationIxNS_5ratioILl1ELl1000000000EEEEC2B8ne200100IxLi0EEERKT_
	ldr	x0, [sp, #8]                    ; 8-byte Folded Reload
	ldp	x29, x30, [sp, #32]             ; 16-byte Folded Reload
	add	sp, sp, #48
	ret
	.cfi_endproc
                                        ; -- End function
	.globl	__ZNSt3__16chrono8durationIxNS_5ratioILl1ELl1000000000EEEEC2B8ne200100IxLi0EEERKT_ ; -- Begin function _ZNSt3__16chrono8durationIxNS_5ratioILl1ELl1000000000EEEEC2B8ne200100IxLi0EEERKT_
	.weak_def_can_be_hidden	__ZNSt3__16chrono8durationIxNS_5ratioILl1ELl1000000000EEEEC2B8ne200100IxLi0EEERKT_
	.p2align	2
__ZNSt3__16chrono8durationIxNS_5ratioILl1ELl1000000000EEEEC2B8ne200100IxLi0EEERKT_: ; @_ZNSt3__16chrono8durationIxNS_5ratioILl1ELl1000000000EEEEC2B8ne200100IxLi0EEERKT_
	.cfi_startproc
; %bb.0:
	sub	sp, sp, #16
	.cfi_def_cfa_offset 16
	str	x0, [sp, #8]
	str	x1, [sp]
	ldr	x0, [sp, #8]
	ldr	x8, [sp]
	ldr	x8, [x8]
	str	x8, [x0]
	add	sp, sp, #16
	ret
	.cfi_endproc
                                        ; -- End function
	.globl	__ZNSt3__16chrono8durationIdNS_5ratioILl1ELl1EEEEC2B8ne200100IxNS2_ILl1ELl1000000000EEELi0EEERKNS1_IT_T0_EE ; -- Begin function _ZNSt3__16chrono8durationIdNS_5ratioILl1ELl1EEEEC2B8ne200100IxNS2_ILl1ELl1000000000EEELi0EEERKNS1_IT_T0_EE
	.weak_def_can_be_hidden	__ZNSt3__16chrono8durationIdNS_5ratioILl1ELl1EEEEC2B8ne200100IxNS2_ILl1ELl1000000000EEELi0EEERKNS1_IT_T0_EE
	.p2align	2
__ZNSt3__16chrono8durationIdNS_5ratioILl1ELl1EEEEC2B8ne200100IxNS2_ILl1ELl1000000000EEELi0EEERKNS1_IT_T0_EE: ; @_ZNSt3__16chrono8durationIdNS_5ratioILl1ELl1EEEEC2B8ne200100IxNS2_ILl1ELl1000000000EEELi0EEERKNS1_IT_T0_EE
	.cfi_startproc
; %bb.0:
	sub	sp, sp, #48
	stp	x29, x30, [sp, #32]             ; 16-byte Folded Spill
	add	x29, sp, #32
	.cfi_def_cfa w29, 16
	.cfi_offset w30, -8
	.cfi_offset w29, -16
	stur	x0, [x29, #-8]
	str	x1, [sp, #16]
	ldur	x8, [x29, #-8]
	str	x8, [sp]                        ; 8-byte Folded Spill
	ldr	x0, [sp, #16]
	bl	__ZNSt3__16chrono13duration_castB8ne200100INS0_8durationIdNS_5ratioILl1ELl1EEEEExNS3_ILl1ELl1000000000EEELi0EEET_RKNS2_IT0_T1_EE
	add	x0, sp, #8
	str	d0, [sp, #8]
	bl	__ZNKSt3__16chrono8durationIdNS_5ratioILl1ELl1EEEE5countB8ne200100Ev
	ldr	x0, [sp]                        ; 8-byte Folded Reload
	str	d0, [x0]
	ldp	x29, x30, [sp, #32]             ; 16-byte Folded Reload
	add	sp, sp, #48
	ret
	.cfi_endproc
                                        ; -- End function
	.private_extern	__ZNSt3__16chrono13duration_castB8ne200100INS0_8durationIdNS_5ratioILl1ELl1EEEEExNS3_ILl1ELl1000000000EEELi0EEET_RKNS2_IT0_T1_EE ; -- Begin function _ZNSt3__16chrono13duration_castB8ne200100INS0_8durationIdNS_5ratioILl1ELl1EEEEExNS3_ILl1ELl1000000000EEELi0EEET_RKNS2_IT0_T1_EE
	.globl	__ZNSt3__16chrono13duration_castB8ne200100INS0_8durationIdNS_5ratioILl1ELl1EEEEExNS3_ILl1ELl1000000000EEELi0EEET_RKNS2_IT0_T1_EE
	.weak_definition	__ZNSt3__16chrono13duration_castB8ne200100INS0_8durationIdNS_5ratioILl1ELl1EEEEExNS3_ILl1ELl1000000000EEELi0EEET_RKNS2_IT0_T1_EE
	.p2align	2
__ZNSt3__16chrono13duration_castB8ne200100INS0_8durationIdNS_5ratioILl1ELl1EEEEExNS3_ILl1ELl1000000000EEELi0EEET_RKNS2_IT0_T1_EE: ; @_ZNSt3__16chrono13duration_castB8ne200100INS0_8durationIdNS_5ratioILl1ELl1EEEEExNS3_ILl1ELl1000000000EEELi0EEET_RKNS2_IT0_T1_EE
	.cfi_startproc
; %bb.0:
	sub	sp, sp, #48
	stp	x29, x30, [sp, #32]             ; 16-byte Folded Spill
	add	x29, sp, #32
	.cfi_def_cfa w29, 16
	.cfi_offset w30, -8
	.cfi_offset w29, -16
	str	x0, [sp, #16]
	ldr	x1, [sp, #16]
	add	x0, sp, #15
	bl	__ZNKSt3__16chrono15__duration_castINS0_8durationIxNS_5ratioILl1ELl1000000000EEEEENS2_IdNS3_ILl1ELl1EEEEES4_Lb1ELb0EEclB8ne200100ERKS5_
	stur	d0, [x29, #-8]
	ldur	d0, [x29, #-8]
	ldp	x29, x30, [sp, #32]             ; 16-byte Folded Reload
	add	sp, sp, #48
	ret
	.cfi_endproc
                                        ; -- End function
	.private_extern	__ZNKSt3__16chrono15__duration_castINS0_8durationIxNS_5ratioILl1ELl1000000000EEEEENS2_IdNS3_ILl1ELl1EEEEES4_Lb1ELb0EEclB8ne200100ERKS5_ ; -- Begin function _ZNKSt3__16chrono15__duration_castINS0_8durationIxNS_5ratioILl1ELl1000000000EEEEENS2_IdNS3_ILl1ELl1EEEEES4_Lb1ELb0EEclB8ne200100ERKS5_
	.globl	__ZNKSt3__16chrono15__duration_castINS0_8durationIxNS_5ratioILl1ELl1000000000EEEEENS2_IdNS3_ILl1ELl1EEEEES4_Lb1ELb0EEclB8ne200100ERKS5_
	.weak_definition	__ZNKSt3__16chrono15__duration_castINS0_8durationIxNS_5ratioILl1ELl1000000000EEEEENS2_IdNS3_ILl1ELl1EEEEES4_Lb1ELb0EEclB8ne200100ERKS5_
	.p2align	2
__ZNKSt3__16chrono15__duration_castINS0_8durationIxNS_5ratioILl1ELl1000000000EEEEENS2_IdNS3_ILl1ELl1EEEEES4_Lb1ELb0EEclB8ne200100ERKS5_: ; @_ZNKSt3__16chrono15__duration_castINS0_8durationIxNS_5ratioILl1ELl1000000000EEEEENS2_IdNS3_ILl1ELl1EEEEES4_Lb1ELb0EEclB8ne200100ERKS5_
	.cfi_startproc
; %bb.0:
	sub	sp, sp, #48
	stp	x29, x30, [sp, #32]             ; 16-byte Folded Spill
	add	x29, sp, #32
	.cfi_def_cfa w29, 16
	.cfi_offset w30, -8
	.cfi_offset w29, -16
	str	x0, [sp, #16]
	str	x1, [sp, #8]
	ldr	x0, [sp, #8]
	bl	__ZNKSt3__16chrono8durationIxNS_5ratioILl1ELl1000000000EEEE5countB8ne200100Ev
	scvtf	d0, x0
	mov	x8, #225833675390976            ; =0xcd6500000000
	movk	x8, #16845, lsl #48
	fmov	d1, x8
	fdiv	d0, d0, d1
	mov	x1, sp
	str	d0, [sp]
	sub	x0, x29, #8
	bl	__ZNSt3__16chrono8durationIdNS_5ratioILl1ELl1EEEEC1B8ne200100IdLi0EEERKT_
	ldur	d0, [x29, #-8]
	ldp	x29, x30, [sp, #32]             ; 16-byte Folded Reload
	add	sp, sp, #48
	ret
	.cfi_endproc
                                        ; -- End function
	.globl	__ZNSt3__16chrono8durationIdNS_5ratioILl1ELl1EEEEC1B8ne200100IdLi0EEERKT_ ; -- Begin function _ZNSt3__16chrono8durationIdNS_5ratioILl1ELl1EEEEC1B8ne200100IdLi0EEERKT_
	.weak_def_can_be_hidden	__ZNSt3__16chrono8durationIdNS_5ratioILl1ELl1EEEEC1B8ne200100IdLi0EEERKT_
	.p2align	2
__ZNSt3__16chrono8durationIdNS_5ratioILl1ELl1EEEEC1B8ne200100IdLi0EEERKT_: ; @_ZNSt3__16chrono8durationIdNS_5ratioILl1ELl1EEEEC1B8ne200100IdLi0EEERKT_
	.cfi_startproc
; %bb.0:
	sub	sp, sp, #48
	stp	x29, x30, [sp, #32]             ; 16-byte Folded Spill
	add	x29, sp, #32
	.cfi_def_cfa w29, 16
	.cfi_offset w30, -8
	.cfi_offset w29, -16
	stur	x0, [x29, #-8]
	str	x1, [sp, #16]
	ldur	x0, [x29, #-8]
	str	x0, [sp, #8]                    ; 8-byte Folded Spill
	ldr	x1, [sp, #16]
	bl	__ZNSt3__16chrono8durationIdNS_5ratioILl1ELl1EEEEC2B8ne200100IdLi0EEERKT_
	ldr	x0, [sp, #8]                    ; 8-byte Folded Reload
	ldp	x29, x30, [sp, #32]             ; 16-byte Folded Reload
	add	sp, sp, #48
	ret
	.cfi_endproc
                                        ; -- End function
	.globl	__ZNSt3__16chrono8durationIdNS_5ratioILl1ELl1EEEEC2B8ne200100IdLi0EEERKT_ ; -- Begin function _ZNSt3__16chrono8durationIdNS_5ratioILl1ELl1EEEEC2B8ne200100IdLi0EEERKT_
	.weak_def_can_be_hidden	__ZNSt3__16chrono8durationIdNS_5ratioILl1ELl1EEEEC2B8ne200100IdLi0EEERKT_
	.p2align	2
__ZNSt3__16chrono8durationIdNS_5ratioILl1ELl1EEEEC2B8ne200100IdLi0EEERKT_: ; @_ZNSt3__16chrono8durationIdNS_5ratioILl1ELl1EEEEC2B8ne200100IdLi0EEERKT_
	.cfi_startproc
; %bb.0:
	sub	sp, sp, #16
	.cfi_def_cfa_offset 16
	str	x0, [sp, #8]
	str	x1, [sp]
	ldr	x0, [sp, #8]
	ldr	x8, [sp]
	ldr	d0, [x8]
	str	d0, [x0]
	add	sp, sp, #16
	ret
	.cfi_endproc
                                        ; -- End function
	.p2align	2                               ; -- Begin function _ZZ4mainENK3$_1clEx
__ZZ4mainENK3$_1clEx:                   ; @"_ZZ4mainENK3$_1clEx"
	.cfi_startproc
; %bb.0:
	sub	sp, sp, #64
	stp	x29, x30, [sp, #48]             ; 16-byte Folded Spill
	add	x29, sp, #48
	.cfi_def_cfa w29, 16
	.cfi_offset w30, -8
	.cfi_offset w29, -16
	stur	x0, [x29, #-8]
	stur	x1, [x29, #-16]
	ldur	x8, [x29, #-8]
	str	x8, [sp]                        ; 8-byte Folded Spill
	ldr	x9, [x8]
	ldr	x9, [x9]
	str	x9, [sp, #24]
	ldr	x8, [x8, #8]
	ldr	x8, [x8]
	str	x8, [sp, #16]
	str	xzr, [sp, #8]
	b	LBB175_1
LBB175_1:                               ; =>This Inner Loop Header: Depth=1
	ldr	x8, [sp, #8]
	ldur	x9, [x29, #-16]
	subs	x8, x8, x9
	b.ge	LBB175_4
	b	LBB175_2
LBB175_2:                               ;   in Loop: Header=BB175_1 Depth=1
	ldr	x8, [sp]                        ; 8-byte Folded Reload
	ldr	x0, [sp, #24]
	ldr	x1, [sp, #16]
	ldr	x8, [x8, #16]
	ldr	x2, [x8]
	bl	__Z21reist_v1_modadd_nodivxxx
	str	x0, [sp, #24]
	b	LBB175_3
LBB175_3:                               ;   in Loop: Header=BB175_1 Depth=1
	ldr	x8, [sp, #8]
	add	x8, x8, #1
	str	x8, [sp, #8]
	b	LBB175_1
LBB175_4:
	ldr	x9, [sp]                        ; 8-byte Folded Reload
	ldr	x8, [sp, #24]
	ldr	x9, [x9, #24]
	str	x8, [x9]
	ldp	x29, x30, [sp, #48]             ; 16-byte Folded Reload
	add	sp, sp, #64
	ret
	.cfi_endproc
                                        ; -- End function
	.globl	__Z21reist_v1_modadd_nodivxxx   ; -- Begin function _Z21reist_v1_modadd_nodivxxx
	.weak_definition	__Z21reist_v1_modadd_nodivxxx
	.p2align	2
__Z21reist_v1_modadd_nodivxxx:          ; @_Z21reist_v1_modadd_nodivxxx
	.cfi_startproc
; %bb.0:
	sub	sp, sp, #48
	.cfi_def_cfa_offset 48
	str	x0, [sp, #40]
	str	x1, [sp, #32]
	str	x2, [sp, #24]
	ldr	x8, [sp, #24]
	asr	x8, x8, #1
	str	x8, [sp, #16]
	ldr	x8, [sp, #40]
	ldr	x9, [sp, #32]
	add	x8, x8, x9
	str	x8, [sp, #8]
	ldr	x8, [sp, #8]
	ldr	x9, [sp, #16]
	subs	x8, x8, x9
	b.le	LBB176_2
	b	LBB176_1
LBB176_1:
	ldr	x9, [sp, #24]
	ldr	x8, [sp, #8]
	subs	x8, x8, x9
	str	x8, [sp, #8]
	b	LBB176_5
LBB176_2:
	ldr	x8, [sp, #8]
	ldr	x10, [sp, #16]
	mov	x9, #0                          ; =0x0
	subs	x9, x9, x10
	subs	x8, x8, x9
	b.gt	LBB176_4
	b	LBB176_3
LBB176_3:
	ldr	x9, [sp, #24]
	ldr	x8, [sp, #8]
	add	x8, x8, x9
	str	x8, [sp, #8]
	b	LBB176_4
LBB176_4:
	b	LBB176_5
LBB176_5:
	ldr	x0, [sp, #8]
	add	sp, sp, #48
	ret
	.cfi_endproc
                                        ; -- End function
	.p2align	2                               ; -- Begin function _ZZ4mainENK3$_2clEx
__ZZ4mainENK3$_2clEx:                   ; @"_ZZ4mainENK3$_2clEx"
	.cfi_startproc
; %bb.0:
	sub	sp, sp, #64
	stp	x29, x30, [sp, #48]             ; 16-byte Folded Spill
	add	x29, sp, #48
	.cfi_def_cfa w29, 16
	.cfi_offset w30, -8
	.cfi_offset w29, -16
	stur	x0, [x29, #-8]
	stur	x1, [x29, #-16]
	ldur	x8, [x29, #-8]
	str	x8, [sp]                        ; 8-byte Folded Spill
	ldr	x9, [x8]
	ldr	x9, [x9]
	str	x9, [sp, #24]
	ldr	x8, [x8, #8]
	ldr	x8, [x8]
	str	x8, [sp, #16]
	str	xzr, [sp, #8]
	b	LBB177_1
LBB177_1:                               ; =>This Inner Loop Header: Depth=1
	ldr	x8, [sp, #8]
	ldur	x9, [x29, #-16]
	subs	x8, x8, x9
	b.ge	LBB177_4
	b	LBB177_2
LBB177_2:                               ;   in Loop: Header=BB177_1 Depth=1
	ldr	x8, [sp]                        ; 8-byte Folded Reload
	ldr	x9, [sp, #24]
	ldr	x10, [sp, #16]
	add	x0, x9, x10
	ldr	x1, [x8, #16]
	bl	__Z19Barret_reist_reducexRK14BarretReistCtx
	str	x0, [sp, #24]
	b	LBB177_3
LBB177_3:                               ;   in Loop: Header=BB177_1 Depth=1
	ldr	x8, [sp, #8]
	add	x8, x8, #1
	str	x8, [sp, #8]
	b	LBB177_1
LBB177_4:
	ldr	x9, [sp]                        ; 8-byte Folded Reload
	ldr	x8, [sp, #24]
	ldr	x9, [x9, #24]
	str	x8, [x9]
	ldp	x29, x30, [sp, #48]             ; 16-byte Folded Reload
	add	sp, sp, #64
	ret
	.cfi_endproc
                                        ; -- End function
	.globl	__Z19Barret_reist_reducexRK14BarretReistCtx ; -- Begin function _Z19Barret_reist_reducexRK14BarretReistCtx
	.weak_definition	__Z19Barret_reist_reducexRK14BarretReistCtx
	.p2align	2
__Z19Barret_reist_reducexRK14BarretReistCtx: ; @_Z19Barret_reist_reducexRK14BarretReistCtx
	.cfi_startproc
; %bb.0:
	sub	sp, sp, #32
	.cfi_def_cfa_offset 32
	mov	x11, #0                         ; =0x0
	str	x0, [sp, #24]
	str	x1, [sp, #16]
	ldr	x10, [sp, #24]
	asr	x9, x10, #63
	ldr	x8, [sp, #16]
	ldr	x12, [x8, #16]
	mul	x8, x10, x12
	mul	x9, x9, x12
	mul	x11, x10, x11
	umulh	x10, x10, x12
	add	x9, x9, x11
	add	x11, x9, x10
	ldr	x9, [sp, #16]
	ldr	w9, [x9, #24]
	mov	x10, x9
	mov	x9, #64                         ; =0x40
	subs	x12, x10, #64
	subs	x13, x9, x10
	lsr	x9, x8, x10
	lsl	x13, x11, x13
	orr	x9, x9, x13
	asr	x11, x11, x12
	subs	x12, x10, #64
	csel	x9, x9, x11, lo
	subs	x10, x10, #0
	csel	x8, x8, x9, eq
	str	x8, [sp, #8]
	ldr	x8, [sp, #24]
	ldr	x9, [sp, #8]
	ldr	x10, [sp, #16]
	ldr	x10, [x10]
	mul	x9, x9, x10
	subs	x8, x8, x9
	str	x8, [sp]
	ldr	x8, [sp]
	ldr	x9, [sp, #16]
	ldr	x9, [x9, #8]
	subs	x8, x8, x9
	b.le	LBB178_2
	b	LBB178_1
LBB178_1:
	ldr	x8, [sp, #16]
	ldr	x9, [x8]
	ldr	x8, [sp]
	subs	x8, x8, x9
	str	x8, [sp]
	b	LBB178_5
LBB178_2:
	ldr	x8, [sp]
	ldr	x9, [sp, #16]
	ldr	x10, [x9, #8]
	mov	x9, #0                          ; =0x0
	subs	x9, x9, x10
	subs	x8, x8, x9
	b.gt	LBB178_4
	b	LBB178_3
LBB178_3:
	ldr	x8, [sp, #16]
	ldr	x9, [x8]
	ldr	x8, [sp]
	add	x8, x8, x9
	str	x8, [sp]
	b	LBB178_4
LBB178_4:
	b	LBB178_5
LBB178_5:
	ldr	x0, [sp]
	add	sp, sp, #32
	ret
	.cfi_endproc
                                        ; -- End function
	.p2align	2                               ; -- Begin function _ZZ4mainENK3$_3clEx
__ZZ4mainENK3$_3clEx:                   ; @"_ZZ4mainENK3$_3clEx"
	.cfi_startproc
; %bb.0:
	sub	sp, sp, #64
	stp	x29, x30, [sp, #48]             ; 16-byte Folded Spill
	add	x29, sp, #48
	.cfi_def_cfa w29, 16
	.cfi_offset w30, -8
	.cfi_offset w29, -16
	stur	x0, [x29, #-8]
	stur	x1, [x29, #-16]
	ldur	x8, [x29, #-8]
	str	x8, [sp, #8]                    ; 8-byte Folded Spill
	ldr	x9, [x8]
	ldr	w9, [x9]
	stur	w9, [x29, #-20]
	ldr	x8, [x8, #8]
	ldr	w8, [x8]
	str	w8, [sp, #24]
	str	xzr, [sp, #16]
	b	LBB179_1
LBB179_1:                               ; =>This Inner Loop Header: Depth=1
	ldr	x8, [sp, #16]
	ldur	x9, [x29, #-16]
	subs	x8, x8, x9
	b.ge	LBB179_4
	b	LBB179_2
LBB179_2:                               ;   in Loop: Header=BB179_1 Depth=1
	ldr	x8, [sp, #8]                    ; 8-byte Folded Reload
	ldur	w9, [x29, #-20]
	ldr	w10, [sp, #24]
	add	w0, w9, w10
	ldr	x1, [x8, #16]
	bl	__Z21Barret_reist_reduce32iRK16BarretReistCtx32
	stur	w0, [x29, #-20]
	b	LBB179_3
LBB179_3:                               ;   in Loop: Header=BB179_1 Depth=1
	ldr	x8, [sp, #16]
	add	x8, x8, #1
	str	x8, [sp, #16]
	b	LBB179_1
LBB179_4:
	ldr	x9, [sp, #8]                    ; 8-byte Folded Reload
	ldursw	x8, [x29, #-20]
	ldr	x9, [x9, #24]
	str	x8, [x9]
	ldp	x29, x30, [sp, #48]             ; 16-byte Folded Reload
	add	sp, sp, #64
	ret
	.cfi_endproc
                                        ; -- End function
	.globl	__Z21Barret_reist_reduce32iRK16BarretReistCtx32 ; -- Begin function _Z21Barret_reist_reduce32iRK16BarretReistCtx32
	.weak_definition	__Z21Barret_reist_reduce32iRK16BarretReistCtx32
	.p2align	2
__Z21Barret_reist_reduce32iRK16BarretReistCtx32: ; @_Z21Barret_reist_reduce32iRK16BarretReistCtx32
	.cfi_startproc
; %bb.0:
	sub	sp, sp, #32
	.cfi_def_cfa_offset 32
	str	w0, [sp, #28]
	str	x1, [sp, #16]
	ldrsw	x8, [sp, #28]
	ldr	x9, [sp, #16]
	ldr	w9, [x9, #8]
                                        ; kill: def $x9 killed $w9
	mul	x8, x8, x9
	ldr	x9, [sp, #16]
	ldr	w9, [x9, #12]
                                        ; kill: def $x9 killed $w9
	asr	x8, x8, x9
                                        ; kill: def $w8 killed $w8 killed $x8
	str	w8, [sp, #12]
	ldr	w8, [sp, #28]
	ldr	w9, [sp, #12]
	ldr	x10, [sp, #16]
	ldr	w10, [x10]
	mul	w9, w9, w10
	subs	w8, w8, w9
	str	w8, [sp, #8]
	ldr	w8, [sp, #8]
	ldr	x9, [sp, #16]
	ldr	w9, [x9, #4]
	subs	w8, w8, w9
	b.le	LBB180_2
	b	LBB180_1
LBB180_1:
	ldr	x8, [sp, #16]
	ldr	w9, [x8]
	ldr	w8, [sp, #8]
	subs	w8, w8, w9
	str	w8, [sp, #8]
	b	LBB180_5
LBB180_2:
	ldr	w8, [sp, #8]
	ldr	x9, [sp, #16]
	ldr	w10, [x9, #4]
	mov	w9, #0                          ; =0x0
	subs	w9, w9, w10
	subs	w8, w8, w9
	b.gt	LBB180_4
	b	LBB180_3
LBB180_3:
	ldr	x8, [sp, #16]
	ldr	w9, [x8]
	ldr	w8, [sp, #8]
	add	w8, w8, w9
	str	w8, [sp, #8]
	b	LBB180_4
LBB180_4:
	b	LBB180_5
LBB180_5:
	ldr	w0, [sp, #8]
	add	sp, sp, #32
	ret
	.cfi_endproc
                                        ; -- End function
	.section	__TEXT,__const
	.p2align	3, 0x0                          ; @constinit
l_constinit:
	.quad	257                             ; 0x101
	.quad	65537                           ; 0x10001
	.quad	1000003                         ; 0xf4243
	.quad	10000019                        ; 0x989693
	.quad	1000000007                      ; 0x3b9aca07

	.section	__TEXT,__cstring,cstring_literals
l_.str:                                 ; @.str
	.asciz	"=============================================\n"

l_.str.1:                               ; @.str.1
	.asciz	"Barret-REIST v2 Benchmark (Division-Free)\n"

l_.str.2:                               ; @.str.2
	.asciz	"Iterations per modulus: "

l_.str.3:                               ; @.str.3
	.asciz	"\n\n"

l_.str.4:                               ; @.str.4
	.asciz	"---------------------------------------------\n"

l_.str.5:                               ; @.str.5
	.asciz	"Modulus = "

l_.str.6:                               ; @.str.6
	.asciz	"\n"

l_.str.7:                               ; @.str.7
	.asciz	"Classic modulo           : "

l_.str.8:                               ; @.str.8
	.asciz	" s\n"

l_.str.9:                               ; @.str.9
	.asciz	"REIST v1 scalar          : "

l_.str.10:                              ; @.str.10
	.asciz	"Barret-REIST v2 scalar     : "

l_.str.11:                              ; @.str.11
	.asciz	"Barret-REIST v2 int32      : "

l_.str.12:                              ; @.str.12
	.asciz	"Speedups:\n"

l_.str.13:                              ; @.str.13
	.asciz	"  REIST v1 scalar vs Classic        : "

l_.str.14:                              ; @.str.14
	.asciz	"x\n"

l_.str.15:                              ; @.str.15
	.asciz	"  Barret-REIST scalar vs Classic      : "

l_.str.16:                              ; @.str.16
	.asciz	"  Barret-REIST int32 vs scalar        : "

l_.str.17:                              ; @.str.17
	.asciz	"\nSink: "

l_.str.18:                              ; @.str.18
	.asciz	"vector"

.subsections_via_symbols
