	.section	__TEXT,__text,regular,pure_instructions
	.build_version macos, 26, 0	sdk_version 26, 2
	.globl	_main                           ; -- Begin function main
	.p2align	2
_main:                                  ; @main
Lfunc_begin0:
	.cfi_startproc
	.cfi_personality 155, ___gxx_personality_v0
	.cfi_lsda 16, Lexception0
; %bb.0:
	stp	x28, x27, [sp, #-32]!           ; 16-byte Folded Spill
	stp	x29, x30, [sp, #16]             ; 16-byte Folded Spill
	add	x29, sp, #16
	mov	w9, #5200                       ; =0x1450
Lloh0:
	adrp	x16, ___chkstk_darwin@GOTPAGE
Lloh1:
	ldr	x16, [x16, ___chkstk_darwin@GOTPAGEOFF]
	blr	x16
	sub	sp, sp, #1, lsl #12             ; =4096
	sub	sp, sp, #1104
	.cfi_def_cfa w29, 16
	.cfi_offset w30, -8
	.cfi_offset w29, -16
	.cfi_offset w27, -24
	.cfi_offset w28, -32
	adrp	x8, ___stack_chk_guard@GOTPAGE
	ldr	x8, [x8, ___stack_chk_guard@GOTPAGEOFF]
	ldr	x8, [x8]
	stur	x8, [x29, #-24]
	str	wzr, [sp, #3636]
	str	w0, [sp, #3632]
	str	x1, [sp, #3624]
	mov	w8, #1024                       ; =0x400
	str	w8, [sp, #3620]
	ldr	w8, [sp, #3632]
	subs	w8, w8, #2
	b.lt	LBB0_5
	b	LBB0_1
LBB0_1:
	ldr	x8, [sp, #3624]
	ldr	x1, [x8, #8]
Ltmp0:
	add	x0, sp, #3592
	bl	__ZNSt3__112basic_stringIcNS_11char_traitsIcEENS_9allocatorIcEEEC1B8ne200100ILi0EEEPKc
Ltmp1:
	b	LBB0_2
LBB0_2:
Ltmp2:
	add	x0, sp, #3592
	mov	x1, #0                          ; =0x0
	mov	w2, #10                         ; =0xa
	bl	__ZNSt3__14stoiERKNS_12basic_stringIcNS_11char_traitsIcEENS_9allocatorIcEEEEPmi
	str	w0, [sp, #468]                  ; 4-byte Folded Spill
Ltmp3:
	b	LBB0_3
LBB0_3:
	ldr	w8, [sp, #468]                  ; 4-byte Folded Reload
	str	w8, [sp, #3620]
	add	x0, sp, #3592
	bl	__ZNSt3__112basic_stringIcNS_11char_traitsIcEENS_9allocatorIcEEED1Ev
	b	LBB0_5
LBB0_4:
Ltmp4:
	str	x0, [sp, #3584]
	mov	x8, x1
	str	w8, [sp, #3580]
	add	x0, sp, #3592
	bl	__ZNSt3__112basic_stringIcNS_11char_traitsIcEENS_9allocatorIcEEED1Ev
	b	LBB0_126
LBB0_5:
	sub	x8, x29, #40
	mov	w9, #16963                      ; =0x4243
	movk	w9, #15, lsl #16
	stur	w9, [x29, #-40]
	mov	w9, #38547                      ; =0x9693
	movk	w9, #152, lsl #16
	stur	w9, [x29, #-36]
	mov	w9, #57607                      ; =0xe107
	movk	w9, #1525, lsl #16
	stur	w9, [x29, #-32]
	mov	w9, #51719                      ; =0xca07
	movk	w9, #15258, lsl #16
	stur	w9, [x29, #-28]
	str	x8, [sp, #3536]
	mov	x8, #4                          ; =0x4
	str	x8, [sp, #3544]
	ldr	x1, [sp, #3536]
	ldr	x2, [sp, #3544]
Ltmp5:
	add	x0, sp, #3552
	bl	__ZNSt3__16vectorIjNS_9allocatorIjEEEC1B8ne200100ESt16initializer_listIjE
Ltmp6:
	b	LBB0_6
LBB0_6:
Ltmp8:
	add	x0, sp, #1032
	mov	w1, #12345                      ; =0x3039
	bl	__ZNSt3__123mersenne_twister_engineIjLm32ELm624ELm397ELm31ELj2567483615ELm11ELj4294967295ELm7ELj2636928640ELm15ELj4022730752ELm18ELj1812433253EEC1B8ne200100Ej
Ltmp9:
	b	LBB0_7
LBB0_7:
	add	x0, sp, #1008
	bl	__ZNSt3__112basic_stringIcNS_11char_traitsIcEENS_9allocatorIcEEEC1B8ne200100Ev
	add	x0, sp, #984
	bl	__ZNSt3__112basic_stringIcNS_11char_traitsIcEENS_9allocatorIcEEEC1B8ne200100Ev
	add	x0, sp, #960
	bl	__ZNSt3__112basic_stringIcNS_11char_traitsIcEENS_9allocatorIcEEEC1B8ne200100Ev
	add	x0, sp, #936
	bl	__ZNSt3__112basic_stringIcNS_11char_traitsIcEENS_9allocatorIcEEEC1B8ne200100Ev
	add	x0, sp, #912
	bl	__ZNSt3__112basic_stringIcNS_11char_traitsIcEENS_9allocatorIcEEEC1B8ne200100Ev
Ltmp11:
	add	x0, sp, #1, lsl #12             ; =4096
	add	x0, x0, #504
	adrp	x1, l_.str@PAGE
	add	x1, x1, l_.str@PAGEOFF
	mov	w2, #8                          ; =0x8
	bl	__ZNSt3__114basic_ifstreamIcNS_11char_traitsIcEEEC1EPKcj
Ltmp12:
	b	LBB0_8
LBB0_8:
	add	x0, sp, #888
	bl	__ZNSt3__112basic_stringIcNS_11char_traitsIcEENS_9allocatorIcEEEC1B8ne200100Ev
	b	LBB0_9
LBB0_9:                                 ; =>This Inner Loop Header: Depth=1
Ltmp13:
	add	x0, sp, #1, lsl #12             ; =4096
	add	x0, x0, #504
	add	x1, sp, #888
	bl	__ZNSt3__17getlineB8ne200100IcNS_11char_traitsIcEENS_9allocatorIcEEEERNS_13basic_istreamIT_T0_EES9_RNS_12basic_stringIS6_S7_T1_EE
	str	x0, [sp, #456]                  ; 8-byte Folded Spill
Ltmp14:
	b	LBB0_10
LBB0_10:                                ;   in Loop: Header=BB0_9 Depth=1
	ldr	x8, [sp, #456]                  ; 8-byte Folded Reload
	ldr	x9, [x8]
	ldur	x9, [x9, #-24]
	add	x0, x8, x9
Ltmp15:
	bl	__ZNKSt3__19basic_iosIcNS_11char_traitsIcEEEcvbB8ne200100Ev
	str	w0, [sp, #452]                  ; 4-byte Folded Spill
Ltmp16:
	b	LBB0_11
LBB0_11:                                ;   in Loop: Header=BB0_9 Depth=1
	ldr	w8, [sp, #452]                  ; 4-byte Folded Reload
	tbz	w8, #0, LBB0_22
	b	LBB0_12
LBB0_12:                                ;   in Loop: Header=BB0_9 Depth=1
	add	x0, sp, #888
	adrp	x1, l_.str.1@PAGE
	add	x1, x1, l_.str.1@PAGEOFF
	mov	x2, #0                          ; =0x0
	bl	__ZNKSt3__112basic_stringIcNS_11char_traitsIcEENS_9allocatorIcEEE4findB8ne200100EPKcm
	adds	x8, x0, #1
	b.eq	LBB0_18
	b	LBB0_13
LBB0_13:                                ;   in Loop: Header=BB0_9 Depth=1
	add	x0, sp, #888
	str	x0, [sp, #440]                  ; 8-byte Folded Spill
	adrp	x1, l_.str.2@PAGE
	add	x1, x1, l_.str.2@PAGEOFF
	mov	x2, #0                          ; =0x0
	bl	__ZNKSt3__112basic_stringIcNS_11char_traitsIcEENS_9allocatorIcEEE4findB8ne200100EPKcm
	mov	x8, x0
	ldr	x0, [sp, #440]                  ; 8-byte Folded Reload
	add	x1, x8, #2
Ltmp166:
	add	x8, sp, #864
	mov	x2, #-1                         ; =0xffffffffffffffff
	bl	__ZNKSt3__112basic_stringIcNS_11char_traitsIcEENS_9allocatorIcEEE6substrB8ne200100Emm
Ltmp167:
	b	LBB0_14
LBB0_14:                                ;   in Loop: Header=BB0_9 Depth=1
	add	x0, sp, #1008
	add	x1, sp, #864
	str	x1, [sp, #432]                  ; 8-byte Folded Spill
	bl	__ZNSt3__112basic_stringIcNS_11char_traitsIcEENS_9allocatorIcEEEaSB8ne200100EOS5_
	ldr	x0, [sp, #432]                  ; 8-byte Folded Reload
	bl	__ZNSt3__112basic_stringIcNS_11char_traitsIcEENS_9allocatorIcEEED1Ev
	b	LBB0_18
LBB0_15:
Ltmp10:
	str	x0, [sp, #3584]
	mov	x8, x1
	str	w8, [sp, #3580]
	b	LBB0_125
LBB0_16:
Ltmp94:
	str	x0, [sp, #3584]
	mov	x8, x1
	str	w8, [sp, #3580]
	b	LBB0_124
LBB0_17:
Ltmp170:
	str	x0, [sp, #3584]
	mov	x8, x1
	str	w8, [sp, #3580]
	add	x0, sp, #888
	bl	__ZNSt3__112basic_stringIcNS_11char_traitsIcEENS_9allocatorIcEEED1Ev
	add	x0, sp, #1, lsl #12             ; =4096
	add	x0, x0, #504
	bl	__ZNSt3__114basic_ifstreamIcNS_11char_traitsIcEEED1Ev
	b	LBB0_124
LBB0_18:                                ;   in Loop: Header=BB0_9 Depth=1
	add	x0, sp, #888
	adrp	x1, l_.str.3@PAGE
	add	x1, x1, l_.str.3@PAGEOFF
	mov	x2, #0                          ; =0x0
	bl	__ZNKSt3__112basic_stringIcNS_11char_traitsIcEENS_9allocatorIcEEE4findB8ne200100EPKcm
	adds	x8, x0, #1
	b.eq	LBB0_21
	b	LBB0_19
LBB0_19:                                ;   in Loop: Header=BB0_9 Depth=1
	add	x0, sp, #888
	str	x0, [sp, #424]                  ; 8-byte Folded Spill
	adrp	x1, l_.str.2@PAGE
	add	x1, x1, l_.str.2@PAGEOFF
	mov	x2, #0                          ; =0x0
	bl	__ZNKSt3__112basic_stringIcNS_11char_traitsIcEENS_9allocatorIcEEE4findB8ne200100EPKcm
	mov	x8, x0
	ldr	x0, [sp, #424]                  ; 8-byte Folded Reload
	add	x1, x8, #2
Ltmp168:
	add	x8, sp, #840
	mov	x2, #-1                         ; =0xffffffffffffffff
	bl	__ZNKSt3__112basic_stringIcNS_11char_traitsIcEENS_9allocatorIcEEE6substrB8ne200100Emm
Ltmp169:
	b	LBB0_20
LBB0_20:                                ;   in Loop: Header=BB0_9 Depth=1
	add	x0, sp, #984
	add	x1, sp, #840
	str	x1, [sp, #416]                  ; 8-byte Folded Spill
	bl	__ZNSt3__112basic_stringIcNS_11char_traitsIcEENS_9allocatorIcEEEaSB8ne200100EOS5_
	ldr	x0, [sp, #416]                  ; 8-byte Folded Reload
	bl	__ZNSt3__112basic_stringIcNS_11char_traitsIcEENS_9allocatorIcEEED1Ev
	b	LBB0_21
LBB0_21:                                ;   in Loop: Header=BB0_9 Depth=1
	b	LBB0_9
LBB0_22:
	add	x0, sp, #888
	bl	__ZNSt3__112basic_stringIcNS_11char_traitsIcEENS_9allocatorIcEEED1Ev
	add	x0, sp, #1, lsl #12             ; =4096
	add	x0, x0, #504
	bl	__ZNSt3__114basic_ifstreamIcNS_11char_traitsIcEEED1Ev
Ltmp17:
	add	x0, sp, #4024
	adrp	x1, l_.str.4@PAGE
	add	x1, x1, l_.str.4@PAGEOFF
	mov	w2, #8                          ; =0x8
	bl	__ZNSt3__114basic_ifstreamIcNS_11char_traitsIcEEEC1EPKcj
Ltmp18:
	b	LBB0_23
LBB0_23:
	add	x0, sp, #816
	str	x0, [sp, #400]                  ; 8-byte Folded Spill
	bl	__ZNSt3__112basic_stringIcNS_11char_traitsIcEENS_9allocatorIcEEEC1B8ne200100Ev
	ldr	x1, [sp, #400]                  ; 8-byte Folded Reload
Ltmp19:
	add	x0, sp, #4024
	bl	__ZNSt3__17getlineB8ne200100IcNS_11char_traitsIcEENS_9allocatorIcEEEERNS_13basic_istreamIT_T0_EES9_RNS_12basic_stringIS6_S7_T1_EE
	str	x0, [sp, #408]                  ; 8-byte Folded Spill
Ltmp20:
	b	LBB0_24
LBB0_24:
	ldr	x8, [sp, #408]                  ; 8-byte Folded Reload
	ldr	x9, [x8]
	ldur	x9, [x9, #-24]
	add	x0, x8, x9
Ltmp21:
	bl	__ZNKSt3__19basic_iosIcNS_11char_traitsIcEEEcvbB8ne200100Ev
	str	w0, [sp, #396]                  ; 4-byte Folded Spill
Ltmp22:
	b	LBB0_25
LBB0_25:
	ldr	w8, [sp, #396]                  ; 4-byte Folded Reload
	tbz	w8, #0, LBB0_31
	b	LBB0_26
LBB0_26:
	add	x0, sp, #816
	adrp	x1, l_.str.5@PAGE
	add	x1, x1, l_.str.5@PAGEOFF
	mov	x2, #0                          ; =0x0
	bl	__ZNKSt3__112basic_stringIcNS_11char_traitsIcEENS_9allocatorIcEEE4findB8ne200100EPKcm
	adds	x8, x0, #1
	b.eq	LBB0_30
	b	LBB0_27
LBB0_27:
	add	x0, sp, #816
	str	x0, [sp, #384]                  ; 8-byte Folded Spill
	adrp	x1, l_.str.2@PAGE
	add	x1, x1, l_.str.2@PAGEOFF
	mov	x2, #0                          ; =0x0
	bl	__ZNKSt3__112basic_stringIcNS_11char_traitsIcEENS_9allocatorIcEEE4findB8ne200100EPKcm
	mov	x8, x0
	ldr	x0, [sp, #384]                  ; 8-byte Folded Reload
	add	x1, x8, #2
Ltmp23:
	add	x8, sp, #792
	mov	x2, #-1                         ; =0xffffffffffffffff
	bl	__ZNKSt3__112basic_stringIcNS_11char_traitsIcEENS_9allocatorIcEEE6substrB8ne200100Emm
Ltmp24:
	b	LBB0_28
LBB0_28:
	add	x0, sp, #960
	add	x1, sp, #792
	str	x1, [sp, #376]                  ; 8-byte Folded Spill
	bl	__ZNSt3__112basic_stringIcNS_11char_traitsIcEENS_9allocatorIcEEEaSB8ne200100EOS5_
	ldr	x0, [sp, #376]                  ; 8-byte Folded Reload
	bl	__ZNSt3__112basic_stringIcNS_11char_traitsIcEENS_9allocatorIcEEED1Ev
	b	LBB0_30
LBB0_29:
Ltmp25:
	str	x0, [sp, #3584]
	mov	x8, x1
	str	w8, [sp, #3580]
	add	x0, sp, #816
	bl	__ZNSt3__112basic_stringIcNS_11char_traitsIcEENS_9allocatorIcEEED1Ev
	add	x0, sp, #4024
	bl	__ZNSt3__114basic_ifstreamIcNS_11char_traitsIcEEED1Ev
	b	LBB0_124
LBB0_30:
	b	LBB0_31
LBB0_31:
	add	x0, sp, #816
	bl	__ZNSt3__112basic_stringIcNS_11char_traitsIcEENS_9allocatorIcEEED1Ev
	add	x0, sp, #4024
	bl	__ZNSt3__114basic_ifstreamIcNS_11char_traitsIcEEED1Ev
Ltmp26:
	add	x0, sp, #3768
	mov	x1, #256                        ; =0x100
	bl	_gethostname
	str	w0, [sp, #372]                  ; 4-byte Folded Spill
Ltmp27:
	b	LBB0_32
LBB0_32:
	ldr	w8, [sp, #372]                  ; 4-byte Folded Reload
	cbnz	w8, LBB0_35
	b	LBB0_33
LBB0_33:
Ltmp28:
	add	x0, sp, #936
	add	x1, sp, #3768
	bl	__ZNSt3__112basic_stringIcNS_11char_traitsIcEENS_9allocatorIcEEEaSB8ne200100EPKc
Ltmp29:
	b	LBB0_34
LBB0_34:
	b	LBB0_35
LBB0_35:
Ltmp30:
	adrp	x0, l_.str.6@PAGE
	add	x0, x0, l_.str.6@PAGEOFF
	adrp	x1, l_.str.7@PAGE
	add	x1, x1, l_.str.7@PAGEOFF
	bl	_popen
	str	x0, [sp, #360]                  ; 8-byte Folded Spill
Ltmp31:
	b	LBB0_36
LBB0_36:
	ldr	x8, [sp, #360]                  ; 8-byte Folded Reload
	str	x8, [sp, #784]
	ldr	x8, [sp, #784]
	cbz	x8, LBB0_47
	b	LBB0_37
LBB0_37:
	ldr	x2, [sp, #784]
Ltmp32:
	add	x0, sp, #3640
	mov	w1, #128                        ; =0x80
	bl	_fgets
	str	x0, [sp, #352]                  ; 8-byte Folded Spill
Ltmp33:
	b	LBB0_38
LBB0_38:
	ldr	x8, [sp, #352]                  ; 8-byte Folded Reload
	cbz	x8, LBB0_45
	b	LBB0_39
LBB0_39:
Ltmp34:
	add	x0, sp, #760
	add	x1, sp, #3640
	bl	__ZNSt3__112basic_stringIcNS_11char_traitsIcEENS_9allocatorIcEEEC1B8ne200100ILi0EEEPKc
Ltmp35:
	b	LBB0_40
LBB0_40:
	add	x0, sp, #912
	str	x0, [sp, #344]                  ; 8-byte Folded Spill
	add	x1, sp, #760
	str	x1, [sp, #336]                  ; 8-byte Folded Spill
	bl	__ZNSt3__112basic_stringIcNS_11char_traitsIcEENS_9allocatorIcEEEaSB8ne200100EOS5_
	ldr	x0, [sp, #336]                  ; 8-byte Folded Reload
	bl	__ZNSt3__112basic_stringIcNS_11char_traitsIcEENS_9allocatorIcEEED1Ev
	ldr	x0, [sp, #344]                  ; 8-byte Folded Reload
	bl	__ZNKSt3__112basic_stringIcNS_11char_traitsIcEENS_9allocatorIcEEE5emptyB8ne200100Ev
	tbnz	w0, #0, LBB0_44
	b	LBB0_41
LBB0_41:
	add	x0, sp, #912
	bl	__ZNSt3__112basic_stringIcNS_11char_traitsIcEENS_9allocatorIcEEE4backB8ne200100Ev
	ldrsb	w8, [x0]
	subs	w8, w8, #10
	b.ne	LBB0_44
	b	LBB0_42
LBB0_42:
Ltmp36:
	add	x0, sp, #912
	bl	__ZNSt3__112basic_stringIcNS_11char_traitsIcEENS_9allocatorIcEEE8pop_backB8ne200100Ev
Ltmp37:
	b	LBB0_43
LBB0_43:
	b	LBB0_44
LBB0_44:
	b	LBB0_45
LBB0_45:
	ldr	x0, [sp, #784]
Ltmp38:
	bl	_pclose
Ltmp39:
	b	LBB0_46
LBB0_46:
	b	LBB0_47
LBB0_47:
Ltmp40:
	adrp	x0, __ZNSt3__14coutE@GOTPAGE
	ldr	x0, [x0, __ZNSt3__14coutE@GOTPAGEOFF]
	adrp	x1, __ZNSt3__15fixedB8ne200100ERNS_8ios_baseE@PAGE
	add	x1, x1, __ZNSt3__15fixedB8ne200100ERNS_8ios_baseE@PAGEOFF
	bl	__ZNSt3__113basic_ostreamIcNS_11char_traitsIcEEElsB8ne200100EPFRNS_8ios_baseES5_E
	str	x0, [sp, #328]                  ; 8-byte Folded Spill
Ltmp41:
	b	LBB0_48
LBB0_48:
Ltmp42:
	mov	w0, #6                          ; =0x6
	bl	__ZNSt3__112setprecisionB8ne200100Ei
	str	w0, [sp, #324]                  ; 4-byte Folded Spill
Ltmp43:
	b	LBB0_49
LBB0_49:
	ldr	x0, [sp, #328]                  ; 8-byte Folded Reload
	ldr	w8, [sp, #324]                  ; 4-byte Folded Reload
	add	x1, sp, #756
	str	w8, [sp, #756]
Ltmp44:
	bl	__ZNSt3__1lsB8ne200100IcNS_11char_traitsIcEEEERNS_13basic_ostreamIT_T0_EES7_RKNS_8__iom_t5E
Ltmp45:
	b	LBB0_50
LBB0_50:
Ltmp46:
	adrp	x0, __ZNSt3__14coutE@GOTPAGE
	ldr	x0, [x0, __ZNSt3__14coutE@GOTPAGEOFF]
	adrp	x1, l_.str.8@PAGE
	add	x1, x1, l_.str.8@PAGEOFF
	bl	__ZNSt3__1lsB8ne200100INS_11char_traitsIcEEEERNS_13basic_ostreamIcT_EES6_PKc
Ltmp47:
	b	LBB0_51
LBB0_51:
Ltmp48:
	adrp	x0, __ZNSt3__14coutE@GOTPAGE
	ldr	x0, [x0, __ZNSt3__14coutE@GOTPAGEOFF]
	adrp	x1, l_.str.9@PAGE
	add	x1, x1, l_.str.9@PAGEOFF
	bl	__ZNSt3__1lsB8ne200100INS_11char_traitsIcEEEERNS_13basic_ostreamIcT_EES6_PKc
Ltmp49:
	b	LBB0_52
LBB0_52:
Ltmp50:
	adrp	x0, __ZNSt3__14coutE@GOTPAGE
	ldr	x0, [x0, __ZNSt3__14coutE@GOTPAGEOFF]
	adrp	x1, l_.str.8@PAGE
	add	x1, x1, l_.str.8@PAGEOFF
	bl	__ZNSt3__1lsB8ne200100INS_11char_traitsIcEEEERNS_13basic_ostreamIcT_EES6_PKc
Ltmp51:
	b	LBB0_53
LBB0_53:
Ltmp52:
	adrp	x0, __ZNSt3__14coutE@GOTPAGE
	ldr	x0, [x0, __ZNSt3__14coutE@GOTPAGEOFF]
	adrp	x1, l_.str.10@PAGE
	add	x1, x1, l_.str.10@PAGEOFF
	bl	__ZNSt3__1lsB8ne200100INS_11char_traitsIcEEEERNS_13basic_ostreamIcT_EES6_PKc
Ltmp53:
	b	LBB0_54
LBB0_54:
Ltmp54:
	adrp	x0, __ZNSt3__14coutE@GOTPAGE
	ldr	x0, [x0, __ZNSt3__14coutE@GOTPAGEOFF]
	adrp	x1, l_.str.11@PAGE
	add	x1, x1, l_.str.11@PAGEOFF
	bl	__ZNSt3__1lsB8ne200100INS_11char_traitsIcEEEERNS_13basic_ostreamIcT_EES6_PKc
	str	x0, [sp, #312]                  ; 8-byte Folded Spill
Ltmp55:
	b	LBB0_55
LBB0_55:
Ltmp56:
	ldr	x0, [sp, #312]                  ; 8-byte Folded Reload
	add	x1, sp, #936
	bl	__ZNSt3__1lsB8ne200100IcNS_11char_traitsIcEENS_9allocatorIcEEEERNS_13basic_ostreamIT_T0_EES9_RKNS_12basic_stringIS6_S7_T1_EE
	str	x0, [sp, #304]                  ; 8-byte Folded Spill
Ltmp57:
	b	LBB0_56
LBB0_56:
Ltmp58:
	ldr	x0, [sp, #304]                  ; 8-byte Folded Reload
	adrp	x1, l_.str.12@PAGE
	add	x1, x1, l_.str.12@PAGEOFF
	bl	__ZNSt3__1lsB8ne200100INS_11char_traitsIcEEEERNS_13basic_ostreamIcT_EES6_PKc
Ltmp59:
	b	LBB0_57
LBB0_57:
Ltmp60:
	adrp	x0, __ZNSt3__14coutE@GOTPAGE
	ldr	x0, [x0, __ZNSt3__14coutE@GOTPAGEOFF]
	adrp	x1, l_.str.13@PAGE
	add	x1, x1, l_.str.13@PAGEOFF
	bl	__ZNSt3__1lsB8ne200100INS_11char_traitsIcEEEERNS_13basic_ostreamIcT_EES6_PKc
	str	x0, [sp, #296]                  ; 8-byte Folded Spill
Ltmp61:
	b	LBB0_58
LBB0_58:
Ltmp62:
	ldr	x0, [sp, #296]                  ; 8-byte Folded Reload
	add	x1, sp, #912
	bl	__ZNSt3__1lsB8ne200100IcNS_11char_traitsIcEENS_9allocatorIcEEEERNS_13basic_ostreamIT_T0_EES9_RKNS_12basic_stringIS6_S7_T1_EE
	str	x0, [sp, #288]                  ; 8-byte Folded Spill
Ltmp63:
	b	LBB0_59
LBB0_59:
Ltmp64:
	ldr	x0, [sp, #288]                  ; 8-byte Folded Reload
	adrp	x1, l_.str.12@PAGE
	add	x1, x1, l_.str.12@PAGEOFF
	bl	__ZNSt3__1lsB8ne200100INS_11char_traitsIcEEEERNS_13basic_ostreamIcT_EES6_PKc
Ltmp65:
	b	LBB0_60
LBB0_60:
Ltmp66:
	adrp	x0, __ZNSt3__14coutE@GOTPAGE
	ldr	x0, [x0, __ZNSt3__14coutE@GOTPAGEOFF]
	adrp	x1, l_.str.14@PAGE
	add	x1, x1, l_.str.14@PAGEOFF
	bl	__ZNSt3__1lsB8ne200100INS_11char_traitsIcEEEERNS_13basic_ostreamIcT_EES6_PKc
	str	x0, [sp, #280]                  ; 8-byte Folded Spill
Ltmp67:
	b	LBB0_61
LBB0_61:
Ltmp68:
	ldr	x0, [sp, #280]                  ; 8-byte Folded Reload
	add	x1, sp, #1008
	bl	__ZNSt3__1lsB8ne200100IcNS_11char_traitsIcEENS_9allocatorIcEEEERNS_13basic_ostreamIT_T0_EES9_RKNS_12basic_stringIS6_S7_T1_EE
	str	x0, [sp, #272]                  ; 8-byte Folded Spill
Ltmp69:
	b	LBB0_62
LBB0_62:
Ltmp70:
	ldr	x0, [sp, #272]                  ; 8-byte Folded Reload
	adrp	x1, l_.str.12@PAGE
	add	x1, x1, l_.str.12@PAGEOFF
	bl	__ZNSt3__1lsB8ne200100INS_11char_traitsIcEEEERNS_13basic_ostreamIcT_EES6_PKc
Ltmp71:
	b	LBB0_63
LBB0_63:
Ltmp72:
	adrp	x0, __ZNSt3__14coutE@GOTPAGE
	ldr	x0, [x0, __ZNSt3__14coutE@GOTPAGEOFF]
	adrp	x1, l_.str.15@PAGE
	add	x1, x1, l_.str.15@PAGEOFF
	bl	__ZNSt3__1lsB8ne200100INS_11char_traitsIcEEEERNS_13basic_ostreamIcT_EES6_PKc
	str	x0, [sp, #264]                  ; 8-byte Folded Spill
Ltmp73:
	b	LBB0_64
LBB0_64:
Ltmp74:
	ldr	x0, [sp, #264]                  ; 8-byte Folded Reload
	add	x1, sp, #984
	bl	__ZNSt3__1lsB8ne200100IcNS_11char_traitsIcEENS_9allocatorIcEEEERNS_13basic_ostreamIT_T0_EES9_RKNS_12basic_stringIS6_S7_T1_EE
	str	x0, [sp, #256]                  ; 8-byte Folded Spill
Ltmp75:
	b	LBB0_65
LBB0_65:
Ltmp76:
	ldr	x0, [sp, #256]                  ; 8-byte Folded Reload
	adrp	x1, l_.str.12@PAGE
	add	x1, x1, l_.str.12@PAGEOFF
	bl	__ZNSt3__1lsB8ne200100INS_11char_traitsIcEEEERNS_13basic_ostreamIcT_EES6_PKc
Ltmp77:
	b	LBB0_66
LBB0_66:
Ltmp78:
	adrp	x0, __ZNSt3__14coutE@GOTPAGE
	ldr	x0, [x0, __ZNSt3__14coutE@GOTPAGEOFF]
	adrp	x1, l_.str.16@PAGE
	add	x1, x1, l_.str.16@PAGEOFF
	bl	__ZNSt3__1lsB8ne200100INS_11char_traitsIcEEEERNS_13basic_ostreamIcT_EES6_PKc
	str	x0, [sp, #248]                  ; 8-byte Folded Spill
Ltmp79:
	b	LBB0_67
LBB0_67:
Ltmp80:
	ldr	x0, [sp, #248]                  ; 8-byte Folded Reload
	add	x1, sp, #960
	bl	__ZNSt3__1lsB8ne200100IcNS_11char_traitsIcEENS_9allocatorIcEEEERNS_13basic_ostreamIT_T0_EES9_RKNS_12basic_stringIS6_S7_T1_EE
	str	x0, [sp, #240]                  ; 8-byte Folded Spill
Ltmp81:
	b	LBB0_68
LBB0_68:
Ltmp82:
	ldr	x0, [sp, #240]                  ; 8-byte Folded Reload
	adrp	x1, l_.str.12@PAGE
	add	x1, x1, l_.str.12@PAGEOFF
	bl	__ZNSt3__1lsB8ne200100INS_11char_traitsIcEEEERNS_13basic_ostreamIcT_EES6_PKc
Ltmp83:
	b	LBB0_69
LBB0_69:
Ltmp84:
	adrp	x0, __ZNSt3__14coutE@GOTPAGE
	ldr	x0, [x0, __ZNSt3__14coutE@GOTPAGEOFF]
	adrp	x1, l_.str.17@PAGE
	add	x1, x1, l_.str.17@PAGEOFF
	bl	__ZNSt3__1lsB8ne200100INS_11char_traitsIcEEEERNS_13basic_ostreamIcT_EES6_PKc
Ltmp85:
	b	LBB0_70
LBB0_70:
Ltmp86:
	adrp	x0, __ZNSt3__14coutE@GOTPAGE
	ldr	x0, [x0, __ZNSt3__14coutE@GOTPAGEOFF]
	adrp	x1, l_.str.18@PAGE
	add	x1, x1, l_.str.18@PAGEOFF
	bl	__ZNSt3__1lsB8ne200100INS_11char_traitsIcEEEERNS_13basic_ostreamIcT_EES6_PKc
	str	x0, [sp, #232]                  ; 8-byte Folded Spill
Ltmp87:
	b	LBB0_71
LBB0_71:
	ldr	x0, [sp, #232]                  ; 8-byte Folded Reload
	ldr	w1, [sp, #3620]
Ltmp88:
	bl	__ZNSt3__113basic_ostreamIcNS_11char_traitsIcEEElsEi
	str	x0, [sp, #224]                  ; 8-byte Folded Spill
Ltmp89:
	b	LBB0_72
LBB0_72:
Ltmp90:
	ldr	x0, [sp, #224]                  ; 8-byte Folded Reload
	adrp	x1, l_.str.19@PAGE
	add	x1, x1, l_.str.19@PAGEOFF
	bl	__ZNSt3__1lsB8ne200100INS_11char_traitsIcEEEERNS_13basic_ostreamIcT_EES6_PKc
Ltmp91:
	b	LBB0_73
LBB0_73:
	ldrsw	x1, [sp, #3620]
Ltmp92:
	add	x0, sp, #728
	bl	__ZNSt3__16vectorIjNS_9allocatorIjEEEC1B8ne200100Em
Ltmp93:
	b	LBB0_74
LBB0_74:
	ldrsw	x1, [sp, #3620]
Ltmp95:
	add	x0, sp, #704
	bl	__ZNSt3__16vectorIjNS_9allocatorIjEEEC1B8ne200100Em
Ltmp96:
	b	LBB0_75
LBB0_75:
	ldrsw	x1, [sp, #3620]
Ltmp98:
	add	x0, sp, #680
	bl	__ZNSt3__16vectorIjNS_9allocatorIjEEEC1B8ne200100Em
Ltmp99:
	b	LBB0_76
LBB0_76:
	add	x8, sp, #3552
	str	x8, [sp, #672]
	ldr	x0, [sp, #672]
	bl	__ZNSt3__16vectorIjNS_9allocatorIjEEE5beginB8ne200100Ev
	str	x0, [sp, #664]
	ldr	x0, [sp, #672]
	bl	__ZNSt3__16vectorIjNS_9allocatorIjEEE3endB8ne200100Ev
	str	x0, [sp, #656]
	b	LBB0_77
LBB0_77:                                ; =>This Loop Header: Depth=1
                                        ;     Child Loop BB0_79 Depth 2
	add	x0, sp, #664
	add	x1, sp, #656
	bl	__ZNSt3__1neB8ne200100IPjEEbRKNS_11__wrap_iterIT_EES6_
	tbz	w0, #0, LBB0_119
	b	LBB0_78
LBB0_78:                                ;   in Loop: Header=BB0_77 Depth=1
	add	x0, sp, #664
	bl	__ZNKSt3__111__wrap_iterIPjEdeB8ne200100Ev
	ldr	w8, [x0]
	str	w8, [sp, #652]
	str	wzr, [sp, #648]
	b	LBB0_79
LBB0_79:                                ;   Parent Loop BB0_77 Depth=1
                                        ; =>  This Inner Loop Header: Depth=2
	ldr	w8, [sp, #648]
	ldr	w9, [sp, #3620]
	subs	w8, w8, w9
	b.ge	LBB0_87
	b	LBB0_80
LBB0_80:                                ;   in Loop: Header=BB0_79 Depth=2
Ltmp161:
	add	x0, sp, #1032
	bl	__ZNSt3__123mersenne_twister_engineIjLm32ELm624ELm397ELm31ELj2567483615ELm11ELj4294967295ELm7ELj2636928640ELm15ELj4022730752ELm18ELj1812433253EEclEv
	str	w0, [sp, #220]                  ; 4-byte Folded Spill
Ltmp162:
	b	LBB0_81
LBB0_81:                                ;   in Loop: Header=BB0_79 Depth=2
	ldr	w8, [sp, #220]                  ; 4-byte Folded Reload
	str	w8, [sp, #644]
Ltmp163:
	add	x0, sp, #1032
	bl	__ZNSt3__123mersenne_twister_engineIjLm32ELm624ELm397ELm31ELj2567483615ELm11ELj4294967295ELm7ELj2636928640ELm15ELj4022730752ELm18ELj1812433253EEclEv
	str	w0, [sp, #216]                  ; 4-byte Folded Spill
Ltmp164:
	b	LBB0_82
LBB0_82:                                ;   in Loop: Header=BB0_79 Depth=2
	ldr	w8, [sp, #216]                  ; 4-byte Folded Reload
	str	w8, [sp, #640]
	ldr	w8, [sp, #644]
	ldr	w10, [sp, #652]
	udiv	w9, w8, w10
	mul	w9, w9, w10
	subs	w8, w8, w9
	str	w8, [sp, #208]                  ; 4-byte Folded Spill
	ldrsw	x1, [sp, #648]
	add	x0, sp, #728
	bl	__ZNSt3__16vectorIjNS_9allocatorIjEEEixB8ne200100Em
	ldr	w8, [sp, #208]                  ; 4-byte Folded Reload
	str	w8, [x0]
	ldr	w8, [sp, #640]
	ldr	w10, [sp, #652]
	udiv	w9, w8, w10
	mul	w9, w9, w10
	subs	w8, w8, w9
	str	w8, [sp, #212]                  ; 4-byte Folded Spill
	ldrsw	x1, [sp, #648]
	add	x0, sp, #704
	bl	__ZNSt3__16vectorIjNS_9allocatorIjEEEixB8ne200100Em
	ldr	w8, [sp, #212]                  ; 4-byte Folded Reload
	str	w8, [x0]
	b	LBB0_83
LBB0_83:                                ;   in Loop: Header=BB0_79 Depth=2
	ldr	w8, [sp, #648]
	add	w8, w8, #1
	str	w8, [sp, #648]
	b	LBB0_79
LBB0_84:
Ltmp97:
	str	x0, [sp, #3584]
	mov	x8, x1
	str	w8, [sp, #3580]
	b	LBB0_123
LBB0_85:
Ltmp100:
	str	x0, [sp, #3584]
	mov	x8, x1
	str	w8, [sp, #3580]
	b	LBB0_122
LBB0_86:
Ltmp165:
	str	x0, [sp, #3584]
	mov	x8, x1
	str	w8, [sp, #3580]
	add	x0, sp, #680
	bl	__ZNSt3__16vectorIjNS_9allocatorIjEEED1B8ne200100Ev
	b	LBB0_122
LBB0_87:                                ;   in Loop: Header=BB0_77 Depth=1
	add	x1, sp, #632
	str	xzr, [sp, #632]
	str	xzr, [sp, #624]
	str	xzr, [sp, #616]
	add	x0, sp, #576
	add	x8, sp, #728
	str	x8, [sp, #576]
	add	x8, sp, #704
	str	x8, [sp, #584]
	add	x8, sp, #680
	str	x8, [sp, #592]
	add	x8, sp, #652
	str	x8, [sp, #600]
Ltmp101:
	mov	x8, #5243                       ; =0x147b
	movk	x8, #18350, lsl #16
	movk	x8, #31457, lsl #32
	movk	x8, #16276, lsl #48
	fmov	d0, x8
	bl	__Z14adaptive_benchIZ4mainE3$_0EdT_Ryd
	str	d0, [sp, #200]                  ; 8-byte Folded Spill
Ltmp102:
	b	LBB0_88
LBB0_88:                                ;   in Loop: Header=BB0_77 Depth=1
	ldr	d0, [sp, #200]                  ; 8-byte Folded Reload
	str	d0, [sp, #608]
	add	x0, sp, #536
	add	x8, sp, #728
	str	x8, [sp, #536]
	add	x8, sp, #704
	str	x8, [sp, #544]
	add	x8, sp, #680
	str	x8, [sp, #552]
	add	x8, sp, #652
	str	x8, [sp, #560]
Ltmp103:
	add	x1, sp, #624
	mov	x8, #5243                       ; =0x147b
	movk	x8, #18350, lsl #16
	movk	x8, #31457, lsl #32
	movk	x8, #16276, lsl #48
	fmov	d0, x8
	bl	__Z14adaptive_benchIZ4mainE3$_1EdT_Ryd
	str	d0, [sp, #192]                  ; 8-byte Folded Spill
Ltmp104:
	b	LBB0_89
LBB0_89:                                ;   in Loop: Header=BB0_77 Depth=1
	ldr	d0, [sp, #192]                  ; 8-byte Folded Reload
	str	d0, [sp, #568]
	add	x0, sp, #496
	add	x8, sp, #728
	str	x8, [sp, #496]
	add	x8, sp, #704
	str	x8, [sp, #504]
	add	x8, sp, #680
	str	x8, [sp, #512]
	add	x8, sp, #652
	str	x8, [sp, #520]
Ltmp105:
	add	x1, sp, #616
	mov	x8, #5243                       ; =0x147b
	movk	x8, #18350, lsl #16
	movk	x8, #31457, lsl #32
	movk	x8, #16276, lsl #48
	fmov	d0, x8
	bl	__Z14adaptive_benchIZ4mainE3$_2EdT_Ryd
	str	d0, [sp, #184]                  ; 8-byte Folded Spill
Ltmp106:
	b	LBB0_90
LBB0_90:                                ;   in Loop: Header=BB0_77 Depth=1
	ldr	d0, [sp, #184]                  ; 8-byte Folded Reload
	str	d0, [sp, #528]
	ldr	d0, [sp, #608]
	ldr	d1, [sp, #568]
	fdiv	d0, d0, d1
	str	d0, [sp, #488]
	ldr	d0, [sp, #608]
	ldr	d1, [sp, #528]
	fdiv	d0, d0, d1
	str	d0, [sp, #480]
	ldr	d0, [sp, #568]
	ldr	d1, [sp, #528]
	fdiv	d0, d0, d1
	str	d0, [sp, #472]
Ltmp107:
	adrp	x0, __ZNSt3__14coutE@GOTPAGE
	ldr	x0, [x0, __ZNSt3__14coutE@GOTPAGEOFF]
	adrp	x1, l_.str.20@PAGE
	add	x1, x1, l_.str.20@PAGEOFF
	bl	__ZNSt3__1lsB8ne200100INS_11char_traitsIcEEEERNS_13basic_ostreamIcT_EES6_PKc
	str	x0, [sp, #176]                  ; 8-byte Folded Spill
Ltmp108:
	b	LBB0_91
LBB0_91:                                ;   in Loop: Header=BB0_77 Depth=1
	ldr	x0, [sp, #176]                  ; 8-byte Folded Reload
	ldr	w1, [sp, #652]
Ltmp109:
	bl	__ZNSt3__113basic_ostreamIcNS_11char_traitsIcEEElsEj
	str	x0, [sp, #168]                  ; 8-byte Folded Spill
Ltmp110:
	b	LBB0_92
LBB0_92:                                ;   in Loop: Header=BB0_77 Depth=1
Ltmp111:
	ldr	x0, [sp, #168]                  ; 8-byte Folded Reload
	adrp	x1, l_.str.12@PAGE
	add	x1, x1, l_.str.12@PAGEOFF
	bl	__ZNSt3__1lsB8ne200100INS_11char_traitsIcEEEERNS_13basic_ostreamIcT_EES6_PKc
Ltmp112:
	b	LBB0_93
LBB0_93:                                ;   in Loop: Header=BB0_77 Depth=1
Ltmp113:
	adrp	x0, __ZNSt3__14coutE@GOTPAGE
	ldr	x0, [x0, __ZNSt3__14coutE@GOTPAGEOFF]
	adrp	x1, l_.str.21@PAGE
	add	x1, x1, l_.str.21@PAGEOFF
	bl	__ZNSt3__1lsB8ne200100INS_11char_traitsIcEEEERNS_13basic_ostreamIcT_EES6_PKc
	str	x0, [sp, #160]                  ; 8-byte Folded Spill
Ltmp114:
	b	LBB0_94
LBB0_94:                                ;   in Loop: Header=BB0_77 Depth=1
	ldr	x0, [sp, #160]                  ; 8-byte Folded Reload
	ldr	d0, [sp, #608]
Ltmp115:
	bl	__ZNSt3__113basic_ostreamIcNS_11char_traitsIcEEElsEd
	str	x0, [sp, #152]                  ; 8-byte Folded Spill
Ltmp116:
	b	LBB0_95
LBB0_95:                                ;   in Loop: Header=BB0_77 Depth=1
Ltmp117:
	ldr	x0, [sp, #152]                  ; 8-byte Folded Reload
	adrp	x1, l_.str.22@PAGE
	add	x1, x1, l_.str.22@PAGEOFF
	bl	__ZNSt3__1lsB8ne200100INS_11char_traitsIcEEEERNS_13basic_ostreamIcT_EES6_PKc
	str	x0, [sp, #144]                  ; 8-byte Folded Spill
Ltmp118:
	b	LBB0_96
LBB0_96:                                ;   in Loop: Header=BB0_77 Depth=1
	ldr	x0, [sp, #144]                  ; 8-byte Folded Reload
	ldr	x1, [sp, #632]
Ltmp119:
	bl	__ZNSt3__113basic_ostreamIcNS_11char_traitsIcEEElsEy
	str	x0, [sp, #136]                  ; 8-byte Folded Spill
Ltmp120:
	b	LBB0_97
LBB0_97:                                ;   in Loop: Header=BB0_77 Depth=1
Ltmp121:
	ldr	x0, [sp, #136]                  ; 8-byte Folded Reload
	adrp	x1, l_.str.23@PAGE
	add	x1, x1, l_.str.23@PAGEOFF
	bl	__ZNSt3__1lsB8ne200100INS_11char_traitsIcEEEERNS_13basic_ostreamIcT_EES6_PKc
Ltmp122:
	b	LBB0_98
LBB0_98:                                ;   in Loop: Header=BB0_77 Depth=1
Ltmp123:
	adrp	x0, __ZNSt3__14coutE@GOTPAGE
	ldr	x0, [x0, __ZNSt3__14coutE@GOTPAGEOFF]
	adrp	x1, l_.str.24@PAGE
	add	x1, x1, l_.str.24@PAGEOFF
	bl	__ZNSt3__1lsB8ne200100INS_11char_traitsIcEEEERNS_13basic_ostreamIcT_EES6_PKc
	str	x0, [sp, #128]                  ; 8-byte Folded Spill
Ltmp124:
	b	LBB0_99
LBB0_99:                                ;   in Loop: Header=BB0_77 Depth=1
	ldr	x0, [sp, #128]                  ; 8-byte Folded Reload
	ldr	d0, [sp, #568]
Ltmp125:
	bl	__ZNSt3__113basic_ostreamIcNS_11char_traitsIcEEElsEd
	str	x0, [sp, #120]                  ; 8-byte Folded Spill
Ltmp126:
	b	LBB0_100
LBB0_100:                               ;   in Loop: Header=BB0_77 Depth=1
Ltmp127:
	ldr	x0, [sp, #120]                  ; 8-byte Folded Reload
	adrp	x1, l_.str.22@PAGE
	add	x1, x1, l_.str.22@PAGEOFF
	bl	__ZNSt3__1lsB8ne200100INS_11char_traitsIcEEEERNS_13basic_ostreamIcT_EES6_PKc
	str	x0, [sp, #112]                  ; 8-byte Folded Spill
Ltmp128:
	b	LBB0_101
LBB0_101:                               ;   in Loop: Header=BB0_77 Depth=1
	ldr	x0, [sp, #112]                  ; 8-byte Folded Reload
	ldr	x1, [sp, #624]
Ltmp129:
	bl	__ZNSt3__113basic_ostreamIcNS_11char_traitsIcEEElsEy
	str	x0, [sp, #104]                  ; 8-byte Folded Spill
Ltmp130:
	b	LBB0_102
LBB0_102:                               ;   in Loop: Header=BB0_77 Depth=1
Ltmp131:
	ldr	x0, [sp, #104]                  ; 8-byte Folded Reload
	adrp	x1, l_.str.23@PAGE
	add	x1, x1, l_.str.23@PAGEOFF
	bl	__ZNSt3__1lsB8ne200100INS_11char_traitsIcEEEERNS_13basic_ostreamIcT_EES6_PKc
Ltmp132:
	b	LBB0_103
LBB0_103:                               ;   in Loop: Header=BB0_77 Depth=1
Ltmp133:
	adrp	x0, __ZNSt3__14coutE@GOTPAGE
	ldr	x0, [x0, __ZNSt3__14coutE@GOTPAGEOFF]
	adrp	x1, l_.str.25@PAGE
	add	x1, x1, l_.str.25@PAGEOFF
	bl	__ZNSt3__1lsB8ne200100INS_11char_traitsIcEEEERNS_13basic_ostreamIcT_EES6_PKc
	str	x0, [sp, #96]                   ; 8-byte Folded Spill
Ltmp134:
	b	LBB0_104
LBB0_104:                               ;   in Loop: Header=BB0_77 Depth=1
	ldr	x0, [sp, #96]                   ; 8-byte Folded Reload
	ldr	d0, [sp, #528]
Ltmp135:
	bl	__ZNSt3__113basic_ostreamIcNS_11char_traitsIcEEElsEd
	str	x0, [sp, #88]                   ; 8-byte Folded Spill
Ltmp136:
	b	LBB0_105
LBB0_105:                               ;   in Loop: Header=BB0_77 Depth=1
Ltmp137:
	ldr	x0, [sp, #88]                   ; 8-byte Folded Reload
	adrp	x1, l_.str.22@PAGE
	add	x1, x1, l_.str.22@PAGEOFF
	bl	__ZNSt3__1lsB8ne200100INS_11char_traitsIcEEEERNS_13basic_ostreamIcT_EES6_PKc
	str	x0, [sp, #80]                   ; 8-byte Folded Spill
Ltmp138:
	b	LBB0_106
LBB0_106:                               ;   in Loop: Header=BB0_77 Depth=1
	ldr	x0, [sp, #80]                   ; 8-byte Folded Reload
	ldr	x1, [sp, #616]
Ltmp139:
	bl	__ZNSt3__113basic_ostreamIcNS_11char_traitsIcEEElsEy
	str	x0, [sp, #72]                   ; 8-byte Folded Spill
Ltmp140:
	b	LBB0_107
LBB0_107:                               ;   in Loop: Header=BB0_77 Depth=1
Ltmp141:
	ldr	x0, [sp, #72]                   ; 8-byte Folded Reload
	adrp	x1, l_.str.23@PAGE
	add	x1, x1, l_.str.23@PAGEOFF
	bl	__ZNSt3__1lsB8ne200100INS_11char_traitsIcEEEERNS_13basic_ostreamIcT_EES6_PKc
Ltmp142:
	b	LBB0_108
LBB0_108:                               ;   in Loop: Header=BB0_77 Depth=1
Ltmp143:
	adrp	x0, __ZNSt3__14coutE@GOTPAGE
	ldr	x0, [x0, __ZNSt3__14coutE@GOTPAGEOFF]
	adrp	x1, l_.str.26@PAGE
	add	x1, x1, l_.str.26@PAGEOFF
	bl	__ZNSt3__1lsB8ne200100INS_11char_traitsIcEEEERNS_13basic_ostreamIcT_EES6_PKc
	str	x0, [sp, #64]                   ; 8-byte Folded Spill
Ltmp144:
	b	LBB0_109
LBB0_109:                               ;   in Loop: Header=BB0_77 Depth=1
	ldr	x0, [sp, #64]                   ; 8-byte Folded Reload
	ldr	d0, [sp, #488]
Ltmp145:
	bl	__ZNSt3__113basic_ostreamIcNS_11char_traitsIcEEElsEd
	str	x0, [sp, #56]                   ; 8-byte Folded Spill
Ltmp146:
	b	LBB0_110
LBB0_110:                               ;   in Loop: Header=BB0_77 Depth=1
Ltmp147:
	ldr	x0, [sp, #56]                   ; 8-byte Folded Reload
	adrp	x1, l_.str.27@PAGE
	add	x1, x1, l_.str.27@PAGEOFF
	bl	__ZNSt3__1lsB8ne200100INS_11char_traitsIcEEEERNS_13basic_ostreamIcT_EES6_PKc
Ltmp148:
	b	LBB0_111
LBB0_111:                               ;   in Loop: Header=BB0_77 Depth=1
Ltmp149:
	adrp	x0, __ZNSt3__14coutE@GOTPAGE
	ldr	x0, [x0, __ZNSt3__14coutE@GOTPAGEOFF]
	adrp	x1, l_.str.28@PAGE
	add	x1, x1, l_.str.28@PAGEOFF
	bl	__ZNSt3__1lsB8ne200100INS_11char_traitsIcEEEERNS_13basic_ostreamIcT_EES6_PKc
	str	x0, [sp, #48]                   ; 8-byte Folded Spill
Ltmp150:
	b	LBB0_112
LBB0_112:                               ;   in Loop: Header=BB0_77 Depth=1
	ldr	x0, [sp, #48]                   ; 8-byte Folded Reload
	ldr	d0, [sp, #480]
Ltmp151:
	bl	__ZNSt3__113basic_ostreamIcNS_11char_traitsIcEEElsEd
	str	x0, [sp, #40]                   ; 8-byte Folded Spill
Ltmp152:
	b	LBB0_113
LBB0_113:                               ;   in Loop: Header=BB0_77 Depth=1
Ltmp153:
	ldr	x0, [sp, #40]                   ; 8-byte Folded Reload
	adrp	x1, l_.str.27@PAGE
	add	x1, x1, l_.str.27@PAGEOFF
	bl	__ZNSt3__1lsB8ne200100INS_11char_traitsIcEEEERNS_13basic_ostreamIcT_EES6_PKc
Ltmp154:
	b	LBB0_114
LBB0_114:                               ;   in Loop: Header=BB0_77 Depth=1
Ltmp155:
	adrp	x0, __ZNSt3__14coutE@GOTPAGE
	ldr	x0, [x0, __ZNSt3__14coutE@GOTPAGEOFF]
	adrp	x1, l_.str.29@PAGE
	add	x1, x1, l_.str.29@PAGEOFF
	bl	__ZNSt3__1lsB8ne200100INS_11char_traitsIcEEEERNS_13basic_ostreamIcT_EES6_PKc
	str	x0, [sp, #32]                   ; 8-byte Folded Spill
Ltmp156:
	b	LBB0_115
LBB0_115:                               ;   in Loop: Header=BB0_77 Depth=1
	ldr	x0, [sp, #32]                   ; 8-byte Folded Reload
	ldr	d0, [sp, #472]
Ltmp157:
	bl	__ZNSt3__113basic_ostreamIcNS_11char_traitsIcEEElsEd
	str	x0, [sp, #24]                   ; 8-byte Folded Spill
Ltmp158:
	b	LBB0_116
LBB0_116:                               ;   in Loop: Header=BB0_77 Depth=1
Ltmp159:
	ldr	x0, [sp, #24]                   ; 8-byte Folded Reload
	adrp	x1, l_.str.30@PAGE
	add	x1, x1, l_.str.30@PAGEOFF
	bl	__ZNSt3__1lsB8ne200100INS_11char_traitsIcEEEERNS_13basic_ostreamIcT_EES6_PKc
Ltmp160:
	b	LBB0_117
LBB0_117:                               ;   in Loop: Header=BB0_77 Depth=1
	b	LBB0_118
LBB0_118:                               ;   in Loop: Header=BB0_77 Depth=1
	add	x0, sp, #664
	bl	__ZNSt3__111__wrap_iterIPjEppB8ne200100Ev
	b	LBB0_77
LBB0_119:
	str	wzr, [sp, #3636]
	add	x0, sp, #680
	bl	__ZNSt3__16vectorIjNS_9allocatorIjEEED1B8ne200100Ev
	add	x0, sp, #704
	bl	__ZNSt3__16vectorIjNS_9allocatorIjEEED1B8ne200100Ev
	add	x0, sp, #728
	bl	__ZNSt3__16vectorIjNS_9allocatorIjEEED1B8ne200100Ev
	add	x0, sp, #912
	bl	__ZNSt3__112basic_stringIcNS_11char_traitsIcEENS_9allocatorIcEEED1Ev
	add	x0, sp, #936
	bl	__ZNSt3__112basic_stringIcNS_11char_traitsIcEENS_9allocatorIcEEED1Ev
	add	x0, sp, #960
	bl	__ZNSt3__112basic_stringIcNS_11char_traitsIcEENS_9allocatorIcEEED1Ev
	add	x0, sp, #984
	bl	__ZNSt3__112basic_stringIcNS_11char_traitsIcEENS_9allocatorIcEEED1Ev
	add	x0, sp, #1008
	bl	__ZNSt3__112basic_stringIcNS_11char_traitsIcEENS_9allocatorIcEEED1Ev
	add	x0, sp, #3552
	bl	__ZNSt3__16vectorIjNS_9allocatorIjEEED1B8ne200100Ev
	ldr	w8, [sp, #3636]
	str	w8, [sp, #20]                   ; 4-byte Folded Spill
	ldur	x9, [x29, #-24]
	adrp	x8, ___stack_chk_guard@GOTPAGE
	ldr	x8, [x8, ___stack_chk_guard@GOTPAGEOFF]
	ldr	x8, [x8]
	subs	x8, x8, x9
	b.eq	LBB0_121
	b	LBB0_120
LBB0_120:
	bl	___stack_chk_fail
LBB0_121:
	ldr	w0, [sp, #20]                   ; 4-byte Folded Reload
	add	sp, sp, #1, lsl #12             ; =4096
	add	sp, sp, #1104
	ldp	x29, x30, [sp, #16]             ; 16-byte Folded Reload
	ldp	x28, x27, [sp], #32             ; 16-byte Folded Reload
	ret
LBB0_122:
	add	x0, sp, #704
	bl	__ZNSt3__16vectorIjNS_9allocatorIjEEED1B8ne200100Ev
	b	LBB0_123
LBB0_123:
	add	x0, sp, #728
	bl	__ZNSt3__16vectorIjNS_9allocatorIjEEED1B8ne200100Ev
	b	LBB0_124
LBB0_124:
	add	x0, sp, #912
	bl	__ZNSt3__112basic_stringIcNS_11char_traitsIcEENS_9allocatorIcEEED1Ev
	add	x0, sp, #936
	bl	__ZNSt3__112basic_stringIcNS_11char_traitsIcEENS_9allocatorIcEEED1Ev
	add	x0, sp, #960
	bl	__ZNSt3__112basic_stringIcNS_11char_traitsIcEENS_9allocatorIcEEED1Ev
	add	x0, sp, #984
	bl	__ZNSt3__112basic_stringIcNS_11char_traitsIcEENS_9allocatorIcEEED1Ev
	add	x0, sp, #1008
	bl	__ZNSt3__112basic_stringIcNS_11char_traitsIcEENS_9allocatorIcEEED1Ev
	b	LBB0_125
LBB0_125:
	add	x0, sp, #3552
	bl	__ZNSt3__16vectorIjNS_9allocatorIjEEED1B8ne200100Ev
	b	LBB0_126
LBB0_126:
	ldr	x0, [sp, #3584]
	str	x0, [sp, #8]                    ; 8-byte Folded Spill
	b	LBB0_128
LBB0_127:
Ltmp7:
	str	x0, [sp, #8]                    ; 8-byte Folded Spill
	b	LBB0_128
LBB0_128:
	ldr	x0, [sp, #8]                    ; 8-byte Folded Reload
	bl	__Unwind_Resume
	.loh AdrpLdrGot	Lloh0, Lloh1
Lfunc_end0:
	.cfi_endproc
	.section	__TEXT,__gcc_except_tab
	.p2align	2, 0x0
GCC_except_table0:
Lexception0:
	.byte	255                             ; @LPStart Encoding = omit
	.byte	255                             ; @TType Encoding = omit
	.byte	1                               ; Call site Encoding = uleb128
	.uleb128 Lcst_end0-Lcst_begin0
Lcst_begin0:
	.uleb128 Lfunc_begin0-Lfunc_begin0      ; >> Call Site 1 <<
	.uleb128 Ltmp0-Lfunc_begin0             ;   Call between Lfunc_begin0 and Ltmp0
	.byte	0                               ;     has no landing pad
	.byte	0                               ;   On action: cleanup
	.uleb128 Ltmp0-Lfunc_begin0             ; >> Call Site 2 <<
	.uleb128 Ltmp1-Ltmp0                    ;   Call between Ltmp0 and Ltmp1
	.uleb128 Ltmp7-Lfunc_begin0             ;     jumps to Ltmp7
	.byte	0                               ;   On action: cleanup
	.uleb128 Ltmp2-Lfunc_begin0             ; >> Call Site 3 <<
	.uleb128 Ltmp3-Ltmp2                    ;   Call between Ltmp2 and Ltmp3
	.uleb128 Ltmp4-Lfunc_begin0             ;     jumps to Ltmp4
	.byte	0                               ;   On action: cleanup
	.uleb128 Ltmp5-Lfunc_begin0             ; >> Call Site 4 <<
	.uleb128 Ltmp6-Ltmp5                    ;   Call between Ltmp5 and Ltmp6
	.uleb128 Ltmp7-Lfunc_begin0             ;     jumps to Ltmp7
	.byte	0                               ;   On action: cleanup
	.uleb128 Ltmp8-Lfunc_begin0             ; >> Call Site 5 <<
	.uleb128 Ltmp9-Ltmp8                    ;   Call between Ltmp8 and Ltmp9
	.uleb128 Ltmp10-Lfunc_begin0            ;     jumps to Ltmp10
	.byte	0                               ;   On action: cleanup
	.uleb128 Ltmp11-Lfunc_begin0            ; >> Call Site 6 <<
	.uleb128 Ltmp12-Ltmp11                  ;   Call between Ltmp11 and Ltmp12
	.uleb128 Ltmp94-Lfunc_begin0            ;     jumps to Ltmp94
	.byte	0                               ;   On action: cleanup
	.uleb128 Ltmp13-Lfunc_begin0            ; >> Call Site 7 <<
	.uleb128 Ltmp169-Ltmp13                 ;   Call between Ltmp13 and Ltmp169
	.uleb128 Ltmp170-Lfunc_begin0           ;     jumps to Ltmp170
	.byte	0                               ;   On action: cleanup
	.uleb128 Ltmp17-Lfunc_begin0            ; >> Call Site 8 <<
	.uleb128 Ltmp18-Ltmp17                  ;   Call between Ltmp17 and Ltmp18
	.uleb128 Ltmp94-Lfunc_begin0            ;     jumps to Ltmp94
	.byte	0                               ;   On action: cleanup
	.uleb128 Ltmp19-Lfunc_begin0            ; >> Call Site 9 <<
	.uleb128 Ltmp24-Ltmp19                  ;   Call between Ltmp19 and Ltmp24
	.uleb128 Ltmp25-Lfunc_begin0            ;     jumps to Ltmp25
	.byte	0                               ;   On action: cleanup
	.uleb128 Ltmp26-Lfunc_begin0            ; >> Call Site 10 <<
	.uleb128 Ltmp93-Ltmp26                  ;   Call between Ltmp26 and Ltmp93
	.uleb128 Ltmp94-Lfunc_begin0            ;     jumps to Ltmp94
	.byte	0                               ;   On action: cleanup
	.uleb128 Ltmp95-Lfunc_begin0            ; >> Call Site 11 <<
	.uleb128 Ltmp96-Ltmp95                  ;   Call between Ltmp95 and Ltmp96
	.uleb128 Ltmp97-Lfunc_begin0            ;     jumps to Ltmp97
	.byte	0                               ;   On action: cleanup
	.uleb128 Ltmp98-Lfunc_begin0            ; >> Call Site 12 <<
	.uleb128 Ltmp99-Ltmp98                  ;   Call between Ltmp98 and Ltmp99
	.uleb128 Ltmp100-Lfunc_begin0           ;     jumps to Ltmp100
	.byte	0                               ;   On action: cleanup
	.uleb128 Ltmp161-Lfunc_begin0           ; >> Call Site 13 <<
	.uleb128 Ltmp160-Ltmp161                ;   Call between Ltmp161 and Ltmp160
	.uleb128 Ltmp165-Lfunc_begin0           ;     jumps to Ltmp165
	.byte	0                               ;   On action: cleanup
	.uleb128 Ltmp160-Lfunc_begin0           ; >> Call Site 14 <<
	.uleb128 Lfunc_end0-Ltmp160             ;   Call between Ltmp160 and Lfunc_end0
	.byte	0                               ;     has no landing pad
	.byte	0                               ;   On action: cleanup
Lcst_end0:
	.p2align	2, 0x0
                                        ; -- End function
	.section	__TEXT,__text,regular,pure_instructions
	.globl	__ZNSt3__112basic_stringIcNS_11char_traitsIcEENS_9allocatorIcEEEC1B8ne200100ILi0EEEPKc ; -- Begin function _ZNSt3__112basic_stringIcNS_11char_traitsIcEENS_9allocatorIcEEEC1B8ne200100ILi0EEEPKc
	.weak_def_can_be_hidden	__ZNSt3__112basic_stringIcNS_11char_traitsIcEENS_9allocatorIcEEEC1B8ne200100ILi0EEEPKc
	.p2align	2
__ZNSt3__112basic_stringIcNS_11char_traitsIcEENS_9allocatorIcEEEC1B8ne200100ILi0EEEPKc: ; @_ZNSt3__112basic_stringIcNS_11char_traitsIcEENS_9allocatorIcEEEC1B8ne200100ILi0EEEPKc
	.cfi_startproc
; %bb.0:
	sub	sp, sp, #48
	stp	x29, x30, [sp, #32]             ; 16-byte Folded Spill
	add	x29, sp, #32
	.cfi_def_cfa w29, 16
	.cfi_offset w30, -8
	.cfi_offset w29, -16
	stur	x0, [x29, #-8]
	str	x1, [sp, #16]
	ldur	x0, [x29, #-8]
	str	x0, [sp, #8]                    ; 8-byte Folded Spill
	ldr	x1, [sp, #16]
	bl	__ZNSt3__112basic_stringIcNS_11char_traitsIcEENS_9allocatorIcEEEC2B8ne200100ILi0EEEPKc
	ldr	x0, [sp, #8]                    ; 8-byte Folded Reload
	ldp	x29, x30, [sp, #32]             ; 16-byte Folded Reload
	add	sp, sp, #48
	ret
	.cfi_endproc
                                        ; -- End function
	.private_extern	__ZNSt3__16vectorIjNS_9allocatorIjEEEC1B8ne200100ESt16initializer_listIjE ; -- Begin function _ZNSt3__16vectorIjNS_9allocatorIjEEEC1B8ne200100ESt16initializer_listIjE
	.globl	__ZNSt3__16vectorIjNS_9allocatorIjEEEC1B8ne200100ESt16initializer_listIjE
	.weak_def_can_be_hidden	__ZNSt3__16vectorIjNS_9allocatorIjEEEC1B8ne200100ESt16initializer_listIjE
	.p2align	2
__ZNSt3__16vectorIjNS_9allocatorIjEEEC1B8ne200100ESt16initializer_listIjE: ; @_ZNSt3__16vectorIjNS_9allocatorIjEEEC1B8ne200100ESt16initializer_listIjE
	.cfi_startproc
; %bb.0:
	sub	sp, sp, #48
	stp	x29, x30, [sp, #32]             ; 16-byte Folded Spill
	add	x29, sp, #32
	.cfi_def_cfa w29, 16
	.cfi_offset w30, -8
	.cfi_offset w29, -16
	str	x1, [sp, #16]
	str	x2, [sp, #24]
	str	x0, [sp, #8]
	ldr	x0, [sp, #8]
	str	x0, [sp]                        ; 8-byte Folded Spill
	ldr	x1, [sp, #16]
	ldr	x2, [sp, #24]
	bl	__ZNSt3__16vectorIjNS_9allocatorIjEEEC2B8ne200100ESt16initializer_listIjE
	ldr	x0, [sp]                        ; 8-byte Folded Reload
	ldp	x29, x30, [sp, #32]             ; 16-byte Folded Reload
	add	sp, sp, #48
	ret
	.cfi_endproc
                                        ; -- End function
	.private_extern	__ZNSt3__123mersenne_twister_engineIjLm32ELm624ELm397ELm31ELj2567483615ELm11ELj4294967295ELm7ELj2636928640ELm15ELj4022730752ELm18ELj1812433253EEC1B8ne200100Ej ; -- Begin function _ZNSt3__123mersenne_twister_engineIjLm32ELm624ELm397ELm31ELj2567483615ELm11ELj4294967295ELm7ELj2636928640ELm15ELj4022730752ELm18ELj1812433253EEC1B8ne200100Ej
	.globl	__ZNSt3__123mersenne_twister_engineIjLm32ELm624ELm397ELm31ELj2567483615ELm11ELj4294967295ELm7ELj2636928640ELm15ELj4022730752ELm18ELj1812433253EEC1B8ne200100Ej
	.weak_def_can_be_hidden	__ZNSt3__123mersenne_twister_engineIjLm32ELm624ELm397ELm31ELj2567483615ELm11ELj4294967295ELm7ELj2636928640ELm15ELj4022730752ELm18ELj1812433253EEC1B8ne200100Ej
	.p2align	2
__ZNSt3__123mersenne_twister_engineIjLm32ELm624ELm397ELm31ELj2567483615ELm11ELj4294967295ELm7ELj2636928640ELm15ELj4022730752ELm18ELj1812433253EEC1B8ne200100Ej: ; @_ZNSt3__123mersenne_twister_engineIjLm32ELm624ELm397ELm31ELj2567483615ELm11ELj4294967295ELm7ELj2636928640ELm15ELj4022730752ELm18ELj1812433253EEC1B8ne200100Ej
	.cfi_startproc
; %bb.0:
	sub	sp, sp, #48
	stp	x29, x30, [sp, #32]             ; 16-byte Folded Spill
	add	x29, sp, #32
	.cfi_def_cfa w29, 16
	.cfi_offset w30, -8
	.cfi_offset w29, -16
	stur	x0, [x29, #-8]
	stur	w1, [x29, #-12]
	ldur	x0, [x29, #-8]
	str	x0, [sp, #8]                    ; 8-byte Folded Spill
	ldur	w1, [x29, #-12]
	bl	__ZNSt3__123mersenne_twister_engineIjLm32ELm624ELm397ELm31ELj2567483615ELm11ELj4294967295ELm7ELj2636928640ELm15ELj4022730752ELm18ELj1812433253EEC2B8ne200100Ej
	ldr	x0, [sp, #8]                    ; 8-byte Folded Reload
	ldp	x29, x30, [sp, #32]             ; 16-byte Folded Reload
	add	sp, sp, #48
	ret
	.cfi_endproc
                                        ; -- End function
	.private_extern	__ZNSt3__112basic_stringIcNS_11char_traitsIcEENS_9allocatorIcEEEC1B8ne200100Ev ; -- Begin function _ZNSt3__112basic_stringIcNS_11char_traitsIcEENS_9allocatorIcEEEC1B8ne200100Ev
	.globl	__ZNSt3__112basic_stringIcNS_11char_traitsIcEENS_9allocatorIcEEEC1B8ne200100Ev
	.weak_def_can_be_hidden	__ZNSt3__112basic_stringIcNS_11char_traitsIcEENS_9allocatorIcEEEC1B8ne200100Ev
	.p2align	2
__ZNSt3__112basic_stringIcNS_11char_traitsIcEENS_9allocatorIcEEEC1B8ne200100Ev: ; @_ZNSt3__112basic_stringIcNS_11char_traitsIcEENS_9allocatorIcEEEC1B8ne200100Ev
	.cfi_startproc
; %bb.0:
	sub	sp, sp, #32
	stp	x29, x30, [sp, #16]             ; 16-byte Folded Spill
	add	x29, sp, #16
	.cfi_def_cfa w29, 16
	.cfi_offset w30, -8
	.cfi_offset w29, -16
	str	x0, [sp, #8]
	ldr	x0, [sp, #8]
	str	x0, [sp]                        ; 8-byte Folded Spill
	bl	__ZNSt3__112basic_stringIcNS_11char_traitsIcEENS_9allocatorIcEEEC2B8ne200100Ev
	ldr	x0, [sp]                        ; 8-byte Folded Reload
	ldp	x29, x30, [sp, #16]             ; 16-byte Folded Reload
	add	sp, sp, #32
	ret
	.cfi_endproc
                                        ; -- End function
	.private_extern	__ZNSt3__114basic_ifstreamIcNS_11char_traitsIcEEEC1EPKcj ; -- Begin function _ZNSt3__114basic_ifstreamIcNS_11char_traitsIcEEEC1EPKcj
	.globl	__ZNSt3__114basic_ifstreamIcNS_11char_traitsIcEEEC1EPKcj
	.weak_def_can_be_hidden	__ZNSt3__114basic_ifstreamIcNS_11char_traitsIcEEEC1EPKcj
	.p2align	2
__ZNSt3__114basic_ifstreamIcNS_11char_traitsIcEEEC1EPKcj: ; @_ZNSt3__114basic_ifstreamIcNS_11char_traitsIcEEEC1EPKcj
Lfunc_begin1:
	.cfi_startproc
	.cfi_personality 155, ___gxx_personality_v0
	.cfi_lsda 16, Lexception1
; %bb.0:
	sub	sp, sp, #96
	stp	x29, x30, [sp, #80]             ; 16-byte Folded Spill
	add	x29, sp, #80
	.cfi_def_cfa w29, 16
	.cfi_offset w30, -8
	.cfi_offset w29, -16
	stur	x0, [x29, #-16]
	stur	x1, [x29, #-24]
	stur	w2, [x29, #-28]
	ldur	x8, [x29, #-16]
	str	x8, [sp, #24]                   ; 8-byte Folded Spill
	mov	x9, x8
	stur	x9, [x29, #-8]
	add	x0, x8, #424
	bl	__ZNSt3__19basic_iosIcNS_11char_traitsIcEEEC2B8ne200100Ev
	ldr	x8, [sp, #24]                   ; 8-byte Folded Reload
	adrp	x9, __ZTVNSt3__114basic_ifstreamIcNS_11char_traitsIcEEEE@GOTPAGE
	ldr	x9, [x9, __ZTVNSt3__114basic_ifstreamIcNS_11char_traitsIcEEEE@GOTPAGEOFF]
	add	x10, x9, #24
	str	x10, [x8]
	add	x9, x9, #64
	str	x9, [x8, #424]
Ltmp171:
	mov	x0, x8
	adrp	x9, __ZTTNSt3__114basic_ifstreamIcNS_11char_traitsIcEEEE@GOTPAGE
	ldr	x9, [x9, __ZTTNSt3__114basic_ifstreamIcNS_11char_traitsIcEEEE@GOTPAGEOFF]
	add	x1, x9, #8
	add	x2, x8, #16
	bl	__ZNSt3__113basic_istreamIcNS_11char_traitsIcEEEC2B8ne200100EPNS_15basic_streambufIcS2_EE
Ltmp172:
	b	LBB5_1
LBB5_1:
	ldr	x8, [sp, #24]                   ; 8-byte Folded Reload
	adrp	x9, __ZTVNSt3__114basic_ifstreamIcNS_11char_traitsIcEEEE@GOTPAGE
	ldr	x9, [x9, __ZTVNSt3__114basic_ifstreamIcNS_11char_traitsIcEEEE@GOTPAGEOFF]
	add	x10, x9, #24
	str	x10, [x8]
	add	x9, x9, #64
	str	x9, [x8, #424]
	add	x0, x8, #16
	str	x0, [sp, #16]                   ; 8-byte Folded Spill
Ltmp174:
	bl	__ZNSt3__113basic_filebufIcNS_11char_traitsIcEEEC1Ev
Ltmp175:
	b	LBB5_2
LBB5_2:
	ldr	x8, [sp, #24]                   ; 8-byte Folded Reload
	add	x0, x8, #16
	ldur	x1, [x29, #-24]
	ldur	w8, [x29, #-28]
	orr	w2, w8, #0x8
Ltmp177:
	bl	__ZNSt3__113basic_filebufIcNS_11char_traitsIcEEE4openEPKcj
	str	x0, [sp, #8]                    ; 8-byte Folded Spill
Ltmp178:
	b	LBB5_3
LBB5_3:
	ldr	x8, [sp, #8]                    ; 8-byte Folded Reload
	cbnz	x8, LBB5_9
	b	LBB5_4
LBB5_4:
	ldr	x8, [sp, #24]                   ; 8-byte Folded Reload
	ldr	x9, [x8]
	ldur	x9, [x9, #-24]
	add	x0, x8, x9
Ltmp179:
	mov	w1, #4                          ; =0x4
	bl	__ZNSt3__19basic_iosIcNS_11char_traitsIcEEE8setstateB8ne200100Ej
Ltmp180:
	b	LBB5_5
LBB5_5:
	b	LBB5_9
LBB5_6:
Ltmp173:
	str	x0, [sp, #40]
	mov	x8, x1
	str	w8, [sp, #36]
	b	LBB5_11
LBB5_7:
Ltmp176:
	str	x0, [sp, #40]
	mov	x8, x1
	str	w8, [sp, #36]
	b	LBB5_10
LBB5_8:
Ltmp181:
	mov	x8, x0
	ldr	x0, [sp, #16]                   ; 8-byte Folded Reload
	str	x8, [sp, #40]
	mov	x8, x1
	str	w8, [sp, #36]
	bl	__ZNSt3__113basic_filebufIcNS_11char_traitsIcEEED1Ev
	b	LBB5_10
LBB5_9:
	ldur	x0, [x29, #-8]
	ldp	x29, x30, [sp, #80]             ; 16-byte Folded Reload
	add	sp, sp, #96
	ret
LBB5_10:
	ldr	x0, [sp, #24]                   ; 8-byte Folded Reload
	adrp	x8, __ZTTNSt3__114basic_ifstreamIcNS_11char_traitsIcEEEE@GOTPAGE
	ldr	x8, [x8, __ZTTNSt3__114basic_ifstreamIcNS_11char_traitsIcEEEE@GOTPAGEOFF]
	add	x1, x8, #8
	bl	__ZNSt3__113basic_istreamIcNS_11char_traitsIcEEED2Ev
	b	LBB5_11
LBB5_11:
	ldr	x8, [sp, #24]                   ; 8-byte Folded Reload
	add	x0, x8, #424
	bl	__ZNSt3__19basic_iosIcNS_11char_traitsIcEEED2Ev
	b	LBB5_12
LBB5_12:
	ldr	x0, [sp, #40]
	bl	__Unwind_Resume
Lfunc_end1:
	.cfi_endproc
	.section	__TEXT,__gcc_except_tab
	.p2align	2, 0x0
GCC_except_table5:
Lexception1:
	.byte	255                             ; @LPStart Encoding = omit
	.byte	255                             ; @TType Encoding = omit
	.byte	1                               ; Call site Encoding = uleb128
	.uleb128 Lcst_end1-Lcst_begin1
Lcst_begin1:
	.uleb128 Lfunc_begin1-Lfunc_begin1      ; >> Call Site 1 <<
	.uleb128 Ltmp171-Lfunc_begin1           ;   Call between Lfunc_begin1 and Ltmp171
	.byte	0                               ;     has no landing pad
	.byte	0                               ;   On action: cleanup
	.uleb128 Ltmp171-Lfunc_begin1           ; >> Call Site 2 <<
	.uleb128 Ltmp172-Ltmp171                ;   Call between Ltmp171 and Ltmp172
	.uleb128 Ltmp173-Lfunc_begin1           ;     jumps to Ltmp173
	.byte	0                               ;   On action: cleanup
	.uleb128 Ltmp174-Lfunc_begin1           ; >> Call Site 3 <<
	.uleb128 Ltmp175-Ltmp174                ;   Call between Ltmp174 and Ltmp175
	.uleb128 Ltmp176-Lfunc_begin1           ;     jumps to Ltmp176
	.byte	0                               ;   On action: cleanup
	.uleb128 Ltmp177-Lfunc_begin1           ; >> Call Site 4 <<
	.uleb128 Ltmp180-Ltmp177                ;   Call between Ltmp177 and Ltmp180
	.uleb128 Ltmp181-Lfunc_begin1           ;     jumps to Ltmp181
	.byte	0                               ;   On action: cleanup
	.uleb128 Ltmp180-Lfunc_begin1           ; >> Call Site 5 <<
	.uleb128 Lfunc_end1-Ltmp180             ;   Call between Ltmp180 and Lfunc_end1
	.byte	0                               ;     has no landing pad
	.byte	0                               ;   On action: cleanup
Lcst_end1:
	.p2align	2, 0x0
                                        ; -- End function
	.section	__TEXT,__text,regular,pure_instructions
	.private_extern	__ZNSt3__17getlineB8ne200100IcNS_11char_traitsIcEENS_9allocatorIcEEEERNS_13basic_istreamIT_T0_EES9_RNS_12basic_stringIS6_S7_T1_EE ; -- Begin function _ZNSt3__17getlineB8ne200100IcNS_11char_traitsIcEENS_9allocatorIcEEEERNS_13basic_istreamIT_T0_EES9_RNS_12basic_stringIS6_S7_T1_EE
	.globl	__ZNSt3__17getlineB8ne200100IcNS_11char_traitsIcEENS_9allocatorIcEEEERNS_13basic_istreamIT_T0_EES9_RNS_12basic_stringIS6_S7_T1_EE
	.weak_definition	__ZNSt3__17getlineB8ne200100IcNS_11char_traitsIcEENS_9allocatorIcEEEERNS_13basic_istreamIT_T0_EES9_RNS_12basic_stringIS6_S7_T1_EE
	.p2align	2
__ZNSt3__17getlineB8ne200100IcNS_11char_traitsIcEENS_9allocatorIcEEEERNS_13basic_istreamIT_T0_EES9_RNS_12basic_stringIS6_S7_T1_EE: ; @_ZNSt3__17getlineB8ne200100IcNS_11char_traitsIcEENS_9allocatorIcEEEERNS_13basic_istreamIT_T0_EES9_RNS_12basic_stringIS6_S7_T1_EE
	.cfi_startproc
; %bb.0:
	sub	sp, sp, #48
	stp	x29, x30, [sp, #32]             ; 16-byte Folded Spill
	add	x29, sp, #32
	.cfi_def_cfa w29, 16
	.cfi_offset w30, -8
	.cfi_offset w29, -16
	stur	x0, [x29, #-8]
	str	x1, [sp, #16]
	ldur	x8, [x29, #-8]
	str	x8, [sp, #8]                    ; 8-byte Folded Spill
	ldr	x8, [sp, #16]
	str	x8, [sp]                        ; 8-byte Folded Spill
	ldur	x8, [x29, #-8]
	ldr	x9, [x8]
	ldur	x9, [x9, #-24]
	add	x0, x8, x9
	mov	w1, #10                         ; =0xa
	bl	__ZNKSt3__19basic_iosIcNS_11char_traitsIcEEE5widenB8ne200100Ec
	ldr	x1, [sp]                        ; 8-byte Folded Reload
	mov	x2, x0
	ldr	x0, [sp, #8]                    ; 8-byte Folded Reload
	bl	__ZNSt3__17getlineB8ne200100IcNS_11char_traitsIcEENS_9allocatorIcEEEERNS_13basic_istreamIT_T0_EES9_RNS_12basic_stringIS6_S7_T1_EES6_
	ldp	x29, x30, [sp, #32]             ; 16-byte Folded Reload
	add	sp, sp, #48
	ret
	.cfi_endproc
                                        ; -- End function
	.private_extern	__ZNKSt3__19basic_iosIcNS_11char_traitsIcEEEcvbB8ne200100Ev ; -- Begin function _ZNKSt3__19basic_iosIcNS_11char_traitsIcEEEcvbB8ne200100Ev
	.globl	__ZNKSt3__19basic_iosIcNS_11char_traitsIcEEEcvbB8ne200100Ev
	.weak_definition	__ZNKSt3__19basic_iosIcNS_11char_traitsIcEEEcvbB8ne200100Ev
	.p2align	2
__ZNKSt3__19basic_iosIcNS_11char_traitsIcEEEcvbB8ne200100Ev: ; @_ZNKSt3__19basic_iosIcNS_11char_traitsIcEEEcvbB8ne200100Ev
	.cfi_startproc
; %bb.0:
	sub	sp, sp, #32
	stp	x29, x30, [sp, #16]             ; 16-byte Folded Spill
	add	x29, sp, #16
	.cfi_def_cfa w29, 16
	.cfi_offset w30, -8
	.cfi_offset w29, -16
	str	x0, [sp, #8]
	ldr	x0, [sp, #8]
	bl	__ZNKSt3__19basic_iosIcNS_11char_traitsIcEEE4failB8ne200100Ev
	eor	w0, w0, #0x1
	ldp	x29, x30, [sp, #16]             ; 16-byte Folded Reload
	add	sp, sp, #32
	ret
	.cfi_endproc
                                        ; -- End function
	.private_extern	__ZNKSt3__112basic_stringIcNS_11char_traitsIcEENS_9allocatorIcEEE4findB8ne200100EPKcm ; -- Begin function _ZNKSt3__112basic_stringIcNS_11char_traitsIcEENS_9allocatorIcEEE4findB8ne200100EPKcm
	.globl	__ZNKSt3__112basic_stringIcNS_11char_traitsIcEENS_9allocatorIcEEE4findB8ne200100EPKcm
	.weak_definition	__ZNKSt3__112basic_stringIcNS_11char_traitsIcEENS_9allocatorIcEEE4findB8ne200100EPKcm
	.p2align	2
__ZNKSt3__112basic_stringIcNS_11char_traitsIcEENS_9allocatorIcEEE4findB8ne200100EPKcm: ; @_ZNKSt3__112basic_stringIcNS_11char_traitsIcEENS_9allocatorIcEEE4findB8ne200100EPKcm
	.cfi_startproc
; %bb.0:
	sub	sp, sp, #80
	stp	x29, x30, [sp, #64]             ; 16-byte Folded Spill
	add	x29, sp, #64
	.cfi_def_cfa w29, 16
	.cfi_offset w30, -8
	.cfi_offset w29, -16
	stur	x0, [x29, #-8]
	stur	x1, [x29, #-16]
	stur	x2, [x29, #-24]
	ldur	x0, [x29, #-8]
	str	x0, [sp]                        ; 8-byte Folded Spill
	bl	__ZNKSt3__112basic_stringIcNS_11char_traitsIcEENS_9allocatorIcEEE4dataB8ne200100Ev
	mov	x1, x0
	ldr	x0, [sp]                        ; 8-byte Folded Reload
	str	x1, [sp, #32]                   ; 8-byte Folded Spill
	bl	__ZNKSt3__112basic_stringIcNS_11char_traitsIcEENS_9allocatorIcEEE4sizeB8ne200100Ev
	str	x0, [sp, #8]                    ; 8-byte Folded Spill
	ldur	x8, [x29, #-16]
	str	x8, [sp, #16]                   ; 8-byte Folded Spill
	ldur	x8, [x29, #-24]
	str	x8, [sp, #24]                   ; 8-byte Folded Spill
	ldur	x0, [x29, #-16]
	bl	__ZNSt3__111char_traitsIcE6lengthB8ne200100EPKc
	ldr	x1, [sp, #8]                    ; 8-byte Folded Reload
	ldr	x2, [sp, #16]                   ; 8-byte Folded Reload
	ldr	x3, [sp, #24]                   ; 8-byte Folded Reload
	mov	x4, x0
	ldr	x0, [sp, #32]                   ; 8-byte Folded Reload
	bl	__ZNSt3__110__str_findB8ne200100IcmNS_11char_traitsIcEELm18446744073709551615EEET0_PKT_S3_S6_S3_S3_
	ldp	x29, x30, [sp, #64]             ; 16-byte Folded Reload
	add	sp, sp, #80
	ret
	.cfi_endproc
                                        ; -- End function
	.private_extern	__ZNKSt3__112basic_stringIcNS_11char_traitsIcEENS_9allocatorIcEEE6substrB8ne200100Emm ; -- Begin function _ZNKSt3__112basic_stringIcNS_11char_traitsIcEENS_9allocatorIcEEE6substrB8ne200100Emm
	.globl	__ZNKSt3__112basic_stringIcNS_11char_traitsIcEENS_9allocatorIcEEE6substrB8ne200100Emm
	.weak_definition	__ZNKSt3__112basic_stringIcNS_11char_traitsIcEENS_9allocatorIcEEE6substrB8ne200100Emm
	.p2align	2
__ZNKSt3__112basic_stringIcNS_11char_traitsIcEENS_9allocatorIcEEE6substrB8ne200100Emm: ; @_ZNKSt3__112basic_stringIcNS_11char_traitsIcEENS_9allocatorIcEEE6substrB8ne200100Emm
	.cfi_startproc
; %bb.0:
	sub	sp, sp, #96
	stp	x29, x30, [sp, #80]             ; 16-byte Folded Spill
	add	x29, sp, #80
	.cfi_def_cfa w29, 16
	.cfi_offset w30, -8
	.cfi_offset w29, -16
	str	x8, [sp]                        ; 8-byte Folded Spill
	stur	x8, [x29, #-8]
	stur	x0, [x29, #-16]
	stur	x1, [x29, #-24]
	stur	x2, [x29, #-32]
	ldur	x8, [x29, #-16]
	str	x8, [sp, #8]                    ; 8-byte Folded Spill
	ldur	x8, [x29, #-24]
	str	x8, [sp, #16]                   ; 8-byte Folded Spill
	ldur	x8, [x29, #-32]
	str	x8, [sp, #24]                   ; 8-byte Folded Spill
	sub	x0, x29, #33
	str	x0, [sp, #32]                   ; 8-byte Folded Spill
	bl	__ZNSt3__19allocatorIcEC1B8ne200100Ev
	ldr	x0, [sp]                        ; 8-byte Folded Reload
	ldr	x1, [sp, #8]                    ; 8-byte Folded Reload
	ldr	x2, [sp, #16]                   ; 8-byte Folded Reload
	ldr	x3, [sp, #24]                   ; 8-byte Folded Reload
	ldr	x4, [sp, #32]                   ; 8-byte Folded Reload
	bl	__ZNSt3__112basic_stringIcNS_11char_traitsIcEENS_9allocatorIcEEEC1ERKS5_mmRKS4_
	ldp	x29, x30, [sp, #80]             ; 16-byte Folded Reload
	add	sp, sp, #96
	ret
	.cfi_endproc
                                        ; -- End function
	.private_extern	__ZNSt3__112basic_stringIcNS_11char_traitsIcEENS_9allocatorIcEEEaSB8ne200100EOS5_ ; -- Begin function _ZNSt3__112basic_stringIcNS_11char_traitsIcEENS_9allocatorIcEEEaSB8ne200100EOS5_
	.globl	__ZNSt3__112basic_stringIcNS_11char_traitsIcEENS_9allocatorIcEEEaSB8ne200100EOS5_
	.weak_definition	__ZNSt3__112basic_stringIcNS_11char_traitsIcEENS_9allocatorIcEEEaSB8ne200100EOS5_
	.p2align	2
__ZNSt3__112basic_stringIcNS_11char_traitsIcEENS_9allocatorIcEEEaSB8ne200100EOS5_: ; @_ZNSt3__112basic_stringIcNS_11char_traitsIcEENS_9allocatorIcEEEaSB8ne200100EOS5_
	.cfi_startproc
; %bb.0:
	sub	sp, sp, #48
	stp	x29, x30, [sp, #32]             ; 16-byte Folded Spill
	add	x29, sp, #32
	.cfi_def_cfa w29, 16
	.cfi_offset w30, -8
	.cfi_offset w29, -16
	stur	x0, [x29, #-8]
	str	x1, [sp, #16]
	ldur	x0, [x29, #-8]
	str	x0, [sp]                        ; 8-byte Folded Spill
	ldr	x1, [sp, #16]
	bl	__ZNSt3__112basic_stringIcNS_11char_traitsIcEENS_9allocatorIcEEE13__move_assignB8ne200100ERS5_NS_17integral_constantIbLb1EEE
	ldr	x0, [sp]                        ; 8-byte Folded Reload
	ldp	x29, x30, [sp, #32]             ; 16-byte Folded Reload
	add	sp, sp, #48
	ret
	.cfi_endproc
                                        ; -- End function
	.globl	__ZNSt3__114basic_ifstreamIcNS_11char_traitsIcEEED1Ev ; -- Begin function _ZNSt3__114basic_ifstreamIcNS_11char_traitsIcEEED1Ev
	.weak_def_can_be_hidden	__ZNSt3__114basic_ifstreamIcNS_11char_traitsIcEEED1Ev
	.p2align	2
__ZNSt3__114basic_ifstreamIcNS_11char_traitsIcEEED1Ev: ; @_ZNSt3__114basic_ifstreamIcNS_11char_traitsIcEEED1Ev
	.cfi_startproc
; %bb.0:
	sub	sp, sp, #32
	stp	x29, x30, [sp, #16]             ; 16-byte Folded Spill
	add	x29, sp, #16
	.cfi_def_cfa w29, 16
	.cfi_offset w30, -8
	.cfi_offset w29, -16
	str	x0, [sp, #8]
	ldr	x0, [sp, #8]
	str	x0, [sp]                        ; 8-byte Folded Spill
	adrp	x1, __ZTTNSt3__114basic_ifstreamIcNS_11char_traitsIcEEEE@GOTPAGE
	ldr	x1, [x1, __ZTTNSt3__114basic_ifstreamIcNS_11char_traitsIcEEEE@GOTPAGEOFF]
	bl	__ZNSt3__114basic_ifstreamIcNS_11char_traitsIcEEED2Ev
	ldr	x8, [sp]                        ; 8-byte Folded Reload
	add	x0, x8, #424
	bl	__ZNSt3__19basic_iosIcNS_11char_traitsIcEEED2Ev
	ldr	x0, [sp]                        ; 8-byte Folded Reload
	ldp	x29, x30, [sp, #16]             ; 16-byte Folded Reload
	add	sp, sp, #32
	ret
	.cfi_endproc
                                        ; -- End function
	.private_extern	__ZNSt3__112basic_stringIcNS_11char_traitsIcEENS_9allocatorIcEEEaSB8ne200100EPKc ; -- Begin function _ZNSt3__112basic_stringIcNS_11char_traitsIcEENS_9allocatorIcEEEaSB8ne200100EPKc
	.globl	__ZNSt3__112basic_stringIcNS_11char_traitsIcEENS_9allocatorIcEEEaSB8ne200100EPKc
	.weak_definition	__ZNSt3__112basic_stringIcNS_11char_traitsIcEENS_9allocatorIcEEEaSB8ne200100EPKc
	.p2align	2
__ZNSt3__112basic_stringIcNS_11char_traitsIcEENS_9allocatorIcEEEaSB8ne200100EPKc: ; @_ZNSt3__112basic_stringIcNS_11char_traitsIcEENS_9allocatorIcEEEaSB8ne200100EPKc
	.cfi_startproc
; %bb.0:
	sub	sp, sp, #32
	stp	x29, x30, [sp, #16]             ; 16-byte Folded Spill
	add	x29, sp, #16
	.cfi_def_cfa w29, 16
	.cfi_offset w30, -8
	.cfi_offset w29, -16
	str	x0, [sp, #8]
	str	x1, [sp]
	ldr	x0, [sp, #8]
	ldr	x1, [sp]
	bl	__ZNSt3__112basic_stringIcNS_11char_traitsIcEENS_9allocatorIcEEE6assignEPKc
	ldp	x29, x30, [sp, #16]             ; 16-byte Folded Reload
	add	sp, sp, #32
	ret
	.cfi_endproc
                                        ; -- End function
	.private_extern	__ZNKSt3__112basic_stringIcNS_11char_traitsIcEENS_9allocatorIcEEE5emptyB8ne200100Ev ; -- Begin function _ZNKSt3__112basic_stringIcNS_11char_traitsIcEENS_9allocatorIcEEE5emptyB8ne200100Ev
	.globl	__ZNKSt3__112basic_stringIcNS_11char_traitsIcEENS_9allocatorIcEEE5emptyB8ne200100Ev
	.weak_definition	__ZNKSt3__112basic_stringIcNS_11char_traitsIcEENS_9allocatorIcEEE5emptyB8ne200100Ev
	.p2align	2
__ZNKSt3__112basic_stringIcNS_11char_traitsIcEENS_9allocatorIcEEE5emptyB8ne200100Ev: ; @_ZNKSt3__112basic_stringIcNS_11char_traitsIcEENS_9allocatorIcEEE5emptyB8ne200100Ev
	.cfi_startproc
; %bb.0:
	sub	sp, sp, #32
	stp	x29, x30, [sp, #16]             ; 16-byte Folded Spill
	add	x29, sp, #16
	.cfi_def_cfa w29, 16
	.cfi_offset w30, -8
	.cfi_offset w29, -16
	str	x0, [sp, #8]
	ldr	x0, [sp, #8]
	bl	__ZNKSt3__112basic_stringIcNS_11char_traitsIcEENS_9allocatorIcEEE4sizeB8ne200100Ev
	subs	x8, x0, #0
	cset	w0, eq
	ldp	x29, x30, [sp, #16]             ; 16-byte Folded Reload
	add	sp, sp, #32
	ret
	.cfi_endproc
                                        ; -- End function
	.private_extern	__ZNSt3__112basic_stringIcNS_11char_traitsIcEENS_9allocatorIcEEE4backB8ne200100Ev ; -- Begin function _ZNSt3__112basic_stringIcNS_11char_traitsIcEENS_9allocatorIcEEE4backB8ne200100Ev
	.globl	__ZNSt3__112basic_stringIcNS_11char_traitsIcEENS_9allocatorIcEEE4backB8ne200100Ev
	.weak_definition	__ZNSt3__112basic_stringIcNS_11char_traitsIcEENS_9allocatorIcEEE4backB8ne200100Ev
	.p2align	2
__ZNSt3__112basic_stringIcNS_11char_traitsIcEENS_9allocatorIcEEE4backB8ne200100Ev: ; @_ZNSt3__112basic_stringIcNS_11char_traitsIcEENS_9allocatorIcEEE4backB8ne200100Ev
	.cfi_startproc
; %bb.0:
	sub	sp, sp, #48
	stp	x29, x30, [sp, #32]             ; 16-byte Folded Spill
	add	x29, sp, #32
	.cfi_def_cfa w29, 16
	.cfi_offset w30, -8
	.cfi_offset w29, -16
	stur	x0, [x29, #-8]
	ldur	x0, [x29, #-8]
	str	x0, [sp, #8]                    ; 8-byte Folded Spill
	bl	__ZNSt3__112basic_stringIcNS_11char_traitsIcEENS_9allocatorIcEEE13__get_pointerB8ne200100Ev
	mov	x8, x0
	ldr	x0, [sp, #8]                    ; 8-byte Folded Reload
	str	x8, [sp, #16]                   ; 8-byte Folded Spill
	bl	__ZNKSt3__112basic_stringIcNS_11char_traitsIcEENS_9allocatorIcEEE4sizeB8ne200100Ev
	mov	x8, x0
	ldr	x0, [sp, #16]                   ; 8-byte Folded Reload
	add	x8, x0, x8
	subs	x0, x8, #1
	ldp	x29, x30, [sp, #32]             ; 16-byte Folded Reload
	add	sp, sp, #48
	ret
	.cfi_endproc
                                        ; -- End function
	.private_extern	__ZNSt3__112basic_stringIcNS_11char_traitsIcEENS_9allocatorIcEEE8pop_backB8ne200100Ev ; -- Begin function _ZNSt3__112basic_stringIcNS_11char_traitsIcEENS_9allocatorIcEEE8pop_backB8ne200100Ev
	.globl	__ZNSt3__112basic_stringIcNS_11char_traitsIcEENS_9allocatorIcEEE8pop_backB8ne200100Ev
	.weak_definition	__ZNSt3__112basic_stringIcNS_11char_traitsIcEENS_9allocatorIcEEE8pop_backB8ne200100Ev
	.p2align	2
__ZNSt3__112basic_stringIcNS_11char_traitsIcEENS_9allocatorIcEEE8pop_backB8ne200100Ev: ; @_ZNSt3__112basic_stringIcNS_11char_traitsIcEENS_9allocatorIcEEE8pop_backB8ne200100Ev
	.cfi_startproc
; %bb.0:
	sub	sp, sp, #32
	stp	x29, x30, [sp, #16]             ; 16-byte Folded Spill
	add	x29, sp, #16
	.cfi_def_cfa w29, 16
	.cfi_offset w30, -8
	.cfi_offset w29, -16
	str	x0, [sp, #8]
	ldr	x0, [sp, #8]
	str	x0, [sp]                        ; 8-byte Folded Spill
	bl	__ZNKSt3__112basic_stringIcNS_11char_traitsIcEENS_9allocatorIcEEE4sizeB8ne200100Ev
	mov	x8, x0
	ldr	x0, [sp]                        ; 8-byte Folded Reload
	subs	x1, x8, #1
	bl	__ZNSt3__112basic_stringIcNS_11char_traitsIcEENS_9allocatorIcEEE14__erase_to_endB8ne200100Em
	ldp	x29, x30, [sp, #16]             ; 16-byte Folded Reload
	add	sp, sp, #32
	ret
	.cfi_endproc
                                        ; -- End function
	.private_extern	__ZNSt3__1lsB8ne200100IcNS_11char_traitsIcEEEERNS_13basic_ostreamIT_T0_EES7_RKNS_8__iom_t5E ; -- Begin function _ZNSt3__1lsB8ne200100IcNS_11char_traitsIcEEEERNS_13basic_ostreamIT_T0_EES7_RKNS_8__iom_t5E
	.globl	__ZNSt3__1lsB8ne200100IcNS_11char_traitsIcEEEERNS_13basic_ostreamIT_T0_EES7_RKNS_8__iom_t5E
	.weak_definition	__ZNSt3__1lsB8ne200100IcNS_11char_traitsIcEEEERNS_13basic_ostreamIT_T0_EES7_RKNS_8__iom_t5E
	.p2align	2
__ZNSt3__1lsB8ne200100IcNS_11char_traitsIcEEEERNS_13basic_ostreamIT_T0_EES7_RKNS_8__iom_t5E: ; @_ZNSt3__1lsB8ne200100IcNS_11char_traitsIcEEEERNS_13basic_ostreamIT_T0_EES7_RKNS_8__iom_t5E
	.cfi_startproc
; %bb.0:
	sub	sp, sp, #32
	stp	x29, x30, [sp, #16]             ; 16-byte Folded Spill
	add	x29, sp, #16
	.cfi_def_cfa w29, 16
	.cfi_offset w30, -8
	.cfi_offset w29, -16
	str	x0, [sp, #8]
	str	x1, [sp]
	ldr	x8, [sp, #8]
	ldr	x9, [x8]
	ldur	x9, [x9, #-24]
	ldr	x10, [sp]
	ldrsw	x1, [x10]
	add	x0, x8, x9
	bl	__ZNSt3__18ios_base9precisionB8ne200100El
	ldr	x0, [sp, #8]
	ldp	x29, x30, [sp, #16]             ; 16-byte Folded Reload
	add	sp, sp, #32
	ret
	.cfi_endproc
                                        ; -- End function
	.private_extern	__ZNSt3__113basic_ostreamIcNS_11char_traitsIcEEElsB8ne200100EPFRNS_8ios_baseES5_E ; -- Begin function _ZNSt3__113basic_ostreamIcNS_11char_traitsIcEEElsB8ne200100EPFRNS_8ios_baseES5_E
	.globl	__ZNSt3__113basic_ostreamIcNS_11char_traitsIcEEElsB8ne200100EPFRNS_8ios_baseES5_E
	.weak_definition	__ZNSt3__113basic_ostreamIcNS_11char_traitsIcEEElsB8ne200100EPFRNS_8ios_baseES5_E
	.p2align	2
__ZNSt3__113basic_ostreamIcNS_11char_traitsIcEEElsB8ne200100EPFRNS_8ios_baseES5_E: ; @_ZNSt3__113basic_ostreamIcNS_11char_traitsIcEEElsB8ne200100EPFRNS_8ios_baseES5_E
	.cfi_startproc
; %bb.0:
	sub	sp, sp, #48
	stp	x29, x30, [sp, #32]             ; 16-byte Folded Spill
	add	x29, sp, #32
	.cfi_def_cfa w29, 16
	.cfi_offset w30, -8
	.cfi_offset w29, -16
	stur	x0, [x29, #-8]
	str	x1, [sp, #16]
	ldur	x9, [x29, #-8]
	str	x9, [sp, #8]                    ; 8-byte Folded Spill
	ldr	x8, [sp, #16]
	ldr	x10, [x9]
	ldur	x10, [x10, #-24]
	add	x0, x9, x10
	blr	x8
	ldr	x0, [sp, #8]                    ; 8-byte Folded Reload
	ldp	x29, x30, [sp, #32]             ; 16-byte Folded Reload
	add	sp, sp, #48
	ret
	.cfi_endproc
                                        ; -- End function
	.private_extern	__ZNSt3__15fixedB8ne200100ERNS_8ios_baseE ; -- Begin function _ZNSt3__15fixedB8ne200100ERNS_8ios_baseE
	.globl	__ZNSt3__15fixedB8ne200100ERNS_8ios_baseE
	.weak_definition	__ZNSt3__15fixedB8ne200100ERNS_8ios_baseE
	.p2align	2
__ZNSt3__15fixedB8ne200100ERNS_8ios_baseE: ; @_ZNSt3__15fixedB8ne200100ERNS_8ios_baseE
	.cfi_startproc
; %bb.0:
	sub	sp, sp, #32
	stp	x29, x30, [sp, #16]             ; 16-byte Folded Spill
	add	x29, sp, #16
	.cfi_def_cfa w29, 16
	.cfi_offset w30, -8
	.cfi_offset w29, -16
	str	x0, [sp, #8]
	ldr	x0, [sp, #8]
	mov	w1, #4                          ; =0x4
	mov	w2, #260                        ; =0x104
	bl	__ZNSt3__18ios_base4setfB8ne200100Ejj
	ldr	x0, [sp, #8]
	ldp	x29, x30, [sp, #16]             ; 16-byte Folded Reload
	add	sp, sp, #32
	ret
	.cfi_endproc
                                        ; -- End function
	.private_extern	__ZNSt3__112setprecisionB8ne200100Ei ; -- Begin function _ZNSt3__112setprecisionB8ne200100Ei
	.globl	__ZNSt3__112setprecisionB8ne200100Ei
	.weak_definition	__ZNSt3__112setprecisionB8ne200100Ei
	.p2align	2
__ZNSt3__112setprecisionB8ne200100Ei:   ; @_ZNSt3__112setprecisionB8ne200100Ei
	.cfi_startproc
; %bb.0:
	sub	sp, sp, #32
	stp	x29, x30, [sp, #16]             ; 16-byte Folded Spill
	add	x29, sp, #16
	.cfi_def_cfa w29, 16
	.cfi_offset w30, -8
	.cfi_offset w29, -16
	str	w0, [sp, #8]
	ldr	w1, [sp, #8]
	sub	x0, x29, #4
	bl	__ZNSt3__18__iom_t5C1B8ne200100Ei
	ldur	w0, [x29, #-4]
	ldp	x29, x30, [sp, #16]             ; 16-byte Folded Reload
	add	sp, sp, #32
	ret
	.cfi_endproc
                                        ; -- End function
	.private_extern	__ZNSt3__1lsB8ne200100INS_11char_traitsIcEEEERNS_13basic_ostreamIcT_EES6_PKc ; -- Begin function _ZNSt3__1lsB8ne200100INS_11char_traitsIcEEEERNS_13basic_ostreamIcT_EES6_PKc
	.globl	__ZNSt3__1lsB8ne200100INS_11char_traitsIcEEEERNS_13basic_ostreamIcT_EES6_PKc
	.weak_definition	__ZNSt3__1lsB8ne200100INS_11char_traitsIcEEEERNS_13basic_ostreamIcT_EES6_PKc
	.p2align	2
__ZNSt3__1lsB8ne200100INS_11char_traitsIcEEEERNS_13basic_ostreamIcT_EES6_PKc: ; @_ZNSt3__1lsB8ne200100INS_11char_traitsIcEEEERNS_13basic_ostreamIcT_EES6_PKc
	.cfi_startproc
; %bb.0:
	sub	sp, sp, #48
	stp	x29, x30, [sp, #32]             ; 16-byte Folded Spill
	add	x29, sp, #32
	.cfi_def_cfa w29, 16
	.cfi_offset w30, -8
	.cfi_offset w29, -16
	stur	x0, [x29, #-8]
	str	x1, [sp, #16]
	ldur	x8, [x29, #-8]
	str	x8, [sp, #8]                    ; 8-byte Folded Spill
	ldr	x8, [sp, #16]
	str	x8, [sp]                        ; 8-byte Folded Spill
	ldr	x0, [sp, #16]
	bl	__ZNSt3__111char_traitsIcE6lengthB8ne200100EPKc
	ldr	x1, [sp]                        ; 8-byte Folded Reload
	mov	x2, x0
	ldr	x0, [sp, #8]                    ; 8-byte Folded Reload
	bl	__ZNSt3__124__put_character_sequenceB8ne200100IcNS_11char_traitsIcEEEERNS_13basic_ostreamIT_T0_EES7_PKS4_m
	ldp	x29, x30, [sp, #32]             ; 16-byte Folded Reload
	add	sp, sp, #48
	ret
	.cfi_endproc
                                        ; -- End function
	.private_extern	__ZNSt3__1lsB8ne200100IcNS_11char_traitsIcEENS_9allocatorIcEEEERNS_13basic_ostreamIT_T0_EES9_RKNS_12basic_stringIS6_S7_T1_EE ; -- Begin function _ZNSt3__1lsB8ne200100IcNS_11char_traitsIcEENS_9allocatorIcEEEERNS_13basic_ostreamIT_T0_EES9_RKNS_12basic_stringIS6_S7_T1_EE
	.globl	__ZNSt3__1lsB8ne200100IcNS_11char_traitsIcEENS_9allocatorIcEEEERNS_13basic_ostreamIT_T0_EES9_RKNS_12basic_stringIS6_S7_T1_EE
	.weak_definition	__ZNSt3__1lsB8ne200100IcNS_11char_traitsIcEENS_9allocatorIcEEEERNS_13basic_ostreamIT_T0_EES9_RKNS_12basic_stringIS6_S7_T1_EE
	.p2align	2
__ZNSt3__1lsB8ne200100IcNS_11char_traitsIcEENS_9allocatorIcEEEERNS_13basic_ostreamIT_T0_EES9_RKNS_12basic_stringIS6_S7_T1_EE: ; @_ZNSt3__1lsB8ne200100IcNS_11char_traitsIcEENS_9allocatorIcEEEERNS_13basic_ostreamIT_T0_EES9_RKNS_12basic_stringIS6_S7_T1_EE
	.cfi_startproc
; %bb.0:
	sub	sp, sp, #48
	stp	x29, x30, [sp, #32]             ; 16-byte Folded Spill
	add	x29, sp, #32
	.cfi_def_cfa w29, 16
	.cfi_offset w30, -8
	.cfi_offset w29, -16
	stur	x0, [x29, #-8]
	str	x1, [sp, #16]
	ldur	x8, [x29, #-8]
	str	x8, [sp, #8]                    ; 8-byte Folded Spill
	ldr	x0, [sp, #16]
	bl	__ZNKSt3__112basic_stringIcNS_11char_traitsIcEENS_9allocatorIcEEE4dataB8ne200100Ev
	str	x0, [sp]                        ; 8-byte Folded Spill
	ldr	x0, [sp, #16]
	bl	__ZNKSt3__112basic_stringIcNS_11char_traitsIcEENS_9allocatorIcEEE4sizeB8ne200100Ev
	ldr	x1, [sp]                        ; 8-byte Folded Reload
	mov	x2, x0
	ldr	x0, [sp, #8]                    ; 8-byte Folded Reload
	bl	__ZNSt3__124__put_character_sequenceB8ne200100IcNS_11char_traitsIcEEEERNS_13basic_ostreamIT_T0_EES7_PKS4_m
	ldp	x29, x30, [sp, #32]             ; 16-byte Folded Reload
	add	sp, sp, #48
	ret
	.cfi_endproc
                                        ; -- End function
	.private_extern	__ZNSt3__16vectorIjNS_9allocatorIjEEEC1B8ne200100Em ; -- Begin function _ZNSt3__16vectorIjNS_9allocatorIjEEEC1B8ne200100Em
	.globl	__ZNSt3__16vectorIjNS_9allocatorIjEEEC1B8ne200100Em
	.weak_def_can_be_hidden	__ZNSt3__16vectorIjNS_9allocatorIjEEEC1B8ne200100Em
	.p2align	2
__ZNSt3__16vectorIjNS_9allocatorIjEEEC1B8ne200100Em: ; @_ZNSt3__16vectorIjNS_9allocatorIjEEEC1B8ne200100Em
	.cfi_startproc
; %bb.0:
	sub	sp, sp, #48
	stp	x29, x30, [sp, #32]             ; 16-byte Folded Spill
	add	x29, sp, #32
	.cfi_def_cfa w29, 16
	.cfi_offset w30, -8
	.cfi_offset w29, -16
	stur	x0, [x29, #-8]
	str	x1, [sp, #16]
	ldur	x0, [x29, #-8]
	str	x0, [sp, #8]                    ; 8-byte Folded Spill
	ldr	x1, [sp, #16]
	bl	__ZNSt3__16vectorIjNS_9allocatorIjEEEC2B8ne200100Em
	ldr	x0, [sp, #8]                    ; 8-byte Folded Reload
	ldp	x29, x30, [sp, #32]             ; 16-byte Folded Reload
	add	sp, sp, #48
	ret
	.cfi_endproc
                                        ; -- End function
	.private_extern	__ZNSt3__16vectorIjNS_9allocatorIjEEE5beginB8ne200100Ev ; -- Begin function _ZNSt3__16vectorIjNS_9allocatorIjEEE5beginB8ne200100Ev
	.globl	__ZNSt3__16vectorIjNS_9allocatorIjEEE5beginB8ne200100Ev
	.weak_definition	__ZNSt3__16vectorIjNS_9allocatorIjEEE5beginB8ne200100Ev
	.p2align	2
__ZNSt3__16vectorIjNS_9allocatorIjEEE5beginB8ne200100Ev: ; @_ZNSt3__16vectorIjNS_9allocatorIjEEE5beginB8ne200100Ev
	.cfi_startproc
; %bb.0:
	sub	sp, sp, #48
	stp	x29, x30, [sp, #32]             ; 16-byte Folded Spill
	add	x29, sp, #32
	.cfi_def_cfa w29, 16
	.cfi_offset w30, -8
	.cfi_offset w29, -16
	str	x0, [sp, #16]
	ldr	x8, [sp, #16]
	str	x8, [sp, #8]                    ; 8-byte Folded Spill
	ldr	x0, [x8]
	bl	__ZNSt3__16vectorIjNS_9allocatorIjEEE26__add_alignment_assumptionB8ne200100IPjLi0EEES5_T_
	mov	x1, x0
	ldr	x0, [sp, #8]                    ; 8-byte Folded Reload
	bl	__ZNSt3__16vectorIjNS_9allocatorIjEEE11__make_iterB8ne200100EPj
	stur	x0, [x29, #-8]
	ldur	x0, [x29, #-8]
	ldp	x29, x30, [sp, #32]             ; 16-byte Folded Reload
	add	sp, sp, #48
	ret
	.cfi_endproc
                                        ; -- End function
	.private_extern	__ZNSt3__16vectorIjNS_9allocatorIjEEE3endB8ne200100Ev ; -- Begin function _ZNSt3__16vectorIjNS_9allocatorIjEEE3endB8ne200100Ev
	.globl	__ZNSt3__16vectorIjNS_9allocatorIjEEE3endB8ne200100Ev
	.weak_definition	__ZNSt3__16vectorIjNS_9allocatorIjEEE3endB8ne200100Ev
	.p2align	2
__ZNSt3__16vectorIjNS_9allocatorIjEEE3endB8ne200100Ev: ; @_ZNSt3__16vectorIjNS_9allocatorIjEEE3endB8ne200100Ev
	.cfi_startproc
; %bb.0:
	sub	sp, sp, #48
	stp	x29, x30, [sp, #32]             ; 16-byte Folded Spill
	add	x29, sp, #32
	.cfi_def_cfa w29, 16
	.cfi_offset w30, -8
	.cfi_offset w29, -16
	str	x0, [sp, #16]
	ldr	x8, [sp, #16]
	str	x8, [sp, #8]                    ; 8-byte Folded Spill
	ldr	x0, [x8, #8]
	bl	__ZNSt3__16vectorIjNS_9allocatorIjEEE26__add_alignment_assumptionB8ne200100IPjLi0EEES5_T_
	mov	x1, x0
	ldr	x0, [sp, #8]                    ; 8-byte Folded Reload
	bl	__ZNSt3__16vectorIjNS_9allocatorIjEEE11__make_iterB8ne200100EPj
	stur	x0, [x29, #-8]
	ldur	x0, [x29, #-8]
	ldp	x29, x30, [sp, #32]             ; 16-byte Folded Reload
	add	sp, sp, #48
	ret
	.cfi_endproc
                                        ; -- End function
	.private_extern	__ZNSt3__1neB8ne200100IPjEEbRKNS_11__wrap_iterIT_EES6_ ; -- Begin function _ZNSt3__1neB8ne200100IPjEEbRKNS_11__wrap_iterIT_EES6_
	.globl	__ZNSt3__1neB8ne200100IPjEEbRKNS_11__wrap_iterIT_EES6_
	.weak_definition	__ZNSt3__1neB8ne200100IPjEEbRKNS_11__wrap_iterIT_EES6_
	.p2align	2
__ZNSt3__1neB8ne200100IPjEEbRKNS_11__wrap_iterIT_EES6_: ; @_ZNSt3__1neB8ne200100IPjEEbRKNS_11__wrap_iterIT_EES6_
	.cfi_startproc
; %bb.0:
	sub	sp, sp, #32
	stp	x29, x30, [sp, #16]             ; 16-byte Folded Spill
	add	x29, sp, #16
	.cfi_def_cfa w29, 16
	.cfi_offset w30, -8
	.cfi_offset w29, -16
	str	x0, [sp, #8]
	str	x1, [sp]
	ldr	x0, [sp, #8]
	ldr	x1, [sp]
	bl	__ZNSt3__1eqB8ne200100IPjEEbRKNS_11__wrap_iterIT_EES6_
	eor	w0, w0, #0x1
	ldp	x29, x30, [sp, #16]             ; 16-byte Folded Reload
	add	sp, sp, #32
	ret
	.cfi_endproc
                                        ; -- End function
	.private_extern	__ZNKSt3__111__wrap_iterIPjEdeB8ne200100Ev ; -- Begin function _ZNKSt3__111__wrap_iterIPjEdeB8ne200100Ev
	.globl	__ZNKSt3__111__wrap_iterIPjEdeB8ne200100Ev
	.weak_definition	__ZNKSt3__111__wrap_iterIPjEdeB8ne200100Ev
	.p2align	2
__ZNKSt3__111__wrap_iterIPjEdeB8ne200100Ev: ; @_ZNKSt3__111__wrap_iterIPjEdeB8ne200100Ev
	.cfi_startproc
; %bb.0:
	sub	sp, sp, #16
	.cfi_def_cfa_offset 16
	str	x0, [sp, #8]
	ldr	x8, [sp, #8]
	ldr	x0, [x8]
	add	sp, sp, #16
	ret
	.cfi_endproc
                                        ; -- End function
	.private_extern	__ZNSt3__123mersenne_twister_engineIjLm32ELm624ELm397ELm31ELj2567483615ELm11ELj4294967295ELm7ELj2636928640ELm15ELj4022730752ELm18ELj1812433253EEclEv ; -- Begin function _ZNSt3__123mersenne_twister_engineIjLm32ELm624ELm397ELm31ELj2567483615ELm11ELj4294967295ELm7ELj2636928640ELm15ELj4022730752ELm18ELj1812433253EEclEv
	.globl	__ZNSt3__123mersenne_twister_engineIjLm32ELm624ELm397ELm31ELj2567483615ELm11ELj4294967295ELm7ELj2636928640ELm15ELj4022730752ELm18ELj1812433253EEclEv
	.weak_definition	__ZNSt3__123mersenne_twister_engineIjLm32ELm624ELm397ELm31ELj2567483615ELm11ELj4294967295ELm7ELj2636928640ELm15ELj4022730752ELm18ELj1812433253EEclEv
	.p2align	2
__ZNSt3__123mersenne_twister_engineIjLm32ELm624ELm397ELm31ELj2567483615ELm11ELj4294967295ELm7ELj2636928640ELm15ELj4022730752ELm18ELj1812433253EEclEv: ; @_ZNSt3__123mersenne_twister_engineIjLm32ELm624ELm397ELm31ELj2567483615ELm11ELj4294967295ELm7ELj2636928640ELm15ELj4022730752ELm18ELj1812433253EEclEv
	.cfi_startproc
; %bb.0:
	sub	sp, sp, #80
	stp	x29, x30, [sp, #64]             ; 16-byte Folded Spill
	add	x29, sp, #64
	.cfi_def_cfa w29, 16
	.cfi_offset w30, -8
	.cfi_offset w29, -16
	stur	x0, [x29, #-8]
	ldur	x8, [x29, #-8]
	str	x8, [sp, #16]                   ; 8-byte Folded Spill
	ldr	x9, [x8, #2496]
	add	x9, x9, #1
	mov	x11, #624                       ; =0x270
	udiv	x10, x9, x11
	mul	x10, x10, x11
	subs	x9, x9, x10
	stur	x9, [x29, #-16]
	mov	w9, #2147483647                 ; =0x7fffffff
	stur	w9, [x29, #-20]
	ldr	x9, [x8, #2496]
	ldr	w9, [x8, x9, lsl #2]
	and	w9, w9, #0x80000000
	ldur	x10, [x29, #-16]
	ldr	w10, [x8, x10, lsl #2]
	and	w10, w10, #0x7fffffff
	orr	w9, w9, w10
	stur	w9, [x29, #-24]
	ldr	x9, [x8, #2496]
	add	x9, x9, #397
	udiv	x10, x9, x11
	mul	x10, x10, x11
	subs	x9, x9, x10
	str	x9, [sp, #32]
	ldr	x9, [sp, #32]
	ldr	w8, [x8, x9, lsl #2]
	str	w8, [sp, #8]                    ; 4-byte Folded Spill
	ldur	w0, [x29, #-24]
	bl	__ZNSt3__123mersenne_twister_engineIjLm32ELm624ELm397ELm31ELj2567483615ELm11ELj4294967295ELm7ELj2636928640ELm15ELj4022730752ELm18ELj1812433253EE8__rshiftB8ne200100ILm1ELi0EEEjj
	ldr	w9, [sp, #8]                    ; 4-byte Folded Reload
	ldr	x8, [sp, #16]                   ; 8-byte Folded Reload
	eor	w9, w9, w0
	ldur	w10, [x29, #-24]
	and	w11, w10, #0x1
	mov	w10, #45279                     ; =0xb0df
	movk	w10, #39176, lsl #16
	mul	w10, w10, w11
	eor	w9, w9, w10
	ldr	x10, [x8, #2496]
	str	w9, [x8, x10, lsl #2]
	ldr	x9, [x8, #2496]
	ldr	w9, [x8, x9, lsl #2]
	str	w9, [sp, #12]                   ; 4-byte Folded Spill
	ldr	x9, [x8, #2496]
	ldr	w0, [x8, x9, lsl #2]
	bl	__ZNSt3__123mersenne_twister_engineIjLm32ELm624ELm397ELm31ELj2567483615ELm11ELj4294967295ELm7ELj2636928640ELm15ELj4022730752ELm18ELj1812433253EE8__rshiftB8ne200100ILm11ELi0EEEjj
	ldr	w8, [sp, #12]                   ; 4-byte Folded Reload
	ldr	x9, [sp, #16]                   ; 8-byte Folded Reload
	mov	w10, #-1                        ; =0xffffffff
	and	w10, w0, w10
	eor	w8, w8, w10
	str	w8, [sp, #28]
	ldur	x8, [x29, #-16]
	str	x8, [x9, #2496]
	ldr	w0, [sp, #28]
	bl	__ZNSt3__123mersenne_twister_engineIjLm32ELm624ELm397ELm31ELj2567483615ELm11ELj4294967295ELm7ELj2636928640ELm15ELj4022730752ELm18ELj1812433253EE8__lshiftB8ne200100ILm7ELi0EEEjj
	mov	w8, #22144                      ; =0x5680
	movk	w8, #40236, lsl #16
	and	w9, w0, w8
	ldr	w8, [sp, #28]
	eor	w8, w8, w9
	str	w8, [sp, #28]
	ldr	w0, [sp, #28]
	bl	__ZNSt3__123mersenne_twister_engineIjLm32ELm624ELm397ELm31ELj2567483615ELm11ELj4294967295ELm7ELj2636928640ELm15ELj4022730752ELm18ELj1812433253EE8__lshiftB8ne200100ILm15ELi0EEEjj
	mov	w8, #-272236544                 ; =0xefc60000
	and	w9, w0, w8
	ldr	w8, [sp, #28]
	eor	w8, w8, w9
	str	w8, [sp, #28]
	ldr	w8, [sp, #28]
	str	w8, [sp, #24]                   ; 4-byte Folded Spill
	ldr	w0, [sp, #28]
	bl	__ZNSt3__123mersenne_twister_engineIjLm32ELm624ELm397ELm31ELj2567483615ELm11ELj4294967295ELm7ELj2636928640ELm15ELj4022730752ELm18ELj1812433253EE8__rshiftB8ne200100ILm18ELi0EEEjj
	ldr	w8, [sp, #24]                   ; 4-byte Folded Reload
	eor	w0, w8, w0
	ldp	x29, x30, [sp, #64]             ; 16-byte Folded Reload
	add	sp, sp, #80
	ret
	.cfi_endproc
                                        ; -- End function
	.private_extern	__ZNSt3__16vectorIjNS_9allocatorIjEEEixB8ne200100Em ; -- Begin function _ZNSt3__16vectorIjNS_9allocatorIjEEEixB8ne200100Em
	.globl	__ZNSt3__16vectorIjNS_9allocatorIjEEEixB8ne200100Em
	.weak_definition	__ZNSt3__16vectorIjNS_9allocatorIjEEEixB8ne200100Em
	.p2align	2
__ZNSt3__16vectorIjNS_9allocatorIjEEEixB8ne200100Em: ; @_ZNSt3__16vectorIjNS_9allocatorIjEEEixB8ne200100Em
	.cfi_startproc
; %bb.0:
	sub	sp, sp, #16
	.cfi_def_cfa_offset 16
	str	x0, [sp, #8]
	str	x1, [sp]
	ldr	x8, [sp, #8]
	ldr	x8, [x8]
	ldr	x9, [sp]
	add	x0, x8, x9, lsl #2
	add	sp, sp, #16
	ret
	.cfi_endproc
                                        ; -- End function
	.p2align	2                               ; -- Begin function _Z14adaptive_benchIZ4mainE3$_0EdT_Ryd
__Z14adaptive_benchIZ4mainE3$_0EdT_Ryd: ; @"_Z14adaptive_benchIZ4mainE3$_0EdT_Ryd"
	.cfi_startproc
; %bb.0:
	sub	sp, sp, #112
	stp	x29, x30, [sp, #96]             ; 16-byte Folded Spill
	add	x29, sp, #96
	.cfi_def_cfa w29, 16
	.cfi_offset w30, -8
	.cfi_offset w29, -16
	mov	x8, x0
	mov	x0, x8
	stur	x0, [x29, #-8]
	stur	x1, [x29, #-16]
	stur	d0, [x29, #-24]
	sub	x9, x29, #28
	stur	wzr, [x29, #-28]
	mov	x10, #10                        ; =0xa
	stur	x10, [x29, #-40]
	add	x0, sp, #40
	str	x9, [sp, #40]
	str	x8, [sp, #48]
	ldur	x1, [x29, #-40]
	bl	__ZZ14adaptive_benchIZ4mainE3$_0EdT_RydENKUlyE_clEy
	b	LBB29_1
LBB29_1:                                ; =>This Inner Loop Header: Depth=1
	ldur	x1, [x29, #-40]
	add	x0, sp, #40
	bl	__ZZ14adaptive_benchIZ4mainE3$_0EdT_RydENKUlyE_clEy
	str	d0, [sp, #32]
	ldr	d0, [sp, #32]
	ldur	d1, [x29, #-24]
	fcmp	d0, d1
	b.lt	LBB29_3
	b	LBB29_2
LBB29_2:
	b	LBB29_6
LBB29_3:                                ;   in Loop: Header=BB29_1 Depth=1
	ldur	x8, [x29, #-40]
	lsl	x8, x8, #1
	stur	x8, [x29, #-40]
	ldur	x8, [x29, #-40]
	mov	x9, #4294967296                 ; =0x100000000
	subs	x8, x8, x9
	b.ls	LBB29_5
	b	LBB29_4
LBB29_4:
	b	LBB29_6
LBB29_5:                                ;   in Loop: Header=BB29_1 Depth=1
	b	LBB29_1
LBB29_6:
	ldr	d0, [sp, #32]
	str	d0, [sp, #24]
	str	wzr, [sp, #20]
	b	LBB29_7
LBB29_7:                                ; =>This Inner Loop Header: Depth=1
	ldr	w8, [sp, #20]
	subs	w8, w8, #2
	b.ge	LBB29_12
	b	LBB29_8
LBB29_8:                                ;   in Loop: Header=BB29_7 Depth=1
	ldur	x1, [x29, #-40]
	add	x0, sp, #40
	bl	__ZZ14adaptive_benchIZ4mainE3$_0EdT_RydENKUlyE_clEy
	str	d0, [sp, #8]
	ldr	d0, [sp, #8]
	ldr	d1, [sp, #24]
	fcmp	d0, d1
	b.pl	LBB29_10
	b	LBB29_9
LBB29_9:                                ;   in Loop: Header=BB29_7 Depth=1
	ldr	d0, [sp, #8]
	str	d0, [sp, #24]
	b	LBB29_10
LBB29_10:                               ;   in Loop: Header=BB29_7 Depth=1
	b	LBB29_11
LBB29_11:                               ;   in Loop: Header=BB29_7 Depth=1
	ldr	w8, [sp, #20]
	add	w8, w8, #1
	str	w8, [sp, #20]
	b	LBB29_7
LBB29_12:
	ldur	w0, [x29, #-28]
	bl	__ZL20do_not_optimize_awayj
	ldur	x8, [x29, #-40]
	ldur	x9, [x29, #-16]
	str	x8, [x9]
	ldr	d0, [sp, #24]
	ldp	x29, x30, [sp, #96]             ; 16-byte Folded Reload
	add	sp, sp, #112
	ret
	.cfi_endproc
                                        ; -- End function
	.p2align	2                               ; -- Begin function _Z14adaptive_benchIZ4mainE3$_1EdT_Ryd
__Z14adaptive_benchIZ4mainE3$_1EdT_Ryd: ; @"_Z14adaptive_benchIZ4mainE3$_1EdT_Ryd"
	.cfi_startproc
; %bb.0:
	sub	sp, sp, #112
	stp	x29, x30, [sp, #96]             ; 16-byte Folded Spill
	add	x29, sp, #96
	.cfi_def_cfa w29, 16
	.cfi_offset w30, -8
	.cfi_offset w29, -16
	mov	x8, x0
	mov	x0, x8
	stur	x0, [x29, #-8]
	stur	x1, [x29, #-16]
	stur	d0, [x29, #-24]
	sub	x9, x29, #28
	stur	wzr, [x29, #-28]
	mov	x10, #10                        ; =0xa
	stur	x10, [x29, #-40]
	add	x0, sp, #40
	str	x9, [sp, #40]
	str	x8, [sp, #48]
	ldur	x1, [x29, #-40]
	bl	__ZZ14adaptive_benchIZ4mainE3$_1EdT_RydENKUlyE_clEy
	b	LBB30_1
LBB30_1:                                ; =>This Inner Loop Header: Depth=1
	ldur	x1, [x29, #-40]
	add	x0, sp, #40
	bl	__ZZ14adaptive_benchIZ4mainE3$_1EdT_RydENKUlyE_clEy
	str	d0, [sp, #32]
	ldr	d0, [sp, #32]
	ldur	d1, [x29, #-24]
	fcmp	d0, d1
	b.lt	LBB30_3
	b	LBB30_2
LBB30_2:
	b	LBB30_6
LBB30_3:                                ;   in Loop: Header=BB30_1 Depth=1
	ldur	x8, [x29, #-40]
	lsl	x8, x8, #1
	stur	x8, [x29, #-40]
	ldur	x8, [x29, #-40]
	mov	x9, #4294967296                 ; =0x100000000
	subs	x8, x8, x9
	b.ls	LBB30_5
	b	LBB30_4
LBB30_4:
	b	LBB30_6
LBB30_5:                                ;   in Loop: Header=BB30_1 Depth=1
	b	LBB30_1
LBB30_6:
	ldr	d0, [sp, #32]
	str	d0, [sp, #24]
	str	wzr, [sp, #20]
	b	LBB30_7
LBB30_7:                                ; =>This Inner Loop Header: Depth=1
	ldr	w8, [sp, #20]
	subs	w8, w8, #2
	b.ge	LBB30_12
	b	LBB30_8
LBB30_8:                                ;   in Loop: Header=BB30_7 Depth=1
	ldur	x1, [x29, #-40]
	add	x0, sp, #40
	bl	__ZZ14adaptive_benchIZ4mainE3$_1EdT_RydENKUlyE_clEy
	str	d0, [sp, #8]
	ldr	d0, [sp, #8]
	ldr	d1, [sp, #24]
	fcmp	d0, d1
	b.pl	LBB30_10
	b	LBB30_9
LBB30_9:                                ;   in Loop: Header=BB30_7 Depth=1
	ldr	d0, [sp, #8]
	str	d0, [sp, #24]
	b	LBB30_10
LBB30_10:                               ;   in Loop: Header=BB30_7 Depth=1
	b	LBB30_11
LBB30_11:                               ;   in Loop: Header=BB30_7 Depth=1
	ldr	w8, [sp, #20]
	add	w8, w8, #1
	str	w8, [sp, #20]
	b	LBB30_7
LBB30_12:
	ldur	w0, [x29, #-28]
	bl	__ZL20do_not_optimize_awayj
	ldur	x8, [x29, #-40]
	ldur	x9, [x29, #-16]
	str	x8, [x9]
	ldr	d0, [sp, #24]
	ldp	x29, x30, [sp, #96]             ; 16-byte Folded Reload
	add	sp, sp, #112
	ret
	.cfi_endproc
                                        ; -- End function
	.p2align	2                               ; -- Begin function _Z14adaptive_benchIZ4mainE3$_2EdT_Ryd
__Z14adaptive_benchIZ4mainE3$_2EdT_Ryd: ; @"_Z14adaptive_benchIZ4mainE3$_2EdT_Ryd"
	.cfi_startproc
; %bb.0:
	sub	sp, sp, #112
	stp	x29, x30, [sp, #96]             ; 16-byte Folded Spill
	add	x29, sp, #96
	.cfi_def_cfa w29, 16
	.cfi_offset w30, -8
	.cfi_offset w29, -16
	mov	x8, x0
	mov	x0, x8
	stur	x0, [x29, #-8]
	stur	x1, [x29, #-16]
	stur	d0, [x29, #-24]
	sub	x9, x29, #28
	stur	wzr, [x29, #-28]
	mov	x10, #10                        ; =0xa
	stur	x10, [x29, #-40]
	add	x0, sp, #40
	str	x9, [sp, #40]
	str	x8, [sp, #48]
	ldur	x1, [x29, #-40]
	bl	__ZZ14adaptive_benchIZ4mainE3$_2EdT_RydENKUlyE_clEy
	b	LBB31_1
LBB31_1:                                ; =>This Inner Loop Header: Depth=1
	ldur	x1, [x29, #-40]
	add	x0, sp, #40
	bl	__ZZ14adaptive_benchIZ4mainE3$_2EdT_RydENKUlyE_clEy
	str	d0, [sp, #32]
	ldr	d0, [sp, #32]
	ldur	d1, [x29, #-24]
	fcmp	d0, d1
	b.lt	LBB31_3
	b	LBB31_2
LBB31_2:
	b	LBB31_6
LBB31_3:                                ;   in Loop: Header=BB31_1 Depth=1
	ldur	x8, [x29, #-40]
	lsl	x8, x8, #1
	stur	x8, [x29, #-40]
	ldur	x8, [x29, #-40]
	mov	x9, #4294967296                 ; =0x100000000
	subs	x8, x8, x9
	b.ls	LBB31_5
	b	LBB31_4
LBB31_4:
	b	LBB31_6
LBB31_5:                                ;   in Loop: Header=BB31_1 Depth=1
	b	LBB31_1
LBB31_6:
	ldr	d0, [sp, #32]
	str	d0, [sp, #24]
	str	wzr, [sp, #20]
	b	LBB31_7
LBB31_7:                                ; =>This Inner Loop Header: Depth=1
	ldr	w8, [sp, #20]
	subs	w8, w8, #2
	b.ge	LBB31_12
	b	LBB31_8
LBB31_8:                                ;   in Loop: Header=BB31_7 Depth=1
	ldur	x1, [x29, #-40]
	add	x0, sp, #40
	bl	__ZZ14adaptive_benchIZ4mainE3$_2EdT_RydENKUlyE_clEy
	str	d0, [sp, #8]
	ldr	d0, [sp, #8]
	ldr	d1, [sp, #24]
	fcmp	d0, d1
	b.pl	LBB31_10
	b	LBB31_9
LBB31_9:                                ;   in Loop: Header=BB31_7 Depth=1
	ldr	d0, [sp, #8]
	str	d0, [sp, #24]
	b	LBB31_10
LBB31_10:                               ;   in Loop: Header=BB31_7 Depth=1
	b	LBB31_11
LBB31_11:                               ;   in Loop: Header=BB31_7 Depth=1
	ldr	w8, [sp, #20]
	add	w8, w8, #1
	str	w8, [sp, #20]
	b	LBB31_7
LBB31_12:
	ldur	w0, [x29, #-28]
	bl	__ZL20do_not_optimize_awayj
	ldur	x8, [x29, #-40]
	ldur	x9, [x29, #-16]
	str	x8, [x9]
	ldr	d0, [sp, #24]
	ldp	x29, x30, [sp, #96]             ; 16-byte Folded Reload
	add	sp, sp, #112
	ret
	.cfi_endproc
                                        ; -- End function
	.private_extern	__ZNSt3__111__wrap_iterIPjEppB8ne200100Ev ; -- Begin function _ZNSt3__111__wrap_iterIPjEppB8ne200100Ev
	.globl	__ZNSt3__111__wrap_iterIPjEppB8ne200100Ev
	.weak_definition	__ZNSt3__111__wrap_iterIPjEppB8ne200100Ev
	.p2align	2
__ZNSt3__111__wrap_iterIPjEppB8ne200100Ev: ; @_ZNSt3__111__wrap_iterIPjEppB8ne200100Ev
	.cfi_startproc
; %bb.0:
	sub	sp, sp, #16
	.cfi_def_cfa_offset 16
	str	x0, [sp, #8]
	ldr	x0, [sp, #8]
	ldr	x8, [x0]
	add	x8, x8, #4
	str	x8, [x0]
	add	sp, sp, #16
	ret
	.cfi_endproc
                                        ; -- End function
	.private_extern	__ZNSt3__16vectorIjNS_9allocatorIjEEED1B8ne200100Ev ; -- Begin function _ZNSt3__16vectorIjNS_9allocatorIjEEED1B8ne200100Ev
	.globl	__ZNSt3__16vectorIjNS_9allocatorIjEEED1B8ne200100Ev
	.weak_def_can_be_hidden	__ZNSt3__16vectorIjNS_9allocatorIjEEED1B8ne200100Ev
	.p2align	2
__ZNSt3__16vectorIjNS_9allocatorIjEEED1B8ne200100Ev: ; @_ZNSt3__16vectorIjNS_9allocatorIjEEED1B8ne200100Ev
	.cfi_startproc
; %bb.0:
	sub	sp, sp, #32
	stp	x29, x30, [sp, #16]             ; 16-byte Folded Spill
	add	x29, sp, #16
	.cfi_def_cfa w29, 16
	.cfi_offset w30, -8
	.cfi_offset w29, -16
	str	x0, [sp, #8]
	ldr	x0, [sp, #8]
	str	x0, [sp]                        ; 8-byte Folded Spill
	bl	__ZNSt3__16vectorIjNS_9allocatorIjEEED2B8ne200100Ev
	ldr	x0, [sp]                        ; 8-byte Folded Reload
	ldp	x29, x30, [sp, #16]             ; 16-byte Folded Reload
	add	sp, sp, #32
	ret
	.cfi_endproc
                                        ; -- End function
	.globl	__ZNSt3__114basic_ifstreamIcNS_11char_traitsIcEEED2Ev ; -- Begin function _ZNSt3__114basic_ifstreamIcNS_11char_traitsIcEEED2Ev
	.weak_def_can_be_hidden	__ZNSt3__114basic_ifstreamIcNS_11char_traitsIcEEED2Ev
	.p2align	2
__ZNSt3__114basic_ifstreamIcNS_11char_traitsIcEEED2Ev: ; @_ZNSt3__114basic_ifstreamIcNS_11char_traitsIcEEED2Ev
	.cfi_startproc
; %bb.0:
	sub	sp, sp, #48
	stp	x29, x30, [sp, #32]             ; 16-byte Folded Spill
	add	x29, sp, #32
	.cfi_def_cfa w29, 16
	.cfi_offset w30, -8
	.cfi_offset w29, -16
	stur	x0, [x29, #-8]
	str	x1, [sp, #16]
	ldur	x8, [x29, #-8]
	str	x8, [sp, #8]                    ; 8-byte Folded Spill
	ldr	x9, [sp, #16]
	str	x9, [sp]                        ; 8-byte Folded Spill
	ldr	x10, [x9]
	str	x10, [x8]
	ldr	x9, [x9, #24]
	ldr	x10, [x8]
	ldur	x10, [x10, #-24]
	str	x9, [x8, x10]
	add	x0, x8, #16
	bl	__ZNSt3__113basic_filebufIcNS_11char_traitsIcEEED1Ev
	ldr	x0, [sp, #8]                    ; 8-byte Folded Reload
	ldr	x8, [sp]                        ; 8-byte Folded Reload
	add	x1, x8, #8
	bl	__ZNSt3__113basic_istreamIcNS_11char_traitsIcEEED2Ev
	ldr	x0, [sp, #8]                    ; 8-byte Folded Reload
	ldp	x29, x30, [sp, #32]             ; 16-byte Folded Reload
	add	sp, sp, #48
	ret
	.cfi_endproc
                                        ; -- End function
	.globl	__ZTv0_n24_NSt3__114basic_ifstreamIcNS_11char_traitsIcEEED1Ev ; -- Begin function _ZTv0_n24_NSt3__114basic_ifstreamIcNS_11char_traitsIcEEED1Ev
	.weak_def_can_be_hidden	__ZTv0_n24_NSt3__114basic_ifstreamIcNS_11char_traitsIcEEED1Ev
	.p2align	2
__ZTv0_n24_NSt3__114basic_ifstreamIcNS_11char_traitsIcEEED1Ev: ; @_ZTv0_n24_NSt3__114basic_ifstreamIcNS_11char_traitsIcEEED1Ev
	.cfi_startproc
; %bb.0:
	sub	sp, sp, #16
	.cfi_def_cfa_offset 16
	str	x0, [sp]
	ldr	x8, [sp]
	mov	x9, x8
	str	x9, [sp, #8]
	ldr	x9, [x8]
	ldur	x9, [x9, #-24]
	add	x0, x8, x9
	add	sp, sp, #16
	b	__ZNSt3__114basic_ifstreamIcNS_11char_traitsIcEEED1Ev
	.cfi_endproc
                                        ; -- End function
	.private_extern	__ZNSt3__18ios_base4setfB8ne200100Ejj ; -- Begin function _ZNSt3__18ios_base4setfB8ne200100Ejj
	.globl	__ZNSt3__18ios_base4setfB8ne200100Ejj
	.weak_definition	__ZNSt3__18ios_base4setfB8ne200100Ejj
	.p2align	2
__ZNSt3__18ios_base4setfB8ne200100Ejj:  ; @_ZNSt3__18ios_base4setfB8ne200100Ejj
	.cfi_startproc
; %bb.0:
	sub	sp, sp, #48
	stp	x29, x30, [sp, #32]             ; 16-byte Folded Spill
	add	x29, sp, #32
	.cfi_def_cfa w29, 16
	.cfi_offset w30, -8
	.cfi_offset w29, -16
	stur	x0, [x29, #-8]
	stur	w1, [x29, #-12]
	str	w2, [sp, #16]
	ldur	x0, [x29, #-8]
	str	x0, [sp]                        ; 8-byte Folded Spill
	ldr	w8, [x0, #8]
	str	w8, [sp, #12]
	ldr	w1, [sp, #16]
	bl	__ZNSt3__18ios_base6unsetfB8ne200100Ej
	ldr	x9, [sp]                        ; 8-byte Folded Reload
	ldur	w8, [x29, #-12]
	ldr	w10, [sp, #16]
	and	w10, w8, w10
	ldr	w8, [x9, #8]
	orr	w8, w8, w10
	str	w8, [x9, #8]
	ldr	w0, [sp, #12]
	ldp	x29, x30, [sp, #32]             ; 16-byte Folded Reload
	add	sp, sp, #48
	ret
	.cfi_endproc
                                        ; -- End function
	.private_extern	__ZNSt3__18ios_base6unsetfB8ne200100Ej ; -- Begin function _ZNSt3__18ios_base6unsetfB8ne200100Ej
	.globl	__ZNSt3__18ios_base6unsetfB8ne200100Ej
	.weak_definition	__ZNSt3__18ios_base6unsetfB8ne200100Ej
	.p2align	2
__ZNSt3__18ios_base6unsetfB8ne200100Ej: ; @_ZNSt3__18ios_base6unsetfB8ne200100Ej
	.cfi_startproc
; %bb.0:
	sub	sp, sp, #16
	.cfi_def_cfa_offset 16
	str	x0, [sp, #8]
	str	w1, [sp, #4]
	ldr	x9, [sp, #8]
	ldr	w10, [sp, #4]
	ldr	w8, [x9, #8]
	bic	w8, w8, w10
	str	w8, [x9, #8]
	add	sp, sp, #16
	ret
	.cfi_endproc
                                        ; -- End function
	.private_extern	__ZNSt3__18__iom_t5C1B8ne200100Ei ; -- Begin function _ZNSt3__18__iom_t5C1B8ne200100Ei
	.globl	__ZNSt3__18__iom_t5C1B8ne200100Ei
	.weak_def_can_be_hidden	__ZNSt3__18__iom_t5C1B8ne200100Ei
	.p2align	2
__ZNSt3__18__iom_t5C1B8ne200100Ei:      ; @_ZNSt3__18__iom_t5C1B8ne200100Ei
	.cfi_startproc
; %bb.0:
	sub	sp, sp, #48
	stp	x29, x30, [sp, #32]             ; 16-byte Folded Spill
	add	x29, sp, #32
	.cfi_def_cfa w29, 16
	.cfi_offset w30, -8
	.cfi_offset w29, -16
	stur	x0, [x29, #-8]
	stur	w1, [x29, #-12]
	ldur	x0, [x29, #-8]
	str	x0, [sp, #8]                    ; 8-byte Folded Spill
	ldur	w1, [x29, #-12]
	bl	__ZNSt3__18__iom_t5C2B8ne200100Ei
	ldr	x0, [sp, #8]                    ; 8-byte Folded Reload
	ldp	x29, x30, [sp, #32]             ; 16-byte Folded Reload
	add	sp, sp, #48
	ret
	.cfi_endproc
                                        ; -- End function
	.private_extern	__ZNSt3__18__iom_t5C2B8ne200100Ei ; -- Begin function _ZNSt3__18__iom_t5C2B8ne200100Ei
	.globl	__ZNSt3__18__iom_t5C2B8ne200100Ei
	.weak_def_can_be_hidden	__ZNSt3__18__iom_t5C2B8ne200100Ei
	.p2align	2
__ZNSt3__18__iom_t5C2B8ne200100Ei:      ; @_ZNSt3__18__iom_t5C2B8ne200100Ei
	.cfi_startproc
; %bb.0:
	sub	sp, sp, #16
	.cfi_def_cfa_offset 16
	str	x0, [sp, #8]
	str	w1, [sp, #4]
	ldr	x0, [sp, #8]
	ldr	w8, [sp, #4]
	str	w8, [x0]
	add	sp, sp, #16
	ret
	.cfi_endproc
                                        ; -- End function
	.private_extern	__ZNSt3__1eqB8ne200100IPjEEbRKNS_11__wrap_iterIT_EES6_ ; -- Begin function _ZNSt3__1eqB8ne200100IPjEEbRKNS_11__wrap_iterIT_EES6_
	.globl	__ZNSt3__1eqB8ne200100IPjEEbRKNS_11__wrap_iterIT_EES6_
	.weak_definition	__ZNSt3__1eqB8ne200100IPjEEbRKNS_11__wrap_iterIT_EES6_
	.p2align	2
__ZNSt3__1eqB8ne200100IPjEEbRKNS_11__wrap_iterIT_EES6_: ; @_ZNSt3__1eqB8ne200100IPjEEbRKNS_11__wrap_iterIT_EES6_
	.cfi_startproc
; %bb.0:
	sub	sp, sp, #48
	stp	x29, x30, [sp, #32]             ; 16-byte Folded Spill
	add	x29, sp, #32
	.cfi_def_cfa w29, 16
	.cfi_offset w30, -8
	.cfi_offset w29, -16
	stur	x0, [x29, #-8]
	str	x1, [sp, #16]
	ldur	x0, [x29, #-8]
	bl	__ZNKSt3__111__wrap_iterIPjE4baseB8ne200100Ev
	str	x0, [sp, #8]                    ; 8-byte Folded Spill
	ldr	x0, [sp, #16]
	bl	__ZNKSt3__111__wrap_iterIPjE4baseB8ne200100Ev
	mov	x8, x0
	ldr	x0, [sp, #8]                    ; 8-byte Folded Reload
	subs	x8, x0, x8
	cset	w0, eq
	ldp	x29, x30, [sp, #32]             ; 16-byte Folded Reload
	add	sp, sp, #48
	ret
	.cfi_endproc
                                        ; -- End function
	.private_extern	__ZNKSt3__111__wrap_iterIPjE4baseB8ne200100Ev ; -- Begin function _ZNKSt3__111__wrap_iterIPjE4baseB8ne200100Ev
	.globl	__ZNKSt3__111__wrap_iterIPjE4baseB8ne200100Ev
	.weak_definition	__ZNKSt3__111__wrap_iterIPjE4baseB8ne200100Ev
	.p2align	2
__ZNKSt3__111__wrap_iterIPjE4baseB8ne200100Ev: ; @_ZNKSt3__111__wrap_iterIPjE4baseB8ne200100Ev
	.cfi_startproc
; %bb.0:
	sub	sp, sp, #16
	.cfi_def_cfa_offset 16
	str	x0, [sp, #8]
	ldr	x8, [sp, #8]
	ldr	x0, [x8]
	add	sp, sp, #16
	ret
	.cfi_endproc
                                        ; -- End function
	.globl	__ZNSt3__112basic_stringIcNS_11char_traitsIcEENS_9allocatorIcEEEC2B8ne200100ILi0EEEPKc ; -- Begin function _ZNSt3__112basic_stringIcNS_11char_traitsIcEENS_9allocatorIcEEEC2B8ne200100ILi0EEEPKc
	.weak_def_can_be_hidden	__ZNSt3__112basic_stringIcNS_11char_traitsIcEENS_9allocatorIcEEEC2B8ne200100ILi0EEEPKc
	.p2align	2
__ZNSt3__112basic_stringIcNS_11char_traitsIcEENS_9allocatorIcEEEC2B8ne200100ILi0EEEPKc: ; @_ZNSt3__112basic_stringIcNS_11char_traitsIcEENS_9allocatorIcEEEC2B8ne200100ILi0EEEPKc
	.cfi_startproc
; %bb.0:
	sub	sp, sp, #48
	stp	x29, x30, [sp, #32]             ; 16-byte Folded Spill
	add	x29, sp, #32
	.cfi_def_cfa w29, 16
	.cfi_offset w30, -8
	.cfi_offset w29, -16
	stur	x0, [x29, #-8]
	str	x1, [sp, #16]
	ldur	x0, [x29, #-8]
	str	x0, [sp, #8]                    ; 8-byte Folded Spill
	bl	__ZNSt3__19allocatorIcEC1B8ne200100Ev
	ldr	x8, [sp, #16]
	str	x8, [sp]                        ; 8-byte Folded Spill
	ldr	x0, [sp, #16]
	bl	__ZNSt3__111char_traitsIcE6lengthB8ne200100EPKc
	ldr	x1, [sp]                        ; 8-byte Folded Reload
	mov	x2, x0
	ldr	x0, [sp, #8]                    ; 8-byte Folded Reload
	bl	__ZNSt3__112basic_stringIcNS_11char_traitsIcEENS_9allocatorIcEEE6__initEPKcm
	ldr	x0, [sp, #8]                    ; 8-byte Folded Reload
	ldp	x29, x30, [sp, #32]             ; 16-byte Folded Reload
	add	sp, sp, #48
	ret
	.cfi_endproc
                                        ; -- End function
	.private_extern	__ZNSt3__19allocatorIcEC1B8ne200100Ev ; -- Begin function _ZNSt3__19allocatorIcEC1B8ne200100Ev
	.globl	__ZNSt3__19allocatorIcEC1B8ne200100Ev
	.weak_def_can_be_hidden	__ZNSt3__19allocatorIcEC1B8ne200100Ev
	.p2align	2
__ZNSt3__19allocatorIcEC1B8ne200100Ev:  ; @_ZNSt3__19allocatorIcEC1B8ne200100Ev
	.cfi_startproc
; %bb.0:
	sub	sp, sp, #32
	stp	x29, x30, [sp, #16]             ; 16-byte Folded Spill
	add	x29, sp, #16
	.cfi_def_cfa w29, 16
	.cfi_offset w30, -8
	.cfi_offset w29, -16
	str	x0, [sp, #8]
	ldr	x0, [sp, #8]
	str	x0, [sp]                        ; 8-byte Folded Spill
	bl	__ZNSt3__19allocatorIcEC2B8ne200100Ev
	ldr	x0, [sp]                        ; 8-byte Folded Reload
	ldp	x29, x30, [sp, #16]             ; 16-byte Folded Reload
	add	sp, sp, #32
	ret
	.cfi_endproc
                                        ; -- End function
	.private_extern	__ZNSt3__111char_traitsIcE6lengthB8ne200100EPKc ; -- Begin function _ZNSt3__111char_traitsIcE6lengthB8ne200100EPKc
	.globl	__ZNSt3__111char_traitsIcE6lengthB8ne200100EPKc
	.weak_definition	__ZNSt3__111char_traitsIcE6lengthB8ne200100EPKc
	.p2align	2
__ZNSt3__111char_traitsIcE6lengthB8ne200100EPKc: ; @_ZNSt3__111char_traitsIcE6lengthB8ne200100EPKc
	.cfi_startproc
; %bb.0:
	sub	sp, sp, #32
	stp	x29, x30, [sp, #16]             ; 16-byte Folded Spill
	add	x29, sp, #16
	.cfi_def_cfa w29, 16
	.cfi_offset w30, -8
	.cfi_offset w29, -16
	str	x0, [sp, #8]
	ldr	x0, [sp, #8]
	bl	__ZNSt3__118__constexpr_strlenB8ne200100IcEEmPKT_
	ldp	x29, x30, [sp, #16]             ; 16-byte Folded Reload
	add	sp, sp, #32
	ret
	.cfi_endproc
                                        ; -- End function
	.private_extern	__ZNSt3__19allocatorIcEC2B8ne200100Ev ; -- Begin function _ZNSt3__19allocatorIcEC2B8ne200100Ev
	.globl	__ZNSt3__19allocatorIcEC2B8ne200100Ev
	.weak_def_can_be_hidden	__ZNSt3__19allocatorIcEC2B8ne200100Ev
	.p2align	2
__ZNSt3__19allocatorIcEC2B8ne200100Ev:  ; @_ZNSt3__19allocatorIcEC2B8ne200100Ev
	.cfi_startproc
; %bb.0:
	sub	sp, sp, #32
	stp	x29, x30, [sp, #16]             ; 16-byte Folded Spill
	add	x29, sp, #16
	.cfi_def_cfa w29, 16
	.cfi_offset w30, -8
	.cfi_offset w29, -16
	str	x0, [sp, #8]
	ldr	x0, [sp, #8]
	str	x0, [sp]                        ; 8-byte Folded Spill
	bl	__ZNSt3__116__non_trivial_ifILb1ENS_9allocatorIcEEEC2B8ne200100Ev
	ldr	x0, [sp]                        ; 8-byte Folded Reload
	ldp	x29, x30, [sp, #16]             ; 16-byte Folded Reload
	add	sp, sp, #32
	ret
	.cfi_endproc
                                        ; -- End function
	.private_extern	__ZNSt3__116__non_trivial_ifILb1ENS_9allocatorIcEEEC2B8ne200100Ev ; -- Begin function _ZNSt3__116__non_trivial_ifILb1ENS_9allocatorIcEEEC2B8ne200100Ev
	.globl	__ZNSt3__116__non_trivial_ifILb1ENS_9allocatorIcEEEC2B8ne200100Ev
	.weak_def_can_be_hidden	__ZNSt3__116__non_trivial_ifILb1ENS_9allocatorIcEEEC2B8ne200100Ev
	.p2align	2
__ZNSt3__116__non_trivial_ifILb1ENS_9allocatorIcEEEC2B8ne200100Ev: ; @_ZNSt3__116__non_trivial_ifILb1ENS_9allocatorIcEEEC2B8ne200100Ev
	.cfi_startproc
; %bb.0:
	sub	sp, sp, #16
	.cfi_def_cfa_offset 16
	str	x0, [sp, #8]
	ldr	x0, [sp, #8]
	add	sp, sp, #16
	ret
	.cfi_endproc
                                        ; -- End function
	.private_extern	__ZNSt3__118__constexpr_strlenB8ne200100IcEEmPKT_ ; -- Begin function _ZNSt3__118__constexpr_strlenB8ne200100IcEEmPKT_
	.globl	__ZNSt3__118__constexpr_strlenB8ne200100IcEEmPKT_
	.weak_definition	__ZNSt3__118__constexpr_strlenB8ne200100IcEEmPKT_
	.p2align	2
__ZNSt3__118__constexpr_strlenB8ne200100IcEEmPKT_: ; @_ZNSt3__118__constexpr_strlenB8ne200100IcEEmPKT_
	.cfi_startproc
; %bb.0:
	sub	sp, sp, #32
	stp	x29, x30, [sp, #16]             ; 16-byte Folded Spill
	add	x29, sp, #16
	.cfi_def_cfa w29, 16
	.cfi_offset w30, -8
	.cfi_offset w29, -16
	str	x0, [sp, #8]
	ldr	x0, [sp, #8]
	bl	_strlen
	ldp	x29, x30, [sp, #16]             ; 16-byte Folded Reload
	add	sp, sp, #32
	ret
	.cfi_endproc
                                        ; -- End function
	.private_extern	__ZNSt3__16vectorIjNS_9allocatorIjEEED2B8ne200100Ev ; -- Begin function _ZNSt3__16vectorIjNS_9allocatorIjEEED2B8ne200100Ev
	.globl	__ZNSt3__16vectorIjNS_9allocatorIjEEED2B8ne200100Ev
	.weak_def_can_be_hidden	__ZNSt3__16vectorIjNS_9allocatorIjEEED2B8ne200100Ev
	.p2align	2
__ZNSt3__16vectorIjNS_9allocatorIjEEED2B8ne200100Ev: ; @_ZNSt3__16vectorIjNS_9allocatorIjEEED2B8ne200100Ev
Lfunc_begin2:
	.cfi_startproc
	.cfi_personality 155, ___gxx_personality_v0
	.cfi_lsda 16, Lexception2
; %bb.0:
	sub	sp, sp, #48
	stp	x29, x30, [sp, #32]             ; 16-byte Folded Spill
	add	x29, sp, #32
	.cfi_def_cfa w29, 16
	.cfi_offset w30, -8
	.cfi_offset w29, -16
	stur	x0, [x29, #-8]
	ldur	x1, [x29, #-8]
	str	x1, [sp, #8]                    ; 8-byte Folded Spill
Ltmp190:
	add	x0, sp, #16
	bl	__ZNSt3__16vectorIjNS_9allocatorIjEEE16__destroy_vectorC1B8ne200100ERS3_
Ltmp191:
	b	LBB48_1
LBB48_1:
Ltmp192:
	add	x0, sp, #16
	bl	__ZNSt3__16vectorIjNS_9allocatorIjEEE16__destroy_vectorclB8ne200100Ev
Ltmp193:
	b	LBB48_2
LBB48_2:
	ldr	x0, [sp, #8]                    ; 8-byte Folded Reload
	ldp	x29, x30, [sp, #32]             ; 16-byte Folded Reload
	add	sp, sp, #48
	ret
LBB48_3:
Ltmp194:
	bl	___clang_call_terminate
Lfunc_end2:
	.cfi_endproc
	.section	__TEXT,__gcc_except_tab
	.p2align	2, 0x0
GCC_except_table48:
Lexception2:
	.byte	255                             ; @LPStart Encoding = omit
	.byte	155                             ; @TType Encoding = indirect pcrel sdata4
	.uleb128 Lttbase0-Lttbaseref0
Lttbaseref0:
	.byte	1                               ; Call site Encoding = uleb128
	.uleb128 Lcst_end2-Lcst_begin2
Lcst_begin2:
	.uleb128 Ltmp190-Lfunc_begin2           ; >> Call Site 1 <<
	.uleb128 Ltmp193-Ltmp190                ;   Call between Ltmp190 and Ltmp193
	.uleb128 Ltmp194-Lfunc_begin2           ;     jumps to Ltmp194
	.byte	1                               ;   On action: 1
Lcst_end2:
	.byte	1                               ; >> Action Record 1 <<
                                        ;   Catch TypeInfo 1
	.byte	0                               ;   No further actions
	.p2align	2, 0x0
                                        ; >> Catch TypeInfos <<
	.long	0                               ; TypeInfo 1
Lttbase0:
	.p2align	2, 0x0
                                        ; -- End function
	.section	__TEXT,__text,regular,pure_instructions
	.private_extern	__ZNSt3__16vectorIjNS_9allocatorIjEEE16__destroy_vectorC1B8ne200100ERS3_ ; -- Begin function _ZNSt3__16vectorIjNS_9allocatorIjEEE16__destroy_vectorC1B8ne200100ERS3_
	.globl	__ZNSt3__16vectorIjNS_9allocatorIjEEE16__destroy_vectorC1B8ne200100ERS3_
	.weak_def_can_be_hidden	__ZNSt3__16vectorIjNS_9allocatorIjEEE16__destroy_vectorC1B8ne200100ERS3_
	.p2align	2
__ZNSt3__16vectorIjNS_9allocatorIjEEE16__destroy_vectorC1B8ne200100ERS3_: ; @_ZNSt3__16vectorIjNS_9allocatorIjEEE16__destroy_vectorC1B8ne200100ERS3_
	.cfi_startproc
; %bb.0:
	sub	sp, sp, #48
	stp	x29, x30, [sp, #32]             ; 16-byte Folded Spill
	add	x29, sp, #32
	.cfi_def_cfa w29, 16
	.cfi_offset w30, -8
	.cfi_offset w29, -16
	stur	x0, [x29, #-8]
	str	x1, [sp, #16]
	ldur	x0, [x29, #-8]
	str	x0, [sp, #8]                    ; 8-byte Folded Spill
	ldr	x1, [sp, #16]
	bl	__ZNSt3__16vectorIjNS_9allocatorIjEEE16__destroy_vectorC2B8ne200100ERS3_
	ldr	x0, [sp, #8]                    ; 8-byte Folded Reload
	ldp	x29, x30, [sp, #32]             ; 16-byte Folded Reload
	add	sp, sp, #48
	ret
	.cfi_endproc
                                        ; -- End function
	.private_extern	___clang_call_terminate ; -- Begin function __clang_call_terminate
	.globl	___clang_call_terminate
	.weak_definition	___clang_call_terminate
	.p2align	2
___clang_call_terminate:                ; @__clang_call_terminate
	.cfi_startproc
; %bb.0:
	stp	x29, x30, [sp, #-16]!           ; 16-byte Folded Spill
	mov	x29, sp
	.cfi_def_cfa w29, 16
	.cfi_offset w30, -8
	.cfi_offset w29, -16
	bl	___cxa_begin_catch
	bl	__ZSt9terminatev
	.cfi_endproc
                                        ; -- End function
	.private_extern	__ZNSt3__16vectorIjNS_9allocatorIjEEE16__destroy_vectorclB8ne200100Ev ; -- Begin function _ZNSt3__16vectorIjNS_9allocatorIjEEE16__destroy_vectorclB8ne200100Ev
	.globl	__ZNSt3__16vectorIjNS_9allocatorIjEEE16__destroy_vectorclB8ne200100Ev
	.weak_definition	__ZNSt3__16vectorIjNS_9allocatorIjEEE16__destroy_vectorclB8ne200100Ev
	.p2align	2
__ZNSt3__16vectorIjNS_9allocatorIjEEE16__destroy_vectorclB8ne200100Ev: ; @_ZNSt3__16vectorIjNS_9allocatorIjEEE16__destroy_vectorclB8ne200100Ev
	.cfi_startproc
; %bb.0:
	sub	sp, sp, #48
	stp	x29, x30, [sp, #32]             ; 16-byte Folded Spill
	add	x29, sp, #32
	.cfi_def_cfa w29, 16
	.cfi_offset w30, -8
	.cfi_offset w29, -16
	stur	x0, [x29, #-8]
	ldur	x8, [x29, #-8]
	str	x8, [sp, #16]                   ; 8-byte Folded Spill
	ldr	x8, [x8]
	ldr	x8, [x8]
	cbz	x8, LBB51_2
	b	LBB51_1
LBB51_1:
	ldr	x8, [sp, #16]                   ; 8-byte Folded Reload
	ldr	x0, [x8]
	bl	__ZNSt3__16vectorIjNS_9allocatorIjEEE5clearB8ne200100Ev
	ldr	x8, [sp, #16]                   ; 8-byte Folded Reload
	ldr	x0, [x8]
	bl	__ZNKSt3__16vectorIjNS_9allocatorIjEEE17__annotate_deleteB8ne200100Ev
	ldr	x8, [sp, #16]                   ; 8-byte Folded Reload
	ldr	x9, [x8]
	add	x9, x9, #16
	str	x9, [sp, #8]                    ; 8-byte Folded Spill
	ldr	x9, [x8]
	ldr	x9, [x9]
	str	x9, [sp]                        ; 8-byte Folded Spill
	ldr	x0, [x8]
	bl	__ZNKSt3__16vectorIjNS_9allocatorIjEEE8capacityB8ne200100Ev
	ldr	x1, [sp]                        ; 8-byte Folded Reload
	mov	x2, x0
	ldr	x0, [sp, #8]                    ; 8-byte Folded Reload
	bl	__ZNSt3__116allocator_traitsINS_9allocatorIjEEE10deallocateB8ne200100ERS2_Pjm
	b	LBB51_2
LBB51_2:
	ldp	x29, x30, [sp, #32]             ; 16-byte Folded Reload
	add	sp, sp, #48
	ret
	.cfi_endproc
                                        ; -- End function
	.private_extern	__ZNSt3__16vectorIjNS_9allocatorIjEEE16__destroy_vectorC2B8ne200100ERS3_ ; -- Begin function _ZNSt3__16vectorIjNS_9allocatorIjEEE16__destroy_vectorC2B8ne200100ERS3_
	.globl	__ZNSt3__16vectorIjNS_9allocatorIjEEE16__destroy_vectorC2B8ne200100ERS3_
	.weak_def_can_be_hidden	__ZNSt3__16vectorIjNS_9allocatorIjEEE16__destroy_vectorC2B8ne200100ERS3_
	.p2align	2
__ZNSt3__16vectorIjNS_9allocatorIjEEE16__destroy_vectorC2B8ne200100ERS3_: ; @_ZNSt3__16vectorIjNS_9allocatorIjEEE16__destroy_vectorC2B8ne200100ERS3_
	.cfi_startproc
; %bb.0:
	sub	sp, sp, #16
	.cfi_def_cfa_offset 16
	str	x0, [sp, #8]
	str	x1, [sp]
	ldr	x0, [sp, #8]
	ldr	x8, [sp]
	str	x8, [x0]
	add	sp, sp, #16
	ret
	.cfi_endproc
                                        ; -- End function
	.private_extern	__ZNSt3__16vectorIjNS_9allocatorIjEEE5clearB8ne200100Ev ; -- Begin function _ZNSt3__16vectorIjNS_9allocatorIjEEE5clearB8ne200100Ev
	.globl	__ZNSt3__16vectorIjNS_9allocatorIjEEE5clearB8ne200100Ev
	.weak_definition	__ZNSt3__16vectorIjNS_9allocatorIjEEE5clearB8ne200100Ev
	.p2align	2
__ZNSt3__16vectorIjNS_9allocatorIjEEE5clearB8ne200100Ev: ; @_ZNSt3__16vectorIjNS_9allocatorIjEEE5clearB8ne200100Ev
	.cfi_startproc
; %bb.0:
	sub	sp, sp, #48
	stp	x29, x30, [sp, #32]             ; 16-byte Folded Spill
	add	x29, sp, #32
	.cfi_def_cfa w29, 16
	.cfi_offset w30, -8
	.cfi_offset w29, -16
	stur	x0, [x29, #-8]
	ldur	x0, [x29, #-8]
	str	x0, [sp, #8]                    ; 8-byte Folded Spill
	bl	__ZNKSt3__16vectorIjNS_9allocatorIjEEE4sizeB8ne200100Ev
	mov	x8, x0
	ldr	x0, [sp, #8]                    ; 8-byte Folded Reload
	str	x8, [sp, #16]
	ldr	x1, [x0]
	bl	__ZNSt3__16vectorIjNS_9allocatorIjEEE22__base_destruct_at_endB8ne200100EPj
	ldr	x0, [sp, #8]                    ; 8-byte Folded Reload
	ldr	x1, [sp, #16]
	bl	__ZNKSt3__16vectorIjNS_9allocatorIjEEE17__annotate_shrinkB8ne200100Em
	ldp	x29, x30, [sp, #32]             ; 16-byte Folded Reload
	add	sp, sp, #48
	ret
	.cfi_endproc
                                        ; -- End function
	.private_extern	__ZNKSt3__16vectorIjNS_9allocatorIjEEE17__annotate_deleteB8ne200100Ev ; -- Begin function _ZNKSt3__16vectorIjNS_9allocatorIjEEE17__annotate_deleteB8ne200100Ev
	.globl	__ZNKSt3__16vectorIjNS_9allocatorIjEEE17__annotate_deleteB8ne200100Ev
	.weak_definition	__ZNKSt3__16vectorIjNS_9allocatorIjEEE17__annotate_deleteB8ne200100Ev
	.p2align	2
__ZNKSt3__16vectorIjNS_9allocatorIjEEE17__annotate_deleteB8ne200100Ev: ; @_ZNKSt3__16vectorIjNS_9allocatorIjEEE17__annotate_deleteB8ne200100Ev
	.cfi_startproc
; %bb.0:
	sub	sp, sp, #16
	.cfi_def_cfa_offset 16
	str	x0, [sp, #8]
	add	sp, sp, #16
	ret
	.cfi_endproc
                                        ; -- End function
	.private_extern	__ZNSt3__116allocator_traitsINS_9allocatorIjEEE10deallocateB8ne200100ERS2_Pjm ; -- Begin function _ZNSt3__116allocator_traitsINS_9allocatorIjEEE10deallocateB8ne200100ERS2_Pjm
	.globl	__ZNSt3__116allocator_traitsINS_9allocatorIjEEE10deallocateB8ne200100ERS2_Pjm
	.weak_definition	__ZNSt3__116allocator_traitsINS_9allocatorIjEEE10deallocateB8ne200100ERS2_Pjm
	.p2align	2
__ZNSt3__116allocator_traitsINS_9allocatorIjEEE10deallocateB8ne200100ERS2_Pjm: ; @_ZNSt3__116allocator_traitsINS_9allocatorIjEEE10deallocateB8ne200100ERS2_Pjm
	.cfi_startproc
; %bb.0:
	sub	sp, sp, #48
	stp	x29, x30, [sp, #32]             ; 16-byte Folded Spill
	add	x29, sp, #32
	.cfi_def_cfa w29, 16
	.cfi_offset w30, -8
	.cfi_offset w29, -16
	stur	x0, [x29, #-8]
	str	x1, [sp, #16]
	str	x2, [sp, #8]
	ldur	x0, [x29, #-8]
	ldr	x1, [sp, #16]
	ldr	x2, [sp, #8]
	bl	__ZNSt3__19allocatorIjE10deallocateB8ne200100EPjm
	ldp	x29, x30, [sp, #32]             ; 16-byte Folded Reload
	add	sp, sp, #48
	ret
	.cfi_endproc
                                        ; -- End function
	.private_extern	__ZNKSt3__16vectorIjNS_9allocatorIjEEE8capacityB8ne200100Ev ; -- Begin function _ZNKSt3__16vectorIjNS_9allocatorIjEEE8capacityB8ne200100Ev
	.globl	__ZNKSt3__16vectorIjNS_9allocatorIjEEE8capacityB8ne200100Ev
	.weak_definition	__ZNKSt3__16vectorIjNS_9allocatorIjEEE8capacityB8ne200100Ev
	.p2align	2
__ZNKSt3__16vectorIjNS_9allocatorIjEEE8capacityB8ne200100Ev: ; @_ZNKSt3__16vectorIjNS_9allocatorIjEEE8capacityB8ne200100Ev
	.cfi_startproc
; %bb.0:
	sub	sp, sp, #16
	.cfi_def_cfa_offset 16
	str	x0, [sp, #8]
	ldr	x9, [sp, #8]
	ldr	x8, [x9, #16]
	ldr	x9, [x9]
	subs	x8, x8, x9
	mov	x9, #4                          ; =0x4
	sdiv	x0, x8, x9
	add	sp, sp, #16
	ret
	.cfi_endproc
                                        ; -- End function
	.private_extern	__ZNKSt3__16vectorIjNS_9allocatorIjEEE4sizeB8ne200100Ev ; -- Begin function _ZNKSt3__16vectorIjNS_9allocatorIjEEE4sizeB8ne200100Ev
	.globl	__ZNKSt3__16vectorIjNS_9allocatorIjEEE4sizeB8ne200100Ev
	.weak_definition	__ZNKSt3__16vectorIjNS_9allocatorIjEEE4sizeB8ne200100Ev
	.p2align	2
__ZNKSt3__16vectorIjNS_9allocatorIjEEE4sizeB8ne200100Ev: ; @_ZNKSt3__16vectorIjNS_9allocatorIjEEE4sizeB8ne200100Ev
	.cfi_startproc
; %bb.0:
	sub	sp, sp, #16
	.cfi_def_cfa_offset 16
	str	x0, [sp, #8]
	ldr	x9, [sp, #8]
	ldr	x8, [x9, #8]
	ldr	x9, [x9]
	subs	x8, x8, x9
	mov	x9, #4                          ; =0x4
	sdiv	x0, x8, x9
	add	sp, sp, #16
	ret
	.cfi_endproc
                                        ; -- End function
	.private_extern	__ZNSt3__16vectorIjNS_9allocatorIjEEE22__base_destruct_at_endB8ne200100EPj ; -- Begin function _ZNSt3__16vectorIjNS_9allocatorIjEEE22__base_destruct_at_endB8ne200100EPj
	.globl	__ZNSt3__16vectorIjNS_9allocatorIjEEE22__base_destruct_at_endB8ne200100EPj
	.weak_definition	__ZNSt3__16vectorIjNS_9allocatorIjEEE22__base_destruct_at_endB8ne200100EPj
	.p2align	2
__ZNSt3__16vectorIjNS_9allocatorIjEEE22__base_destruct_at_endB8ne200100EPj: ; @_ZNSt3__16vectorIjNS_9allocatorIjEEE22__base_destruct_at_endB8ne200100EPj
Lfunc_begin3:
	.cfi_startproc
	.cfi_personality 155, ___gxx_personality_v0
	.cfi_lsda 16, Lexception3
; %bb.0:
	sub	sp, sp, #64
	stp	x29, x30, [sp, #48]             ; 16-byte Folded Spill
	add	x29, sp, #48
	.cfi_def_cfa w29, 16
	.cfi_offset w30, -8
	.cfi_offset w29, -16
	stur	x0, [x29, #-8]
	stur	x1, [x29, #-16]
	ldur	x8, [x29, #-8]
	str	x8, [sp, #16]                   ; 8-byte Folded Spill
	ldr	x8, [x8, #8]
	str	x8, [sp, #24]
	b	LBB58_1
LBB58_1:                                ; =>This Inner Loop Header: Depth=1
	ldur	x8, [x29, #-16]
	ldr	x9, [sp, #24]
	subs	x8, x8, x9
	b.eq	LBB58_4
	b	LBB58_2
LBB58_2:                                ;   in Loop: Header=BB58_1 Depth=1
	ldr	x8, [sp, #16]                   ; 8-byte Folded Reload
	add	x8, x8, #16
	str	x8, [sp, #8]                    ; 8-byte Folded Spill
	ldr	x8, [sp, #24]
	subs	x0, x8, #4
	str	x0, [sp, #24]
	bl	__ZNSt3__112__to_addressB8ne200100IjEEPT_S2_
	mov	x1, x0
	ldr	x0, [sp, #8]                    ; 8-byte Folded Reload
Ltmp199:
	bl	__ZNSt3__116allocator_traitsINS_9allocatorIjEEE7destroyB8ne200100IjLi0EEEvRS2_PT_
Ltmp200:
	b	LBB58_3
LBB58_3:                                ;   in Loop: Header=BB58_1 Depth=1
	b	LBB58_1
LBB58_4:
	ldr	x9, [sp, #16]                   ; 8-byte Folded Reload
	ldur	x8, [x29, #-16]
	str	x8, [x9, #8]
	ldp	x29, x30, [sp, #48]             ; 16-byte Folded Reload
	add	sp, sp, #64
	ret
LBB58_5:
Ltmp201:
	bl	___clang_call_terminate
Lfunc_end3:
	.cfi_endproc
	.section	__TEXT,__gcc_except_tab
	.p2align	2, 0x0
GCC_except_table58:
Lexception3:
	.byte	255                             ; @LPStart Encoding = omit
	.byte	155                             ; @TType Encoding = indirect pcrel sdata4
	.uleb128 Lttbase1-Lttbaseref1
Lttbaseref1:
	.byte	1                               ; Call site Encoding = uleb128
	.uleb128 Lcst_end3-Lcst_begin3
Lcst_begin3:
	.uleb128 Ltmp199-Lfunc_begin3           ; >> Call Site 1 <<
	.uleb128 Ltmp200-Ltmp199                ;   Call between Ltmp199 and Ltmp200
	.uleb128 Ltmp201-Lfunc_begin3           ;     jumps to Ltmp201
	.byte	1                               ;   On action: 1
Lcst_end3:
	.byte	1                               ; >> Action Record 1 <<
                                        ;   Catch TypeInfo 1
	.byte	0                               ;   No further actions
	.p2align	2, 0x0
                                        ; >> Catch TypeInfos <<
	.long	0                               ; TypeInfo 1
Lttbase1:
	.p2align	2, 0x0
                                        ; -- End function
	.section	__TEXT,__text,regular,pure_instructions
	.private_extern	__ZNKSt3__16vectorIjNS_9allocatorIjEEE17__annotate_shrinkB8ne200100Em ; -- Begin function _ZNKSt3__16vectorIjNS_9allocatorIjEEE17__annotate_shrinkB8ne200100Em
	.globl	__ZNKSt3__16vectorIjNS_9allocatorIjEEE17__annotate_shrinkB8ne200100Em
	.weak_definition	__ZNKSt3__16vectorIjNS_9allocatorIjEEE17__annotate_shrinkB8ne200100Em
	.p2align	2
__ZNKSt3__16vectorIjNS_9allocatorIjEEE17__annotate_shrinkB8ne200100Em: ; @_ZNKSt3__16vectorIjNS_9allocatorIjEEE17__annotate_shrinkB8ne200100Em
	.cfi_startproc
; %bb.0:
	sub	sp, sp, #16
	.cfi_def_cfa_offset 16
	str	x0, [sp, #8]
	str	x1, [sp]
	add	sp, sp, #16
	ret
	.cfi_endproc
                                        ; -- End function
	.globl	__ZNSt3__116allocator_traitsINS_9allocatorIjEEE7destroyB8ne200100IjLi0EEEvRS2_PT_ ; -- Begin function _ZNSt3__116allocator_traitsINS_9allocatorIjEEE7destroyB8ne200100IjLi0EEEvRS2_PT_
	.weak_definition	__ZNSt3__116allocator_traitsINS_9allocatorIjEEE7destroyB8ne200100IjLi0EEEvRS2_PT_
	.p2align	2
__ZNSt3__116allocator_traitsINS_9allocatorIjEEE7destroyB8ne200100IjLi0EEEvRS2_PT_: ; @_ZNSt3__116allocator_traitsINS_9allocatorIjEEE7destroyB8ne200100IjLi0EEEvRS2_PT_
	.cfi_startproc
; %bb.0:
	sub	sp, sp, #32
	stp	x29, x30, [sp, #16]             ; 16-byte Folded Spill
	add	x29, sp, #16
	.cfi_def_cfa w29, 16
	.cfi_offset w30, -8
	.cfi_offset w29, -16
	str	x0, [sp, #8]
	str	x1, [sp]
	ldr	x0, [sp, #8]
	ldr	x1, [sp]
	bl	__ZNSt3__19allocatorIjE7destroyB8ne200100EPj
	ldp	x29, x30, [sp, #16]             ; 16-byte Folded Reload
	add	sp, sp, #32
	ret
	.cfi_endproc
                                        ; -- End function
	.private_extern	__ZNSt3__112__to_addressB8ne200100IjEEPT_S2_ ; -- Begin function _ZNSt3__112__to_addressB8ne200100IjEEPT_S2_
	.globl	__ZNSt3__112__to_addressB8ne200100IjEEPT_S2_
	.weak_definition	__ZNSt3__112__to_addressB8ne200100IjEEPT_S2_
	.p2align	2
__ZNSt3__112__to_addressB8ne200100IjEEPT_S2_: ; @_ZNSt3__112__to_addressB8ne200100IjEEPT_S2_
	.cfi_startproc
; %bb.0:
	sub	sp, sp, #16
	.cfi_def_cfa_offset 16
	str	x0, [sp, #8]
	ldr	x0, [sp, #8]
	add	sp, sp, #16
	ret
	.cfi_endproc
                                        ; -- End function
	.private_extern	__ZNSt3__19allocatorIjE7destroyB8ne200100EPj ; -- Begin function _ZNSt3__19allocatorIjE7destroyB8ne200100EPj
	.globl	__ZNSt3__19allocatorIjE7destroyB8ne200100EPj
	.weak_definition	__ZNSt3__19allocatorIjE7destroyB8ne200100EPj
	.p2align	2
__ZNSt3__19allocatorIjE7destroyB8ne200100EPj: ; @_ZNSt3__19allocatorIjE7destroyB8ne200100EPj
	.cfi_startproc
; %bb.0:
	sub	sp, sp, #16
	.cfi_def_cfa_offset 16
	str	x0, [sp, #8]
	str	x1, [sp]
	add	sp, sp, #16
	ret
	.cfi_endproc
                                        ; -- End function
	.private_extern	__ZNSt3__19allocatorIjE10deallocateB8ne200100EPjm ; -- Begin function _ZNSt3__19allocatorIjE10deallocateB8ne200100EPjm
	.globl	__ZNSt3__19allocatorIjE10deallocateB8ne200100EPjm
	.weak_definition	__ZNSt3__19allocatorIjE10deallocateB8ne200100EPjm
	.p2align	2
__ZNSt3__19allocatorIjE10deallocateB8ne200100EPjm: ; @_ZNSt3__19allocatorIjE10deallocateB8ne200100EPjm
	.cfi_startproc
; %bb.0:
	sub	sp, sp, #48
	stp	x29, x30, [sp, #32]             ; 16-byte Folded Spill
	add	x29, sp, #32
	.cfi_def_cfa w29, 16
	.cfi_offset w30, -8
	.cfi_offset w29, -16
	stur	x0, [x29, #-8]
	str	x1, [sp, #16]
	str	x2, [sp, #8]
	ldr	x0, [sp, #16]
	ldr	x1, [sp, #8]
	mov	x2, #4                          ; =0x4
	bl	__ZNSt3__119__libcpp_deallocateB8ne200100IjEEvPNS_15__type_identityIT_E4typeENS_15__element_countEm
	ldp	x29, x30, [sp, #32]             ; 16-byte Folded Reload
	add	sp, sp, #48
	ret
	.cfi_endproc
                                        ; -- End function
	.private_extern	__ZNSt3__119__libcpp_deallocateB8ne200100IjEEvPNS_15__type_identityIT_E4typeENS_15__element_countEm ; -- Begin function _ZNSt3__119__libcpp_deallocateB8ne200100IjEEvPNS_15__type_identityIT_E4typeENS_15__element_countEm
	.globl	__ZNSt3__119__libcpp_deallocateB8ne200100IjEEvPNS_15__type_identityIT_E4typeENS_15__element_countEm
	.weak_definition	__ZNSt3__119__libcpp_deallocateB8ne200100IjEEvPNS_15__type_identityIT_E4typeENS_15__element_countEm
	.p2align	2
__ZNSt3__119__libcpp_deallocateB8ne200100IjEEvPNS_15__type_identityIT_E4typeENS_15__element_countEm: ; @_ZNSt3__119__libcpp_deallocateB8ne200100IjEEvPNS_15__type_identityIT_E4typeENS_15__element_countEm
	.cfi_startproc
; %bb.0:
	sub	sp, sp, #48
	stp	x29, x30, [sp, #32]             ; 16-byte Folded Spill
	add	x29, sp, #32
	.cfi_def_cfa w29, 16
	.cfi_offset w30, -8
	.cfi_offset w29, -16
	stur	x0, [x29, #-8]
	str	x1, [sp, #16]
	str	x2, [sp, #8]
	ldr	x8, [sp, #16]
	lsl	x8, x8, #2
	str	x8, [sp]
	ldur	x0, [x29, #-8]
	bl	__ZNSt3__124__libcpp_operator_deleteB8ne200100IJPjEEEvDpT_
	ldp	x29, x30, [sp, #32]             ; 16-byte Folded Reload
	add	sp, sp, #48
	ret
	.cfi_endproc
                                        ; -- End function
	.private_extern	__ZNSt3__124__libcpp_operator_deleteB8ne200100IJPjEEEvDpT_ ; -- Begin function _ZNSt3__124__libcpp_operator_deleteB8ne200100IJPjEEEvDpT_
	.globl	__ZNSt3__124__libcpp_operator_deleteB8ne200100IJPjEEEvDpT_
	.weak_definition	__ZNSt3__124__libcpp_operator_deleteB8ne200100IJPjEEEvDpT_
	.p2align	2
__ZNSt3__124__libcpp_operator_deleteB8ne200100IJPjEEEvDpT_: ; @_ZNSt3__124__libcpp_operator_deleteB8ne200100IJPjEEEvDpT_
	.cfi_startproc
; %bb.0:
	sub	sp, sp, #32
	stp	x29, x30, [sp, #16]             ; 16-byte Folded Spill
	add	x29, sp, #16
	.cfi_def_cfa w29, 16
	.cfi_offset w30, -8
	.cfi_offset w29, -16
	str	x0, [sp, #8]
	ldr	x0, [sp, #8]
	bl	__ZdlPv
	ldp	x29, x30, [sp, #16]             ; 16-byte Folded Reload
	add	sp, sp, #32
	ret
	.cfi_endproc
                                        ; -- End function
	.private_extern	__ZNSt3__16vectorIjNS_9allocatorIjEEEC2B8ne200100ESt16initializer_listIjE ; -- Begin function _ZNSt3__16vectorIjNS_9allocatorIjEEEC2B8ne200100ESt16initializer_listIjE
	.globl	__ZNSt3__16vectorIjNS_9allocatorIjEEEC2B8ne200100ESt16initializer_listIjE
	.weak_def_can_be_hidden	__ZNSt3__16vectorIjNS_9allocatorIjEEEC2B8ne200100ESt16initializer_listIjE
	.p2align	2
__ZNSt3__16vectorIjNS_9allocatorIjEEEC2B8ne200100ESt16initializer_listIjE: ; @_ZNSt3__16vectorIjNS_9allocatorIjEEEC2B8ne200100ESt16initializer_listIjE
	.cfi_startproc
; %bb.0:
	sub	sp, sp, #80
	stp	x29, x30, [sp, #64]             ; 16-byte Folded Spill
	add	x29, sp, #64
	.cfi_def_cfa w29, 16
	.cfi_offset w30, -8
	.cfi_offset w29, -16
	sub	x8, x29, #16
	str	x8, [sp, #8]                    ; 8-byte Folded Spill
	stur	x1, [x29, #-16]
	stur	x2, [x29, #-8]
	stur	x0, [x29, #-24]
	ldur	x8, [x29, #-24]
	str	x8, [sp, #32]                   ; 8-byte Folded Spill
                                        ; kill: def $x9 killed $xzr
	str	xzr, [x8]
	str	xzr, [x8, #8]
	str	xzr, [x8, #16]
	add	x0, x8, #16
	bl	__ZNSt3__19allocatorIjEC1B8ne200100Ev
	ldr	x0, [sp, #8]                    ; 8-byte Folded Reload
	bl	__ZNKSt16initializer_listIjE5beginB8ne200100Ev
	mov	x1, x0
	ldr	x0, [sp, #8]                    ; 8-byte Folded Reload
	str	x1, [sp, #16]                   ; 8-byte Folded Spill
	bl	__ZNKSt16initializer_listIjE3endB8ne200100Ev
	mov	x1, x0
	ldr	x0, [sp, #8]                    ; 8-byte Folded Reload
	str	x1, [sp, #24]                   ; 8-byte Folded Spill
	bl	__ZNKSt16initializer_listIjE4sizeB8ne200100Ev
	ldr	x1, [sp, #16]                   ; 8-byte Folded Reload
	ldr	x2, [sp, #24]                   ; 8-byte Folded Reload
	mov	x3, x0
	ldr	x0, [sp, #32]                   ; 8-byte Folded Reload
	bl	__ZNSt3__16vectorIjNS_9allocatorIjEEE16__init_with_sizeB8ne200100IPKjS6_EEvT_T0_m
	ldr	x0, [sp, #32]                   ; 8-byte Folded Reload
	ldp	x29, x30, [sp, #64]             ; 16-byte Folded Reload
	add	sp, sp, #80
	ret
	.cfi_endproc
                                        ; -- End function
	.private_extern	__ZNSt3__19allocatorIjEC1B8ne200100Ev ; -- Begin function _ZNSt3__19allocatorIjEC1B8ne200100Ev
	.globl	__ZNSt3__19allocatorIjEC1B8ne200100Ev
	.weak_def_can_be_hidden	__ZNSt3__19allocatorIjEC1B8ne200100Ev
	.p2align	2
__ZNSt3__19allocatorIjEC1B8ne200100Ev:  ; @_ZNSt3__19allocatorIjEC1B8ne200100Ev
	.cfi_startproc
; %bb.0:
	sub	sp, sp, #32
	stp	x29, x30, [sp, #16]             ; 16-byte Folded Spill
	add	x29, sp, #16
	.cfi_def_cfa w29, 16
	.cfi_offset w30, -8
	.cfi_offset w29, -16
	str	x0, [sp, #8]
	ldr	x0, [sp, #8]
	str	x0, [sp]                        ; 8-byte Folded Spill
	bl	__ZNSt3__19allocatorIjEC2B8ne200100Ev
	ldr	x0, [sp]                        ; 8-byte Folded Reload
	ldp	x29, x30, [sp, #16]             ; 16-byte Folded Reload
	add	sp, sp, #32
	ret
	.cfi_endproc
                                        ; -- End function
	.globl	__ZNSt3__16vectorIjNS_9allocatorIjEEE16__init_with_sizeB8ne200100IPKjS6_EEvT_T0_m ; -- Begin function _ZNSt3__16vectorIjNS_9allocatorIjEEE16__init_with_sizeB8ne200100IPKjS6_EEvT_T0_m
	.weak_definition	__ZNSt3__16vectorIjNS_9allocatorIjEEE16__init_with_sizeB8ne200100IPKjS6_EEvT_T0_m
	.p2align	2
__ZNSt3__16vectorIjNS_9allocatorIjEEE16__init_with_sizeB8ne200100IPKjS6_EEvT_T0_m: ; @_ZNSt3__16vectorIjNS_9allocatorIjEEE16__init_with_sizeB8ne200100IPKjS6_EEvT_T0_m
Lfunc_begin4:
	.cfi_startproc
	.cfi_personality 155, ___gxx_personality_v0
	.cfi_lsda 16, Lexception4
; %bb.0:
	sub	sp, sp, #112
	stp	x29, x30, [sp, #96]             ; 16-byte Folded Spill
	add	x29, sp, #96
	.cfi_def_cfa w29, 16
	.cfi_offset w30, -8
	.cfi_offset w29, -16
	stur	x0, [x29, #-8]
	stur	x1, [x29, #-16]
	stur	x2, [x29, #-24]
	stur	x3, [x29, #-32]
	ldur	x1, [x29, #-8]
	str	x1, [sp, #16]                   ; 8-byte Folded Spill
	add	x0, sp, #40
	bl	__ZNSt3__16vectorIjNS_9allocatorIjEEE16__destroy_vectorC1B8ne200100ERS3_
	ldr	x0, [sp, #40]
	add	x8, sp, #48
	bl	__ZNSt3__122__make_exception_guardB8ne200100INS_6vectorIjNS_9allocatorIjEEE16__destroy_vectorEEENS_28__exception_guard_exceptionsIT_EES7_
	ldur	x8, [x29, #-32]
	subs	x8, x8, #0
	b.ls	LBB68_5
	b	LBB68_1
LBB68_1:
	ldr	x0, [sp, #16]                   ; 8-byte Folded Reload
	ldur	x1, [x29, #-32]
Ltmp205:
	bl	__ZNSt3__16vectorIjNS_9allocatorIjEEE11__vallocateB8ne200100Em
Ltmp206:
	b	LBB68_2
LBB68_2:
	ldr	x0, [sp, #16]                   ; 8-byte Folded Reload
	ldur	x1, [x29, #-16]
	ldur	x2, [x29, #-24]
	ldur	x3, [x29, #-32]
Ltmp207:
	bl	__ZNSt3__16vectorIjNS_9allocatorIjEEE18__construct_at_endIPKjS6_EEvT_T0_m
Ltmp208:
	b	LBB68_3
LBB68_3:
	b	LBB68_5
LBB68_4:
Ltmp209:
	str	x0, [sp, #32]
	mov	x8, x1
	str	w8, [sp, #28]
	add	x0, sp, #48
	bl	__ZNSt3__128__exception_guard_exceptionsINS_6vectorIjNS_9allocatorIjEEE16__destroy_vectorEED1B8ne200100Ev
	b	LBB68_6
LBB68_5:
	add	x0, sp, #48
	str	x0, [sp, #8]                    ; 8-byte Folded Spill
	bl	__ZNSt3__128__exception_guard_exceptionsINS_6vectorIjNS_9allocatorIjEEE16__destroy_vectorEE10__completeB8ne200100Ev
	ldr	x0, [sp, #8]                    ; 8-byte Folded Reload
	bl	__ZNSt3__128__exception_guard_exceptionsINS_6vectorIjNS_9allocatorIjEEE16__destroy_vectorEED1B8ne200100Ev
	ldp	x29, x30, [sp, #96]             ; 16-byte Folded Reload
	add	sp, sp, #112
	ret
LBB68_6:
	ldr	x0, [sp, #32]
	bl	__Unwind_Resume
Lfunc_end4:
	.cfi_endproc
	.section	__TEXT,__gcc_except_tab
	.p2align	2, 0x0
GCC_except_table68:
Lexception4:
	.byte	255                             ; @LPStart Encoding = omit
	.byte	255                             ; @TType Encoding = omit
	.byte	1                               ; Call site Encoding = uleb128
	.uleb128 Lcst_end4-Lcst_begin4
Lcst_begin4:
	.uleb128 Lfunc_begin4-Lfunc_begin4      ; >> Call Site 1 <<
	.uleb128 Ltmp205-Lfunc_begin4           ;   Call between Lfunc_begin4 and Ltmp205
	.byte	0                               ;     has no landing pad
	.byte	0                               ;   On action: cleanup
	.uleb128 Ltmp205-Lfunc_begin4           ; >> Call Site 2 <<
	.uleb128 Ltmp208-Ltmp205                ;   Call between Ltmp205 and Ltmp208
	.uleb128 Ltmp209-Lfunc_begin4           ;     jumps to Ltmp209
	.byte	0                               ;   On action: cleanup
	.uleb128 Ltmp208-Lfunc_begin4           ; >> Call Site 3 <<
	.uleb128 Lfunc_end4-Ltmp208             ;   Call between Ltmp208 and Lfunc_end4
	.byte	0                               ;     has no landing pad
	.byte	0                               ;   On action: cleanup
Lcst_end4:
	.p2align	2, 0x0
                                        ; -- End function
	.section	__TEXT,__text,regular,pure_instructions
	.private_extern	__ZNKSt16initializer_listIjE5beginB8ne200100Ev ; -- Begin function _ZNKSt16initializer_listIjE5beginB8ne200100Ev
	.globl	__ZNKSt16initializer_listIjE5beginB8ne200100Ev
	.weak_definition	__ZNKSt16initializer_listIjE5beginB8ne200100Ev
	.p2align	2
__ZNKSt16initializer_listIjE5beginB8ne200100Ev: ; @_ZNKSt16initializer_listIjE5beginB8ne200100Ev
	.cfi_startproc
; %bb.0:
	sub	sp, sp, #16
	.cfi_def_cfa_offset 16
	str	x0, [sp, #8]
	ldr	x8, [sp, #8]
	ldr	x0, [x8]
	add	sp, sp, #16
	ret
	.cfi_endproc
                                        ; -- End function
	.private_extern	__ZNKSt16initializer_listIjE3endB8ne200100Ev ; -- Begin function _ZNKSt16initializer_listIjE3endB8ne200100Ev
	.globl	__ZNKSt16initializer_listIjE3endB8ne200100Ev
	.weak_definition	__ZNKSt16initializer_listIjE3endB8ne200100Ev
	.p2align	2
__ZNKSt16initializer_listIjE3endB8ne200100Ev: ; @_ZNKSt16initializer_listIjE3endB8ne200100Ev
	.cfi_startproc
; %bb.0:
	sub	sp, sp, #16
	.cfi_def_cfa_offset 16
	str	x0, [sp, #8]
	ldr	x9, [sp, #8]
	ldr	x8, [x9]
	ldr	x9, [x9, #8]
	add	x0, x8, x9, lsl #2
	add	sp, sp, #16
	ret
	.cfi_endproc
                                        ; -- End function
	.private_extern	__ZNKSt16initializer_listIjE4sizeB8ne200100Ev ; -- Begin function _ZNKSt16initializer_listIjE4sizeB8ne200100Ev
	.globl	__ZNKSt16initializer_listIjE4sizeB8ne200100Ev
	.weak_definition	__ZNKSt16initializer_listIjE4sizeB8ne200100Ev
	.p2align	2
__ZNKSt16initializer_listIjE4sizeB8ne200100Ev: ; @_ZNKSt16initializer_listIjE4sizeB8ne200100Ev
	.cfi_startproc
; %bb.0:
	sub	sp, sp, #16
	.cfi_def_cfa_offset 16
	str	x0, [sp, #8]
	ldr	x8, [sp, #8]
	ldr	x0, [x8, #8]
	add	sp, sp, #16
	ret
	.cfi_endproc
                                        ; -- End function
	.private_extern	__ZNSt3__19allocatorIjEC2B8ne200100Ev ; -- Begin function _ZNSt3__19allocatorIjEC2B8ne200100Ev
	.globl	__ZNSt3__19allocatorIjEC2B8ne200100Ev
	.weak_def_can_be_hidden	__ZNSt3__19allocatorIjEC2B8ne200100Ev
	.p2align	2
__ZNSt3__19allocatorIjEC2B8ne200100Ev:  ; @_ZNSt3__19allocatorIjEC2B8ne200100Ev
	.cfi_startproc
; %bb.0:
	sub	sp, sp, #32
	stp	x29, x30, [sp, #16]             ; 16-byte Folded Spill
	add	x29, sp, #16
	.cfi_def_cfa w29, 16
	.cfi_offset w30, -8
	.cfi_offset w29, -16
	str	x0, [sp, #8]
	ldr	x0, [sp, #8]
	str	x0, [sp]                        ; 8-byte Folded Spill
	bl	__ZNSt3__116__non_trivial_ifILb1ENS_9allocatorIjEEEC2B8ne200100Ev
	ldr	x0, [sp]                        ; 8-byte Folded Reload
	ldp	x29, x30, [sp, #16]             ; 16-byte Folded Reload
	add	sp, sp, #32
	ret
	.cfi_endproc
                                        ; -- End function
	.private_extern	__ZNSt3__116__non_trivial_ifILb1ENS_9allocatorIjEEEC2B8ne200100Ev ; -- Begin function _ZNSt3__116__non_trivial_ifILb1ENS_9allocatorIjEEEC2B8ne200100Ev
	.globl	__ZNSt3__116__non_trivial_ifILb1ENS_9allocatorIjEEEC2B8ne200100Ev
	.weak_def_can_be_hidden	__ZNSt3__116__non_trivial_ifILb1ENS_9allocatorIjEEEC2B8ne200100Ev
	.p2align	2
__ZNSt3__116__non_trivial_ifILb1ENS_9allocatorIjEEEC2B8ne200100Ev: ; @_ZNSt3__116__non_trivial_ifILb1ENS_9allocatorIjEEEC2B8ne200100Ev
	.cfi_startproc
; %bb.0:
	sub	sp, sp, #16
	.cfi_def_cfa_offset 16
	str	x0, [sp, #8]
	ldr	x0, [sp, #8]
	add	sp, sp, #16
	ret
	.cfi_endproc
                                        ; -- End function
	.private_extern	__ZNSt3__122__make_exception_guardB8ne200100INS_6vectorIjNS_9allocatorIjEEE16__destroy_vectorEEENS_28__exception_guard_exceptionsIT_EES7_ ; -- Begin function _ZNSt3__122__make_exception_guardB8ne200100INS_6vectorIjNS_9allocatorIjEEE16__destroy_vectorEEENS_28__exception_guard_exceptionsIT_EES7_
	.globl	__ZNSt3__122__make_exception_guardB8ne200100INS_6vectorIjNS_9allocatorIjEEE16__destroy_vectorEEENS_28__exception_guard_exceptionsIT_EES7_
	.weak_definition	__ZNSt3__122__make_exception_guardB8ne200100INS_6vectorIjNS_9allocatorIjEEE16__destroy_vectorEEENS_28__exception_guard_exceptionsIT_EES7_
	.p2align	2
__ZNSt3__122__make_exception_guardB8ne200100INS_6vectorIjNS_9allocatorIjEEE16__destroy_vectorEEENS_28__exception_guard_exceptionsIT_EES7_: ; @_ZNSt3__122__make_exception_guardB8ne200100INS_6vectorIjNS_9allocatorIjEEE16__destroy_vectorEEENS_28__exception_guard_exceptionsIT_EES7_
	.cfi_startproc
; %bb.0:
	sub	sp, sp, #48
	stp	x29, x30, [sp, #32]             ; 16-byte Folded Spill
	add	x29, sp, #32
	.cfi_def_cfa w29, 16
	.cfi_offset w30, -8
	.cfi_offset w29, -16
	str	x8, [sp]                        ; 8-byte Folded Spill
	mov	x8, x0
	ldr	x0, [sp]                        ; 8-byte Folded Reload
	mov	x9, x0
	stur	x9, [x29, #-8]
	str	x8, [sp, #16]
	ldr	x8, [sp, #16]
	str	x8, [sp, #8]
	ldr	x1, [sp, #8]
	bl	__ZNSt3__128__exception_guard_exceptionsINS_6vectorIjNS_9allocatorIjEEE16__destroy_vectorEEC1B8ne200100ES5_
	ldp	x29, x30, [sp, #32]             ; 16-byte Folded Reload
	add	sp, sp, #48
	ret
	.cfi_endproc
                                        ; -- End function
	.private_extern	__ZNSt3__16vectorIjNS_9allocatorIjEEE11__vallocateB8ne200100Em ; -- Begin function _ZNSt3__16vectorIjNS_9allocatorIjEEE11__vallocateB8ne200100Em
	.globl	__ZNSt3__16vectorIjNS_9allocatorIjEEE11__vallocateB8ne200100Em
	.weak_definition	__ZNSt3__16vectorIjNS_9allocatorIjEEE11__vallocateB8ne200100Em
	.p2align	2
__ZNSt3__16vectorIjNS_9allocatorIjEEE11__vallocateB8ne200100Em: ; @_ZNSt3__16vectorIjNS_9allocatorIjEEE11__vallocateB8ne200100Em
	.cfi_startproc
; %bb.0:
	sub	sp, sp, #64
	stp	x29, x30, [sp, #48]             ; 16-byte Folded Spill
	add	x29, sp, #48
	.cfi_def_cfa w29, 16
	.cfi_offset w30, -8
	.cfi_offset w29, -16
	stur	x0, [x29, #-8]
	stur	x1, [x29, #-16]
	ldur	x0, [x29, #-8]
	str	x0, [sp]                        ; 8-byte Folded Spill
	ldur	x8, [x29, #-16]
	str	x8, [sp, #8]                    ; 8-byte Folded Spill
	bl	__ZNKSt3__16vectorIjNS_9allocatorIjEEE8max_sizeB8ne200100Ev
	ldr	x8, [sp, #8]                    ; 8-byte Folded Reload
	subs	x8, x8, x0
	b.ls	LBB75_2
	b	LBB75_1
LBB75_1:
	bl	__ZNSt3__16vectorIjNS_9allocatorIjEEE20__throw_length_errorB8ne200100Ev
LBB75_2:
	ldr	x8, [sp]                        ; 8-byte Folded Reload
	add	x0, x8, #16
	ldur	x1, [x29, #-16]
	bl	__ZNSt3__119__allocate_at_leastB8ne200100INS_9allocatorIjEEEENS_19__allocation_resultINS_16allocator_traitsIT_E7pointerEEERS5_m
	mov	x8, x0
	ldr	x0, [sp]                        ; 8-byte Folded Reload
	str	x8, [sp, #16]
	str	x1, [sp, #24]
	ldr	x8, [sp, #16]
	str	x8, [x0]
	ldr	x8, [sp, #16]
	str	x8, [x0, #8]
	ldr	x8, [x0]
	ldr	x9, [sp, #24]
	add	x8, x8, x9, lsl #2
	str	x8, [x0, #16]
	mov	x1, #0                          ; =0x0
	bl	__ZNKSt3__16vectorIjNS_9allocatorIjEEE14__annotate_newB8ne200100Em
	ldp	x29, x30, [sp, #48]             ; 16-byte Folded Reload
	add	sp, sp, #64
	ret
	.cfi_endproc
                                        ; -- End function
	.globl	__ZNSt3__16vectorIjNS_9allocatorIjEEE18__construct_at_endIPKjS6_EEvT_T0_m ; -- Begin function _ZNSt3__16vectorIjNS_9allocatorIjEEE18__construct_at_endIPKjS6_EEvT_T0_m
	.weak_definition	__ZNSt3__16vectorIjNS_9allocatorIjEEE18__construct_at_endIPKjS6_EEvT_T0_m
	.p2align	2
__ZNSt3__16vectorIjNS_9allocatorIjEEE18__construct_at_endIPKjS6_EEvT_T0_m: ; @_ZNSt3__16vectorIjNS_9allocatorIjEEE18__construct_at_endIPKjS6_EEvT_T0_m
Lfunc_begin5:
	.cfi_startproc
	.cfi_personality 155, ___gxx_personality_v0
	.cfi_lsda 16, Lexception5
; %bb.0:
	sub	sp, sp, #112
	stp	x29, x30, [sp, #96]             ; 16-byte Folded Spill
	add	x29, sp, #96
	.cfi_def_cfa w29, 16
	.cfi_offset w30, -8
	.cfi_offset w29, -16
	stur	x0, [x29, #-8]
	stur	x1, [x29, #-16]
	stur	x2, [x29, #-24]
	stur	x3, [x29, #-32]
	ldur	x1, [x29, #-8]
	str	x1, [sp, #8]                    ; 8-byte Folded Spill
	ldur	x2, [x29, #-32]
	add	x0, sp, #40
	bl	__ZNSt3__16vectorIjNS_9allocatorIjEEE21_ConstructTransactionC1B8ne200100ERS3_m
	ldr	x8, [sp, #8]                    ; 8-byte Folded Reload
	ldur	x1, [x29, #-16]
	ldur	x2, [x29, #-24]
	ldr	x3, [sp, #48]
Ltmp214:
	add	x0, x8, #16
	bl	__ZNSt3__130__uninitialized_allocator_copyB8ne200100INS_9allocatorIjEEPKjS4_PjEET2_RT_T0_T1_S6_
	str	x0, [sp, #16]                   ; 8-byte Folded Spill
Ltmp215:
	b	LBB76_1
LBB76_1:
	ldr	x8, [sp, #16]                   ; 8-byte Folded Reload
	add	x0, sp, #40
	str	x8, [sp, #48]
	bl	__ZNSt3__16vectorIjNS_9allocatorIjEEE21_ConstructTransactionD1B8ne200100Ev
	ldp	x29, x30, [sp, #96]             ; 16-byte Folded Reload
	add	sp, sp, #112
	ret
LBB76_2:
Ltmp216:
	str	x0, [sp, #32]
	mov	x8, x1
	str	w8, [sp, #28]
	add	x0, sp, #40
	bl	__ZNSt3__16vectorIjNS_9allocatorIjEEE21_ConstructTransactionD1B8ne200100Ev
	b	LBB76_3
LBB76_3:
	ldr	x0, [sp, #32]
	bl	__Unwind_Resume
Lfunc_end5:
	.cfi_endproc
	.section	__TEXT,__gcc_except_tab
	.p2align	2, 0x0
GCC_except_table76:
Lexception5:
	.byte	255                             ; @LPStart Encoding = omit
	.byte	255                             ; @TType Encoding = omit
	.byte	1                               ; Call site Encoding = uleb128
	.uleb128 Lcst_end5-Lcst_begin5
Lcst_begin5:
	.uleb128 Lfunc_begin5-Lfunc_begin5      ; >> Call Site 1 <<
	.uleb128 Ltmp214-Lfunc_begin5           ;   Call between Lfunc_begin5 and Ltmp214
	.byte	0                               ;     has no landing pad
	.byte	0                               ;   On action: cleanup
	.uleb128 Ltmp214-Lfunc_begin5           ; >> Call Site 2 <<
	.uleb128 Ltmp215-Ltmp214                ;   Call between Ltmp214 and Ltmp215
	.uleb128 Ltmp216-Lfunc_begin5           ;     jumps to Ltmp216
	.byte	0                               ;   On action: cleanup
	.uleb128 Ltmp215-Lfunc_begin5           ; >> Call Site 3 <<
	.uleb128 Lfunc_end5-Ltmp215             ;   Call between Ltmp215 and Lfunc_end5
	.byte	0                               ;     has no landing pad
	.byte	0                               ;   On action: cleanup
Lcst_end5:
	.p2align	2, 0x0
                                        ; -- End function
	.section	__TEXT,__text,regular,pure_instructions
	.private_extern	__ZNSt3__128__exception_guard_exceptionsINS_6vectorIjNS_9allocatorIjEEE16__destroy_vectorEE10__completeB8ne200100Ev ; -- Begin function _ZNSt3__128__exception_guard_exceptionsINS_6vectorIjNS_9allocatorIjEEE16__destroy_vectorEE10__completeB8ne200100Ev
	.globl	__ZNSt3__128__exception_guard_exceptionsINS_6vectorIjNS_9allocatorIjEEE16__destroy_vectorEE10__completeB8ne200100Ev
	.weak_definition	__ZNSt3__128__exception_guard_exceptionsINS_6vectorIjNS_9allocatorIjEEE16__destroy_vectorEE10__completeB8ne200100Ev
	.p2align	2
__ZNSt3__128__exception_guard_exceptionsINS_6vectorIjNS_9allocatorIjEEE16__destroy_vectorEE10__completeB8ne200100Ev: ; @_ZNSt3__128__exception_guard_exceptionsINS_6vectorIjNS_9allocatorIjEEE16__destroy_vectorEE10__completeB8ne200100Ev
	.cfi_startproc
; %bb.0:
	sub	sp, sp, #16
	.cfi_def_cfa_offset 16
	str	x0, [sp, #8]
	ldr	x9, [sp, #8]
	mov	w8, #1                          ; =0x1
	strb	w8, [x9, #8]
	add	sp, sp, #16
	ret
	.cfi_endproc
                                        ; -- End function
	.private_extern	__ZNSt3__128__exception_guard_exceptionsINS_6vectorIjNS_9allocatorIjEEE16__destroy_vectorEED1B8ne200100Ev ; -- Begin function _ZNSt3__128__exception_guard_exceptionsINS_6vectorIjNS_9allocatorIjEEE16__destroy_vectorEED1B8ne200100Ev
	.globl	__ZNSt3__128__exception_guard_exceptionsINS_6vectorIjNS_9allocatorIjEEE16__destroy_vectorEED1B8ne200100Ev
	.weak_def_can_be_hidden	__ZNSt3__128__exception_guard_exceptionsINS_6vectorIjNS_9allocatorIjEEE16__destroy_vectorEED1B8ne200100Ev
	.p2align	2
__ZNSt3__128__exception_guard_exceptionsINS_6vectorIjNS_9allocatorIjEEE16__destroy_vectorEED1B8ne200100Ev: ; @_ZNSt3__128__exception_guard_exceptionsINS_6vectorIjNS_9allocatorIjEEE16__destroy_vectorEED1B8ne200100Ev
	.cfi_startproc
; %bb.0:
	sub	sp, sp, #32
	stp	x29, x30, [sp, #16]             ; 16-byte Folded Spill
	add	x29, sp, #16
	.cfi_def_cfa w29, 16
	.cfi_offset w30, -8
	.cfi_offset w29, -16
	str	x0, [sp, #8]
	ldr	x0, [sp, #8]
	str	x0, [sp]                        ; 8-byte Folded Spill
	bl	__ZNSt3__128__exception_guard_exceptionsINS_6vectorIjNS_9allocatorIjEEE16__destroy_vectorEED2B8ne200100Ev
	ldr	x0, [sp]                        ; 8-byte Folded Reload
	ldp	x29, x30, [sp, #16]             ; 16-byte Folded Reload
	add	sp, sp, #32
	ret
	.cfi_endproc
                                        ; -- End function
	.private_extern	__ZNSt3__128__exception_guard_exceptionsINS_6vectorIjNS_9allocatorIjEEE16__destroy_vectorEEC1B8ne200100ES5_ ; -- Begin function _ZNSt3__128__exception_guard_exceptionsINS_6vectorIjNS_9allocatorIjEEE16__destroy_vectorEEC1B8ne200100ES5_
	.globl	__ZNSt3__128__exception_guard_exceptionsINS_6vectorIjNS_9allocatorIjEEE16__destroy_vectorEEC1B8ne200100ES5_
	.weak_def_can_be_hidden	__ZNSt3__128__exception_guard_exceptionsINS_6vectorIjNS_9allocatorIjEEE16__destroy_vectorEEC1B8ne200100ES5_
	.p2align	2
__ZNSt3__128__exception_guard_exceptionsINS_6vectorIjNS_9allocatorIjEEE16__destroy_vectorEEC1B8ne200100ES5_: ; @_ZNSt3__128__exception_guard_exceptionsINS_6vectorIjNS_9allocatorIjEEE16__destroy_vectorEEC1B8ne200100ES5_
	.cfi_startproc
; %bb.0:
	sub	sp, sp, #48
	stp	x29, x30, [sp, #32]             ; 16-byte Folded Spill
	add	x29, sp, #32
	.cfi_def_cfa w29, 16
	.cfi_offset w30, -8
	.cfi_offset w29, -16
	stur	x1, [x29, #-8]
	str	x0, [sp, #16]
	ldr	x0, [sp, #16]
	str	x0, [sp, #8]                    ; 8-byte Folded Spill
	ldur	x1, [x29, #-8]
	bl	__ZNSt3__128__exception_guard_exceptionsINS_6vectorIjNS_9allocatorIjEEE16__destroy_vectorEEC2B8ne200100ES5_
	ldr	x0, [sp, #8]                    ; 8-byte Folded Reload
	ldp	x29, x30, [sp, #32]             ; 16-byte Folded Reload
	add	sp, sp, #48
	ret
	.cfi_endproc
                                        ; -- End function
	.private_extern	__ZNSt3__128__exception_guard_exceptionsINS_6vectorIjNS_9allocatorIjEEE16__destroy_vectorEEC2B8ne200100ES5_ ; -- Begin function _ZNSt3__128__exception_guard_exceptionsINS_6vectorIjNS_9allocatorIjEEE16__destroy_vectorEEC2B8ne200100ES5_
	.globl	__ZNSt3__128__exception_guard_exceptionsINS_6vectorIjNS_9allocatorIjEEE16__destroy_vectorEEC2B8ne200100ES5_
	.weak_def_can_be_hidden	__ZNSt3__128__exception_guard_exceptionsINS_6vectorIjNS_9allocatorIjEEE16__destroy_vectorEEC2B8ne200100ES5_
	.p2align	2
__ZNSt3__128__exception_guard_exceptionsINS_6vectorIjNS_9allocatorIjEEE16__destroy_vectorEEC2B8ne200100ES5_: ; @_ZNSt3__128__exception_guard_exceptionsINS_6vectorIjNS_9allocatorIjEEE16__destroy_vectorEEC2B8ne200100ES5_
	.cfi_startproc
; %bb.0:
	sub	sp, sp, #16
	.cfi_def_cfa_offset 16
	str	x1, [sp, #8]
	str	x0, [sp]
	ldr	x0, [sp]
	ldr	x8, [sp, #8]
	str	x8, [x0]
	strb	wzr, [x0, #8]
	add	sp, sp, #16
	ret
	.cfi_endproc
                                        ; -- End function
	.private_extern	__ZNKSt3__16vectorIjNS_9allocatorIjEEE8max_sizeB8ne200100Ev ; -- Begin function _ZNKSt3__16vectorIjNS_9allocatorIjEEE8max_sizeB8ne200100Ev
	.globl	__ZNKSt3__16vectorIjNS_9allocatorIjEEE8max_sizeB8ne200100Ev
	.weak_definition	__ZNKSt3__16vectorIjNS_9allocatorIjEEE8max_sizeB8ne200100Ev
	.p2align	2
__ZNKSt3__16vectorIjNS_9allocatorIjEEE8max_sizeB8ne200100Ev: ; @_ZNKSt3__16vectorIjNS_9allocatorIjEEE8max_sizeB8ne200100Ev
Lfunc_begin6:
	.cfi_startproc
	.cfi_personality 155, ___gxx_personality_v0
	.cfi_lsda 16, Lexception6
; %bb.0:
	sub	sp, sp, #64
	stp	x29, x30, [sp, #48]             ; 16-byte Folded Spill
	add	x29, sp, #48
	.cfi_def_cfa w29, 16
	.cfi_offset w30, -8
	.cfi_offset w29, -16
	stur	x0, [x29, #-8]
	ldur	x8, [x29, #-8]
	add	x0, x8, #16
	bl	__ZNSt3__116allocator_traitsINS_9allocatorIjEEE8max_sizeB8ne200100IS2_Li0EEEmRKS2_
	sub	x8, x29, #16
	str	x8, [sp, #8]                    ; 8-byte Folded Spill
	stur	x0, [x29, #-16]
	bl	__ZNSt3__114numeric_limitsIlE3maxB8ne200100Ev
	mov	x8, x0
	ldr	x0, [sp, #8]                    ; 8-byte Folded Reload
	add	x1, sp, #24
	str	x8, [sp, #24]
Ltmp219:
	bl	__ZNSt3__13minB8ne200100ImEERKT_S3_S3_
	str	x0, [sp, #16]                   ; 8-byte Folded Spill
Ltmp220:
	b	LBB81_1
LBB81_1:
	ldr	x8, [sp, #16]                   ; 8-byte Folded Reload
	ldr	x0, [x8]
	ldp	x29, x30, [sp, #48]             ; 16-byte Folded Reload
	add	sp, sp, #64
	ret
LBB81_2:
Ltmp221:
	bl	___clang_call_terminate
Lfunc_end6:
	.cfi_endproc
	.section	__TEXT,__gcc_except_tab
	.p2align	2, 0x0
GCC_except_table81:
Lexception6:
	.byte	255                             ; @LPStart Encoding = omit
	.byte	155                             ; @TType Encoding = indirect pcrel sdata4
	.uleb128 Lttbase2-Lttbaseref2
Lttbaseref2:
	.byte	1                               ; Call site Encoding = uleb128
	.uleb128 Lcst_end6-Lcst_begin6
Lcst_begin6:
	.uleb128 Ltmp219-Lfunc_begin6           ; >> Call Site 1 <<
	.uleb128 Ltmp220-Ltmp219                ;   Call between Ltmp219 and Ltmp220
	.uleb128 Ltmp221-Lfunc_begin6           ;     jumps to Ltmp221
	.byte	1                               ;   On action: 1
Lcst_end6:
	.byte	1                               ; >> Action Record 1 <<
                                        ;   Catch TypeInfo 1
	.byte	0                               ;   No further actions
	.p2align	2, 0x0
                                        ; >> Catch TypeInfos <<
	.long	0                               ; TypeInfo 1
Lttbase2:
	.p2align	2, 0x0
                                        ; -- End function
	.section	__TEXT,__text,regular,pure_instructions
	.private_extern	__ZNSt3__16vectorIjNS_9allocatorIjEEE20__throw_length_errorB8ne200100Ev ; -- Begin function _ZNSt3__16vectorIjNS_9allocatorIjEEE20__throw_length_errorB8ne200100Ev
	.globl	__ZNSt3__16vectorIjNS_9allocatorIjEEE20__throw_length_errorB8ne200100Ev
	.weak_definition	__ZNSt3__16vectorIjNS_9allocatorIjEEE20__throw_length_errorB8ne200100Ev
	.p2align	2
__ZNSt3__16vectorIjNS_9allocatorIjEEE20__throw_length_errorB8ne200100Ev: ; @_ZNSt3__16vectorIjNS_9allocatorIjEEE20__throw_length_errorB8ne200100Ev
	.cfi_startproc
; %bb.0:
	stp	x29, x30, [sp, #-16]!           ; 16-byte Folded Spill
	mov	x29, sp
	.cfi_def_cfa w29, 16
	.cfi_offset w30, -8
	.cfi_offset w29, -16
	adrp	x0, l_.str.31@PAGE
	add	x0, x0, l_.str.31@PAGEOFF
	bl	__ZNSt3__120__throw_length_errorB8ne200100EPKc
	.cfi_endproc
                                        ; -- End function
	.private_extern	__ZNSt3__119__allocate_at_leastB8ne200100INS_9allocatorIjEEEENS_19__allocation_resultINS_16allocator_traitsIT_E7pointerEEERS5_m ; -- Begin function _ZNSt3__119__allocate_at_leastB8ne200100INS_9allocatorIjEEEENS_19__allocation_resultINS_16allocator_traitsIT_E7pointerEEERS5_m
	.globl	__ZNSt3__119__allocate_at_leastB8ne200100INS_9allocatorIjEEEENS_19__allocation_resultINS_16allocator_traitsIT_E7pointerEEERS5_m
	.weak_definition	__ZNSt3__119__allocate_at_leastB8ne200100INS_9allocatorIjEEEENS_19__allocation_resultINS_16allocator_traitsIT_E7pointerEEERS5_m
	.p2align	2
__ZNSt3__119__allocate_at_leastB8ne200100INS_9allocatorIjEEEENS_19__allocation_resultINS_16allocator_traitsIT_E7pointerEEERS5_m: ; @_ZNSt3__119__allocate_at_leastB8ne200100INS_9allocatorIjEEEENS_19__allocation_resultINS_16allocator_traitsIT_E7pointerEEERS5_m
	.cfi_startproc
; %bb.0:
	sub	sp, sp, #48
	stp	x29, x30, [sp, #32]             ; 16-byte Folded Spill
	add	x29, sp, #32
	.cfi_def_cfa w29, 16
	.cfi_offset w30, -8
	.cfi_offset w29, -16
	str	x0, [sp, #8]
	str	x1, [sp]
	ldr	x0, [sp, #8]
	ldr	x1, [sp]
	bl	__ZNSt3__19allocatorIjE8allocateB8ne200100Em
	str	x0, [sp, #16]
	ldr	x8, [sp]
	str	x8, [sp, #24]
	ldr	x0, [sp, #16]
	ldr	x1, [sp, #24]
	ldp	x29, x30, [sp, #32]             ; 16-byte Folded Reload
	add	sp, sp, #48
	ret
	.cfi_endproc
                                        ; -- End function
	.private_extern	__ZNKSt3__16vectorIjNS_9allocatorIjEEE14__annotate_newB8ne200100Em ; -- Begin function _ZNKSt3__16vectorIjNS_9allocatorIjEEE14__annotate_newB8ne200100Em
	.globl	__ZNKSt3__16vectorIjNS_9allocatorIjEEE14__annotate_newB8ne200100Em
	.weak_definition	__ZNKSt3__16vectorIjNS_9allocatorIjEEE14__annotate_newB8ne200100Em
	.p2align	2
__ZNKSt3__16vectorIjNS_9allocatorIjEEE14__annotate_newB8ne200100Em: ; @_ZNKSt3__16vectorIjNS_9allocatorIjEEE14__annotate_newB8ne200100Em
	.cfi_startproc
; %bb.0:
	sub	sp, sp, #16
	.cfi_def_cfa_offset 16
	str	x0, [sp, #8]
	str	x1, [sp]
	add	sp, sp, #16
	ret
	.cfi_endproc
                                        ; -- End function
	.private_extern	__ZNSt3__13minB8ne200100ImEERKT_S3_S3_ ; -- Begin function _ZNSt3__13minB8ne200100ImEERKT_S3_S3_
	.globl	__ZNSt3__13minB8ne200100ImEERKT_S3_S3_
	.weak_definition	__ZNSt3__13minB8ne200100ImEERKT_S3_S3_
	.p2align	2
__ZNSt3__13minB8ne200100ImEERKT_S3_S3_: ; @_ZNSt3__13minB8ne200100ImEERKT_S3_S3_
	.cfi_startproc
; %bb.0:
	sub	sp, sp, #48
	stp	x29, x30, [sp, #32]             ; 16-byte Folded Spill
	add	x29, sp, #32
	.cfi_def_cfa w29, 16
	.cfi_offset w30, -8
	.cfi_offset w29, -16
	stur	x0, [x29, #-8]
	str	x1, [sp, #16]
	ldur	x0, [x29, #-8]
	ldr	x1, [sp, #16]
	bl	__ZNSt3__13minB8ne200100ImNS_6__lessIvvEEEERKT_S5_S5_T0_
	ldp	x29, x30, [sp, #32]             ; 16-byte Folded Reload
	add	sp, sp, #48
	ret
	.cfi_endproc
                                        ; -- End function
	.globl	__ZNSt3__116allocator_traitsINS_9allocatorIjEEE8max_sizeB8ne200100IS2_Li0EEEmRKS2_ ; -- Begin function _ZNSt3__116allocator_traitsINS_9allocatorIjEEE8max_sizeB8ne200100IS2_Li0EEEmRKS2_
	.weak_definition	__ZNSt3__116allocator_traitsINS_9allocatorIjEEE8max_sizeB8ne200100IS2_Li0EEEmRKS2_
	.p2align	2
__ZNSt3__116allocator_traitsINS_9allocatorIjEEE8max_sizeB8ne200100IS2_Li0EEEmRKS2_: ; @_ZNSt3__116allocator_traitsINS_9allocatorIjEEE8max_sizeB8ne200100IS2_Li0EEEmRKS2_
	.cfi_startproc
; %bb.0:
	sub	sp, sp, #32
	stp	x29, x30, [sp, #16]             ; 16-byte Folded Spill
	add	x29, sp, #16
	.cfi_def_cfa w29, 16
	.cfi_offset w30, -8
	.cfi_offset w29, -16
	str	x0, [sp, #8]
	ldr	x0, [sp, #8]
	bl	__ZNKSt3__19allocatorIjE8max_sizeB8ne200100Ev
	ldp	x29, x30, [sp, #16]             ; 16-byte Folded Reload
	add	sp, sp, #32
	ret
	.cfi_endproc
                                        ; -- End function
	.private_extern	__ZNSt3__114numeric_limitsIlE3maxB8ne200100Ev ; -- Begin function _ZNSt3__114numeric_limitsIlE3maxB8ne200100Ev
	.globl	__ZNSt3__114numeric_limitsIlE3maxB8ne200100Ev
	.weak_definition	__ZNSt3__114numeric_limitsIlE3maxB8ne200100Ev
	.p2align	2
__ZNSt3__114numeric_limitsIlE3maxB8ne200100Ev: ; @_ZNSt3__114numeric_limitsIlE3maxB8ne200100Ev
	.cfi_startproc
; %bb.0:
	stp	x29, x30, [sp, #-16]!           ; 16-byte Folded Spill
	mov	x29, sp
	.cfi_def_cfa w29, 16
	.cfi_offset w30, -8
	.cfi_offset w29, -16
	bl	__ZNSt3__123__libcpp_numeric_limitsIlLb1EE3maxB8ne200100Ev
	ldp	x29, x30, [sp], #16             ; 16-byte Folded Reload
	ret
	.cfi_endproc
                                        ; -- End function
	.private_extern	__ZNSt3__13minB8ne200100ImNS_6__lessIvvEEEERKT_S5_S5_T0_ ; -- Begin function _ZNSt3__13minB8ne200100ImNS_6__lessIvvEEEERKT_S5_S5_T0_
	.globl	__ZNSt3__13minB8ne200100ImNS_6__lessIvvEEEERKT_S5_S5_T0_
	.weak_definition	__ZNSt3__13minB8ne200100ImNS_6__lessIvvEEEERKT_S5_S5_T0_
	.p2align	2
__ZNSt3__13minB8ne200100ImNS_6__lessIvvEEEERKT_S5_S5_T0_: ; @_ZNSt3__13minB8ne200100ImNS_6__lessIvvEEEERKT_S5_S5_T0_
	.cfi_startproc
; %bb.0:
	sub	sp, sp, #48
	stp	x29, x30, [sp, #32]             ; 16-byte Folded Spill
	add	x29, sp, #32
	.cfi_def_cfa w29, 16
	.cfi_offset w30, -8
	.cfi_offset w29, -16
	str	x0, [sp, #16]
	str	x1, [sp, #8]
	ldr	x1, [sp, #8]
	ldr	x2, [sp, #16]
	sub	x0, x29, #1
	bl	__ZNKSt3__16__lessIvvEclB8ne200100ImmEEbRKT_RKT0_
	tbz	w0, #0, LBB88_2
	b	LBB88_1
LBB88_1:
	ldr	x8, [sp, #8]
	str	x8, [sp]                        ; 8-byte Folded Spill
	b	LBB88_3
LBB88_2:
	ldr	x8, [sp, #16]
	str	x8, [sp]                        ; 8-byte Folded Spill
	b	LBB88_3
LBB88_3:
	ldr	x0, [sp]                        ; 8-byte Folded Reload
	ldp	x29, x30, [sp, #32]             ; 16-byte Folded Reload
	add	sp, sp, #48
	ret
	.cfi_endproc
                                        ; -- End function
	.private_extern	__ZNKSt3__16__lessIvvEclB8ne200100ImmEEbRKT_RKT0_ ; -- Begin function _ZNKSt3__16__lessIvvEclB8ne200100ImmEEbRKT_RKT0_
	.globl	__ZNKSt3__16__lessIvvEclB8ne200100ImmEEbRKT_RKT0_
	.weak_definition	__ZNKSt3__16__lessIvvEclB8ne200100ImmEEbRKT_RKT0_
	.p2align	2
__ZNKSt3__16__lessIvvEclB8ne200100ImmEEbRKT_RKT0_: ; @_ZNKSt3__16__lessIvvEclB8ne200100ImmEEbRKT_RKT0_
	.cfi_startproc
; %bb.0:
	sub	sp, sp, #32
	.cfi_def_cfa_offset 32
	str	x0, [sp, #24]
	str	x1, [sp, #16]
	str	x2, [sp, #8]
	ldr	x8, [sp, #16]
	ldr	x8, [x8]
	ldr	x9, [sp, #8]
	ldr	x9, [x9]
	subs	x8, x8, x9
	cset	w0, lo
	add	sp, sp, #32
	ret
	.cfi_endproc
                                        ; -- End function
	.private_extern	__ZNKSt3__19allocatorIjE8max_sizeB8ne200100Ev ; -- Begin function _ZNKSt3__19allocatorIjE8max_sizeB8ne200100Ev
	.globl	__ZNKSt3__19allocatorIjE8max_sizeB8ne200100Ev
	.weak_definition	__ZNKSt3__19allocatorIjE8max_sizeB8ne200100Ev
	.p2align	2
__ZNKSt3__19allocatorIjE8max_sizeB8ne200100Ev: ; @_ZNKSt3__19allocatorIjE8max_sizeB8ne200100Ev
	.cfi_startproc
; %bb.0:
	sub	sp, sp, #16
	.cfi_def_cfa_offset 16
	str	x0, [sp, #8]
	mov	x0, #4611686018427387903        ; =0x3fffffffffffffff
	add	sp, sp, #16
	ret
	.cfi_endproc
                                        ; -- End function
	.private_extern	__ZNSt3__123__libcpp_numeric_limitsIlLb1EE3maxB8ne200100Ev ; -- Begin function _ZNSt3__123__libcpp_numeric_limitsIlLb1EE3maxB8ne200100Ev
	.globl	__ZNSt3__123__libcpp_numeric_limitsIlLb1EE3maxB8ne200100Ev
	.weak_definition	__ZNSt3__123__libcpp_numeric_limitsIlLb1EE3maxB8ne200100Ev
	.p2align	2
__ZNSt3__123__libcpp_numeric_limitsIlLb1EE3maxB8ne200100Ev: ; @_ZNSt3__123__libcpp_numeric_limitsIlLb1EE3maxB8ne200100Ev
	.cfi_startproc
; %bb.0:
	mov	x0, #9223372036854775807        ; =0x7fffffffffffffff
	ret
	.cfi_endproc
                                        ; -- End function
	.private_extern	__ZNSt3__120__throw_length_errorB8ne200100EPKc ; -- Begin function _ZNSt3__120__throw_length_errorB8ne200100EPKc
	.globl	__ZNSt3__120__throw_length_errorB8ne200100EPKc
	.weak_definition	__ZNSt3__120__throw_length_errorB8ne200100EPKc
	.p2align	2
__ZNSt3__120__throw_length_errorB8ne200100EPKc: ; @_ZNSt3__120__throw_length_errorB8ne200100EPKc
Lfunc_begin7:
	.cfi_startproc
	.cfi_personality 155, ___gxx_personality_v0
	.cfi_lsda 16, Lexception7
; %bb.0:
	sub	sp, sp, #48
	stp	x29, x30, [sp, #32]             ; 16-byte Folded Spill
	add	x29, sp, #32
	.cfi_def_cfa w29, 16
	.cfi_offset w30, -8
	.cfi_offset w29, -16
	stur	x0, [x29, #-8]
	mov	x0, #16                         ; =0x10
	bl	___cxa_allocate_exception
	str	x0, [sp]                        ; 8-byte Folded Spill
	ldur	x1, [x29, #-8]
Ltmp225:
	bl	__ZNSt12length_errorC1B8ne200100EPKc
Ltmp226:
	b	LBB92_1
LBB92_1:
	ldr	x0, [sp]                        ; 8-byte Folded Reload
	adrp	x1, __ZTISt12length_error@GOTPAGE
	ldr	x1, [x1, __ZTISt12length_error@GOTPAGEOFF]
	adrp	x2, __ZNSt12length_errorD1Ev@GOTPAGE
	ldr	x2, [x2, __ZNSt12length_errorD1Ev@GOTPAGEOFF]
	bl	___cxa_throw
LBB92_2:
Ltmp227:
	mov	x8, x0
	ldr	x0, [sp]                        ; 8-byte Folded Reload
	str	x8, [sp, #16]
	mov	x8, x1
	str	w8, [sp, #12]
	bl	___cxa_free_exception
	b	LBB92_3
LBB92_3:
	ldr	x0, [sp, #16]
	bl	__Unwind_Resume
Lfunc_end7:
	.cfi_endproc
	.section	__TEXT,__gcc_except_tab
	.p2align	2, 0x0
GCC_except_table92:
Lexception7:
	.byte	255                             ; @LPStart Encoding = omit
	.byte	255                             ; @TType Encoding = omit
	.byte	1                               ; Call site Encoding = uleb128
	.uleb128 Lcst_end7-Lcst_begin7
Lcst_begin7:
	.uleb128 Lfunc_begin7-Lfunc_begin7      ; >> Call Site 1 <<
	.uleb128 Ltmp225-Lfunc_begin7           ;   Call between Lfunc_begin7 and Ltmp225
	.byte	0                               ;     has no landing pad
	.byte	0                               ;   On action: cleanup
	.uleb128 Ltmp225-Lfunc_begin7           ; >> Call Site 2 <<
	.uleb128 Ltmp226-Ltmp225                ;   Call between Ltmp225 and Ltmp226
	.uleb128 Ltmp227-Lfunc_begin7           ;     jumps to Ltmp227
	.byte	0                               ;   On action: cleanup
	.uleb128 Ltmp226-Lfunc_begin7           ; >> Call Site 3 <<
	.uleb128 Lfunc_end7-Ltmp226             ;   Call between Ltmp226 and Lfunc_end7
	.byte	0                               ;     has no landing pad
	.byte	0                               ;   On action: cleanup
Lcst_end7:
	.p2align	2, 0x0
                                        ; -- End function
	.section	__TEXT,__text,regular,pure_instructions
	.private_extern	__ZNSt12length_errorC1B8ne200100EPKc ; -- Begin function _ZNSt12length_errorC1B8ne200100EPKc
	.globl	__ZNSt12length_errorC1B8ne200100EPKc
	.weak_def_can_be_hidden	__ZNSt12length_errorC1B8ne200100EPKc
	.p2align	2
__ZNSt12length_errorC1B8ne200100EPKc:   ; @_ZNSt12length_errorC1B8ne200100EPKc
	.cfi_startproc
; %bb.0:
	sub	sp, sp, #48
	stp	x29, x30, [sp, #32]             ; 16-byte Folded Spill
	add	x29, sp, #32
	.cfi_def_cfa w29, 16
	.cfi_offset w30, -8
	.cfi_offset w29, -16
	stur	x0, [x29, #-8]
	str	x1, [sp, #16]
	ldur	x0, [x29, #-8]
	str	x0, [sp, #8]                    ; 8-byte Folded Spill
	ldr	x1, [sp, #16]
	bl	__ZNSt12length_errorC2B8ne200100EPKc
	ldr	x0, [sp, #8]                    ; 8-byte Folded Reload
	ldp	x29, x30, [sp, #32]             ; 16-byte Folded Reload
	add	sp, sp, #48
	ret
	.cfi_endproc
                                        ; -- End function
	.private_extern	__ZNSt12length_errorC2B8ne200100EPKc ; -- Begin function _ZNSt12length_errorC2B8ne200100EPKc
	.globl	__ZNSt12length_errorC2B8ne200100EPKc
	.weak_def_can_be_hidden	__ZNSt12length_errorC2B8ne200100EPKc
	.p2align	2
__ZNSt12length_errorC2B8ne200100EPKc:   ; @_ZNSt12length_errorC2B8ne200100EPKc
	.cfi_startproc
; %bb.0:
	sub	sp, sp, #48
	stp	x29, x30, [sp, #32]             ; 16-byte Folded Spill
	add	x29, sp, #32
	.cfi_def_cfa w29, 16
	.cfi_offset w30, -8
	.cfi_offset w29, -16
	stur	x0, [x29, #-8]
	str	x1, [sp, #16]
	ldur	x0, [x29, #-8]
	str	x0, [sp, #8]                    ; 8-byte Folded Spill
	ldr	x1, [sp, #16]
	bl	__ZNSt11logic_errorC2EPKc
	ldr	x0, [sp, #8]                    ; 8-byte Folded Reload
	adrp	x8, __ZTVSt12length_error@GOTPAGE
	ldr	x8, [x8, __ZTVSt12length_error@GOTPAGEOFF]
	add	x8, x8, #16
	str	x8, [x0]
	ldp	x29, x30, [sp, #32]             ; 16-byte Folded Reload
	add	sp, sp, #48
	ret
	.cfi_endproc
                                        ; -- End function
	.private_extern	__ZNSt3__19allocatorIjE8allocateB8ne200100Em ; -- Begin function _ZNSt3__19allocatorIjE8allocateB8ne200100Em
	.globl	__ZNSt3__19allocatorIjE8allocateB8ne200100Em
	.weak_definition	__ZNSt3__19allocatorIjE8allocateB8ne200100Em
	.p2align	2
__ZNSt3__19allocatorIjE8allocateB8ne200100Em: ; @_ZNSt3__19allocatorIjE8allocateB8ne200100Em
	.cfi_startproc
; %bb.0:
	sub	sp, sp, #48
	stp	x29, x30, [sp, #32]             ; 16-byte Folded Spill
	add	x29, sp, #32
	.cfi_def_cfa w29, 16
	.cfi_offset w30, -8
	.cfi_offset w29, -16
	stur	x0, [x29, #-8]
	str	x1, [sp, #16]
	ldur	x0, [x29, #-8]
	ldr	x8, [sp, #16]
	str	x8, [sp, #8]                    ; 8-byte Folded Spill
	bl	__ZNSt3__116allocator_traitsINS_9allocatorIjEEE8max_sizeB8ne200100IS2_Li0EEEmRKS2_
	ldr	x8, [sp, #8]                    ; 8-byte Folded Reload
	subs	x8, x8, x0
	b.ls	LBB95_2
	b	LBB95_1
LBB95_1:
	bl	__ZSt28__throw_bad_array_new_lengthB8ne200100v
LBB95_2:
	ldr	x0, [sp, #16]
	mov	x1, #4                          ; =0x4
	bl	__ZNSt3__117__libcpp_allocateB8ne200100IjEEPT_NS_15__element_countEm
	ldp	x29, x30, [sp, #32]             ; 16-byte Folded Reload
	add	sp, sp, #48
	ret
	.cfi_endproc
                                        ; -- End function
	.private_extern	__ZSt28__throw_bad_array_new_lengthB8ne200100v ; -- Begin function _ZSt28__throw_bad_array_new_lengthB8ne200100v
	.globl	__ZSt28__throw_bad_array_new_lengthB8ne200100v
	.weak_definition	__ZSt28__throw_bad_array_new_lengthB8ne200100v
	.p2align	2
__ZSt28__throw_bad_array_new_lengthB8ne200100v: ; @_ZSt28__throw_bad_array_new_lengthB8ne200100v
	.cfi_startproc
; %bb.0:
	sub	sp, sp, #32
	stp	x29, x30, [sp, #16]             ; 16-byte Folded Spill
	add	x29, sp, #16
	.cfi_def_cfa w29, 16
	.cfi_offset w30, -8
	.cfi_offset w29, -16
	mov	x0, #8                          ; =0x8
	bl	___cxa_allocate_exception
	str	x0, [sp, #8]                    ; 8-byte Folded Spill
	bl	__ZNSt20bad_array_new_lengthC1Ev
	ldr	x0, [sp, #8]                    ; 8-byte Folded Reload
	adrp	x1, __ZTISt20bad_array_new_length@GOTPAGE
	ldr	x1, [x1, __ZTISt20bad_array_new_length@GOTPAGEOFF]
	adrp	x2, __ZNSt20bad_array_new_lengthD1Ev@GOTPAGE
	ldr	x2, [x2, __ZNSt20bad_array_new_lengthD1Ev@GOTPAGEOFF]
	bl	___cxa_throw
	.cfi_endproc
                                        ; -- End function
	.private_extern	__ZNSt3__117__libcpp_allocateB8ne200100IjEEPT_NS_15__element_countEm ; -- Begin function _ZNSt3__117__libcpp_allocateB8ne200100IjEEPT_NS_15__element_countEm
	.globl	__ZNSt3__117__libcpp_allocateB8ne200100IjEEPT_NS_15__element_countEm
	.weak_definition	__ZNSt3__117__libcpp_allocateB8ne200100IjEEPT_NS_15__element_countEm
	.p2align	2
__ZNSt3__117__libcpp_allocateB8ne200100IjEEPT_NS_15__element_countEm: ; @_ZNSt3__117__libcpp_allocateB8ne200100IjEEPT_NS_15__element_countEm
	.cfi_startproc
; %bb.0:
	sub	sp, sp, #48
	stp	x29, x30, [sp, #32]             ; 16-byte Folded Spill
	add	x29, sp, #32
	.cfi_def_cfa w29, 16
	.cfi_offset w30, -8
	.cfi_offset w29, -16
	stur	x0, [x29, #-8]
	str	x1, [sp, #16]
	ldur	x8, [x29, #-8]
	lsl	x8, x8, #2
	str	x8, [sp, #8]
	ldr	x0, [sp, #8]
	bl	__ZNSt3__121__libcpp_operator_newB8ne200100IjEEPvm
	ldp	x29, x30, [sp, #32]             ; 16-byte Folded Reload
	add	sp, sp, #48
	ret
	.cfi_endproc
                                        ; -- End function
	.private_extern	__ZNSt3__121__libcpp_operator_newB8ne200100IjEEPvm ; -- Begin function _ZNSt3__121__libcpp_operator_newB8ne200100IjEEPvm
	.globl	__ZNSt3__121__libcpp_operator_newB8ne200100IjEEPvm
	.weak_definition	__ZNSt3__121__libcpp_operator_newB8ne200100IjEEPvm
	.p2align	2
__ZNSt3__121__libcpp_operator_newB8ne200100IjEEPvm: ; @_ZNSt3__121__libcpp_operator_newB8ne200100IjEEPvm
	.cfi_startproc
; %bb.0:
	sub	sp, sp, #32
	stp	x29, x30, [sp, #16]             ; 16-byte Folded Spill
	add	x29, sp, #16
	.cfi_def_cfa w29, 16
	.cfi_offset w30, -8
	.cfi_offset w29, -16
	str	x0, [sp, #8]
	ldr	x0, [sp, #8]
	bl	__Znwm
	ldp	x29, x30, [sp, #16]             ; 16-byte Folded Reload
	add	sp, sp, #32
	ret
	.cfi_endproc
                                        ; -- End function
	.private_extern	__ZNSt3__16vectorIjNS_9allocatorIjEEE21_ConstructTransactionC1B8ne200100ERS3_m ; -- Begin function _ZNSt3__16vectorIjNS_9allocatorIjEEE21_ConstructTransactionC1B8ne200100ERS3_m
	.globl	__ZNSt3__16vectorIjNS_9allocatorIjEEE21_ConstructTransactionC1B8ne200100ERS3_m
	.weak_def_can_be_hidden	__ZNSt3__16vectorIjNS_9allocatorIjEEE21_ConstructTransactionC1B8ne200100ERS3_m
	.p2align	2
__ZNSt3__16vectorIjNS_9allocatorIjEEE21_ConstructTransactionC1B8ne200100ERS3_m: ; @_ZNSt3__16vectorIjNS_9allocatorIjEEE21_ConstructTransactionC1B8ne200100ERS3_m
	.cfi_startproc
; %bb.0:
	sub	sp, sp, #48
	stp	x29, x30, [sp, #32]             ; 16-byte Folded Spill
	add	x29, sp, #32
	.cfi_def_cfa w29, 16
	.cfi_offset w30, -8
	.cfi_offset w29, -16
	stur	x0, [x29, #-8]
	str	x1, [sp, #16]
	str	x2, [sp, #8]
	ldur	x0, [x29, #-8]
	str	x0, [sp]                        ; 8-byte Folded Spill
	ldr	x1, [sp, #16]
	ldr	x2, [sp, #8]
	bl	__ZNSt3__16vectorIjNS_9allocatorIjEEE21_ConstructTransactionC2B8ne200100ERS3_m
	ldr	x0, [sp]                        ; 8-byte Folded Reload
	ldp	x29, x30, [sp, #32]             ; 16-byte Folded Reload
	add	sp, sp, #48
	ret
	.cfi_endproc
                                        ; -- End function
	.private_extern	__ZNSt3__130__uninitialized_allocator_copyB8ne200100INS_9allocatorIjEEPKjS4_PjEET2_RT_T0_T1_S6_ ; -- Begin function _ZNSt3__130__uninitialized_allocator_copyB8ne200100INS_9allocatorIjEEPKjS4_PjEET2_RT_T0_T1_S6_
	.globl	__ZNSt3__130__uninitialized_allocator_copyB8ne200100INS_9allocatorIjEEPKjS4_PjEET2_RT_T0_T1_S6_
	.weak_definition	__ZNSt3__130__uninitialized_allocator_copyB8ne200100INS_9allocatorIjEEPKjS4_PjEET2_RT_T0_T1_S6_
	.p2align	2
__ZNSt3__130__uninitialized_allocator_copyB8ne200100INS_9allocatorIjEEPKjS4_PjEET2_RT_T0_T1_S6_: ; @_ZNSt3__130__uninitialized_allocator_copyB8ne200100INS_9allocatorIjEEPKjS4_PjEET2_RT_T0_T1_S6_
	.cfi_startproc
; %bb.0:
	sub	sp, sp, #96
	stp	x29, x30, [sp, #80]             ; 16-byte Folded Spill
	add	x29, sp, #80
	.cfi_def_cfa w29, 16
	.cfi_offset w30, -8
	.cfi_offset w29, -16
	stur	x0, [x29, #-8]
	stur	x1, [x29, #-16]
	stur	x2, [x29, #-24]
	stur	x3, [x29, #-32]
	ldur	x0, [x29, #-16]
	ldur	x1, [x29, #-24]
	bl	__ZNSt3__114__unwrap_rangeB8ne200100IPKjS2_EENS_4pairIT0_S4_EET_S6_
	str	x0, [sp, #32]
	str	x1, [sp, #40]
	ldur	x8, [x29, #-8]
	str	x8, [sp, #16]                   ; 8-byte Folded Spill
	ldr	x8, [sp, #32]
	str	x8, [sp]                        ; 8-byte Folded Spill
	ldr	x8, [sp, #40]
	str	x8, [sp, #8]                    ; 8-byte Folded Spill
	ldur	x0, [x29, #-32]
	bl	__ZNSt3__113__unwrap_iterB8ne200100IPjNS_18__unwrap_iter_implIS1_Lb1EEELi0EEEDTclsrT0_8__unwrapclsr3stdE7declvalIT_EEEES5_
	ldr	x1, [sp]                        ; 8-byte Folded Reload
	ldr	x2, [sp, #8]                    ; 8-byte Folded Reload
	mov	x3, x0
	ldr	x0, [sp, #16]                   ; 8-byte Folded Reload
	bl	__ZNSt3__135__uninitialized_allocator_copy_implB8ne200100INS_9allocatorIjEEPKjS4_PjEET2_RT_T0_T1_S6_
	str	x0, [sp, #24]
	ldur	x0, [x29, #-32]
	ldr	x1, [sp, #24]
	bl	__ZNSt3__113__rewrap_iterB8ne200100IPjS1_NS_18__unwrap_iter_implIS1_Lb1EEEEET_S4_T0_
	ldp	x29, x30, [sp, #80]             ; 16-byte Folded Reload
	add	sp, sp, #96
	ret
	.cfi_endproc
                                        ; -- End function
	.private_extern	__ZNSt3__16vectorIjNS_9allocatorIjEEE21_ConstructTransactionD1B8ne200100Ev ; -- Begin function _ZNSt3__16vectorIjNS_9allocatorIjEEE21_ConstructTransactionD1B8ne200100Ev
	.globl	__ZNSt3__16vectorIjNS_9allocatorIjEEE21_ConstructTransactionD1B8ne200100Ev
	.weak_def_can_be_hidden	__ZNSt3__16vectorIjNS_9allocatorIjEEE21_ConstructTransactionD1B8ne200100Ev
	.p2align	2
__ZNSt3__16vectorIjNS_9allocatorIjEEE21_ConstructTransactionD1B8ne200100Ev: ; @_ZNSt3__16vectorIjNS_9allocatorIjEEE21_ConstructTransactionD1B8ne200100Ev
	.cfi_startproc
; %bb.0:
	sub	sp, sp, #32
	stp	x29, x30, [sp, #16]             ; 16-byte Folded Spill
	add	x29, sp, #16
	.cfi_def_cfa w29, 16
	.cfi_offset w30, -8
	.cfi_offset w29, -16
	str	x0, [sp, #8]
	ldr	x0, [sp, #8]
	str	x0, [sp]                        ; 8-byte Folded Spill
	bl	__ZNSt3__16vectorIjNS_9allocatorIjEEE21_ConstructTransactionD2B8ne200100Ev
	ldr	x0, [sp]                        ; 8-byte Folded Reload
	ldp	x29, x30, [sp, #16]             ; 16-byte Folded Reload
	add	sp, sp, #32
	ret
	.cfi_endproc
                                        ; -- End function
	.private_extern	__ZNSt3__16vectorIjNS_9allocatorIjEEE21_ConstructTransactionC2B8ne200100ERS3_m ; -- Begin function _ZNSt3__16vectorIjNS_9allocatorIjEEE21_ConstructTransactionC2B8ne200100ERS3_m
	.globl	__ZNSt3__16vectorIjNS_9allocatorIjEEE21_ConstructTransactionC2B8ne200100ERS3_m
	.weak_def_can_be_hidden	__ZNSt3__16vectorIjNS_9allocatorIjEEE21_ConstructTransactionC2B8ne200100ERS3_m
	.p2align	2
__ZNSt3__16vectorIjNS_9allocatorIjEEE21_ConstructTransactionC2B8ne200100ERS3_m: ; @_ZNSt3__16vectorIjNS_9allocatorIjEEE21_ConstructTransactionC2B8ne200100ERS3_m
	.cfi_startproc
; %bb.0:
	sub	sp, sp, #32
	.cfi_def_cfa_offset 32
	str	x0, [sp, #24]
	str	x1, [sp, #16]
	str	x2, [sp, #8]
	ldr	x0, [sp, #24]
	ldr	x8, [sp, #16]
	str	x8, [x0]
	ldr	x8, [sp, #16]
	ldr	x8, [x8, #8]
	str	x8, [x0, #8]
	ldr	x8, [sp, #16]
	ldr	x8, [x8, #8]
	ldr	x9, [sp, #8]
	add	x8, x8, x9, lsl #2
	str	x8, [x0, #16]
	add	sp, sp, #32
	ret
	.cfi_endproc
                                        ; -- End function
	.private_extern	__ZNSt3__114__unwrap_rangeB8ne200100IPKjS2_EENS_4pairIT0_S4_EET_S6_ ; -- Begin function _ZNSt3__114__unwrap_rangeB8ne200100IPKjS2_EENS_4pairIT0_S4_EET_S6_
	.globl	__ZNSt3__114__unwrap_rangeB8ne200100IPKjS2_EENS_4pairIT0_S4_EET_S6_
	.weak_definition	__ZNSt3__114__unwrap_rangeB8ne200100IPKjS2_EENS_4pairIT0_S4_EET_S6_
	.p2align	2
__ZNSt3__114__unwrap_rangeB8ne200100IPKjS2_EENS_4pairIT0_S4_EET_S6_: ; @_ZNSt3__114__unwrap_rangeB8ne200100IPKjS2_EENS_4pairIT0_S4_EET_S6_
	.cfi_startproc
; %bb.0:
	sub	sp, sp, #80
	stp	x29, x30, [sp, #64]             ; 16-byte Folded Spill
	add	x29, sp, #64
	.cfi_def_cfa w29, 16
	.cfi_offset w30, -8
	.cfi_offset w29, -16
	stur	x0, [x29, #-24]
	str	x1, [sp, #32]
	ldur	x0, [x29, #-24]
	bl	__ZNSt3__113__unwrap_iterB8ne200100IPKjNS_18__unwrap_iter_implIS2_Lb1EEELi0EEEDTclsrT0_8__unwrapclsr3stdE7declvalIT_EEEES6_
	add	x8, sp, #24
	str	x8, [sp, #8]                    ; 8-byte Folded Spill
	str	x0, [sp, #24]
	ldr	x0, [sp, #32]
	bl	__ZNSt3__113__unwrap_iterB8ne200100IPKjNS_18__unwrap_iter_implIS2_Lb1EEELi0EEEDTclsrT0_8__unwrapclsr3stdE7declvalIT_EEEES6_
	mov	x8, x0
	ldr	x0, [sp, #8]                    ; 8-byte Folded Reload
	add	x1, sp, #16
	str	x8, [sp, #16]
	bl	__ZNSt3__19make_pairB8ne200100IPKjS2_EENS_4pairINS_18__unwrap_referenceIu7__decayIT_EE4typeENS4_Iu7__decayIT0_EE4typeEEEOS5_OS9_
	stur	x0, [x29, #-16]
	stur	x1, [x29, #-8]
	ldur	x0, [x29, #-16]
	ldur	x1, [x29, #-8]
	ldp	x29, x30, [sp, #64]             ; 16-byte Folded Reload
	add	sp, sp, #80
	ret
	.cfi_endproc
                                        ; -- End function
	.private_extern	__ZNSt3__135__uninitialized_allocator_copy_implB8ne200100INS_9allocatorIjEEPKjS4_PjEET2_RT_T0_T1_S6_ ; -- Begin function _ZNSt3__135__uninitialized_allocator_copy_implB8ne200100INS_9allocatorIjEEPKjS4_PjEET2_RT_T0_T1_S6_
	.globl	__ZNSt3__135__uninitialized_allocator_copy_implB8ne200100INS_9allocatorIjEEPKjS4_PjEET2_RT_T0_T1_S6_
	.weak_definition	__ZNSt3__135__uninitialized_allocator_copy_implB8ne200100INS_9allocatorIjEEPKjS4_PjEET2_RT_T0_T1_S6_
	.p2align	2
__ZNSt3__135__uninitialized_allocator_copy_implB8ne200100INS_9allocatorIjEEPKjS4_PjEET2_RT_T0_T1_S6_: ; @_ZNSt3__135__uninitialized_allocator_copy_implB8ne200100INS_9allocatorIjEEPKjS4_PjEET2_RT_T0_T1_S6_
Lfunc_begin8:
	.cfi_startproc
	.cfi_personality 155, ___gxx_personality_v0
	.cfi_lsda 16, Lexception8
; %bb.0:
	sub	sp, sp, #160
	stp	x29, x30, [sp, #144]            ; 16-byte Folded Spill
	add	x29, sp, #144
	.cfi_def_cfa w29, 16
	.cfi_offset w30, -8
	.cfi_offset w29, -16
	mov	x8, x3
	stur	x0, [x29, #-8]
	stur	x1, [x29, #-16]
	stur	x2, [x29, #-24]
	sub	x3, x29, #32
	stur	x8, [x29, #-32]
	ldur	x8, [x29, #-32]
	sub	x2, x29, #40
	stur	x8, [x29, #-40]
	ldur	x1, [x29, #-8]
	add	x0, sp, #48
	str	x0, [sp, #24]                   ; 8-byte Folded Spill
	bl	__ZNSt3__129_AllocatorDestroyRangeReverseINS_9allocatorIjEEPjEC1B8ne200100ERS2_RS3_S6_
	ldr	x0, [sp, #24]                   ; 8-byte Folded Reload
	add	x8, sp, #72
	bl	__ZNSt3__122__make_exception_guardB8ne200100INS_29_AllocatorDestroyRangeReverseINS_9allocatorIjEEPjEEEENS_28__exception_guard_exceptionsIT_EES7_
	b	LBB104_1
LBB104_1:                               ; =>This Inner Loop Header: Depth=1
	ldur	x8, [x29, #-16]
	ldur	x9, [x29, #-24]
	subs	x8, x8, x9
	b.eq	LBB104_5
	b	LBB104_2
LBB104_2:                               ;   in Loop: Header=BB104_1 Depth=1
	ldur	x8, [x29, #-8]
	str	x8, [sp, #16]                   ; 8-byte Folded Spill
	ldur	x0, [x29, #-32]
	bl	__ZNSt3__112__to_addressB8ne200100IjEEPT_S2_
	mov	x1, x0
	ldr	x0, [sp, #16]                   ; 8-byte Folded Reload
	ldur	x2, [x29, #-16]
Ltmp229:
	bl	__ZNSt3__116allocator_traitsINS_9allocatorIjEEE9constructB8ne200100IjJRKjELi0EEEvRS2_PT_DpOT0_
Ltmp230:
	b	LBB104_3
LBB104_3:                               ;   in Loop: Header=BB104_1 Depth=1
	ldur	x8, [x29, #-16]
	add	x8, x8, #4
	stur	x8, [x29, #-16]
	ldur	x8, [x29, #-32]
	add	x8, x8, #4
	stur	x8, [x29, #-32]
	b	LBB104_1
LBB104_4:
Ltmp231:
	str	x0, [sp, #40]
	mov	x8, x1
	str	w8, [sp, #36]
	add	x0, sp, #72
	bl	__ZNSt3__128__exception_guard_exceptionsINS_29_AllocatorDestroyRangeReverseINS_9allocatorIjEEPjEEED1B8ne200100Ev
	b	LBB104_6
LBB104_5:
	add	x0, sp, #72
	str	x0, [sp]                        ; 8-byte Folded Spill
	bl	__ZNSt3__128__exception_guard_exceptionsINS_29_AllocatorDestroyRangeReverseINS_9allocatorIjEEPjEEE10__completeB8ne200100Ev
	ldr	x0, [sp]                        ; 8-byte Folded Reload
	ldur	x8, [x29, #-32]
	str	x8, [sp, #8]                    ; 8-byte Folded Spill
	bl	__ZNSt3__128__exception_guard_exceptionsINS_29_AllocatorDestroyRangeReverseINS_9allocatorIjEEPjEEED1B8ne200100Ev
	ldr	x0, [sp, #8]                    ; 8-byte Folded Reload
	ldp	x29, x30, [sp, #144]            ; 16-byte Folded Reload
	add	sp, sp, #160
	ret
LBB104_6:
	ldr	x0, [sp, #40]
	bl	__Unwind_Resume
Lfunc_end8:
	.cfi_endproc
	.section	__TEXT,__gcc_except_tab
	.p2align	2, 0x0
GCC_except_table104:
Lexception8:
	.byte	255                             ; @LPStart Encoding = omit
	.byte	255                             ; @TType Encoding = omit
	.byte	1                               ; Call site Encoding = uleb128
	.uleb128 Lcst_end8-Lcst_begin8
Lcst_begin8:
	.uleb128 Lfunc_begin8-Lfunc_begin8      ; >> Call Site 1 <<
	.uleb128 Ltmp229-Lfunc_begin8           ;   Call between Lfunc_begin8 and Ltmp229
	.byte	0                               ;     has no landing pad
	.byte	0                               ;   On action: cleanup
	.uleb128 Ltmp229-Lfunc_begin8           ; >> Call Site 2 <<
	.uleb128 Ltmp230-Ltmp229                ;   Call between Ltmp229 and Ltmp230
	.uleb128 Ltmp231-Lfunc_begin8           ;     jumps to Ltmp231
	.byte	0                               ;   On action: cleanup
	.uleb128 Ltmp230-Lfunc_begin8           ; >> Call Site 3 <<
	.uleb128 Lfunc_end8-Ltmp230             ;   Call between Ltmp230 and Lfunc_end8
	.byte	0                               ;     has no landing pad
	.byte	0                               ;   On action: cleanup
Lcst_end8:
	.p2align	2, 0x0
                                        ; -- End function
	.section	__TEXT,__text,regular,pure_instructions
	.private_extern	__ZNSt3__113__unwrap_iterB8ne200100IPjNS_18__unwrap_iter_implIS1_Lb1EEELi0EEEDTclsrT0_8__unwrapclsr3stdE7declvalIT_EEEES5_ ; -- Begin function _ZNSt3__113__unwrap_iterB8ne200100IPjNS_18__unwrap_iter_implIS1_Lb1EEELi0EEEDTclsrT0_8__unwrapclsr3stdE7declvalIT_EEEES5_
	.globl	__ZNSt3__113__unwrap_iterB8ne200100IPjNS_18__unwrap_iter_implIS1_Lb1EEELi0EEEDTclsrT0_8__unwrapclsr3stdE7declvalIT_EEEES5_
	.weak_definition	__ZNSt3__113__unwrap_iterB8ne200100IPjNS_18__unwrap_iter_implIS1_Lb1EEELi0EEEDTclsrT0_8__unwrapclsr3stdE7declvalIT_EEEES5_
	.p2align	2
__ZNSt3__113__unwrap_iterB8ne200100IPjNS_18__unwrap_iter_implIS1_Lb1EEELi0EEEDTclsrT0_8__unwrapclsr3stdE7declvalIT_EEEES5_: ; @_ZNSt3__113__unwrap_iterB8ne200100IPjNS_18__unwrap_iter_implIS1_Lb1EEELi0EEEDTclsrT0_8__unwrapclsr3stdE7declvalIT_EEEES5_
	.cfi_startproc
; %bb.0:
	sub	sp, sp, #32
	stp	x29, x30, [sp, #16]             ; 16-byte Folded Spill
	add	x29, sp, #16
	.cfi_def_cfa w29, 16
	.cfi_offset w30, -8
	.cfi_offset w29, -16
	str	x0, [sp, #8]
	ldr	x0, [sp, #8]
	bl	__ZNSt3__118__unwrap_iter_implIPjLb1EE8__unwrapB8ne200100ES1_
	ldp	x29, x30, [sp, #16]             ; 16-byte Folded Reload
	add	sp, sp, #32
	ret
	.cfi_endproc
                                        ; -- End function
	.private_extern	__ZNSt3__113__rewrap_iterB8ne200100IPjS1_NS_18__unwrap_iter_implIS1_Lb1EEEEET_S4_T0_ ; -- Begin function _ZNSt3__113__rewrap_iterB8ne200100IPjS1_NS_18__unwrap_iter_implIS1_Lb1EEEEET_S4_T0_
	.globl	__ZNSt3__113__rewrap_iterB8ne200100IPjS1_NS_18__unwrap_iter_implIS1_Lb1EEEEET_S4_T0_
	.weak_definition	__ZNSt3__113__rewrap_iterB8ne200100IPjS1_NS_18__unwrap_iter_implIS1_Lb1EEEEET_S4_T0_
	.p2align	2
__ZNSt3__113__rewrap_iterB8ne200100IPjS1_NS_18__unwrap_iter_implIS1_Lb1EEEEET_S4_T0_: ; @_ZNSt3__113__rewrap_iterB8ne200100IPjS1_NS_18__unwrap_iter_implIS1_Lb1EEEEET_S4_T0_
Lfunc_begin9:
	.cfi_startproc
	.cfi_personality 155, ___gxx_personality_v0
	.cfi_lsda 16, Lexception9
; %bb.0:
	sub	sp, sp, #48
	stp	x29, x30, [sp, #32]             ; 16-byte Folded Spill
	add	x29, sp, #32
	.cfi_def_cfa w29, 16
	.cfi_offset w30, -8
	.cfi_offset w29, -16
	stur	x0, [x29, #-8]
	str	x1, [sp, #16]
	ldur	x0, [x29, #-8]
	ldr	x1, [sp, #16]
Ltmp232:
	bl	__ZNSt3__118__unwrap_iter_implIPjLb1EE8__rewrapB8ne200100ES1_S1_
	str	x0, [sp, #8]                    ; 8-byte Folded Spill
Ltmp233:
	b	LBB106_1
LBB106_1:
	ldr	x0, [sp, #8]                    ; 8-byte Folded Reload
	ldp	x29, x30, [sp, #32]             ; 16-byte Folded Reload
	add	sp, sp, #48
	ret
LBB106_2:
Ltmp234:
	bl	___clang_call_terminate
Lfunc_end9:
	.cfi_endproc
	.section	__TEXT,__gcc_except_tab
	.p2align	2, 0x0
GCC_except_table106:
Lexception9:
	.byte	255                             ; @LPStart Encoding = omit
	.byte	155                             ; @TType Encoding = indirect pcrel sdata4
	.uleb128 Lttbase3-Lttbaseref3
Lttbaseref3:
	.byte	1                               ; Call site Encoding = uleb128
	.uleb128 Lcst_end9-Lcst_begin9
Lcst_begin9:
	.uleb128 Ltmp232-Lfunc_begin9           ; >> Call Site 1 <<
	.uleb128 Ltmp233-Ltmp232                ;   Call between Ltmp232 and Ltmp233
	.uleb128 Ltmp234-Lfunc_begin9           ;     jumps to Ltmp234
	.byte	1                               ;   On action: 1
Lcst_end9:
	.byte	1                               ; >> Action Record 1 <<
                                        ;   Catch TypeInfo 1
	.byte	0                               ;   No further actions
	.p2align	2, 0x0
                                        ; >> Catch TypeInfos <<
	.long	0                               ; TypeInfo 1
Lttbase3:
	.p2align	2, 0x0
                                        ; -- End function
	.section	__TEXT,__text,regular,pure_instructions
	.private_extern	__ZNSt3__19make_pairB8ne200100IPKjS2_EENS_4pairINS_18__unwrap_referenceIu7__decayIT_EE4typeENS4_Iu7__decayIT0_EE4typeEEEOS5_OS9_ ; -- Begin function _ZNSt3__19make_pairB8ne200100IPKjS2_EENS_4pairINS_18__unwrap_referenceIu7__decayIT_EE4typeENS4_Iu7__decayIT0_EE4typeEEEOS5_OS9_
	.globl	__ZNSt3__19make_pairB8ne200100IPKjS2_EENS_4pairINS_18__unwrap_referenceIu7__decayIT_EE4typeENS4_Iu7__decayIT0_EE4typeEEEOS5_OS9_
	.weak_definition	__ZNSt3__19make_pairB8ne200100IPKjS2_EENS_4pairINS_18__unwrap_referenceIu7__decayIT_EE4typeENS4_Iu7__decayIT0_EE4typeEEEOS5_OS9_
	.p2align	2
__ZNSt3__19make_pairB8ne200100IPKjS2_EENS_4pairINS_18__unwrap_referenceIu7__decayIT_EE4typeENS4_Iu7__decayIT0_EE4typeEEEOS5_OS9_: ; @_ZNSt3__19make_pairB8ne200100IPKjS2_EENS_4pairINS_18__unwrap_referenceIu7__decayIT_EE4typeENS4_Iu7__decayIT0_EE4typeEEEOS5_OS9_
	.cfi_startproc
; %bb.0:
	sub	sp, sp, #48
	stp	x29, x30, [sp, #32]             ; 16-byte Folded Spill
	add	x29, sp, #32
	.cfi_def_cfa w29, 16
	.cfi_offset w30, -8
	.cfi_offset w29, -16
	str	x0, [sp, #8]
	str	x1, [sp]
	ldr	x1, [sp, #8]
	ldr	x2, [sp]
	add	x0, sp, #16
	bl	__ZNSt3__14pairIPKjS2_EC1B8ne200100IS2_S2_Li0EEEOT_OT0_
	ldr	x0, [sp, #16]
	ldr	x1, [sp, #24]
	ldp	x29, x30, [sp, #32]             ; 16-byte Folded Reload
	add	sp, sp, #48
	ret
	.cfi_endproc
                                        ; -- End function
	.private_extern	__ZNSt3__113__unwrap_iterB8ne200100IPKjNS_18__unwrap_iter_implIS2_Lb1EEELi0EEEDTclsrT0_8__unwrapclsr3stdE7declvalIT_EEEES6_ ; -- Begin function _ZNSt3__113__unwrap_iterB8ne200100IPKjNS_18__unwrap_iter_implIS2_Lb1EEELi0EEEDTclsrT0_8__unwrapclsr3stdE7declvalIT_EEEES6_
	.globl	__ZNSt3__113__unwrap_iterB8ne200100IPKjNS_18__unwrap_iter_implIS2_Lb1EEELi0EEEDTclsrT0_8__unwrapclsr3stdE7declvalIT_EEEES6_
	.weak_definition	__ZNSt3__113__unwrap_iterB8ne200100IPKjNS_18__unwrap_iter_implIS2_Lb1EEELi0EEEDTclsrT0_8__unwrapclsr3stdE7declvalIT_EEEES6_
	.p2align	2
__ZNSt3__113__unwrap_iterB8ne200100IPKjNS_18__unwrap_iter_implIS2_Lb1EEELi0EEEDTclsrT0_8__unwrapclsr3stdE7declvalIT_EEEES6_: ; @_ZNSt3__113__unwrap_iterB8ne200100IPKjNS_18__unwrap_iter_implIS2_Lb1EEELi0EEEDTclsrT0_8__unwrapclsr3stdE7declvalIT_EEEES6_
	.cfi_startproc
; %bb.0:
	sub	sp, sp, #32
	stp	x29, x30, [sp, #16]             ; 16-byte Folded Spill
	add	x29, sp, #16
	.cfi_def_cfa w29, 16
	.cfi_offset w30, -8
	.cfi_offset w29, -16
	str	x0, [sp, #8]
	ldr	x0, [sp, #8]
	bl	__ZNSt3__118__unwrap_iter_implIPKjLb1EE8__unwrapB8ne200100ES2_
	ldp	x29, x30, [sp, #16]             ; 16-byte Folded Reload
	add	sp, sp, #32
	ret
	.cfi_endproc
                                        ; -- End function
	.globl	__ZNSt3__14pairIPKjS2_EC1B8ne200100IS2_S2_Li0EEEOT_OT0_ ; -- Begin function _ZNSt3__14pairIPKjS2_EC1B8ne200100IS2_S2_Li0EEEOT_OT0_
	.weak_def_can_be_hidden	__ZNSt3__14pairIPKjS2_EC1B8ne200100IS2_S2_Li0EEEOT_OT0_
	.p2align	2
__ZNSt3__14pairIPKjS2_EC1B8ne200100IS2_S2_Li0EEEOT_OT0_: ; @_ZNSt3__14pairIPKjS2_EC1B8ne200100IS2_S2_Li0EEEOT_OT0_
	.cfi_startproc
; %bb.0:
	sub	sp, sp, #48
	stp	x29, x30, [sp, #32]             ; 16-byte Folded Spill
	add	x29, sp, #32
	.cfi_def_cfa w29, 16
	.cfi_offset w30, -8
	.cfi_offset w29, -16
	stur	x0, [x29, #-8]
	str	x1, [sp, #16]
	str	x2, [sp, #8]
	ldur	x0, [x29, #-8]
	str	x0, [sp]                        ; 8-byte Folded Spill
	ldr	x1, [sp, #16]
	ldr	x2, [sp, #8]
	bl	__ZNSt3__14pairIPKjS2_EC2B8ne200100IS2_S2_Li0EEEOT_OT0_
	ldr	x0, [sp]                        ; 8-byte Folded Reload
	ldp	x29, x30, [sp, #32]             ; 16-byte Folded Reload
	add	sp, sp, #48
	ret
	.cfi_endproc
                                        ; -- End function
	.globl	__ZNSt3__14pairIPKjS2_EC2B8ne200100IS2_S2_Li0EEEOT_OT0_ ; -- Begin function _ZNSt3__14pairIPKjS2_EC2B8ne200100IS2_S2_Li0EEEOT_OT0_
	.weak_def_can_be_hidden	__ZNSt3__14pairIPKjS2_EC2B8ne200100IS2_S2_Li0EEEOT_OT0_
	.p2align	2
__ZNSt3__14pairIPKjS2_EC2B8ne200100IS2_S2_Li0EEEOT_OT0_: ; @_ZNSt3__14pairIPKjS2_EC2B8ne200100IS2_S2_Li0EEEOT_OT0_
	.cfi_startproc
; %bb.0:
	sub	sp, sp, #32
	.cfi_def_cfa_offset 32
	str	x0, [sp, #24]
	str	x1, [sp, #16]
	str	x2, [sp, #8]
	ldr	x0, [sp, #24]
	ldr	x8, [sp, #16]
	ldr	x8, [x8]
	str	x8, [x0]
	ldr	x8, [sp, #8]
	ldr	x8, [x8]
	str	x8, [x0, #8]
	add	sp, sp, #32
	ret
	.cfi_endproc
                                        ; -- End function
	.private_extern	__ZNSt3__118__unwrap_iter_implIPKjLb1EE8__unwrapB8ne200100ES2_ ; -- Begin function _ZNSt3__118__unwrap_iter_implIPKjLb1EE8__unwrapB8ne200100ES2_
	.globl	__ZNSt3__118__unwrap_iter_implIPKjLb1EE8__unwrapB8ne200100ES2_
	.weak_definition	__ZNSt3__118__unwrap_iter_implIPKjLb1EE8__unwrapB8ne200100ES2_
	.p2align	2
__ZNSt3__118__unwrap_iter_implIPKjLb1EE8__unwrapB8ne200100ES2_: ; @_ZNSt3__118__unwrap_iter_implIPKjLb1EE8__unwrapB8ne200100ES2_
	.cfi_startproc
; %bb.0:
	sub	sp, sp, #32
	stp	x29, x30, [sp, #16]             ; 16-byte Folded Spill
	add	x29, sp, #16
	.cfi_def_cfa w29, 16
	.cfi_offset w30, -8
	.cfi_offset w29, -16
	str	x0, [sp, #8]
	ldr	x0, [sp, #8]
	bl	__ZNSt3__112__to_addressB8ne200100IKjEEPT_S3_
	ldp	x29, x30, [sp, #16]             ; 16-byte Folded Reload
	add	sp, sp, #32
	ret
	.cfi_endproc
                                        ; -- End function
	.private_extern	__ZNSt3__112__to_addressB8ne200100IKjEEPT_S3_ ; -- Begin function _ZNSt3__112__to_addressB8ne200100IKjEEPT_S3_
	.globl	__ZNSt3__112__to_addressB8ne200100IKjEEPT_S3_
	.weak_definition	__ZNSt3__112__to_addressB8ne200100IKjEEPT_S3_
	.p2align	2
__ZNSt3__112__to_addressB8ne200100IKjEEPT_S3_: ; @_ZNSt3__112__to_addressB8ne200100IKjEEPT_S3_
	.cfi_startproc
; %bb.0:
	sub	sp, sp, #16
	.cfi_def_cfa_offset 16
	str	x0, [sp, #8]
	ldr	x0, [sp, #8]
	add	sp, sp, #16
	ret
	.cfi_endproc
                                        ; -- End function
	.private_extern	__ZNSt3__122__make_exception_guardB8ne200100INS_29_AllocatorDestroyRangeReverseINS_9allocatorIjEEPjEEEENS_28__exception_guard_exceptionsIT_EES7_ ; -- Begin function _ZNSt3__122__make_exception_guardB8ne200100INS_29_AllocatorDestroyRangeReverseINS_9allocatorIjEEPjEEEENS_28__exception_guard_exceptionsIT_EES7_
	.globl	__ZNSt3__122__make_exception_guardB8ne200100INS_29_AllocatorDestroyRangeReverseINS_9allocatorIjEEPjEEEENS_28__exception_guard_exceptionsIT_EES7_
	.weak_definition	__ZNSt3__122__make_exception_guardB8ne200100INS_29_AllocatorDestroyRangeReverseINS_9allocatorIjEEPjEEEENS_28__exception_guard_exceptionsIT_EES7_
	.p2align	2
__ZNSt3__122__make_exception_guardB8ne200100INS_29_AllocatorDestroyRangeReverseINS_9allocatorIjEEPjEEEENS_28__exception_guard_exceptionsIT_EES7_: ; @_ZNSt3__122__make_exception_guardB8ne200100INS_29_AllocatorDestroyRangeReverseINS_9allocatorIjEEPjEEEENS_28__exception_guard_exceptionsIT_EES7_
	.cfi_startproc
; %bb.0:
	sub	sp, sp, #80
	stp	x29, x30, [sp, #64]             ; 16-byte Folded Spill
	add	x29, sp, #64
	.cfi_def_cfa w29, 16
	.cfi_offset w30, -8
	.cfi_offset w29, -16
	str	x8, [sp, #8]                    ; 8-byte Folded Spill
	mov	x8, x0
	ldr	x0, [sp, #8]                    ; 8-byte Folded Reload
	mov	x9, x0
	stur	x9, [x29, #-8]
	mov	x9, x8
	stur	x9, [x29, #-16]
	ldr	q0, [x8]
	add	x1, sp, #16
	str	q0, [sp, #16]
	ldr	x8, [x8, #16]
	str	x8, [sp, #32]
	bl	__ZNSt3__128__exception_guard_exceptionsINS_29_AllocatorDestroyRangeReverseINS_9allocatorIjEEPjEEEC1B8ne200100ES5_
	ldp	x29, x30, [sp, #64]             ; 16-byte Folded Reload
	add	sp, sp, #80
	ret
	.cfi_endproc
                                        ; -- End function
	.private_extern	__ZNSt3__129_AllocatorDestroyRangeReverseINS_9allocatorIjEEPjEC1B8ne200100ERS2_RS3_S6_ ; -- Begin function _ZNSt3__129_AllocatorDestroyRangeReverseINS_9allocatorIjEEPjEC1B8ne200100ERS2_RS3_S6_
	.globl	__ZNSt3__129_AllocatorDestroyRangeReverseINS_9allocatorIjEEPjEC1B8ne200100ERS2_RS3_S6_
	.weak_def_can_be_hidden	__ZNSt3__129_AllocatorDestroyRangeReverseINS_9allocatorIjEEPjEC1B8ne200100ERS2_RS3_S6_
	.p2align	2
__ZNSt3__129_AllocatorDestroyRangeReverseINS_9allocatorIjEEPjEC1B8ne200100ERS2_RS3_S6_: ; @_ZNSt3__129_AllocatorDestroyRangeReverseINS_9allocatorIjEEPjEC1B8ne200100ERS2_RS3_S6_
	.cfi_startproc
; %bb.0:
	sub	sp, sp, #64
	stp	x29, x30, [sp, #48]             ; 16-byte Folded Spill
	add	x29, sp, #48
	.cfi_def_cfa w29, 16
	.cfi_offset w30, -8
	.cfi_offset w29, -16
	stur	x0, [x29, #-8]
	stur	x1, [x29, #-16]
	str	x2, [sp, #24]
	str	x3, [sp, #16]
	ldur	x0, [x29, #-8]
	str	x0, [sp, #8]                    ; 8-byte Folded Spill
	ldur	x1, [x29, #-16]
	ldr	x2, [sp, #24]
	ldr	x3, [sp, #16]
	bl	__ZNSt3__129_AllocatorDestroyRangeReverseINS_9allocatorIjEEPjEC2B8ne200100ERS2_RS3_S6_
	ldr	x0, [sp, #8]                    ; 8-byte Folded Reload
	ldp	x29, x30, [sp, #48]             ; 16-byte Folded Reload
	add	sp, sp, #64
	ret
	.cfi_endproc
                                        ; -- End function
	.globl	__ZNSt3__116allocator_traitsINS_9allocatorIjEEE9constructB8ne200100IjJRKjELi0EEEvRS2_PT_DpOT0_ ; -- Begin function _ZNSt3__116allocator_traitsINS_9allocatorIjEEE9constructB8ne200100IjJRKjELi0EEEvRS2_PT_DpOT0_
	.weak_definition	__ZNSt3__116allocator_traitsINS_9allocatorIjEEE9constructB8ne200100IjJRKjELi0EEEvRS2_PT_DpOT0_
	.p2align	2
__ZNSt3__116allocator_traitsINS_9allocatorIjEEE9constructB8ne200100IjJRKjELi0EEEvRS2_PT_DpOT0_: ; @_ZNSt3__116allocator_traitsINS_9allocatorIjEEE9constructB8ne200100IjJRKjELi0EEEvRS2_PT_DpOT0_
	.cfi_startproc
; %bb.0:
	sub	sp, sp, #48
	stp	x29, x30, [sp, #32]             ; 16-byte Folded Spill
	add	x29, sp, #32
	.cfi_def_cfa w29, 16
	.cfi_offset w30, -8
	.cfi_offset w29, -16
	stur	x0, [x29, #-8]
	str	x1, [sp, #16]
	str	x2, [sp, #8]
	ldur	x0, [x29, #-8]
	ldr	x1, [sp, #16]
	ldr	x2, [sp, #8]
	bl	__ZNSt3__19allocatorIjE9constructB8ne200100IjJRKjEEEvPT_DpOT0_
	ldp	x29, x30, [sp, #32]             ; 16-byte Folded Reload
	add	sp, sp, #48
	ret
	.cfi_endproc
                                        ; -- End function
	.private_extern	__ZNSt3__128__exception_guard_exceptionsINS_29_AllocatorDestroyRangeReverseINS_9allocatorIjEEPjEEE10__completeB8ne200100Ev ; -- Begin function _ZNSt3__128__exception_guard_exceptionsINS_29_AllocatorDestroyRangeReverseINS_9allocatorIjEEPjEEE10__completeB8ne200100Ev
	.globl	__ZNSt3__128__exception_guard_exceptionsINS_29_AllocatorDestroyRangeReverseINS_9allocatorIjEEPjEEE10__completeB8ne200100Ev
	.weak_definition	__ZNSt3__128__exception_guard_exceptionsINS_29_AllocatorDestroyRangeReverseINS_9allocatorIjEEPjEEE10__completeB8ne200100Ev
	.p2align	2
__ZNSt3__128__exception_guard_exceptionsINS_29_AllocatorDestroyRangeReverseINS_9allocatorIjEEPjEEE10__completeB8ne200100Ev: ; @_ZNSt3__128__exception_guard_exceptionsINS_29_AllocatorDestroyRangeReverseINS_9allocatorIjEEPjEEE10__completeB8ne200100Ev
	.cfi_startproc
; %bb.0:
	sub	sp, sp, #16
	.cfi_def_cfa_offset 16
	str	x0, [sp, #8]
	ldr	x9, [sp, #8]
	mov	w8, #1                          ; =0x1
	strb	w8, [x9, #24]
	add	sp, sp, #16
	ret
	.cfi_endproc
                                        ; -- End function
	.private_extern	__ZNSt3__128__exception_guard_exceptionsINS_29_AllocatorDestroyRangeReverseINS_9allocatorIjEEPjEEED1B8ne200100Ev ; -- Begin function _ZNSt3__128__exception_guard_exceptionsINS_29_AllocatorDestroyRangeReverseINS_9allocatorIjEEPjEEED1B8ne200100Ev
	.globl	__ZNSt3__128__exception_guard_exceptionsINS_29_AllocatorDestroyRangeReverseINS_9allocatorIjEEPjEEED1B8ne200100Ev
	.weak_def_can_be_hidden	__ZNSt3__128__exception_guard_exceptionsINS_29_AllocatorDestroyRangeReverseINS_9allocatorIjEEPjEEED1B8ne200100Ev
	.p2align	2
__ZNSt3__128__exception_guard_exceptionsINS_29_AllocatorDestroyRangeReverseINS_9allocatorIjEEPjEEED1B8ne200100Ev: ; @_ZNSt3__128__exception_guard_exceptionsINS_29_AllocatorDestroyRangeReverseINS_9allocatorIjEEPjEEED1B8ne200100Ev
	.cfi_startproc
; %bb.0:
	sub	sp, sp, #32
	stp	x29, x30, [sp, #16]             ; 16-byte Folded Spill
	add	x29, sp, #16
	.cfi_def_cfa w29, 16
	.cfi_offset w30, -8
	.cfi_offset w29, -16
	str	x0, [sp, #8]
	ldr	x0, [sp, #8]
	str	x0, [sp]                        ; 8-byte Folded Spill
	bl	__ZNSt3__128__exception_guard_exceptionsINS_29_AllocatorDestroyRangeReverseINS_9allocatorIjEEPjEEED2B8ne200100Ev
	ldr	x0, [sp]                        ; 8-byte Folded Reload
	ldp	x29, x30, [sp, #16]             ; 16-byte Folded Reload
	add	sp, sp, #32
	ret
	.cfi_endproc
                                        ; -- End function
	.private_extern	__ZNSt3__128__exception_guard_exceptionsINS_29_AllocatorDestroyRangeReverseINS_9allocatorIjEEPjEEEC1B8ne200100ES5_ ; -- Begin function _ZNSt3__128__exception_guard_exceptionsINS_29_AllocatorDestroyRangeReverseINS_9allocatorIjEEPjEEEC1B8ne200100ES5_
	.globl	__ZNSt3__128__exception_guard_exceptionsINS_29_AllocatorDestroyRangeReverseINS_9allocatorIjEEPjEEEC1B8ne200100ES5_
	.weak_def_can_be_hidden	__ZNSt3__128__exception_guard_exceptionsINS_29_AllocatorDestroyRangeReverseINS_9allocatorIjEEPjEEEC1B8ne200100ES5_
	.p2align	2
__ZNSt3__128__exception_guard_exceptionsINS_29_AllocatorDestroyRangeReverseINS_9allocatorIjEEPjEEEC1B8ne200100ES5_: ; @_ZNSt3__128__exception_guard_exceptionsINS_29_AllocatorDestroyRangeReverseINS_9allocatorIjEEPjEEEC1B8ne200100ES5_
	.cfi_startproc
; %bb.0:
	sub	sp, sp, #48
	stp	x29, x30, [sp, #32]             ; 16-byte Folded Spill
	add	x29, sp, #32
	.cfi_def_cfa w29, 16
	.cfi_offset w30, -8
	.cfi_offset w29, -16
	stur	x0, [x29, #-8]
	mov	x8, x1
	str	x8, [sp, #16]
	ldur	x0, [x29, #-8]
	str	x0, [sp, #8]                    ; 8-byte Folded Spill
	bl	__ZNSt3__128__exception_guard_exceptionsINS_29_AllocatorDestroyRangeReverseINS_9allocatorIjEEPjEEEC2B8ne200100ES5_
	ldr	x0, [sp, #8]                    ; 8-byte Folded Reload
	ldp	x29, x30, [sp, #32]             ; 16-byte Folded Reload
	add	sp, sp, #48
	ret
	.cfi_endproc
                                        ; -- End function
	.private_extern	__ZNSt3__128__exception_guard_exceptionsINS_29_AllocatorDestroyRangeReverseINS_9allocatorIjEEPjEEEC2B8ne200100ES5_ ; -- Begin function _ZNSt3__128__exception_guard_exceptionsINS_29_AllocatorDestroyRangeReverseINS_9allocatorIjEEPjEEEC2B8ne200100ES5_
	.globl	__ZNSt3__128__exception_guard_exceptionsINS_29_AllocatorDestroyRangeReverseINS_9allocatorIjEEPjEEEC2B8ne200100ES5_
	.weak_def_can_be_hidden	__ZNSt3__128__exception_guard_exceptionsINS_29_AllocatorDestroyRangeReverseINS_9allocatorIjEEPjEEEC2B8ne200100ES5_
	.p2align	2
__ZNSt3__128__exception_guard_exceptionsINS_29_AllocatorDestroyRangeReverseINS_9allocatorIjEEPjEEEC2B8ne200100ES5_: ; @_ZNSt3__128__exception_guard_exceptionsINS_29_AllocatorDestroyRangeReverseINS_9allocatorIjEEPjEEEC2B8ne200100ES5_
	.cfi_startproc
; %bb.0:
	sub	sp, sp, #16
	.cfi_def_cfa_offset 16
	str	x0, [sp, #8]
	mov	x8, x1
	str	x8, [sp]
	ldr	x0, [sp, #8]
	ldr	q0, [x1]
	str	q0, [x0]
	ldr	x8, [x1, #16]
	str	x8, [x0, #16]
	strb	wzr, [x0, #24]
	add	sp, sp, #16
	ret
	.cfi_endproc
                                        ; -- End function
	.private_extern	__ZNSt3__129_AllocatorDestroyRangeReverseINS_9allocatorIjEEPjEC2B8ne200100ERS2_RS3_S6_ ; -- Begin function _ZNSt3__129_AllocatorDestroyRangeReverseINS_9allocatorIjEEPjEC2B8ne200100ERS2_RS3_S6_
	.globl	__ZNSt3__129_AllocatorDestroyRangeReverseINS_9allocatorIjEEPjEC2B8ne200100ERS2_RS3_S6_
	.weak_def_can_be_hidden	__ZNSt3__129_AllocatorDestroyRangeReverseINS_9allocatorIjEEPjEC2B8ne200100ERS2_RS3_S6_
	.p2align	2
__ZNSt3__129_AllocatorDestroyRangeReverseINS_9allocatorIjEEPjEC2B8ne200100ERS2_RS3_S6_: ; @_ZNSt3__129_AllocatorDestroyRangeReverseINS_9allocatorIjEEPjEC2B8ne200100ERS2_RS3_S6_
	.cfi_startproc
; %bb.0:
	sub	sp, sp, #32
	.cfi_def_cfa_offset 32
	str	x0, [sp, #24]
	str	x1, [sp, #16]
	str	x2, [sp, #8]
	str	x3, [sp]
	ldr	x0, [sp, #24]
	ldr	x8, [sp, #16]
	str	x8, [x0]
	ldr	x8, [sp, #8]
	str	x8, [x0, #8]
	ldr	x8, [sp]
	str	x8, [x0, #16]
	add	sp, sp, #32
	ret
	.cfi_endproc
                                        ; -- End function
	.globl	__ZNSt3__19allocatorIjE9constructB8ne200100IjJRKjEEEvPT_DpOT0_ ; -- Begin function _ZNSt3__19allocatorIjE9constructB8ne200100IjJRKjEEEvPT_DpOT0_
	.weak_definition	__ZNSt3__19allocatorIjE9constructB8ne200100IjJRKjEEEvPT_DpOT0_
	.p2align	2
__ZNSt3__19allocatorIjE9constructB8ne200100IjJRKjEEEvPT_DpOT0_: ; @_ZNSt3__19allocatorIjE9constructB8ne200100IjJRKjEEEvPT_DpOT0_
	.cfi_startproc
; %bb.0:
	sub	sp, sp, #32
	.cfi_def_cfa_offset 32
	str	x0, [sp, #24]
	str	x1, [sp, #16]
	str	x2, [sp, #8]
	ldr	x9, [sp, #16]
	ldr	x8, [sp, #8]
	ldr	w8, [x8]
	str	w8, [x9]
	add	sp, sp, #32
	ret
	.cfi_endproc
                                        ; -- End function
	.private_extern	__ZNSt3__128__exception_guard_exceptionsINS_29_AllocatorDestroyRangeReverseINS_9allocatorIjEEPjEEED2B8ne200100Ev ; -- Begin function _ZNSt3__128__exception_guard_exceptionsINS_29_AllocatorDestroyRangeReverseINS_9allocatorIjEEPjEEED2B8ne200100Ev
	.globl	__ZNSt3__128__exception_guard_exceptionsINS_29_AllocatorDestroyRangeReverseINS_9allocatorIjEEPjEEED2B8ne200100Ev
	.weak_def_can_be_hidden	__ZNSt3__128__exception_guard_exceptionsINS_29_AllocatorDestroyRangeReverseINS_9allocatorIjEEPjEEED2B8ne200100Ev
	.p2align	2
__ZNSt3__128__exception_guard_exceptionsINS_29_AllocatorDestroyRangeReverseINS_9allocatorIjEEPjEEED2B8ne200100Ev: ; @_ZNSt3__128__exception_guard_exceptionsINS_29_AllocatorDestroyRangeReverseINS_9allocatorIjEEPjEEED2B8ne200100Ev
Lfunc_begin10:
	.cfi_startproc
	.cfi_personality 155, ___gxx_personality_v0
	.cfi_lsda 16, Lexception10
; %bb.0:
	sub	sp, sp, #48
	stp	x29, x30, [sp, #32]             ; 16-byte Folded Spill
	add	x29, sp, #32
	.cfi_def_cfa w29, 16
	.cfi_offset w30, -8
	.cfi_offset w29, -16
	str	x0, [sp, #16]
	ldr	x8, [sp, #16]
	str	x8, [sp, #8]                    ; 8-byte Folded Spill
	mov	x9, x8
	stur	x9, [x29, #-8]
	ldrb	w8, [x8, #24]
	tbnz	w8, #0, LBB122_3
	b	LBB122_1
LBB122_1:
Ltmp241:
	ldr	x0, [sp, #8]                    ; 8-byte Folded Reload
	bl	__ZNKSt3__129_AllocatorDestroyRangeReverseINS_9allocatorIjEEPjEclB8ne200100Ev
Ltmp242:
	b	LBB122_2
LBB122_2:
	b	LBB122_3
LBB122_3:
	ldur	x0, [x29, #-8]
	ldp	x29, x30, [sp, #32]             ; 16-byte Folded Reload
	add	sp, sp, #48
	ret
LBB122_4:
Ltmp243:
	bl	___clang_call_terminate
Lfunc_end10:
	.cfi_endproc
	.section	__TEXT,__gcc_except_tab
	.p2align	2, 0x0
GCC_except_table122:
Lexception10:
	.byte	255                             ; @LPStart Encoding = omit
	.byte	155                             ; @TType Encoding = indirect pcrel sdata4
	.uleb128 Lttbase4-Lttbaseref4
Lttbaseref4:
	.byte	1                               ; Call site Encoding = uleb128
	.uleb128 Lcst_end10-Lcst_begin10
Lcst_begin10:
	.uleb128 Ltmp241-Lfunc_begin10          ; >> Call Site 1 <<
	.uleb128 Ltmp242-Ltmp241                ;   Call between Ltmp241 and Ltmp242
	.uleb128 Ltmp243-Lfunc_begin10          ;     jumps to Ltmp243
	.byte	1                               ;   On action: 1
Lcst_end10:
	.byte	1                               ; >> Action Record 1 <<
                                        ;   Catch TypeInfo 1
	.byte	0                               ;   No further actions
	.p2align	2, 0x0
                                        ; >> Catch TypeInfos <<
	.long	0                               ; TypeInfo 1
Lttbase4:
	.p2align	2, 0x0
                                        ; -- End function
	.section	__TEXT,__text,regular,pure_instructions
	.private_extern	__ZNKSt3__129_AllocatorDestroyRangeReverseINS_9allocatorIjEEPjEclB8ne200100Ev ; -- Begin function _ZNKSt3__129_AllocatorDestroyRangeReverseINS_9allocatorIjEEPjEclB8ne200100Ev
	.globl	__ZNKSt3__129_AllocatorDestroyRangeReverseINS_9allocatorIjEEPjEclB8ne200100Ev
	.weak_definition	__ZNKSt3__129_AllocatorDestroyRangeReverseINS_9allocatorIjEEPjEclB8ne200100Ev
	.p2align	2
__ZNKSt3__129_AllocatorDestroyRangeReverseINS_9allocatorIjEEPjEclB8ne200100Ev: ; @_ZNKSt3__129_AllocatorDestroyRangeReverseINS_9allocatorIjEEPjEclB8ne200100Ev
	.cfi_startproc
; %bb.0:
	sub	sp, sp, #80
	stp	x29, x30, [sp, #64]             ; 16-byte Folded Spill
	add	x29, sp, #64
	.cfi_def_cfa w29, 16
	.cfi_offset w30, -8
	.cfi_offset w29, -16
	stur	x0, [x29, #-8]
	ldur	x8, [x29, #-8]
	str	x8, [sp, #8]                    ; 8-byte Folded Spill
	ldr	x9, [x8]
	str	x9, [sp, #16]                   ; 8-byte Folded Spill
	ldr	x8, [x8, #16]
	ldr	x1, [x8]
	sub	x0, x29, #24
	bl	__ZNSt3__116reverse_iteratorIPjEC1B8ne200100ES1_
	ldr	x8, [sp, #8]                    ; 8-byte Folded Reload
	ldr	x8, [x8, #8]
	ldr	x1, [x8]
	add	x0, sp, #24
	bl	__ZNSt3__116reverse_iteratorIPjEC1B8ne200100ES1_
	ldr	x0, [sp, #16]                   ; 8-byte Folded Reload
	ldur	x1, [x29, #-24]
	ldur	x2, [x29, #-16]
	ldr	x3, [sp, #24]
	ldr	x4, [sp, #32]
	bl	__ZNSt3__119__allocator_destroyB8ne200100INS_9allocatorIjEENS_16reverse_iteratorIPjEES5_EEvRT_T0_T1_
	ldp	x29, x30, [sp, #64]             ; 16-byte Folded Reload
	add	sp, sp, #80
	ret
	.cfi_endproc
                                        ; -- End function
	.private_extern	__ZNSt3__119__allocator_destroyB8ne200100INS_9allocatorIjEENS_16reverse_iteratorIPjEES5_EEvRT_T0_T1_ ; -- Begin function _ZNSt3__119__allocator_destroyB8ne200100INS_9allocatorIjEENS_16reverse_iteratorIPjEES5_EEvRT_T0_T1_
	.globl	__ZNSt3__119__allocator_destroyB8ne200100INS_9allocatorIjEENS_16reverse_iteratorIPjEES5_EEvRT_T0_T1_
	.weak_definition	__ZNSt3__119__allocator_destroyB8ne200100INS_9allocatorIjEENS_16reverse_iteratorIPjEES5_EEvRT_T0_T1_
	.p2align	2
__ZNSt3__119__allocator_destroyB8ne200100INS_9allocatorIjEENS_16reverse_iteratorIPjEES5_EEvRT_T0_T1_: ; @_ZNSt3__119__allocator_destroyB8ne200100INS_9allocatorIjEENS_16reverse_iteratorIPjEES5_EEvRT_T0_T1_
	.cfi_startproc
; %bb.0:
	sub	sp, sp, #64
	stp	x29, x30, [sp, #48]             ; 16-byte Folded Spill
	add	x29, sp, #48
	.cfi_def_cfa w29, 16
	.cfi_offset w30, -8
	.cfi_offset w29, -16
	stur	x1, [x29, #-16]
	stur	x2, [x29, #-8]
	str	x3, [sp, #16]
	str	x4, [sp, #24]
	str	x0, [sp, #8]
	b	LBB124_1
LBB124_1:                               ; =>This Inner Loop Header: Depth=1
	sub	x0, x29, #16
	add	x1, sp, #16
	bl	__ZNSt3__1neB8ne200100IPjS1_EEbRKNS_16reverse_iteratorIT_EERKNS2_IT0_EE
	tbz	w0, #0, LBB124_4
	b	LBB124_2
LBB124_2:                               ;   in Loop: Header=BB124_1 Depth=1
	ldr	x8, [sp, #8]
	str	x8, [sp]                        ; 8-byte Folded Spill
	sub	x0, x29, #16
	bl	__ZNSt3__112__to_addressB8ne200100INS_16reverse_iteratorIPjEELi0EEEu7__decayIDTclsr19__to_address_helperIT_EE6__callclsr3stdE7declvalIRKS4_EEEEES6_
	mov	x1, x0
	ldr	x0, [sp]                        ; 8-byte Folded Reload
	bl	__ZNSt3__116allocator_traitsINS_9allocatorIjEEE7destroyB8ne200100IjLi0EEEvRS2_PT_
	b	LBB124_3
LBB124_3:                               ;   in Loop: Header=BB124_1 Depth=1
	sub	x0, x29, #16
	bl	__ZNSt3__116reverse_iteratorIPjEppB8ne200100Ev
	b	LBB124_1
LBB124_4:
	ldp	x29, x30, [sp, #48]             ; 16-byte Folded Reload
	add	sp, sp, #64
	ret
	.cfi_endproc
                                        ; -- End function
	.private_extern	__ZNSt3__116reverse_iteratorIPjEC1B8ne200100ES1_ ; -- Begin function _ZNSt3__116reverse_iteratorIPjEC1B8ne200100ES1_
	.globl	__ZNSt3__116reverse_iteratorIPjEC1B8ne200100ES1_
	.weak_def_can_be_hidden	__ZNSt3__116reverse_iteratorIPjEC1B8ne200100ES1_
	.p2align	2
__ZNSt3__116reverse_iteratorIPjEC1B8ne200100ES1_: ; @_ZNSt3__116reverse_iteratorIPjEC1B8ne200100ES1_
	.cfi_startproc
; %bb.0:
	sub	sp, sp, #48
	stp	x29, x30, [sp, #32]             ; 16-byte Folded Spill
	add	x29, sp, #32
	.cfi_def_cfa w29, 16
	.cfi_offset w30, -8
	.cfi_offset w29, -16
	stur	x0, [x29, #-8]
	str	x1, [sp, #16]
	ldur	x0, [x29, #-8]
	str	x0, [sp, #8]                    ; 8-byte Folded Spill
	ldr	x1, [sp, #16]
	bl	__ZNSt3__116reverse_iteratorIPjEC2B8ne200100ES1_
	ldr	x0, [sp, #8]                    ; 8-byte Folded Reload
	ldp	x29, x30, [sp, #32]             ; 16-byte Folded Reload
	add	sp, sp, #48
	ret
	.cfi_endproc
                                        ; -- End function
	.private_extern	__ZNSt3__1neB8ne200100IPjS1_EEbRKNS_16reverse_iteratorIT_EERKNS2_IT0_EE ; -- Begin function _ZNSt3__1neB8ne200100IPjS1_EEbRKNS_16reverse_iteratorIT_EERKNS2_IT0_EE
	.globl	__ZNSt3__1neB8ne200100IPjS1_EEbRKNS_16reverse_iteratorIT_EERKNS2_IT0_EE
	.weak_definition	__ZNSt3__1neB8ne200100IPjS1_EEbRKNS_16reverse_iteratorIT_EERKNS2_IT0_EE
	.p2align	2
__ZNSt3__1neB8ne200100IPjS1_EEbRKNS_16reverse_iteratorIT_EERKNS2_IT0_EE: ; @_ZNSt3__1neB8ne200100IPjS1_EEbRKNS_16reverse_iteratorIT_EERKNS2_IT0_EE
	.cfi_startproc
; %bb.0:
	sub	sp, sp, #48
	stp	x29, x30, [sp, #32]             ; 16-byte Folded Spill
	add	x29, sp, #32
	.cfi_def_cfa w29, 16
	.cfi_offset w30, -8
	.cfi_offset w29, -16
	stur	x0, [x29, #-8]
	str	x1, [sp, #16]
	ldur	x0, [x29, #-8]
	bl	__ZNKSt3__116reverse_iteratorIPjE4baseB8ne200100Ev
	str	x0, [sp, #8]                    ; 8-byte Folded Spill
	ldr	x0, [sp, #16]
	bl	__ZNKSt3__116reverse_iteratorIPjE4baseB8ne200100Ev
	mov	x8, x0
	ldr	x0, [sp, #8]                    ; 8-byte Folded Reload
	subs	x8, x0, x8
	cset	w0, ne
	ldp	x29, x30, [sp, #32]             ; 16-byte Folded Reload
	add	sp, sp, #48
	ret
	.cfi_endproc
                                        ; -- End function
	.private_extern	__ZNSt3__112__to_addressB8ne200100INS_16reverse_iteratorIPjEELi0EEEu7__decayIDTclsr19__to_address_helperIT_EE6__callclsr3stdE7declvalIRKS4_EEEEES6_ ; -- Begin function _ZNSt3__112__to_addressB8ne200100INS_16reverse_iteratorIPjEELi0EEEu7__decayIDTclsr19__to_address_helperIT_EE6__callclsr3stdE7declvalIRKS4_EEEEES6_
	.globl	__ZNSt3__112__to_addressB8ne200100INS_16reverse_iteratorIPjEELi0EEEu7__decayIDTclsr19__to_address_helperIT_EE6__callclsr3stdE7declvalIRKS4_EEEEES6_
	.weak_definition	__ZNSt3__112__to_addressB8ne200100INS_16reverse_iteratorIPjEELi0EEEu7__decayIDTclsr19__to_address_helperIT_EE6__callclsr3stdE7declvalIRKS4_EEEEES6_
	.p2align	2
__ZNSt3__112__to_addressB8ne200100INS_16reverse_iteratorIPjEELi0EEEu7__decayIDTclsr19__to_address_helperIT_EE6__callclsr3stdE7declvalIRKS4_EEEEES6_: ; @_ZNSt3__112__to_addressB8ne200100INS_16reverse_iteratorIPjEELi0EEEu7__decayIDTclsr19__to_address_helperIT_EE6__callclsr3stdE7declvalIRKS4_EEEEES6_
	.cfi_startproc
; %bb.0:
	sub	sp, sp, #32
	stp	x29, x30, [sp, #16]             ; 16-byte Folded Spill
	add	x29, sp, #16
	.cfi_def_cfa w29, 16
	.cfi_offset w30, -8
	.cfi_offset w29, -16
	str	x0, [sp, #8]
	ldr	x0, [sp, #8]
	bl	__ZNSt3__119__to_address_helperINS_16reverse_iteratorIPjEEvE6__callB8ne200100ERKS3_
	ldp	x29, x30, [sp, #16]             ; 16-byte Folded Reload
	add	sp, sp, #32
	ret
	.cfi_endproc
                                        ; -- End function
	.private_extern	__ZNSt3__116reverse_iteratorIPjEppB8ne200100Ev ; -- Begin function _ZNSt3__116reverse_iteratorIPjEppB8ne200100Ev
	.globl	__ZNSt3__116reverse_iteratorIPjEppB8ne200100Ev
	.weak_definition	__ZNSt3__116reverse_iteratorIPjEppB8ne200100Ev
	.p2align	2
__ZNSt3__116reverse_iteratorIPjEppB8ne200100Ev: ; @_ZNSt3__116reverse_iteratorIPjEppB8ne200100Ev
	.cfi_startproc
; %bb.0:
	sub	sp, sp, #16
	.cfi_def_cfa_offset 16
	str	x0, [sp, #8]
	ldr	x0, [sp, #8]
	ldr	x8, [x0, #8]
	subs	x8, x8, #4
	str	x8, [x0, #8]
	add	sp, sp, #16
	ret
	.cfi_endproc
                                        ; -- End function
	.private_extern	__ZNKSt3__116reverse_iteratorIPjE4baseB8ne200100Ev ; -- Begin function _ZNKSt3__116reverse_iteratorIPjE4baseB8ne200100Ev
	.globl	__ZNKSt3__116reverse_iteratorIPjE4baseB8ne200100Ev
	.weak_definition	__ZNKSt3__116reverse_iteratorIPjE4baseB8ne200100Ev
	.p2align	2
__ZNKSt3__116reverse_iteratorIPjE4baseB8ne200100Ev: ; @_ZNKSt3__116reverse_iteratorIPjE4baseB8ne200100Ev
	.cfi_startproc
; %bb.0:
	sub	sp, sp, #16
	.cfi_def_cfa_offset 16
	str	x0, [sp, #8]
	ldr	x8, [sp, #8]
	ldr	x0, [x8, #8]
	add	sp, sp, #16
	ret
	.cfi_endproc
                                        ; -- End function
	.private_extern	__ZNSt3__119__to_address_helperINS_16reverse_iteratorIPjEEvE6__callB8ne200100ERKS3_ ; -- Begin function _ZNSt3__119__to_address_helperINS_16reverse_iteratorIPjEEvE6__callB8ne200100ERKS3_
	.globl	__ZNSt3__119__to_address_helperINS_16reverse_iteratorIPjEEvE6__callB8ne200100ERKS3_
	.weak_definition	__ZNSt3__119__to_address_helperINS_16reverse_iteratorIPjEEvE6__callB8ne200100ERKS3_
	.p2align	2
__ZNSt3__119__to_address_helperINS_16reverse_iteratorIPjEEvE6__callB8ne200100ERKS3_: ; @_ZNSt3__119__to_address_helperINS_16reverse_iteratorIPjEEvE6__callB8ne200100ERKS3_
Lfunc_begin11:
	.cfi_startproc
	.cfi_personality 155, ___gxx_personality_v0
	.cfi_lsda 16, Lexception11
; %bb.0:
	sub	sp, sp, #32
	stp	x29, x30, [sp, #16]             ; 16-byte Folded Spill
	add	x29, sp, #16
	.cfi_def_cfa w29, 16
	.cfi_offset w30, -8
	.cfi_offset w29, -16
	str	x0, [sp, #8]
	ldr	x0, [sp, #8]
Ltmp246:
	bl	__ZNKSt3__116reverse_iteratorIPjEptB8ne200100Ev
	str	x0, [sp]                        ; 8-byte Folded Spill
Ltmp247:
	b	LBB130_1
LBB130_1:
	ldr	x0, [sp]                        ; 8-byte Folded Reload
	bl	__ZNSt3__112__to_addressB8ne200100IjEEPT_S2_
	ldp	x29, x30, [sp, #16]             ; 16-byte Folded Reload
	add	sp, sp, #32
	ret
LBB130_2:
Ltmp248:
	bl	___clang_call_terminate
Lfunc_end11:
	.cfi_endproc
	.section	__TEXT,__gcc_except_tab
	.p2align	2, 0x0
GCC_except_table130:
Lexception11:
	.byte	255                             ; @LPStart Encoding = omit
	.byte	155                             ; @TType Encoding = indirect pcrel sdata4
	.uleb128 Lttbase5-Lttbaseref5
Lttbaseref5:
	.byte	1                               ; Call site Encoding = uleb128
	.uleb128 Lcst_end11-Lcst_begin11
Lcst_begin11:
	.uleb128 Ltmp246-Lfunc_begin11          ; >> Call Site 1 <<
	.uleb128 Ltmp247-Ltmp246                ;   Call between Ltmp246 and Ltmp247
	.uleb128 Ltmp248-Lfunc_begin11          ;     jumps to Ltmp248
	.byte	1                               ;   On action: 1
Lcst_end11:
	.byte	1                               ; >> Action Record 1 <<
                                        ;   Catch TypeInfo 1
	.byte	0                               ;   No further actions
	.p2align	2, 0x0
                                        ; >> Catch TypeInfos <<
	.long	0                               ; TypeInfo 1
Lttbase5:
	.p2align	2, 0x0
                                        ; -- End function
	.section	__TEXT,__text,regular,pure_instructions
	.private_extern	__ZNKSt3__116reverse_iteratorIPjEptB8ne200100Ev ; -- Begin function _ZNKSt3__116reverse_iteratorIPjEptB8ne200100Ev
	.globl	__ZNKSt3__116reverse_iteratorIPjEptB8ne200100Ev
	.weak_definition	__ZNKSt3__116reverse_iteratorIPjEptB8ne200100Ev
	.p2align	2
__ZNKSt3__116reverse_iteratorIPjEptB8ne200100Ev: ; @_ZNKSt3__116reverse_iteratorIPjEptB8ne200100Ev
	.cfi_startproc
; %bb.0:
	sub	sp, sp, #32
	stp	x29, x30, [sp, #16]             ; 16-byte Folded Spill
	add	x29, sp, #16
	.cfi_def_cfa w29, 16
	.cfi_offset w30, -8
	.cfi_offset w29, -16
	str	x0, [sp, #8]
	ldr	x0, [sp, #8]
	bl	__ZNKSt3__116reverse_iteratorIPjEdeB8ne200100Ev
	ldp	x29, x30, [sp, #16]             ; 16-byte Folded Reload
	add	sp, sp, #32
	ret
	.cfi_endproc
                                        ; -- End function
	.private_extern	__ZNKSt3__116reverse_iteratorIPjEdeB8ne200100Ev ; -- Begin function _ZNKSt3__116reverse_iteratorIPjEdeB8ne200100Ev
	.globl	__ZNKSt3__116reverse_iteratorIPjEdeB8ne200100Ev
	.weak_definition	__ZNKSt3__116reverse_iteratorIPjEdeB8ne200100Ev
	.p2align	2
__ZNKSt3__116reverse_iteratorIPjEdeB8ne200100Ev: ; @_ZNKSt3__116reverse_iteratorIPjEdeB8ne200100Ev
	.cfi_startproc
; %bb.0:
	sub	sp, sp, #16
	.cfi_def_cfa_offset 16
	str	x0, [sp, #8]
	ldr	x8, [sp, #8]
	ldr	x8, [x8, #8]
	str	x8, [sp]
	ldr	x8, [sp]
	subs	x0, x8, #4
	str	x0, [sp]
	add	sp, sp, #16
	ret
	.cfi_endproc
                                        ; -- End function
	.private_extern	__ZNSt3__116reverse_iteratorIPjEC2B8ne200100ES1_ ; -- Begin function _ZNSt3__116reverse_iteratorIPjEC2B8ne200100ES1_
	.globl	__ZNSt3__116reverse_iteratorIPjEC2B8ne200100ES1_
	.weak_def_can_be_hidden	__ZNSt3__116reverse_iteratorIPjEC2B8ne200100ES1_
	.p2align	2
__ZNSt3__116reverse_iteratorIPjEC2B8ne200100ES1_: ; @_ZNSt3__116reverse_iteratorIPjEC2B8ne200100ES1_
	.cfi_startproc
; %bb.0:
	sub	sp, sp, #16
	.cfi_def_cfa_offset 16
	str	x0, [sp, #8]
	str	x1, [sp]
	ldr	x0, [sp, #8]
	ldr	x8, [sp]
	str	x8, [x0]
	ldr	x8, [sp]
	str	x8, [x0, #8]
	add	sp, sp, #16
	ret
	.cfi_endproc
                                        ; -- End function
	.private_extern	__ZNSt3__118__unwrap_iter_implIPjLb1EE8__unwrapB8ne200100ES1_ ; -- Begin function _ZNSt3__118__unwrap_iter_implIPjLb1EE8__unwrapB8ne200100ES1_
	.globl	__ZNSt3__118__unwrap_iter_implIPjLb1EE8__unwrapB8ne200100ES1_
	.weak_definition	__ZNSt3__118__unwrap_iter_implIPjLb1EE8__unwrapB8ne200100ES1_
	.p2align	2
__ZNSt3__118__unwrap_iter_implIPjLb1EE8__unwrapB8ne200100ES1_: ; @_ZNSt3__118__unwrap_iter_implIPjLb1EE8__unwrapB8ne200100ES1_
	.cfi_startproc
; %bb.0:
	sub	sp, sp, #32
	stp	x29, x30, [sp, #16]             ; 16-byte Folded Spill
	add	x29, sp, #16
	.cfi_def_cfa w29, 16
	.cfi_offset w30, -8
	.cfi_offset w29, -16
	str	x0, [sp, #8]
	ldr	x0, [sp, #8]
	bl	__ZNSt3__112__to_addressB8ne200100IjEEPT_S2_
	ldp	x29, x30, [sp, #16]             ; 16-byte Folded Reload
	add	sp, sp, #32
	ret
	.cfi_endproc
                                        ; -- End function
	.private_extern	__ZNSt3__118__unwrap_iter_implIPjLb1EE8__rewrapB8ne200100ES1_S1_ ; -- Begin function _ZNSt3__118__unwrap_iter_implIPjLb1EE8__rewrapB8ne200100ES1_S1_
	.globl	__ZNSt3__118__unwrap_iter_implIPjLb1EE8__rewrapB8ne200100ES1_S1_
	.weak_definition	__ZNSt3__118__unwrap_iter_implIPjLb1EE8__rewrapB8ne200100ES1_S1_
	.p2align	2
__ZNSt3__118__unwrap_iter_implIPjLb1EE8__rewrapB8ne200100ES1_S1_: ; @_ZNSt3__118__unwrap_iter_implIPjLb1EE8__rewrapB8ne200100ES1_S1_
	.cfi_startproc
; %bb.0:
	sub	sp, sp, #48
	stp	x29, x30, [sp, #32]             ; 16-byte Folded Spill
	add	x29, sp, #32
	.cfi_def_cfa w29, 16
	.cfi_offset w30, -8
	.cfi_offset w29, -16
	stur	x0, [x29, #-8]
	str	x1, [sp, #16]
	ldur	x8, [x29, #-8]
	str	x8, [sp, #8]                    ; 8-byte Folded Spill
	ldr	x8, [sp, #16]
	str	x8, [sp]                        ; 8-byte Folded Spill
	ldur	x0, [x29, #-8]
	bl	__ZNSt3__112__to_addressB8ne200100IjEEPT_S2_
	ldr	x9, [sp]                        ; 8-byte Folded Reload
	ldr	x8, [sp, #8]                    ; 8-byte Folded Reload
	subs	x9, x9, x0
	mov	x10, #4                         ; =0x4
	sdiv	x9, x9, x10
	add	x0, x8, x9, lsl #2
	ldp	x29, x30, [sp, #32]             ; 16-byte Folded Reload
	add	sp, sp, #48
	ret
	.cfi_endproc
                                        ; -- End function
	.private_extern	__ZNSt3__16vectorIjNS_9allocatorIjEEE21_ConstructTransactionD2B8ne200100Ev ; -- Begin function _ZNSt3__16vectorIjNS_9allocatorIjEEE21_ConstructTransactionD2B8ne200100Ev
	.globl	__ZNSt3__16vectorIjNS_9allocatorIjEEE21_ConstructTransactionD2B8ne200100Ev
	.weak_def_can_be_hidden	__ZNSt3__16vectorIjNS_9allocatorIjEEE21_ConstructTransactionD2B8ne200100Ev
	.p2align	2
__ZNSt3__16vectorIjNS_9allocatorIjEEE21_ConstructTransactionD2B8ne200100Ev: ; @_ZNSt3__16vectorIjNS_9allocatorIjEEE21_ConstructTransactionD2B8ne200100Ev
	.cfi_startproc
; %bb.0:
	sub	sp, sp, #16
	.cfi_def_cfa_offset 16
	str	x0, [sp, #8]
	ldr	x0, [sp, #8]
	ldr	x8, [x0, #8]
	ldr	x9, [x0]
	str	x8, [x9, #8]
	add	sp, sp, #16
	ret
	.cfi_endproc
                                        ; -- End function
	.private_extern	__ZNSt3__128__exception_guard_exceptionsINS_6vectorIjNS_9allocatorIjEEE16__destroy_vectorEED2B8ne200100Ev ; -- Begin function _ZNSt3__128__exception_guard_exceptionsINS_6vectorIjNS_9allocatorIjEEE16__destroy_vectorEED2B8ne200100Ev
	.globl	__ZNSt3__128__exception_guard_exceptionsINS_6vectorIjNS_9allocatorIjEEE16__destroy_vectorEED2B8ne200100Ev
	.weak_def_can_be_hidden	__ZNSt3__128__exception_guard_exceptionsINS_6vectorIjNS_9allocatorIjEEE16__destroy_vectorEED2B8ne200100Ev
	.p2align	2
__ZNSt3__128__exception_guard_exceptionsINS_6vectorIjNS_9allocatorIjEEE16__destroy_vectorEED2B8ne200100Ev: ; @_ZNSt3__128__exception_guard_exceptionsINS_6vectorIjNS_9allocatorIjEEE16__destroy_vectorEED2B8ne200100Ev
	.cfi_startproc
; %bb.0:
	sub	sp, sp, #48
	stp	x29, x30, [sp, #32]             ; 16-byte Folded Spill
	add	x29, sp, #32
	.cfi_def_cfa w29, 16
	.cfi_offset w30, -8
	.cfi_offset w29, -16
	str	x0, [sp, #16]
	ldr	x8, [sp, #16]
	str	x8, [sp, #8]                    ; 8-byte Folded Spill
	mov	x9, x8
	stur	x9, [x29, #-8]
	ldrb	w8, [x8, #8]
	tbnz	w8, #0, LBB137_2
	b	LBB137_1
LBB137_1:
	ldr	x0, [sp, #8]                    ; 8-byte Folded Reload
	bl	__ZNSt3__16vectorIjNS_9allocatorIjEEE16__destroy_vectorclB8ne200100Ev
	b	LBB137_2
LBB137_2:
	ldur	x0, [x29, #-8]
	ldp	x29, x30, [sp, #32]             ; 16-byte Folded Reload
	add	sp, sp, #48
	ret
	.cfi_endproc
                                        ; -- End function
	.private_extern	__ZNSt3__123mersenne_twister_engineIjLm32ELm624ELm397ELm31ELj2567483615ELm11ELj4294967295ELm7ELj2636928640ELm15ELj4022730752ELm18ELj1812433253EEC2B8ne200100Ej ; -- Begin function _ZNSt3__123mersenne_twister_engineIjLm32ELm624ELm397ELm31ELj2567483615ELm11ELj4294967295ELm7ELj2636928640ELm15ELj4022730752ELm18ELj1812433253EEC2B8ne200100Ej
	.globl	__ZNSt3__123mersenne_twister_engineIjLm32ELm624ELm397ELm31ELj2567483615ELm11ELj4294967295ELm7ELj2636928640ELm15ELj4022730752ELm18ELj1812433253EEC2B8ne200100Ej
	.weak_def_can_be_hidden	__ZNSt3__123mersenne_twister_engineIjLm32ELm624ELm397ELm31ELj2567483615ELm11ELj4294967295ELm7ELj2636928640ELm15ELj4022730752ELm18ELj1812433253EEC2B8ne200100Ej
	.p2align	2
__ZNSt3__123mersenne_twister_engineIjLm32ELm624ELm397ELm31ELj2567483615ELm11ELj4294967295ELm7ELj2636928640ELm15ELj4022730752ELm18ELj1812433253EEC2B8ne200100Ej: ; @_ZNSt3__123mersenne_twister_engineIjLm32ELm624ELm397ELm31ELj2567483615ELm11ELj4294967295ELm7ELj2636928640ELm15ELj4022730752ELm18ELj1812433253EEC2B8ne200100Ej
	.cfi_startproc
; %bb.0:
	sub	sp, sp, #48
	stp	x29, x30, [sp, #32]             ; 16-byte Folded Spill
	add	x29, sp, #32
	.cfi_def_cfa w29, 16
	.cfi_offset w30, -8
	.cfi_offset w29, -16
	stur	x0, [x29, #-8]
	stur	w1, [x29, #-12]
	ldur	x0, [x29, #-8]
	str	x0, [sp, #8]                    ; 8-byte Folded Spill
	ldur	w1, [x29, #-12]
	bl	__ZNSt3__123mersenne_twister_engineIjLm32ELm624ELm397ELm31ELj2567483615ELm11ELj4294967295ELm7ELj2636928640ELm15ELj4022730752ELm18ELj1812433253EE4seedEj
	ldr	x0, [sp, #8]                    ; 8-byte Folded Reload
	ldp	x29, x30, [sp, #32]             ; 16-byte Folded Reload
	add	sp, sp, #48
	ret
	.cfi_endproc
                                        ; -- End function
	.private_extern	__ZNSt3__123mersenne_twister_engineIjLm32ELm624ELm397ELm31ELj2567483615ELm11ELj4294967295ELm7ELj2636928640ELm15ELj4022730752ELm18ELj1812433253EE4seedEj ; -- Begin function _ZNSt3__123mersenne_twister_engineIjLm32ELm624ELm397ELm31ELj2567483615ELm11ELj4294967295ELm7ELj2636928640ELm15ELj4022730752ELm18ELj1812433253EE4seedEj
	.globl	__ZNSt3__123mersenne_twister_engineIjLm32ELm624ELm397ELm31ELj2567483615ELm11ELj4294967295ELm7ELj2636928640ELm15ELj4022730752ELm18ELj1812433253EE4seedEj
	.weak_definition	__ZNSt3__123mersenne_twister_engineIjLm32ELm624ELm397ELm31ELj2567483615ELm11ELj4294967295ELm7ELj2636928640ELm15ELj4022730752ELm18ELj1812433253EE4seedEj
	.p2align	2
__ZNSt3__123mersenne_twister_engineIjLm32ELm624ELm397ELm31ELj2567483615ELm11ELj4294967295ELm7ELj2636928640ELm15ELj4022730752ELm18ELj1812433253EE4seedEj: ; @_ZNSt3__123mersenne_twister_engineIjLm32ELm624ELm397ELm31ELj2567483615ELm11ELj4294967295ELm7ELj2636928640ELm15ELj4022730752ELm18ELj1812433253EE4seedEj
	.cfi_startproc
; %bb.0:
	sub	sp, sp, #64
	stp	x29, x30, [sp, #48]             ; 16-byte Folded Spill
	add	x29, sp, #48
	.cfi_def_cfa w29, 16
	.cfi_offset w30, -8
	.cfi_offset w29, -16
	stur	x0, [x29, #-8]
	stur	w1, [x29, #-12]
	ldur	x9, [x29, #-8]
	str	x9, [sp, #16]                   ; 8-byte Folded Spill
	ldur	w8, [x29, #-12]
	mov	w10, #-1                        ; =0xffffffff
	and	w8, w8, w10
	str	w8, [x9]
	mov	x8, #1                          ; =0x1
	str	x8, [sp, #24]
	b	LBB139_1
LBB139_1:                               ; =>This Inner Loop Header: Depth=1
	ldr	x8, [sp, #24]
	subs	x8, x8, #624
	b.hs	LBB139_4
	b	LBB139_2
LBB139_2:                               ;   in Loop: Header=BB139_1 Depth=1
	ldr	x8, [sp, #16]                   ; 8-byte Folded Reload
	ldr	x9, [sp, #24]
	subs	x9, x9, #1
	ldr	w9, [x8, x9, lsl #2]
	str	w9, [sp, #12]                   ; 4-byte Folded Spill
	ldr	x9, [sp, #24]
	subs	x9, x9, #1
	ldr	w0, [x8, x9, lsl #2]
	bl	__ZNSt3__123mersenne_twister_engineIjLm32ELm624ELm397ELm31ELj2567483615ELm11ELj4294967295ELm7ELj2636928640ELm15ELj4022730752ELm18ELj1812433253EE8__rshiftB8ne200100ILm30ELi0EEEjj
	ldr	w8, [sp, #12]                   ; 4-byte Folded Reload
	ldr	x9, [sp, #16]                   ; 8-byte Folded Reload
	eor	w10, w8, w0
	mov	w8, #35173                      ; =0x8965
	movk	w8, #27655, lsl #16
	mul	w8, w8, w10
	mov	w8, w8
                                        ; kill: def $x8 killed $w8
	ldr	x10, [sp, #24]
	add	x8, x8, x10
                                        ; kill: def $w8 killed $w8 killed $x8
	mov	w8, w8
                                        ; kill: def $x8 killed $w8
	ldr	x10, [sp, #24]
                                        ; kill: def $w8 killed $w8 killed $x8
	str	w8, [x9, x10, lsl #2]
	b	LBB139_3
LBB139_3:                               ;   in Loop: Header=BB139_1 Depth=1
	ldr	x8, [sp, #24]
	add	x8, x8, #1
	str	x8, [sp, #24]
	b	LBB139_1
LBB139_4:
	ldr	x8, [sp, #16]                   ; 8-byte Folded Reload
	str	xzr, [x8, #2496]
	ldp	x29, x30, [sp, #48]             ; 16-byte Folded Reload
	add	sp, sp, #64
	ret
	.cfi_endproc
                                        ; -- End function
	.globl	__ZNSt3__123mersenne_twister_engineIjLm32ELm624ELm397ELm31ELj2567483615ELm11ELj4294967295ELm7ELj2636928640ELm15ELj4022730752ELm18ELj1812433253EE8__rshiftB8ne200100ILm30ELi0EEEjj ; -- Begin function _ZNSt3__123mersenne_twister_engineIjLm32ELm624ELm397ELm31ELj2567483615ELm11ELj4294967295ELm7ELj2636928640ELm15ELj4022730752ELm18ELj1812433253EE8__rshiftB8ne200100ILm30ELi0EEEjj
	.weak_definition	__ZNSt3__123mersenne_twister_engineIjLm32ELm624ELm397ELm31ELj2567483615ELm11ELj4294967295ELm7ELj2636928640ELm15ELj4022730752ELm18ELj1812433253EE8__rshiftB8ne200100ILm30ELi0EEEjj
	.p2align	2
__ZNSt3__123mersenne_twister_engineIjLm32ELm624ELm397ELm31ELj2567483615ELm11ELj4294967295ELm7ELj2636928640ELm15ELj4022730752ELm18ELj1812433253EE8__rshiftB8ne200100ILm30ELi0EEEjj: ; @_ZNSt3__123mersenne_twister_engineIjLm32ELm624ELm397ELm31ELj2567483615ELm11ELj4294967295ELm7ELj2636928640ELm15ELj4022730752ELm18ELj1812433253EE8__rshiftB8ne200100ILm30ELi0EEEjj
	.cfi_startproc
; %bb.0:
	sub	sp, sp, #16
	.cfi_def_cfa_offset 16
	str	w0, [sp, #12]
	ldr	w8, [sp, #12]
	lsr	w0, w8, #30
	add	sp, sp, #16
	ret
	.cfi_endproc
                                        ; -- End function
	.private_extern	__ZNSt3__112basic_stringIcNS_11char_traitsIcEENS_9allocatorIcEEEC2B8ne200100Ev ; -- Begin function _ZNSt3__112basic_stringIcNS_11char_traitsIcEENS_9allocatorIcEEEC2B8ne200100Ev
	.globl	__ZNSt3__112basic_stringIcNS_11char_traitsIcEENS_9allocatorIcEEEC2B8ne200100Ev
	.weak_def_can_be_hidden	__ZNSt3__112basic_stringIcNS_11char_traitsIcEENS_9allocatorIcEEEC2B8ne200100Ev
	.p2align	2
__ZNSt3__112basic_stringIcNS_11char_traitsIcEENS_9allocatorIcEEEC2B8ne200100Ev: ; @_ZNSt3__112basic_stringIcNS_11char_traitsIcEENS_9allocatorIcEEEC2B8ne200100Ev
	.cfi_startproc
; %bb.0:
	sub	sp, sp, #32
	stp	x29, x30, [sp, #16]             ; 16-byte Folded Spill
	add	x29, sp, #16
	.cfi_def_cfa w29, 16
	.cfi_offset w30, -8
	.cfi_offset w29, -16
	str	x0, [sp, #8]
	ldr	x0, [sp, #8]
	str	x0, [sp]                        ; 8-byte Folded Spill
	str	xzr, [x0]
	str	xzr, [x0, #8]
	str	xzr, [x0, #16]
	bl	__ZNSt3__19allocatorIcEC1B8ne200100Ev
	ldr	x0, [sp]                        ; 8-byte Folded Reload
	mov	x1, #0                          ; =0x0
	bl	__ZNKSt3__112basic_stringIcNS_11char_traitsIcEENS_9allocatorIcEEE14__annotate_newB8ne200100Em
	ldr	x0, [sp]                        ; 8-byte Folded Reload
	ldp	x29, x30, [sp, #16]             ; 16-byte Folded Reload
	add	sp, sp, #32
	ret
	.cfi_endproc
                                        ; -- End function
	.private_extern	__ZNKSt3__112basic_stringIcNS_11char_traitsIcEENS_9allocatorIcEEE14__annotate_newB8ne200100Em ; -- Begin function _ZNKSt3__112basic_stringIcNS_11char_traitsIcEENS_9allocatorIcEEE14__annotate_newB8ne200100Em
	.globl	__ZNKSt3__112basic_stringIcNS_11char_traitsIcEENS_9allocatorIcEEE14__annotate_newB8ne200100Em
	.weak_definition	__ZNKSt3__112basic_stringIcNS_11char_traitsIcEENS_9allocatorIcEEE14__annotate_newB8ne200100Em
	.p2align	2
__ZNKSt3__112basic_stringIcNS_11char_traitsIcEENS_9allocatorIcEEE14__annotate_newB8ne200100Em: ; @_ZNKSt3__112basic_stringIcNS_11char_traitsIcEENS_9allocatorIcEEE14__annotate_newB8ne200100Em
	.cfi_startproc
; %bb.0:
	sub	sp, sp, #16
	.cfi_def_cfa_offset 16
	str	x0, [sp, #8]
	str	x1, [sp]
	add	sp, sp, #16
	ret
	.cfi_endproc
                                        ; -- End function
	.private_extern	__ZNSt3__19basic_iosIcNS_11char_traitsIcEEEC2B8ne200100Ev ; -- Begin function _ZNSt3__19basic_iosIcNS_11char_traitsIcEEEC2B8ne200100Ev
	.globl	__ZNSt3__19basic_iosIcNS_11char_traitsIcEEEC2B8ne200100Ev
	.weak_def_can_be_hidden	__ZNSt3__19basic_iosIcNS_11char_traitsIcEEEC2B8ne200100Ev
	.p2align	2
__ZNSt3__19basic_iosIcNS_11char_traitsIcEEEC2B8ne200100Ev: ; @_ZNSt3__19basic_iosIcNS_11char_traitsIcEEEC2B8ne200100Ev
	.cfi_startproc
; %bb.0:
	sub	sp, sp, #32
	stp	x29, x30, [sp, #16]             ; 16-byte Folded Spill
	add	x29, sp, #16
	.cfi_def_cfa w29, 16
	.cfi_offset w30, -8
	.cfi_offset w29, -16
	str	x0, [sp, #8]
	ldr	x0, [sp, #8]
	str	x0, [sp]                        ; 8-byte Folded Spill
	bl	__ZNSt3__18ios_baseC2B8ne200100Ev
	ldr	x0, [sp]                        ; 8-byte Folded Reload
	adrp	x8, __ZTVNSt3__19basic_iosIcNS_11char_traitsIcEEEE@GOTPAGE
	ldr	x8, [x8, __ZTVNSt3__19basic_iosIcNS_11char_traitsIcEEEE@GOTPAGEOFF]
	add	x8, x8, #16
	str	x8, [x0]
	ldp	x29, x30, [sp, #16]             ; 16-byte Folded Reload
	add	sp, sp, #32
	ret
	.cfi_endproc
                                        ; -- End function
	.private_extern	__ZNSt3__113basic_istreamIcNS_11char_traitsIcEEEC2B8ne200100EPNS_15basic_streambufIcS2_EE ; -- Begin function _ZNSt3__113basic_istreamIcNS_11char_traitsIcEEEC2B8ne200100EPNS_15basic_streambufIcS2_EE
	.globl	__ZNSt3__113basic_istreamIcNS_11char_traitsIcEEEC2B8ne200100EPNS_15basic_streambufIcS2_EE
	.weak_def_can_be_hidden	__ZNSt3__113basic_istreamIcNS_11char_traitsIcEEEC2B8ne200100EPNS_15basic_streambufIcS2_EE
	.p2align	2
__ZNSt3__113basic_istreamIcNS_11char_traitsIcEEEC2B8ne200100EPNS_15basic_streambufIcS2_EE: ; @_ZNSt3__113basic_istreamIcNS_11char_traitsIcEEEC2B8ne200100EPNS_15basic_streambufIcS2_EE
	.cfi_startproc
; %bb.0:
	sub	sp, sp, #48
	stp	x29, x30, [sp, #32]             ; 16-byte Folded Spill
	add	x29, sp, #32
	.cfi_def_cfa w29, 16
	.cfi_offset w30, -8
	.cfi_offset w29, -16
	stur	x0, [x29, #-8]
	str	x1, [sp, #16]
	str	x2, [sp, #8]
	ldur	x8, [x29, #-8]
	str	x8, [sp]                        ; 8-byte Folded Spill
	ldr	x9, [sp, #16]
	ldr	x10, [x9]
	str	x10, [x8]
	ldr	x9, [x9, #8]
	ldr	x10, [x8]
	ldur	x10, [x10, #-24]
	str	x9, [x8, x10]
	str	xzr, [x8, #8]
	ldr	x9, [x8]
	ldur	x9, [x9, #-24]
	ldr	x1, [sp, #8]
	add	x0, x8, x9
	bl	__ZNSt3__19basic_iosIcNS_11char_traitsIcEEE4initB8ne200100EPNS_15basic_streambufIcS2_EE
	ldr	x0, [sp]                        ; 8-byte Folded Reload
	ldp	x29, x30, [sp, #32]             ; 16-byte Folded Reload
	add	sp, sp, #48
	ret
	.cfi_endproc
                                        ; -- End function
	.private_extern	__ZNSt3__19basic_iosIcNS_11char_traitsIcEEE8setstateB8ne200100Ej ; -- Begin function _ZNSt3__19basic_iosIcNS_11char_traitsIcEEE8setstateB8ne200100Ej
	.globl	__ZNSt3__19basic_iosIcNS_11char_traitsIcEEE8setstateB8ne200100Ej
	.weak_definition	__ZNSt3__19basic_iosIcNS_11char_traitsIcEEE8setstateB8ne200100Ej
	.p2align	2
__ZNSt3__19basic_iosIcNS_11char_traitsIcEEE8setstateB8ne200100Ej: ; @_ZNSt3__19basic_iosIcNS_11char_traitsIcEEE8setstateB8ne200100Ej
	.cfi_startproc
; %bb.0:
	sub	sp, sp, #32
	stp	x29, x30, [sp, #16]             ; 16-byte Folded Spill
	add	x29, sp, #16
	.cfi_def_cfa w29, 16
	.cfi_offset w30, -8
	.cfi_offset w29, -16
	str	x0, [sp, #8]
	str	w1, [sp, #4]
	ldr	x0, [sp, #8]
	ldr	w1, [sp, #4]
	bl	__ZNSt3__18ios_base8setstateB8ne200100Ej
	ldp	x29, x30, [sp, #16]             ; 16-byte Folded Reload
	add	sp, sp, #32
	ret
	.cfi_endproc
                                        ; -- End function
	.private_extern	__ZNSt3__18ios_baseC2B8ne200100Ev ; -- Begin function _ZNSt3__18ios_baseC2B8ne200100Ev
	.globl	__ZNSt3__18ios_baseC2B8ne200100Ev
	.weak_def_can_be_hidden	__ZNSt3__18ios_baseC2B8ne200100Ev
	.p2align	2
__ZNSt3__18ios_baseC2B8ne200100Ev:      ; @_ZNSt3__18ios_baseC2B8ne200100Ev
	.cfi_startproc
; %bb.0:
	sub	sp, sp, #16
	.cfi_def_cfa_offset 16
	str	x0, [sp, #8]
	ldr	x0, [sp, #8]
	adrp	x8, __ZTVNSt3__18ios_baseE@GOTPAGE
	ldr	x8, [x8, __ZTVNSt3__18ios_baseE@GOTPAGEOFF]
	add	x8, x8, #16
	str	x8, [x0]
                                        ; kill: def $x8 killed $xzr
	str	xzr, [x0, #48]
	add	sp, sp, #16
	ret
	.cfi_endproc
                                        ; -- End function
	.private_extern	__ZNSt3__19basic_iosIcNS_11char_traitsIcEEE4initB8ne200100EPNS_15basic_streambufIcS2_EE ; -- Begin function _ZNSt3__19basic_iosIcNS_11char_traitsIcEEE4initB8ne200100EPNS_15basic_streambufIcS2_EE
	.globl	__ZNSt3__19basic_iosIcNS_11char_traitsIcEEE4initB8ne200100EPNS_15basic_streambufIcS2_EE
	.weak_definition	__ZNSt3__19basic_iosIcNS_11char_traitsIcEEE4initB8ne200100EPNS_15basic_streambufIcS2_EE
	.p2align	2
__ZNSt3__19basic_iosIcNS_11char_traitsIcEEE4initB8ne200100EPNS_15basic_streambufIcS2_EE: ; @_ZNSt3__19basic_iosIcNS_11char_traitsIcEEE4initB8ne200100EPNS_15basic_streambufIcS2_EE
	.cfi_startproc
; %bb.0:
	sub	sp, sp, #48
	stp	x29, x30, [sp, #32]             ; 16-byte Folded Spill
	add	x29, sp, #32
	.cfi_def_cfa w29, 16
	.cfi_offset w30, -8
	.cfi_offset w29, -16
	stur	x0, [x29, #-8]
	str	x1, [sp, #16]
	ldur	x0, [x29, #-8]
	str	x0, [sp, #8]                    ; 8-byte Folded Spill
	ldr	x1, [sp, #16]
	bl	__ZNSt3__18ios_base4initEPv
	ldr	x8, [sp, #8]                    ; 8-byte Folded Reload
                                        ; kill: def $x9 killed $xzr
	str	xzr, [x8, #136]
	add	x0, x8, #144
	bl	__ZNSt3__118_SentinelValueFillINS_11char_traitsIcEEE6__initB8ne200100Ev
	ldp	x29, x30, [sp, #32]             ; 16-byte Folded Reload
	add	sp, sp, #48
	ret
	.cfi_endproc
                                        ; -- End function
	.private_extern	__ZNSt3__118_SentinelValueFillINS_11char_traitsIcEEE6__initB8ne200100Ev ; -- Begin function _ZNSt3__118_SentinelValueFillINS_11char_traitsIcEEE6__initB8ne200100Ev
	.globl	__ZNSt3__118_SentinelValueFillINS_11char_traitsIcEEE6__initB8ne200100Ev
	.weak_definition	__ZNSt3__118_SentinelValueFillINS_11char_traitsIcEEE6__initB8ne200100Ev
	.p2align	2
__ZNSt3__118_SentinelValueFillINS_11char_traitsIcEEE6__initB8ne200100Ev: ; @_ZNSt3__118_SentinelValueFillINS_11char_traitsIcEEE6__initB8ne200100Ev
	.cfi_startproc
; %bb.0:
	sub	sp, sp, #32
	stp	x29, x30, [sp, #16]             ; 16-byte Folded Spill
	add	x29, sp, #16
	.cfi_def_cfa w29, 16
	.cfi_offset w30, -8
	.cfi_offset w29, -16
	str	x0, [sp, #8]
	ldr	x8, [sp, #8]
	str	x8, [sp]                        ; 8-byte Folded Spill
	bl	__ZNSt3__111char_traitsIcE3eofB8ne200100Ev
	ldr	x8, [sp]                        ; 8-byte Folded Reload
	str	w0, [x8]
	ldp	x29, x30, [sp, #16]             ; 16-byte Folded Reload
	add	sp, sp, #32
	ret
	.cfi_endproc
                                        ; -- End function
	.private_extern	__ZNSt3__111char_traitsIcE3eofB8ne200100Ev ; -- Begin function _ZNSt3__111char_traitsIcE3eofB8ne200100Ev
	.globl	__ZNSt3__111char_traitsIcE3eofB8ne200100Ev
	.weak_definition	__ZNSt3__111char_traitsIcE3eofB8ne200100Ev
	.p2align	2
__ZNSt3__111char_traitsIcE3eofB8ne200100Ev: ; @_ZNSt3__111char_traitsIcE3eofB8ne200100Ev
	.cfi_startproc
; %bb.0:
	mov	w0, #-1                         ; =0xffffffff
	ret
	.cfi_endproc
                                        ; -- End function
	.private_extern	__ZNSt3__18ios_base8setstateB8ne200100Ej ; -- Begin function _ZNSt3__18ios_base8setstateB8ne200100Ej
	.globl	__ZNSt3__18ios_base8setstateB8ne200100Ej
	.weak_definition	__ZNSt3__18ios_base8setstateB8ne200100Ej
	.p2align	2
__ZNSt3__18ios_base8setstateB8ne200100Ej: ; @_ZNSt3__18ios_base8setstateB8ne200100Ej
	.cfi_startproc
; %bb.0:
	sub	sp, sp, #32
	stp	x29, x30, [sp, #16]             ; 16-byte Folded Spill
	add	x29, sp, #16
	.cfi_def_cfa w29, 16
	.cfi_offset w30, -8
	.cfi_offset w29, -16
	str	x0, [sp, #8]
	str	w1, [sp, #4]
	ldr	x0, [sp, #8]
	ldr	w8, [x0, #32]
	ldr	w9, [sp, #4]
	orr	w1, w8, w9
	bl	__ZNSt3__18ios_base5clearEj
	ldp	x29, x30, [sp, #16]             ; 16-byte Folded Reload
	add	sp, sp, #32
	ret
	.cfi_endproc
                                        ; -- End function
	.private_extern	__ZNSt3__17getlineB8ne200100IcNS_11char_traitsIcEENS_9allocatorIcEEEERNS_13basic_istreamIT_T0_EES9_RNS_12basic_stringIS6_S7_T1_EES6_ ; -- Begin function _ZNSt3__17getlineB8ne200100IcNS_11char_traitsIcEENS_9allocatorIcEEEERNS_13basic_istreamIT_T0_EES9_RNS_12basic_stringIS6_S7_T1_EES6_
	.globl	__ZNSt3__17getlineB8ne200100IcNS_11char_traitsIcEENS_9allocatorIcEEEERNS_13basic_istreamIT_T0_EES9_RNS_12basic_stringIS6_S7_T1_EES6_
	.weak_definition	__ZNSt3__17getlineB8ne200100IcNS_11char_traitsIcEENS_9allocatorIcEEEERNS_13basic_istreamIT_T0_EES9_RNS_12basic_stringIS6_S7_T1_EES6_
	.p2align	2
__ZNSt3__17getlineB8ne200100IcNS_11char_traitsIcEENS_9allocatorIcEEEERNS_13basic_istreamIT_T0_EES9_RNS_12basic_stringIS6_S7_T1_EES6_: ; @_ZNSt3__17getlineB8ne200100IcNS_11char_traitsIcEENS_9allocatorIcEEEERNS_13basic_istreamIT_T0_EES9_RNS_12basic_stringIS6_S7_T1_EES6_
Lfunc_begin12:
	.cfi_startproc
	.cfi_personality 155, ___gxx_personality_v0
	.cfi_lsda 16, Lexception12
; %bb.0:
	sub	sp, sp, #128
	stp	x29, x30, [sp, #112]            ; 16-byte Folded Spill
	add	x29, sp, #112
	.cfi_def_cfa w29, 16
	.cfi_offset w30, -8
	.cfi_offset w29, -16
	stur	x0, [x29, #-8]
	stur	x1, [x29, #-16]
	sturb	w2, [x29, #-17]
	stur	wzr, [x29, #-24]
	ldur	x1, [x29, #-8]
	sub	x0, x29, #25
	str	x0, [sp, #40]                   ; 8-byte Folded Spill
	mov	w8, #1                          ; =0x1
	and	w2, w8, #0x1
	bl	__ZNSt3__113basic_istreamIcNS_11char_traitsIcEEE6sentryC1ERS3_b
	ldr	x0, [sp, #40]                   ; 8-byte Folded Reload
	bl	__ZNKSt3__113basic_istreamIcNS_11char_traitsIcEEE6sentrycvbB8ne200100Ev
	tbz	w0, #0, LBB151_25
	b	LBB151_1
LBB151_1:
	ldur	x0, [x29, #-16]
	bl	__ZNSt3__112basic_stringIcNS_11char_traitsIcEENS_9allocatorIcEEE5clearB8ne200100Ev
	stur	xzr, [x29, #-40]
	b	LBB151_2
LBB151_2:                               ; =>This Inner Loop Header: Depth=1
	b	LBB151_3
LBB151_3:                               ;   in Loop: Header=BB151_2 Depth=1
	ldur	x8, [x29, #-8]
	ldr	x9, [x8]
	ldur	x9, [x9, #-24]
	add	x0, x8, x9
Ltmp255:
	bl	__ZNKSt3__19basic_iosIcNS_11char_traitsIcEEE5rdbufB8ne200100Ev
	str	x0, [sp, #32]                   ; 8-byte Folded Spill
Ltmp256:
	b	LBB151_4
LBB151_4:                               ;   in Loop: Header=BB151_2 Depth=1
Ltmp257:
	ldr	x0, [sp, #32]                   ; 8-byte Folded Reload
	bl	__ZNSt3__115basic_streambufIcNS_11char_traitsIcEEE6sbumpcB8ne200100Ev
	str	w0, [sp, #28]                   ; 4-byte Folded Spill
Ltmp258:
	b	LBB151_5
LBB151_5:                               ;   in Loop: Header=BB151_2 Depth=1
	ldr	w8, [sp, #28]                   ; 4-byte Folded Reload
	stur	w8, [x29, #-44]
	ldur	w8, [x29, #-44]
	str	w8, [sp, #24]                   ; 4-byte Folded Spill
	bl	__ZNSt3__111char_traitsIcE3eofB8ne200100Ev
	mov	x1, x0
	ldr	w0, [sp, #24]                   ; 4-byte Folded Reload
	bl	__ZNSt3__111char_traitsIcE11eq_int_typeB8ne200100Eii
	tbz	w0, #0, LBB151_12
	b	LBB151_6
LBB151_6:
	ldur	w8, [x29, #-24]
	orr	w8, w8, #0x2
	stur	w8, [x29, #-24]
	b	LBB151_18
LBB151_7:
Ltmp261:
	str	x0, [sp, #56]
	mov	x8, x1
	str	w8, [sp, #52]
	b	LBB151_8
LBB151_8:
	ldr	x0, [sp, #56]
	bl	___cxa_begin_catch
	ldur	w8, [x29, #-24]
	orr	w8, w8, #0x1
	stur	w8, [x29, #-24]
	ldur	x8, [x29, #-8]
	ldr	x9, [x8]
	ldur	x9, [x9, #-24]
	add	x0, x8, x9
	ldur	w1, [x29, #-24]
Ltmp262:
	bl	__ZNSt3__18ios_base18__setstate_nothrowB8ne200100Ej
Ltmp263:
	b	LBB151_9
LBB151_9:
	ldur	x8, [x29, #-8]
	ldr	x9, [x8]
	ldur	x9, [x9, #-24]
	add	x0, x8, x9
Ltmp264:
	bl	__ZNKSt3__19basic_iosIcNS_11char_traitsIcEEE10exceptionsB8ne200100Ev
	str	w0, [sp, #20]                   ; 4-byte Folded Spill
Ltmp265:
	b	LBB151_10
LBB151_10:
	ldr	w8, [sp, #20]                   ; 4-byte Folded Reload
	tbz	w8, #0, LBB151_22
	b	LBB151_11
LBB151_11:
Ltmp266:
	bl	___cxa_rethrow
Ltmp267:
	b	LBB151_28
LBB151_12:                              ;   in Loop: Header=BB151_2 Depth=1
	ldur	x8, [x29, #-40]
	add	x8, x8, #1
	stur	x8, [x29, #-40]
	ldur	w0, [x29, #-44]
	bl	__ZNSt3__111char_traitsIcE12to_char_typeB8ne200100Ei
	strb	w0, [sp, #51]
	ldrsb	w0, [sp, #51]
	ldursb	w1, [x29, #-17]
	bl	__ZNSt3__111char_traitsIcE2eqEcc
	tbz	w0, #0, LBB151_14
	b	LBB151_13
LBB151_13:
	b	LBB151_18
LBB151_14:                              ;   in Loop: Header=BB151_2 Depth=1
	ldur	x0, [x29, #-16]
	ldrsb	w1, [sp, #51]
Ltmp259:
	bl	__ZNSt3__112basic_stringIcNS_11char_traitsIcEENS_9allocatorIcEEE9push_backEc
Ltmp260:
	b	LBB151_15
LBB151_15:                              ;   in Loop: Header=BB151_2 Depth=1
	ldur	x0, [x29, #-16]
	bl	__ZNKSt3__112basic_stringIcNS_11char_traitsIcEENS_9allocatorIcEEE4sizeB8ne200100Ev
	str	x0, [sp, #8]                    ; 8-byte Folded Spill
	ldur	x0, [x29, #-16]
	bl	__ZNKSt3__112basic_stringIcNS_11char_traitsIcEENS_9allocatorIcEEE8max_sizeB8ne200100Ev
	mov	x8, x0
	ldr	x0, [sp, #8]                    ; 8-byte Folded Reload
	subs	x8, x0, x8
	b.ne	LBB151_17
	b	LBB151_16
LBB151_16:
	ldur	w8, [x29, #-24]
	orr	w8, w8, #0x4
	stur	w8, [x29, #-24]
	b	LBB151_18
LBB151_17:                              ;   in Loop: Header=BB151_2 Depth=1
	b	LBB151_2
LBB151_18:
	ldur	x8, [x29, #-40]
	cbnz	x8, LBB151_20
	b	LBB151_19
LBB151_19:
	ldur	w8, [x29, #-24]
	orr	w8, w8, #0x4
	stur	w8, [x29, #-24]
	b	LBB151_20
LBB151_20:
	b	LBB151_23
LBB151_21:
Ltmp268:
	str	x0, [sp, #56]
	mov	x8, x1
	str	w8, [sp, #52]
Ltmp269:
	bl	___cxa_end_catch
Ltmp270:
	b	LBB151_24
LBB151_22:
	bl	___cxa_end_catch
	b	LBB151_23
LBB151_23:
	ldur	x8, [x29, #-8]
	ldr	x9, [x8]
	ldur	x9, [x9, #-24]
	add	x0, x8, x9
	ldur	w1, [x29, #-24]
	bl	__ZNSt3__19basic_iosIcNS_11char_traitsIcEEE8setstateB8ne200100Ej
	b	LBB151_25
LBB151_24:
	b	LBB151_26
LBB151_25:
	ldur	x0, [x29, #-8]
	ldp	x29, x30, [sp, #112]            ; 16-byte Folded Reload
	add	sp, sp, #128
	ret
LBB151_26:
	ldr	x0, [sp, #56]
	bl	__Unwind_Resume
LBB151_27:
Ltmp271:
	bl	___clang_call_terminate
LBB151_28:
	brk	#0x1
Lfunc_end12:
	.cfi_endproc
	.section	__TEXT,__gcc_except_tab
	.p2align	2, 0x0
GCC_except_table151:
Lexception12:
	.byte	255                             ; @LPStart Encoding = omit
	.byte	155                             ; @TType Encoding = indirect pcrel sdata4
	.uleb128 Lttbase6-Lttbaseref6
Lttbaseref6:
	.byte	1                               ; Call site Encoding = uleb128
	.uleb128 Lcst_end12-Lcst_begin12
Lcst_begin12:
	.uleb128 Lfunc_begin12-Lfunc_begin12    ; >> Call Site 1 <<
	.uleb128 Ltmp255-Lfunc_begin12          ;   Call between Lfunc_begin12 and Ltmp255
	.byte	0                               ;     has no landing pad
	.byte	0                               ;   On action: cleanup
	.uleb128 Ltmp255-Lfunc_begin12          ; >> Call Site 2 <<
	.uleb128 Ltmp258-Ltmp255                ;   Call between Ltmp255 and Ltmp258
	.uleb128 Ltmp261-Lfunc_begin12          ;     jumps to Ltmp261
	.byte	1                               ;   On action: 1
	.uleb128 Ltmp258-Lfunc_begin12          ; >> Call Site 3 <<
	.uleb128 Ltmp262-Ltmp258                ;   Call between Ltmp258 and Ltmp262
	.byte	0                               ;     has no landing pad
	.byte	0                               ;   On action: cleanup
	.uleb128 Ltmp262-Lfunc_begin12          ; >> Call Site 4 <<
	.uleb128 Ltmp267-Ltmp262                ;   Call between Ltmp262 and Ltmp267
	.uleb128 Ltmp268-Lfunc_begin12          ;     jumps to Ltmp268
	.byte	0                               ;   On action: cleanup
	.uleb128 Ltmp259-Lfunc_begin12          ; >> Call Site 5 <<
	.uleb128 Ltmp260-Ltmp259                ;   Call between Ltmp259 and Ltmp260
	.uleb128 Ltmp261-Lfunc_begin12          ;     jumps to Ltmp261
	.byte	1                               ;   On action: 1
	.uleb128 Ltmp269-Lfunc_begin12          ; >> Call Site 6 <<
	.uleb128 Ltmp270-Ltmp269                ;   Call between Ltmp269 and Ltmp270
	.uleb128 Ltmp271-Lfunc_begin12          ;     jumps to Ltmp271
	.byte	1                               ;   On action: 1
	.uleb128 Ltmp270-Lfunc_begin12          ; >> Call Site 7 <<
	.uleb128 Lfunc_end12-Ltmp270            ;   Call between Ltmp270 and Lfunc_end12
	.byte	0                               ;     has no landing pad
	.byte	0                               ;   On action: cleanup
Lcst_end12:
	.byte	1                               ; >> Action Record 1 <<
                                        ;   Catch TypeInfo 1
	.byte	0                               ;   No further actions
	.p2align	2, 0x0
                                        ; >> Catch TypeInfos <<
	.long	0                               ; TypeInfo 1
Lttbase6:
	.p2align	2, 0x0
                                        ; -- End function
	.section	__TEXT,__text,regular,pure_instructions
	.private_extern	__ZNKSt3__19basic_iosIcNS_11char_traitsIcEEE5widenB8ne200100Ec ; -- Begin function _ZNKSt3__19basic_iosIcNS_11char_traitsIcEEE5widenB8ne200100Ec
	.globl	__ZNKSt3__19basic_iosIcNS_11char_traitsIcEEE5widenB8ne200100Ec
	.weak_definition	__ZNKSt3__19basic_iosIcNS_11char_traitsIcEEE5widenB8ne200100Ec
	.p2align	2
__ZNKSt3__19basic_iosIcNS_11char_traitsIcEEE5widenB8ne200100Ec: ; @_ZNKSt3__19basic_iosIcNS_11char_traitsIcEEE5widenB8ne200100Ec
Lfunc_begin13:
	.cfi_startproc
	.cfi_personality 155, ___gxx_personality_v0
	.cfi_lsda 16, Lexception13
; %bb.0:
	sub	sp, sp, #80
	stp	x29, x30, [sp, #64]             ; 16-byte Folded Spill
	add	x29, sp, #64
	.cfi_def_cfa w29, 16
	.cfi_offset w30, -8
	.cfi_offset w29, -16
	stur	x0, [x29, #-8]
	sturb	w1, [x29, #-9]
	ldur	x0, [x29, #-8]
	sub	x8, x29, #24
	str	x8, [sp, #8]                    ; 8-byte Folded Spill
	bl	__ZNKSt3__18ios_base6getlocEv
	ldr	x0, [sp, #8]                    ; 8-byte Folded Reload
Ltmp272:
	bl	__ZNSt3__19use_facetB8ne200100INS_5ctypeIcEEEERKT_RKNS_6localeE
	str	x0, [sp, #16]                   ; 8-byte Folded Spill
Ltmp273:
	b	LBB152_1
LBB152_1:
	ldr	x0, [sp, #16]                   ; 8-byte Folded Reload
	ldursb	w1, [x29, #-9]
Ltmp274:
	bl	__ZNKSt3__15ctypeIcE5widenB8ne200100Ec
	str	w0, [sp, #4]                    ; 4-byte Folded Spill
Ltmp275:
	b	LBB152_2
LBB152_2:
	sub	x0, x29, #24
	bl	__ZNSt3__16localeD1Ev
	ldr	w0, [sp, #4]                    ; 4-byte Folded Reload
	ldp	x29, x30, [sp, #64]             ; 16-byte Folded Reload
	add	sp, sp, #80
	ret
LBB152_3:
Ltmp276:
	str	x0, [sp, #32]
	mov	x8, x1
	str	w8, [sp, #28]
	sub	x0, x29, #24
	bl	__ZNSt3__16localeD1Ev
	b	LBB152_4
LBB152_4:
	ldr	x0, [sp, #32]
	bl	__Unwind_Resume
Lfunc_end13:
	.cfi_endproc
	.section	__TEXT,__gcc_except_tab
	.p2align	2, 0x0
GCC_except_table152:
Lexception13:
	.byte	255                             ; @LPStart Encoding = omit
	.byte	255                             ; @TType Encoding = omit
	.byte	1                               ; Call site Encoding = uleb128
	.uleb128 Lcst_end13-Lcst_begin13
Lcst_begin13:
	.uleb128 Lfunc_begin13-Lfunc_begin13    ; >> Call Site 1 <<
	.uleb128 Ltmp272-Lfunc_begin13          ;   Call between Lfunc_begin13 and Ltmp272
	.byte	0                               ;     has no landing pad
	.byte	0                               ;   On action: cleanup
	.uleb128 Ltmp272-Lfunc_begin13          ; >> Call Site 2 <<
	.uleb128 Ltmp275-Ltmp272                ;   Call between Ltmp272 and Ltmp275
	.uleb128 Ltmp276-Lfunc_begin13          ;     jumps to Ltmp276
	.byte	0                               ;   On action: cleanup
	.uleb128 Ltmp275-Lfunc_begin13          ; >> Call Site 3 <<
	.uleb128 Lfunc_end13-Ltmp275            ;   Call between Ltmp275 and Lfunc_end13
	.byte	0                               ;     has no landing pad
	.byte	0                               ;   On action: cleanup
Lcst_end13:
	.p2align	2, 0x0
                                        ; -- End function
	.section	__TEXT,__text,regular,pure_instructions
	.private_extern	__ZNKSt3__113basic_istreamIcNS_11char_traitsIcEEE6sentrycvbB8ne200100Ev ; -- Begin function _ZNKSt3__113basic_istreamIcNS_11char_traitsIcEEE6sentrycvbB8ne200100Ev
	.globl	__ZNKSt3__113basic_istreamIcNS_11char_traitsIcEEE6sentrycvbB8ne200100Ev
	.weak_definition	__ZNKSt3__113basic_istreamIcNS_11char_traitsIcEEE6sentrycvbB8ne200100Ev
	.p2align	2
__ZNKSt3__113basic_istreamIcNS_11char_traitsIcEEE6sentrycvbB8ne200100Ev: ; @_ZNKSt3__113basic_istreamIcNS_11char_traitsIcEEE6sentrycvbB8ne200100Ev
	.cfi_startproc
; %bb.0:
	sub	sp, sp, #16
	.cfi_def_cfa_offset 16
	str	x0, [sp, #8]
	ldr	x8, [sp, #8]
	ldrb	w8, [x8]
	and	w0, w8, #0x1
	add	sp, sp, #16
	ret
	.cfi_endproc
                                        ; -- End function
	.private_extern	__ZNSt3__112basic_stringIcNS_11char_traitsIcEENS_9allocatorIcEEE5clearB8ne200100Ev ; -- Begin function _ZNSt3__112basic_stringIcNS_11char_traitsIcEENS_9allocatorIcEEE5clearB8ne200100Ev
	.globl	__ZNSt3__112basic_stringIcNS_11char_traitsIcEENS_9allocatorIcEEE5clearB8ne200100Ev
	.weak_definition	__ZNSt3__112basic_stringIcNS_11char_traitsIcEENS_9allocatorIcEEE5clearB8ne200100Ev
	.p2align	2
__ZNSt3__112basic_stringIcNS_11char_traitsIcEENS_9allocatorIcEEE5clearB8ne200100Ev: ; @_ZNSt3__112basic_stringIcNS_11char_traitsIcEENS_9allocatorIcEEE5clearB8ne200100Ev
	.cfi_startproc
; %bb.0:
	sub	sp, sp, #48
	stp	x29, x30, [sp, #32]             ; 16-byte Folded Spill
	add	x29, sp, #32
	.cfi_def_cfa w29, 16
	.cfi_offset w30, -8
	.cfi_offset w29, -16
	stur	x0, [x29, #-8]
	ldur	x0, [x29, #-8]
	str	x0, [sp]                        ; 8-byte Folded Spill
	bl	__ZNKSt3__112basic_stringIcNS_11char_traitsIcEENS_9allocatorIcEEE4sizeB8ne200100Ev
	mov	x8, x0
	ldr	x0, [sp]                        ; 8-byte Folded Reload
	str	x8, [sp, #16]
	bl	__ZNKSt3__112basic_stringIcNS_11char_traitsIcEENS_9allocatorIcEEE9__is_longB8ne200100Ev
	tbz	w0, #0, LBB154_2
	b	LBB154_1
LBB154_1:
	ldr	x0, [sp]                        ; 8-byte Folded Reload
	bl	__ZNSt3__112basic_stringIcNS_11char_traitsIcEENS_9allocatorIcEEE18__get_long_pointerB8ne200100Ev
	add	x1, sp, #15
	strb	wzr, [sp, #15]
	bl	__ZNSt3__111char_traitsIcE6assignB8ne200100ERcRKc
	ldr	x0, [sp]                        ; 8-byte Folded Reload
	mov	x1, #0                          ; =0x0
	bl	__ZNSt3__112basic_stringIcNS_11char_traitsIcEENS_9allocatorIcEEE15__set_long_sizeB8ne200100Em
	b	LBB154_3
LBB154_2:
	ldr	x0, [sp]                        ; 8-byte Folded Reload
	bl	__ZNSt3__112basic_stringIcNS_11char_traitsIcEENS_9allocatorIcEEE19__get_short_pointerB8ne200100Ev
	add	x1, sp, #14
	strb	wzr, [sp, #14]
	bl	__ZNSt3__111char_traitsIcE6assignB8ne200100ERcRKc
	ldr	x0, [sp]                        ; 8-byte Folded Reload
	mov	x1, #0                          ; =0x0
	bl	__ZNSt3__112basic_stringIcNS_11char_traitsIcEENS_9allocatorIcEEE16__set_short_sizeB8ne200100Em
	b	LBB154_3
LBB154_3:
	ldr	x0, [sp]                        ; 8-byte Folded Reload
	ldr	x1, [sp, #16]
	bl	__ZNKSt3__112basic_stringIcNS_11char_traitsIcEENS_9allocatorIcEEE17__annotate_shrinkB8ne200100Em
	ldp	x29, x30, [sp, #32]             ; 16-byte Folded Reload
	add	sp, sp, #48
	ret
	.cfi_endproc
                                        ; -- End function
	.private_extern	__ZNKSt3__19basic_iosIcNS_11char_traitsIcEEE5rdbufB8ne200100Ev ; -- Begin function _ZNKSt3__19basic_iosIcNS_11char_traitsIcEEE5rdbufB8ne200100Ev
	.globl	__ZNKSt3__19basic_iosIcNS_11char_traitsIcEEE5rdbufB8ne200100Ev
	.weak_definition	__ZNKSt3__19basic_iosIcNS_11char_traitsIcEEE5rdbufB8ne200100Ev
	.p2align	2
__ZNKSt3__19basic_iosIcNS_11char_traitsIcEEE5rdbufB8ne200100Ev: ; @_ZNKSt3__19basic_iosIcNS_11char_traitsIcEEE5rdbufB8ne200100Ev
	.cfi_startproc
; %bb.0:
	sub	sp, sp, #32
	stp	x29, x30, [sp, #16]             ; 16-byte Folded Spill
	add	x29, sp, #16
	.cfi_def_cfa w29, 16
	.cfi_offset w30, -8
	.cfi_offset w29, -16
	str	x0, [sp, #8]
	ldr	x0, [sp, #8]
	bl	__ZNKSt3__18ios_base5rdbufB8ne200100Ev
	ldp	x29, x30, [sp, #16]             ; 16-byte Folded Reload
	add	sp, sp, #32
	ret
	.cfi_endproc
                                        ; -- End function
	.private_extern	__ZNSt3__115basic_streambufIcNS_11char_traitsIcEEE6sbumpcB8ne200100Ev ; -- Begin function _ZNSt3__115basic_streambufIcNS_11char_traitsIcEEE6sbumpcB8ne200100Ev
	.globl	__ZNSt3__115basic_streambufIcNS_11char_traitsIcEEE6sbumpcB8ne200100Ev
	.weak_definition	__ZNSt3__115basic_streambufIcNS_11char_traitsIcEEE6sbumpcB8ne200100Ev
	.p2align	2
__ZNSt3__115basic_streambufIcNS_11char_traitsIcEEE6sbumpcB8ne200100Ev: ; @_ZNSt3__115basic_streambufIcNS_11char_traitsIcEEE6sbumpcB8ne200100Ev
	.cfi_startproc
; %bb.0:
	sub	sp, sp, #48
	stp	x29, x30, [sp, #32]             ; 16-byte Folded Spill
	add	x29, sp, #32
	.cfi_def_cfa w29, 16
	.cfi_offset w30, -8
	.cfi_offset w29, -16
	str	x0, [sp, #16]
	ldr	x9, [sp, #16]
	str	x9, [sp, #8]                    ; 8-byte Folded Spill
	ldr	x8, [x9, #24]
	ldr	x9, [x9, #32]
	subs	x8, x8, x9
	b.ne	LBB156_2
	b	LBB156_1
LBB156_1:
	ldr	x0, [sp, #8]                    ; 8-byte Folded Reload
	ldr	x8, [x0]
	ldr	x8, [x8, #80]
	blr	x8
	stur	w0, [x29, #-4]
	b	LBB156_3
LBB156_2:
	ldr	x10, [sp, #8]                   ; 8-byte Folded Reload
	ldr	x8, [x10, #24]
	add	x9, x8, #1
	str	x9, [x10, #24]
	ldrsb	w0, [x8]
	bl	__ZNSt3__111char_traitsIcE11to_int_typeB8ne200100Ec
	stur	w0, [x29, #-4]
	b	LBB156_3
LBB156_3:
	ldur	w0, [x29, #-4]
	ldp	x29, x30, [sp, #32]             ; 16-byte Folded Reload
	add	sp, sp, #48
	ret
	.cfi_endproc
                                        ; -- End function
	.private_extern	__ZNSt3__111char_traitsIcE11eq_int_typeB8ne200100Eii ; -- Begin function _ZNSt3__111char_traitsIcE11eq_int_typeB8ne200100Eii
	.globl	__ZNSt3__111char_traitsIcE11eq_int_typeB8ne200100Eii
	.weak_definition	__ZNSt3__111char_traitsIcE11eq_int_typeB8ne200100Eii
	.p2align	2
__ZNSt3__111char_traitsIcE11eq_int_typeB8ne200100Eii: ; @_ZNSt3__111char_traitsIcE11eq_int_typeB8ne200100Eii
	.cfi_startproc
; %bb.0:
	sub	sp, sp, #16
	.cfi_def_cfa_offset 16
	str	w0, [sp, #12]
	str	w1, [sp, #8]
	ldr	w8, [sp, #12]
	ldr	w9, [sp, #8]
	subs	w8, w8, w9
	cset	w0, eq
	add	sp, sp, #16
	ret
	.cfi_endproc
                                        ; -- End function
	.private_extern	__ZNSt3__111char_traitsIcE12to_char_typeB8ne200100Ei ; -- Begin function _ZNSt3__111char_traitsIcE12to_char_typeB8ne200100Ei
	.globl	__ZNSt3__111char_traitsIcE12to_char_typeB8ne200100Ei
	.weak_definition	__ZNSt3__111char_traitsIcE12to_char_typeB8ne200100Ei
	.p2align	2
