	.arch armv8-a
	.file	"bench_poly_mod.cpp"
	.text
	.section	.text._ZSt23__is_constant_evaluatedv,"axG",@progbits,_ZSt23__is_constant_evaluatedv,comdat
	.align	2
	.weak	_ZSt23__is_constant_evaluatedv
	.type	_ZSt23__is_constant_evaluatedv, %function
_ZSt23__is_constant_evaluatedv:
.LFB1:
	.cfi_startproc
	mov	w0, 0
	ret
	.cfi_endproc
.LFE1:
	.size	_ZSt23__is_constant_evaluatedv, .-_ZSt23__is_constant_evaluatedv
	.section	.text._ZnwmPv,"axG",@progbits,_ZnwmPv,comdat
	.align	2
	.weak	_ZnwmPv
	.type	_ZnwmPv, %function
_ZnwmPv:
.LFB40:
	.cfi_startproc
	sub	sp, sp, #16
	.cfi_def_cfa_offset 16
	str	x0, [sp, 8]
	str	x1, [sp]
	ldr	x0, [sp]
	add	sp, sp, 16
	.cfi_def_cfa_offset 0
	ret
	.cfi_endproc
.LFE40:
	.size	_ZnwmPv, .-_ZnwmPv
	.section	.text._ZNSt11char_traitsIcE6lengthEPKc,"axG",@progbits,_ZNSt11char_traitsIcE6lengthEPKc,comdat
	.align	2
	.weak	_ZNSt11char_traitsIcE6lengthEPKc
	.type	_ZNSt11char_traitsIcE6lengthEPKc, %function
_ZNSt11char_traitsIcE6lengthEPKc:
.LFB115:
	.cfi_startproc
	stp	x29, x30, [sp, -32]!
	.cfi_def_cfa_offset 32
	.cfi_offset 29, -32
	.cfi_offset 30, -24
	mov	x29, sp
	str	x0, [sp, 24]
	bl	_ZSt23__is_constant_evaluatedv
	and	w0, w0, 255
	and	w0, w0, 1
	cmp	w0, 0
	beq	.L6
	ldr	x0, [sp, 24]
	bl	_ZN9__gnu_cxx11char_traitsIcE6lengthEPKc
	b	.L7
.L6:
	ldr	x0, [sp, 24]
	bl	strlen
	nop
.L7:
	ldp	x29, x30, [sp], 32
	.cfi_restore 30
	.cfi_restore 29
	.cfi_def_cfa_offset 0
	ret
	.cfi_endproc
.LFE115:
	.size	_ZNSt11char_traitsIcE6lengthEPKc, .-_ZNSt11char_traitsIcE6lengthEPKc
	.section	.text._ZSt17__size_to_integerm,"axG",@progbits,_ZSt17__size_to_integerm,comdat
	.align	2
	.weak	_ZSt17__size_to_integerm
	.type	_ZSt17__size_to_integerm, %function
_ZSt17__size_to_integerm:
.LFB658:
	.cfi_startproc
	sub	sp, sp, #16
	.cfi_def_cfa_offset 16
	str	x0, [sp, 8]
	ldr	x0, [sp, 8]
	add	sp, sp, 16
	.cfi_def_cfa_offset 0
	ret
	.cfi_endproc
.LFE658:
	.size	_ZSt17__size_to_integerm, .-_ZSt17__size_to_integerm
	.section	.rodata
	.align	3
.LC0:
	.string	"stoi"
	.section	.text._ZNSt7__cxx114stoiERKNS_12basic_stringIcSt11char_traitsIcESaIcEEEPmi,"axG",@progbits,_ZNSt7__cxx114stoiERKNS_12basic_stringIcSt11char_traitsIcESaIcEEEPmi,comdat
	.align	2
	.weak	_ZNSt7__cxx114stoiERKNS_12basic_stringIcSt11char_traitsIcESaIcEEEPmi
	.type	_ZNSt7__cxx114stoiERKNS_12basic_stringIcSt11char_traitsIcESaIcEEEPmi, %function
_ZNSt7__cxx114stoiERKNS_12basic_stringIcSt11char_traitsIcESaIcEEEPmi:
.LFB1169:
	.cfi_startproc
	stp	x29, x30, [sp, -48]!
	.cfi_def_cfa_offset 48
	.cfi_offset 29, -48
	.cfi_offset 30, -40
	mov	x29, sp
	str	x0, [sp, 40]
	str	x1, [sp, 32]
	str	w2, [sp, 28]
	ldr	x0, [sp, 40]
	bl	_ZNKSt7__cxx1112basic_stringIcSt11char_traitsIcESaIcEE5c_strEv
	ldr	w4, [sp, 28]
	ldr	x3, [sp, 32]
	mov	x2, x0
	adrp	x0, .LC0
	add	x1, x0, :lo12:.LC0
	adrp	x0, :got:__isoc23_strtol
	ldr	x0, [x0, :got_lo12:__isoc23_strtol]
	bl	_ZN9__gnu_cxx6__stoaIlicJiEEET0_PFT_PKT1_PPS3_DpT2_EPKcS5_PmS9_
	ldp	x29, x30, [sp], 48
	.cfi_restore 30
	.cfi_restore 29
	.cfi_def_cfa_offset 0
	ret
	.cfi_endproc
.LFE1169:
	.size	_ZNSt7__cxx114stoiERKNS_12basic_stringIcSt11char_traitsIcESaIcEEEPmi, .-_ZNSt7__cxx114stoiERKNS_12basic_stringIcSt11char_traitsIcESaIcEEEPmi
	.section	.text._ZStanSt13_Ios_FmtflagsS_,"axG",@progbits,_ZStanSt13_Ios_FmtflagsS_,comdat
	.align	2
	.weak	_ZStanSt13_Ios_FmtflagsS_
	.type	_ZStanSt13_Ios_FmtflagsS_, %function
_ZStanSt13_Ios_FmtflagsS_:
.LFB1572:
	.cfi_startproc
	sub	sp, sp, #16
	.cfi_def_cfa_offset 16
	str	w0, [sp, 12]
	str	w1, [sp, 8]
	ldr	w1, [sp, 12]
	ldr	w0, [sp, 8]
	and	w0, w1, w0
	add	sp, sp, 16
	.cfi_def_cfa_offset 0
	ret
	.cfi_endproc
.LFE1572:
	.size	_ZStanSt13_Ios_FmtflagsS_, .-_ZStanSt13_Ios_FmtflagsS_
	.section	.text._ZStorSt13_Ios_FmtflagsS_,"axG",@progbits,_ZStorSt13_Ios_FmtflagsS_,comdat
	.align	2
	.weak	_ZStorSt13_Ios_FmtflagsS_
	.type	_ZStorSt13_Ios_FmtflagsS_, %function
_ZStorSt13_Ios_FmtflagsS_:
.LFB1573:
	.cfi_startproc
	sub	sp, sp, #16
	.cfi_def_cfa_offset 16
	str	w0, [sp, 12]
	str	w1, [sp, 8]
	ldr	w1, [sp, 12]
	ldr	w0, [sp, 8]
	orr	w0, w1, w0
	add	sp, sp, 16
	.cfi_def_cfa_offset 0
	ret
	.cfi_endproc
.LFE1573:
	.size	_ZStorSt13_Ios_FmtflagsS_, .-_ZStorSt13_Ios_FmtflagsS_
	.section	.text._ZStcoSt13_Ios_Fmtflags,"axG",@progbits,_ZStcoSt13_Ios_Fmtflags,comdat
	.align	2
	.weak	_ZStcoSt13_Ios_Fmtflags
	.type	_ZStcoSt13_Ios_Fmtflags, %function
_ZStcoSt13_Ios_Fmtflags:
.LFB1575:
	.cfi_startproc
	sub	sp, sp, #16
	.cfi_def_cfa_offset 16
	str	w0, [sp, 12]
	ldr	w0, [sp, 12]
	mvn	w0, w0
	add	sp, sp, 16
	.cfi_def_cfa_offset 0
	ret
	.cfi_endproc
.LFE1575:
	.size	_ZStcoSt13_Ios_Fmtflags, .-_ZStcoSt13_Ios_Fmtflags
	.section	.text._ZStoRRSt13_Ios_FmtflagsS_,"axG",@progbits,_ZStoRRSt13_Ios_FmtflagsS_,comdat
	.align	2
	.weak	_ZStoRRSt13_Ios_FmtflagsS_
	.type	_ZStoRRSt13_Ios_FmtflagsS_, %function
_ZStoRRSt13_Ios_FmtflagsS_:
.LFB1576:
	.cfi_startproc
	stp	x29, x30, [sp, -32]!
	.cfi_def_cfa_offset 32
	.cfi_offset 29, -32
	.cfi_offset 30, -24
	mov	x29, sp
	str	x0, [sp, 24]
	str	w1, [sp, 20]
	ldr	x0, [sp, 24]
	ldr	w0, [x0]
	ldr	w1, [sp, 20]
	bl	_ZStorSt13_Ios_FmtflagsS_
	mov	w1, w0
	ldr	x0, [sp, 24]
	str	w1, [x0]
	ldr	x0, [sp, 24]
	ldp	x29, x30, [sp], 32
	.cfi_restore 30
	.cfi_restore 29
	.cfi_def_cfa_offset 0
	ret
	.cfi_endproc
.LFE1576:
	.size	_ZStoRRSt13_Ios_FmtflagsS_, .-_ZStoRRSt13_Ios_FmtflagsS_
	.section	.text._ZStaNRSt13_Ios_FmtflagsS_,"axG",@progbits,_ZStaNRSt13_Ios_FmtflagsS_,comdat
	.align	2
	.weak	_ZStaNRSt13_Ios_FmtflagsS_
	.type	_ZStaNRSt13_Ios_FmtflagsS_, %function
_ZStaNRSt13_Ios_FmtflagsS_:
.LFB1577:
	.cfi_startproc
	stp	x29, x30, [sp, -32]!
	.cfi_def_cfa_offset 32
	.cfi_offset 29, -32
	.cfi_offset 30, -24
	mov	x29, sp
	str	x0, [sp, 24]
	str	w1, [sp, 20]
	ldr	x0, [sp, 24]
	ldr	w0, [x0]
	ldr	w1, [sp, 20]
	bl	_ZStanSt13_Ios_FmtflagsS_
	mov	w1, w0
	ldr	x0, [sp, 24]
	str	w1, [x0]
	ldr	x0, [sp, 24]
	ldp	x29, x30, [sp], 32
	.cfi_restore 30
	.cfi_restore 29
	.cfi_def_cfa_offset 0
	ret
	.cfi_endproc
.LFE1577:
	.size	_ZStaNRSt13_Ios_FmtflagsS_, .-_ZStaNRSt13_Ios_FmtflagsS_
	.section	.text._ZNSt8ios_base4setfESt13_Ios_FmtflagsS0_,"axG",@progbits,_ZNSt8ios_base4setfESt13_Ios_FmtflagsS0_,comdat
	.align	2
	.weak	_ZNSt8ios_base4setfESt13_Ios_FmtflagsS0_
	.type	_ZNSt8ios_base4setfESt13_Ios_FmtflagsS0_, %function
_ZNSt8ios_base4setfESt13_Ios_FmtflagsS0_:
.LFB1606:
	.cfi_startproc
	stp	x29, x30, [sp, -48]!
	.cfi_def_cfa_offset 48
	.cfi_offset 29, -48
	.cfi_offset 30, -40
	mov	x29, sp
	str	x0, [sp, 24]
	str	w1, [sp, 20]
	str	w2, [sp, 16]
	ldr	x0, [sp, 24]
	ldr	w0, [x0, 24]
	str	w0, [sp, 44]
	ldr	w0, [sp, 16]
	bl	_ZStcoSt13_Ios_Fmtflags
	mov	w1, w0
	ldr	x0, [sp, 24]
	add	x0, x0, 24
	bl	_ZStaNRSt13_Ios_FmtflagsS_
	ldr	w1, [sp, 16]
	ldr	w0, [sp, 20]
	bl	_ZStanSt13_Ios_FmtflagsS_
	mov	w1, w0
	ldr	x0, [sp, 24]
	add	x0, x0, 24
	bl	_ZStoRRSt13_Ios_FmtflagsS_
	ldr	w0, [sp, 44]
	ldp	x29, x30, [sp], 48
	.cfi_restore 30
	.cfi_restore 29
	.cfi_def_cfa_offset 0
	ret
	.cfi_endproc
.LFE1606:
	.size	_ZNSt8ios_base4setfESt13_Ios_FmtflagsS0_, .-_ZNSt8ios_base4setfESt13_Ios_FmtflagsS0_
	.section	.text._ZSt5fixedRSt8ios_base,"axG",@progbits,_ZSt5fixedRSt8ios_base,comdat
	.align	2
	.weak	_ZSt5fixedRSt8ios_base
	.type	_ZSt5fixedRSt8ios_base, %function
_ZSt5fixedRSt8ios_base:
.LFB1636:
	.cfi_startproc
	stp	x29, x30, [sp, -32]!
	.cfi_def_cfa_offset 32
	.cfi_offset 29, -32
	.cfi_offset 30, -24
	mov	x29, sp
	str	x0, [sp, 24]
	mov	w2, 260
	mov	w1, 4
	ldr	x0, [sp, 24]
	bl	_ZNSt8ios_base4setfESt13_Ios_FmtflagsS0_
	ldr	x0, [sp, 24]
	ldp	x29, x30, [sp], 32
	.cfi_restore 30
	.cfi_restore 29
	.cfi_def_cfa_offset 0
	ret
	.cfi_endproc
.LFE1636:
	.size	_ZSt5fixedRSt8ios_base, .-_ZSt5fixedRSt8ios_base
#APP
	.globl _ZSt21ios_base_library_initv
#NO_APP
	.section	.text._ZNSt6chrono8durationIlSt5ratioILl1ELl1000000000EEEC1IlvEERKT_,"axG",@progbits,_ZNSt6chrono8durationIlSt5ratioILl1ELl1000000000EEEC1IlvEERKT_,comdat
	.align	2
	.weak	_ZNSt6chrono8durationIlSt5ratioILl1ELl1000000000EEEC1IlvEERKT_
	.type	_ZNSt6chrono8durationIlSt5ratioILl1ELl1000000000EEEC1IlvEERKT_, %function
_ZNSt6chrono8durationIlSt5ratioILl1ELl1000000000EEEC1IlvEERKT_:
.LFB2249:
	.cfi_startproc
	sub	sp, sp, #16
	.cfi_def_cfa_offset 16
	str	x0, [sp, 8]
	str	x1, [sp]
	ldr	x0, [sp]
	ldr	x1, [x0]
	ldr	x0, [sp, 8]
	str	x1, [x0]
	nop
	add	sp, sp, 16
	.cfi_def_cfa_offset 0
	ret
	.cfi_endproc
.LFE2249:
	.size	_ZNSt6chrono8durationIlSt5ratioILl1ELl1000000000EEEC1IlvEERKT_, .-_ZNSt6chrono8durationIlSt5ratioILl1ELl1000000000EEEC1IlvEERKT_
	.section	.text._ZNKSt6chrono8durationIlSt5ratioILl1ELl1000000000EEE5countEv,"axG",@progbits,_ZNKSt6chrono8durationIlSt5ratioILl1ELl1000000000EEE5countEv,comdat
	.align	2
	.weak	_ZNKSt6chrono8durationIlSt5ratioILl1ELl1000000000EEE5countEv
	.type	_ZNKSt6chrono8durationIlSt5ratioILl1ELl1000000000EEE5countEv, %function
_ZNKSt6chrono8durationIlSt5ratioILl1ELl1000000000EEE5countEv:
.LFB2251:
	.cfi_startproc
	sub	sp, sp, #16
	.cfi_def_cfa_offset 16
	str	x0, [sp, 8]
	ldr	x0, [sp, 8]
	ldr	x0, [x0]
	add	sp, sp, 16
	.cfi_def_cfa_offset 0
	ret
	.cfi_endproc
.LFE2251:
	.size	_ZNKSt6chrono8durationIlSt5ratioILl1ELl1000000000EEE5countEv, .-_ZNKSt6chrono8durationIlSt5ratioILl1ELl1000000000EEE5countEv
	.section	.text._ZSt12setprecisioni,"axG",@progbits,_ZSt12setprecisioni,comdat
	.align	2
	.weak	_ZSt12setprecisioni
	.type	_ZSt12setprecisioni, %function
_ZSt12setprecisioni:
.LFB4023:
	.cfi_startproc
	sub	sp, sp, #16
	.cfi_def_cfa_offset 16
	str	w0, [sp, 12]
	ldr	w0, [sp, 12]
	add	sp, sp, 16
	.cfi_def_cfa_offset 0
	ret
	.cfi_endproc
.LFE4023:
	.size	_ZSt12setprecisioni, .-_ZSt12setprecisioni
	.text
	.align	2
	.type	_ZL16classic_poly_addRKSt6vectorIiSaIiEES3_RS1_i, %function
_ZL16classic_poly_addRKSt6vectorIiSaIiEES3_RS1_i:
.LFB4131:
	.cfi_startproc
	stp	x29, x30, [sp, -80]!
	.cfi_def_cfa_offset 80
	.cfi_offset 29, -80
	.cfi_offset 30, -72
	mov	x29, sp
	str	x19, [sp, 16]
	.cfi_offset 19, -64
	str	x0, [sp, 56]
	str	x1, [sp, 48]
	str	x2, [sp, 40]
	str	w3, [sp, 36]
	ldr	x0, [sp, 56]
	bl	_ZNKSt6vectorIiSaIiEE4sizeEv
	str	w0, [sp, 72]
	str	wzr, [sp, 68]
	b	.L32
.L33:
	ldrsw	x0, [sp, 68]
	mov	x1, x0
	ldr	x0, [sp, 56]
	bl	_ZNKSt6vectorIiSaIiEEixEm
	ldr	w19, [x0]
	ldrsw	x0, [sp, 68]
	mov	x1, x0
	ldr	x0, [sp, 48]
	bl	_ZNKSt6vectorIiSaIiEEixEm
	ldr	w0, [x0]
	add	w0, w19, w0
	str	w0, [sp, 76]
	ldr	w0, [sp, 76]
	ldr	w1, [sp, 36]
	sdiv	w2, w0, w1
	ldr	w1, [sp, 36]
	mul	w1, w2, w1
	sub	w19, w0, w1
	ldrsw	x0, [sp, 68]
	mov	x1, x0
	ldr	x0, [sp, 40]
	bl	_ZNSt6vectorIiSaIiEEixEm
	str	w19, [x0]
	ldr	w0, [sp, 68]
	add	w0, w0, 1
	str	w0, [sp, 68]
.L32:
	ldr	w1, [sp, 68]
	ldr	w0, [sp, 72]
	cmp	w1, w0
	blt	.L33
	nop
	nop
	ldr	x19, [sp, 16]
	ldp	x29, x30, [sp], 80
	.cfi_restore 30
	.cfi_restore 29
	.cfi_restore 19
	.cfi_def_cfa_offset 0
	ret
	.cfi_endproc
.LFE4131:
	.size	_ZL16classic_poly_addRKSt6vectorIiSaIiEES3_RS1_i, .-_ZL16classic_poly_addRKSt6vectorIiSaIiEES3_RS1_i
	.align	2
	.type	_ZL14reist_poly_addRKSt6vectorIiSaIiEES3_RS1_i, %function
_ZL14reist_poly_addRKSt6vectorIiSaIiEES3_RS1_i:
.LFB4132:
	.cfi_startproc
	stp	x29, x30, [sp, -96]!
	.cfi_def_cfa_offset 96
	.cfi_offset 29, -96
	.cfi_offset 30, -88
	mov	x29, sp
	str	x19, [sp, 16]
	.cfi_offset 19, -80
	str	x0, [sp, 56]
	str	x1, [sp, 48]
	str	x2, [sp, 40]
	str	w3, [sp, 36]
	ldr	x0, [sp, 56]
	bl	_ZNKSt6vectorIiSaIiEE4sizeEv
	str	w0, [sp, 72]
	ldr	w0, [sp, 36]
	lsr	w1, w0, 31
	add	w0, w1, w0
	asr	w0, w0, 1
	str	w0, [sp, 76]
	ldr	w0, [sp, 76]
	neg	w0, w0
	str	w0, [sp, 80]
	str	wzr, [sp, 68]
	b	.L35
.L36:
	ldrsw	x0, [sp, 68]
	mov	x1, x0
	ldr	x0, [sp, 56]
	bl	_ZNKSt6vectorIiSaIiEEixEm
	ldr	w19, [x0]
	ldrsw	x0, [sp, 68]
	mov	x1, x0
	ldr	x0, [sp, 48]
	bl	_ZNKSt6vectorIiSaIiEEixEm
	ldr	w0, [x0]
	add	w0, w19, w0
	str	w0, [sp, 84]
	ldr	w1, [sp, 84]
	ldr	w0, [sp, 76]
	cmp	w1, w0
	cset	w0, gt
	and	w0, w0, 255
	str	w0, [sp, 88]
	ldr	w1, [sp, 84]
	ldr	w0, [sp, 80]
	cmp	w1, w0
	cset	w0, le
	and	w0, w0, 255
	str	w0, [sp, 92]
	ldr	w1, [sp, 88]
	ldr	w0, [sp, 36]
	mul	w0, w1, w0
	ldr	w1, [sp, 84]
	sub	w0, w1, w0
	str	w0, [sp, 84]
	ldr	w1, [sp, 92]
	ldr	w0, [sp, 36]
	mul	w0, w1, w0
	ldr	w1, [sp, 84]
	add	w0, w1, w0
	str	w0, [sp, 84]
	ldr	w19, [sp, 84]
	ldrsw	x0, [sp, 68]
	mov	x1, x0
	ldr	x0, [sp, 40]
	bl	_ZNSt6vectorIiSaIiEEixEm
	str	w19, [x0]
	ldr	w0, [sp, 68]
	add	w0, w0, 1
	str	w0, [sp, 68]
.L35:
	ldr	w1, [sp, 68]
	ldr	w0, [sp, 72]
	cmp	w1, w0
	blt	.L36
	nop
	nop
	ldr	x19, [sp, 16]
	ldp	x29, x30, [sp], 96
	.cfi_restore 30
	.cfi_restore 29
	.cfi_restore 19
	.cfi_def_cfa_offset 0
	ret
	.cfi_endproc
.LFE4132:
	.size	_ZL14reist_poly_addRKSt6vectorIiSaIiEES3_RS1_i, .-_ZL14reist_poly_addRKSt6vectorIiSaIiEES3_RS1_i
	.section	.text._ZNSt12_Vector_baseIiSaIiEE12_Vector_implD2Ev,"axG",@progbits,_ZNSt12_Vector_baseIiSaIiEE12_Vector_implD5Ev,comdat
	.align	2
	.weak	_ZNSt12_Vector_baseIiSaIiEE12_Vector_implD2Ev
	.type	_ZNSt12_Vector_baseIiSaIiEE12_Vector_implD2Ev, %function
_ZNSt12_Vector_baseIiSaIiEE12_Vector_implD2Ev:
.LFB4139:
	.cfi_startproc
	stp	x29, x30, [sp, -48]!
	.cfi_def_cfa_offset 48
	.cfi_offset 29, -48
	.cfi_offset 30, -40
	mov	x29, sp
	str	x0, [sp, 24]
	ldr	x0, [sp, 24]
	str	x0, [sp, 40]
	ldr	x0, [sp, 40]
	bl	_ZNSt15__new_allocatorIiED2Ev
	nop
	nop
	ldp	x29, x30, [sp], 48
	.cfi_restore 30
	.cfi_restore 29
	.cfi_def_cfa_offset 0
	ret
	.cfi_endproc
.LFE4139:
	.size	_ZNSt12_Vector_baseIiSaIiEE12_Vector_implD2Ev, .-_ZNSt12_Vector_baseIiSaIiEE12_Vector_implD2Ev
	.weak	_ZNSt12_Vector_baseIiSaIiEE12_Vector_implD1Ev
	.set	_ZNSt12_Vector_baseIiSaIiEE12_Vector_implD1Ev,_ZNSt12_Vector_baseIiSaIiEE12_Vector_implD2Ev
	.section	.text._ZNSt12_Vector_baseIiSaIiEEC2Ev,"axG",@progbits,_ZNSt12_Vector_baseIiSaIiEEC5Ev,comdat
	.align	2
	.weak	_ZNSt12_Vector_baseIiSaIiEEC2Ev
	.type	_ZNSt12_Vector_baseIiSaIiEEC2Ev, %function
_ZNSt12_Vector_baseIiSaIiEEC2Ev:
.LFB4141:
	.cfi_startproc
	stp	x29, x30, [sp, -32]!
	.cfi_def_cfa_offset 32
	.cfi_offset 29, -32
	.cfi_offset 30, -24
	mov	x29, sp
	str	x0, [sp, 24]
	ldr	x0, [sp, 24]
	bl	_ZNSt12_Vector_baseIiSaIiEE12_Vector_implC1Ev
	nop
	ldp	x29, x30, [sp], 32
	.cfi_restore 30
	.cfi_restore 29
	.cfi_def_cfa_offset 0
	ret
	.cfi_endproc
.LFE4141:
	.size	_ZNSt12_Vector_baseIiSaIiEEC2Ev, .-_ZNSt12_Vector_baseIiSaIiEEC2Ev
	.weak	_ZNSt12_Vector_baseIiSaIiEEC1Ev
	.set	_ZNSt12_Vector_baseIiSaIiEEC1Ev,_ZNSt12_Vector_baseIiSaIiEEC2Ev
	.section	.text._ZNSt6vectorIiSaIiEEC2Ev,"axG",@progbits,_ZNSt6vectorIiSaIiEEC5Ev,comdat
	.align	2
	.weak	_ZNSt6vectorIiSaIiEEC2Ev
	.type	_ZNSt6vectorIiSaIiEEC2Ev, %function
_ZNSt6vectorIiSaIiEEC2Ev:
.LFB4143:
	.cfi_startproc
	stp	x29, x30, [sp, -32]!
	.cfi_def_cfa_offset 32
	.cfi_offset 29, -32
	.cfi_offset 30, -24
	mov	x29, sp
	str	x0, [sp, 24]
	ldr	x0, [sp, 24]
	bl	_ZNSt12_Vector_baseIiSaIiEEC2Ev
	nop
	ldp	x29, x30, [sp], 32
	.cfi_restore 30
	.cfi_restore 29
	.cfi_def_cfa_offset 0
	ret
	.cfi_endproc
.LFE4143:
	.size	_ZNSt6vectorIiSaIiEEC2Ev, .-_ZNSt6vectorIiSaIiEEC2Ev
	.weak	_ZNSt6vectorIiSaIiEEC1Ev
	.set	_ZNSt6vectorIiSaIiEEC1Ev,_ZNSt6vectorIiSaIiEEC2Ev
	.text
	.align	2
	.type	_ZZ4mainENKUlvE_clEv, %function
_ZZ4mainENKUlvE_clEv:
.LFB4149:
	.cfi_startproc
	stp	x29, x30, [sp, -32]!
	.cfi_def_cfa_offset 32
	.cfi_offset 29, -32
	.cfi_offset 30, -24
	mov	x29, sp
	str	x0, [sp, 24]
	ldr	x0, [sp, 24]
	ldr	x4, [x0]
	ldr	x0, [sp, 24]
	ldr	x1, [x0, 8]
	ldr	x0, [sp, 24]
	ldr	x2, [x0, 16]
	ldr	x0, [sp, 24]
	ldr	x0, [x0, 24]
	ldr	w0, [x0]
	mov	w3, w0
	mov	x0, x4
	bl	_ZL16classic_poly_addRKSt6vectorIiSaIiEES3_RS1_i
	nop
	ldp	x29, x30, [sp], 32
	.cfi_restore 30
	.cfi_restore 29
	.cfi_def_cfa_offset 0
	ret
	.cfi_endproc
.LFE4149:
	.size	_ZZ4mainENKUlvE_clEv, .-_ZZ4mainENKUlvE_clEv
	.align	2
	.type	_ZZ4mainENKUlvE0_clEv, %function
_ZZ4mainENKUlvE0_clEv:
.LFB4150:
	.cfi_startproc
	stp	x29, x30, [sp, -32]!
	.cfi_def_cfa_offset 32
	.cfi_offset 29, -32
	.cfi_offset 30, -24
	mov	x29, sp
	str	x0, [sp, 24]
	ldr	x0, [sp, 24]
	ldr	x4, [x0]
	ldr	x0, [sp, 24]
	ldr	x1, [x0, 8]
	ldr	x0, [sp, 24]
	ldr	x2, [x0, 16]
	ldr	x0, [sp, 24]
	ldr	x0, [x0, 24]
	ldr	w0, [x0]
	mov	w3, w0
	mov	x0, x4
	bl	_ZL14reist_poly_addRKSt6vectorIiSaIiEES3_RS1_i
	nop
	ldp	x29, x30, [sp], 32
	.cfi_restore 30
	.cfi_restore 29
	.cfi_def_cfa_offset 0
	ret
	.cfi_endproc
.LFE4150:
	.size	_ZZ4mainENKUlvE0_clEv, .-_ZZ4mainENKUlvE0_clEv
	.section	.rodata
	.align	3
.LC1:
	.string	"/proc/cpuinfo"
	.align	3
.LC2:
	.string	"model name"
	.align	3
.LC3:
	.string	":"
	.align	3
.LC4:
	.string	"cpu MHz"
	.align	3
.LC5:
	.string	"/proc/meminfo"
	.align	3
.LC6:
	.string	"MemTotal"
	.align	3
.LC7:
	.string	"r"
	.align	3
.LC8:
	.string	"uname -o"
	.align	3
.LC9:
	.string	"========================================\n"
	.align	3
.LC10:
	.string	"Polynomial Modular Add Benchmark (NTRU-style, large q)\n"
	.align	3
.LC11:
	.string	"System Information:\n"
	.align	3
.LC12:
	.string	"  Hostname: "
	.align	3
.LC13:
	.string	"\n"
	.align	3
.LC14:
	.string	"  OS: "
	.align	3
.LC15:
	.string	"  CPU Model: "
	.align	3
.LC16:
	.string	"  CPU MHz: "
	.align	3
.LC17:
	.string	"  Memory: "
	.align	3
.LC18:
	.string	"========================================\n\n"
	.align	3
.LC19:
	.string	"N = "
	.align	3
.LC20:
	.string	", reps = "
	.align	3
.LC21:
	.string	"\n\n"
	.align	3
.LC22:
	.string	"results_poly_mod.csv"
	.align	3
.LC23:
	.string	"ERROR: could not open results_poly_mod.csv for writing\n"
	.align	3
.LC24:
	.string	"q,N,reps,classic,reist,speedup\n"
	.align	3
.LC25:
	.string	"q = "
	.align	3
.LC26:
	.string	"  classic : "
	.align	3
.LC27:
	.string	" s\n"
	.align	3
.LC28:
	.string	"  REIST   : "
	.align	3
.LC29:
	.string	"  speedup : "
	.align	3
.LC30:
	.string	"x\n\n"
	.align	3
.LC31:
	.string	","
	.align	3
.LC32:
	.string	"CSV written to results_poly_mod.csv\n"
	.text
	.align	2
	.global	main
	.type	main, %function
main:
.LFB4134:
	.cfi_startproc
	.cfi_personality 0x9b,DW.ref.__gxx_personality_v0
	.cfi_lsda 0x1b,.LLSDA4134
	stp	x29, x30, [sp, -48]!
	.cfi_def_cfa_offset 48
	.cfi_offset 29, -48
	.cfi_offset 30, -40
	mov	x29, sp
	stp	x19, x20, [sp, 16]
	str	x21, [sp, 32]
	mov	x13, 6432
	sub	sp, sp, x13
	.cfi_def_cfa_offset 6480
	.cfi_offset 19, -32
	.cfi_offset 20, -24
	.cfi_offset 21, -16
	str	xzr, [sp, 1024]
	str	w0, [sp, 12]
	str	x1, [sp]
	adrp	x0, :got:__stack_chk_guard
	ldr	x0, [x0, :got_lo12:__stack_chk_guard]
	ldr	x1, [x0]
	str	x1, [sp, 6424]
	mov	x1, 0
	mov	w0, 1024
	str	w0, [sp, 28]
	mov	w0, 50000
	str	w0, [sp, 32]
	add	x0, sp, 160
	bl	_ZNSt6vectorIiSaIiEEC1Ev
	ldr	w0, [sp, 12]
	cmp	w0, 1
	ble	.L43
	ldr	x0, [sp]
	add	x0, x0, 8
	ldr	x1, [x0]
	add	x0, sp, 256
	str	x0, [sp, 104]
	nop
	nop
	add	x2, sp, 256
	add	x0, sp, 1040
.LEHB0:
	bl	_ZNSt7__cxx1112basic_stringIcSt11char_traitsIcESaIcEEC1IS3_EEPKcRKS3_
.LEHE0:
	add	x0, sp, 1040
	mov	w2, 10
	mov	x1, 0
.LEHB1:
	bl	_ZNSt7__cxx114stoiERKNS_12basic_stringIcSt11char_traitsIcESaIcEEEPmi
.LEHE1:
	str	w0, [sp, 28]
	add	x0, sp, 1040
	bl	_ZNSt7__cxx1112basic_stringIcSt11char_traitsIcESaIcEED1Ev
	add	x0, sp, 256
	bl	_ZNSt15__new_allocatorIcED2Ev
	nop
.L43:
	ldr	w0, [sp, 12]
	cmp	w0, 2
	ble	.L44
	ldr	x0, [sp]
	add	x0, x0, 16
	ldr	x1, [x0]
	add	x0, sp, 256
	str	x0, [sp, 112]
	nop
	nop
	add	x2, sp, 256
	add	x0, sp, 1040
.LEHB2:
	bl	_ZNSt7__cxx1112basic_stringIcSt11char_traitsIcESaIcEEC1IS3_EEPKcRKS3_
.LEHE2:
	add	x0, sp, 1040
	mov	w2, 10
	mov	x1, 0
.LEHB3:
	bl	_ZNSt7__cxx114stoiERKNS_12basic_stringIcSt11char_traitsIcESaIcEEEPmi
.LEHE3:
	str	w0, [sp, 32]
	add	x0, sp, 1040
	bl	_ZNSt7__cxx1112basic_stringIcSt11char_traitsIcESaIcEED1Ev
	add	x0, sp, 256
	bl	_ZNSt15__new_allocatorIcED2Ev
	nop
.L44:
	ldr	w0, [sp, 12]
	cmp	w0, 3
	ble	.L45
	ldr	x0, [sp]
	add	x0, x0, 24
	ldr	x1, [x0]
	add	x0, sp, 232
	str	x0, [sp, 120]
	nop
	nop
	add	x2, sp, 232
	add	x0, sp, 1040
.LEHB4:
	bl	_ZNSt7__cxx1112basic_stringIcSt11char_traitsIcESaIcEEC1IS3_EEPKcRKS3_
.LEHE4:
	add	x0, sp, 1040
	mov	w2, 10
	mov	x1, 0
.LEHB5:
	bl	_ZNSt7__cxx114stoiERKNS_12basic_stringIcSt11char_traitsIcESaIcEEEPmi
	str	w0, [sp, 256]
	add	x1, sp, 256
	add	x0, sp, 160
	bl	_ZNSt6vectorIiSaIiEE9push_backEOi
.LEHE5:
	add	x0, sp, 1040
	bl	_ZNSt7__cxx1112basic_stringIcSt11char_traitsIcESaIcEED1Ev
	add	x0, sp, 232
	bl	_ZNSt15__new_allocatorIcED2Ev
	b	.L46
.L45:
	mov	w0, 16963
	movk	w0, 0xf, lsl 16
	str	w0, [sp, 1040]
	mov	w0, 38547
	movk	w0, 0x98, lsl 16
	str	w0, [sp, 1044]
	mov	w0, 57607
	movk	w0, 0x5f5, lsl 16
	str	w0, [sp, 1048]
	mov	w0, 51719
	movk	w0, 0x3b9a, lsl 16
	str	w0, [sp, 1052]
	add	x0, sp, 1040
	mov	x20, x0
	mov	x21, 4
	add	x0, sp, 160
	mov	x1, x20
	mov	x2, x21
.LEHB6:
	bl	_ZNSt6vectorIiSaIiEEaSESt16initializer_listIiE
.L46:
	add	x0, sp, 1040
	mov	x1, 12345
	bl	_ZNSt23mersenne_twister_engineImLm32ELm624ELm397ELm31ELm2567483615ELm11ELm4294967295ELm7ELm2636928640ELm15ELm4022730752ELm18ELm1812433253EEC1Em
.LEHE6:
	add	x0, sp, 288
	bl	_ZNSt7__cxx1112basic_stringIcSt11char_traitsIcESaIcEEC1Ev
	add	x0, sp, 320
	bl	_ZNSt7__cxx1112basic_stringIcSt11char_traitsIcESaIcEEC1Ev
	add	x0, sp, 352
	bl	_ZNSt7__cxx1112basic_stringIcSt11char_traitsIcESaIcEEC1Ev
	add	x0, sp, 384
	bl	_ZNSt7__cxx1112basic_stringIcSt11char_traitsIcESaIcEEC1Ev
	add	x0, sp, 416
	bl	_ZNSt7__cxx1112basic_stringIcSt11char_traitsIcESaIcEEC1Ev
	add	x3, sp, 512
	mov	w2, 8
	adrp	x0, .LC1
	add	x1, x0, :lo12:.LC1
	mov	x0, x3
.LEHB7:
	bl	_ZNSt14basic_ifstreamIcSt11char_traitsIcEEC1EPKcSt13_Ios_Openmode
.LEHE7:
	add	x0, sp, 448
	bl	_ZNSt7__cxx1112basic_stringIcSt11char_traitsIcESaIcEEC1Ev
	b	.L49
.L50:
	add	x3, sp, 448
	mov	x2, 0
	adrp	x0, .LC2
	add	x1, x0, :lo12:.LC2
	mov	x0, x3
	bl	_ZNKSt7__cxx1112basic_stringIcSt11char_traitsIcESaIcEE4findEPKcm
	cmn	x0, #1
	cset	w0, ne
	and	w0, w0, 255
	and	w0, w0, 1
	cmp	w0, 0
	beq	.L48
	add	x3, sp, 448
	mov	x2, 0
	adrp	x0, .LC3
	add	x1, x0, :lo12:.LC3
	mov	x0, x3
	bl	_ZNKSt7__cxx1112basic_stringIcSt11char_traitsIcESaIcEE4findEPKcm
	add	x1, x0, 2
	add	x0, sp, 448
	add	x2, sp, 480
	mov	x8, x2
	mov	x2, -1
.LEHB8:
	bl	_ZNKSt7__cxx1112basic_stringIcSt11char_traitsIcESaIcEE6substrEmm
	add	x1, sp, 480
	add	x0, sp, 288
	bl	_ZNSt7__cxx1112basic_stringIcSt11char_traitsIcESaIcEEaSEOS4_
	add	x0, sp, 480
	bl	_ZNSt7__cxx1112basic_stringIcSt11char_traitsIcESaIcEED1Ev
.L48:
	add	x3, sp, 448
	mov	x2, 0
	adrp	x0, .LC4
	add	x1, x0, :lo12:.LC4
	mov	x0, x3
	bl	_ZNKSt7__cxx1112basic_stringIcSt11char_traitsIcESaIcEE4findEPKcm
	cmn	x0, #1
	cset	w0, ne
	and	w0, w0, 255
	and	w0, w0, 1
	cmp	w0, 0
	beq	.L49
	add	x3, sp, 448
	mov	x2, 0
	adrp	x0, .LC3
	add	x1, x0, :lo12:.LC3
	mov	x0, x3
	bl	_ZNKSt7__cxx1112basic_stringIcSt11char_traitsIcESaIcEE4findEPKcm
	add	x1, x0, 2
	add	x0, sp, 448
	add	x2, sp, 480
	mov	x8, x2
	mov	x2, -1
	bl	_ZNKSt7__cxx1112basic_stringIcSt11char_traitsIcESaIcEE6substrEmm
	add	x1, sp, 480
	add	x0, sp, 320
	bl	_ZNSt7__cxx1112basic_stringIcSt11char_traitsIcESaIcEEaSEOS4_
	add	x0, sp, 480
	bl	_ZNSt7__cxx1112basic_stringIcSt11char_traitsIcESaIcEED1Ev
.L49:
	add	x1, sp, 448
	add	x0, sp, 512
	bl	_ZSt7getlineIcSt11char_traitsIcESaIcEERSt13basic_istreamIT_T0_ES7_RNSt7__cxx1112basic_stringIS4_S5_T1_EE
	ldr	x1, [x0]
	sub	x1, x1, #24
	ldr	x1, [x1]
	add	x0, x0, x1
	bl	_ZNKSt9basic_iosIcSt11char_traitsIcEEcvbEv
.LEHE8:
	and	w0, w0, 255
	and	w0, w0, 1
	cmp	w0, 0
	bne	.L50
	add	x0, sp, 448
	bl	_ZNSt7__cxx1112basic_stringIcSt11char_traitsIcESaIcEED1Ev
	add	x0, sp, 512
	bl	_ZNSt14basic_ifstreamIcSt11char_traitsIcEED1Ev
	add	x3, sp, 512
	mov	w2, 8
	adrp	x0, .LC5
	add	x1, x0, :lo12:.LC5
	mov	x0, x3
.LEHB9:
	bl	_ZNSt14basic_ifstreamIcSt11char_traitsIcEEC1EPKcSt13_Ios_Openmode
.LEHE9:
	add	x0, sp, 448
	bl	_ZNSt7__cxx1112basic_stringIcSt11char_traitsIcESaIcEEC1Ev
	add	x1, sp, 448
	add	x0, sp, 512
.LEHB10:
	bl	_ZSt7getlineIcSt11char_traitsIcESaIcEERSt13basic_istreamIT_T0_ES7_RNSt7__cxx1112basic_stringIS4_S5_T1_EE
	ldr	x1, [x0]
	sub	x1, x1, #24
	ldr	x1, [x1]
	add	x0, x0, x1
	bl	_ZNKSt9basic_iosIcSt11char_traitsIcEEcvbEv
	and	w0, w0, 255
	and	w0, w0, 1
	cmp	w0, 0
	beq	.L51
	add	x3, sp, 448
	mov	x2, 0
	adrp	x0, .LC6
	add	x1, x0, :lo12:.LC6
	mov	x0, x3
	bl	_ZNKSt7__cxx1112basic_stringIcSt11char_traitsIcESaIcEE4findEPKcm
	cmn	x0, #1
	cset	w0, ne
	and	w0, w0, 255
	and	w0, w0, 1
	cmp	w0, 0
	beq	.L51
	add	x3, sp, 448
	mov	x2, 0
	adrp	x0, .LC3
	add	x1, x0, :lo12:.LC3
	mov	x0, x3
	bl	_ZNKSt7__cxx1112basic_stringIcSt11char_traitsIcESaIcEE4findEPKcm
	add	x1, x0, 2
	add	x0, sp, 448
	add	x2, sp, 480
	mov	x8, x2
	mov	x2, -1
	bl	_ZNKSt7__cxx1112basic_stringIcSt11char_traitsIcESaIcEE6substrEmm
.LEHE10:
	add	x1, sp, 480
	add	x0, sp, 352
	bl	_ZNSt7__cxx1112basic_stringIcSt11char_traitsIcESaIcEEaSEOS4_
	add	x0, sp, 480
	bl	_ZNSt7__cxx1112basic_stringIcSt11char_traitsIcESaIcEED1Ev
.L51:
	add	x0, sp, 448
	bl	_ZNSt7__cxx1112basic_stringIcSt11char_traitsIcESaIcEED1Ev
	add	x0, sp, 512
	bl	_ZNSt14basic_ifstreamIcSt11char_traitsIcEED1Ev
	add	x0, sp, 4096
	add	x0, x0, 2072
	mov	x1, 256
	bl	gethostname
	cmp	w0, 0
	cset	w0, eq
	and	w0, w0, 255
	and	w0, w0, 1
	cmp	w0, 0
	beq	.L52
	add	x1, sp, 4096
	add	x1, x1, 2072
	add	x0, sp, 384
.LEHB11:
	bl	_ZNSt7__cxx1112basic_stringIcSt11char_traitsIcESaIcEEaSEPKc
.L52:
	adrp	x0, .LC7
	add	x1, x0, :lo12:.LC7
	adrp	x0, .LC8
	add	x0, x0, :lo12:.LC8
	bl	popen
	str	x0, [sp, 64]
	ldr	x0, [sp, 64]
	cmp	x0, 0
	beq	.L53
	add	x0, sp, 4096
	add	x0, x0, 1944
	ldr	x2, [sp, 64]
	mov	w1, 128
	bl	fgets
.LEHE11:
	cmp	x0, 0
	cset	w0, ne
	and	w0, w0, 255
	and	w0, w0, 1
	cmp	w0, 0
	beq	.L54
	add	x0, sp, 256
	str	x0, [sp, 128]
	nop
	nop
	add	x2, sp, 256
	add	x1, sp, 4096
	add	x1, x1, 1944
	add	x0, sp, 512
.LEHB12:
	bl	_ZNSt7__cxx1112basic_stringIcSt11char_traitsIcESaIcEEC1IS3_EEPKcRKS3_
.LEHE12:
	add	x1, sp, 512
	add	x0, sp, 416
	bl	_ZNSt7__cxx1112basic_stringIcSt11char_traitsIcESaIcEEaSEOS4_
	add	x0, sp, 512
	bl	_ZNSt7__cxx1112basic_stringIcSt11char_traitsIcESaIcEED1Ev
	add	x0, sp, 256
	bl	_ZNSt15__new_allocatorIcED2Ev
	nop
	add	x0, sp, 416
	bl	_ZNKSt7__cxx1112basic_stringIcSt11char_traitsIcESaIcEE5emptyEv
	and	w0, w0, 255
	eor	w0, w0, 1
	and	w0, w0, 255
	and	w0, w0, 1
	cmp	w0, 0
	beq	.L55
	add	x0, sp, 416
	bl	_ZNSt7__cxx1112basic_stringIcSt11char_traitsIcESaIcEE4backEv
	ldrb	w0, [x0]
	cmp	w0, 10
	bne	.L55
	mov	w0, 1
	b	.L56
.L55:
	mov	w0, 0
.L56:
	and	w0, w0, 1
	cmp	w0, 0
	beq	.L54
	add	x0, sp, 416
	bl	_ZNSt7__cxx1112basic_stringIcSt11char_traitsIcESaIcEE8pop_backEv
.L54:
	ldr	x0, [sp, 64]
.LEHB13:
	bl	pclose
.L53:
	adrp	x0, _ZSt5fixedRSt8ios_base
	add	x1, x0, :lo12:_ZSt5fixedRSt8ios_base
	adrp	x0, :got:_ZSt4cout
	ldr	x0, [x0, :got_lo12:_ZSt4cout]
	bl	_ZNSolsEPFRSt8ios_baseS0_E
	mov	x19, x0
	mov	w0, 6
	bl	_ZSt12setprecisioni
	mov	w1, w0
	mov	x0, x19
	bl	_ZStlsIcSt11char_traitsIcEERSt13basic_ostreamIT_T0_ES6_St13_Setprecision
	adrp	x0, .LC9
	add	x1, x0, :lo12:.LC9
	adrp	x0, :got:_ZSt4cout
	ldr	x0, [x0, :got_lo12:_ZSt4cout]
	bl	_ZStlsISt11char_traitsIcEERSt13basic_ostreamIcT_ES5_PKc
	adrp	x0, .LC10
	add	x1, x0, :lo12:.LC10
	adrp	x0, :got:_ZSt4cout
	ldr	x0, [x0, :got_lo12:_ZSt4cout]
	bl	_ZStlsISt11char_traitsIcEERSt13basic_ostreamIcT_ES5_PKc
	adrp	x0, .LC9
	add	x1, x0, :lo12:.LC9
	adrp	x0, :got:_ZSt4cout
	ldr	x0, [x0, :got_lo12:_ZSt4cout]
	bl	_ZStlsISt11char_traitsIcEERSt13basic_ostreamIcT_ES5_PKc
	adrp	x0, .LC11
	add	x1, x0, :lo12:.LC11
	adrp	x0, :got:_ZSt4cout
	ldr	x0, [x0, :got_lo12:_ZSt4cout]
	bl	_ZStlsISt11char_traitsIcEERSt13basic_ostreamIcT_ES5_PKc
	adrp	x0, .LC12
	add	x1, x0, :lo12:.LC12
	adrp	x0, :got:_ZSt4cout
	ldr	x0, [x0, :got_lo12:_ZSt4cout]
	bl	_ZStlsISt11char_traitsIcEERSt13basic_ostreamIcT_ES5_PKc
	mov	x2, x0
	add	x0, sp, 384
	mov	x1, x0
	mov	x0, x2
	bl	_ZStlsIcSt11char_traitsIcESaIcEERSt13basic_ostreamIT_T0_ES7_RKNSt7__cxx1112basic_stringIS4_S5_T1_EE
	mov	x2, x0
	adrp	x0, .LC13
	add	x1, x0, :lo12:.LC13
	mov	x0, x2
	bl	_ZStlsISt11char_traitsIcEERSt13basic_ostreamIcT_ES5_PKc
	adrp	x0, .LC14
	add	x1, x0, :lo12:.LC14
	adrp	x0, :got:_ZSt4cout
	ldr	x0, [x0, :got_lo12:_ZSt4cout]
	bl	_ZStlsISt11char_traitsIcEERSt13basic_ostreamIcT_ES5_PKc
	mov	x2, x0
	add	x0, sp, 416
	mov	x1, x0
	mov	x0, x2
	bl	_ZStlsIcSt11char_traitsIcESaIcEERSt13basic_ostreamIT_T0_ES7_RKNSt7__cxx1112basic_stringIS4_S5_T1_EE
	mov	x2, x0
	adrp	x0, .LC13
	add	x1, x0, :lo12:.LC13
	mov	x0, x2
	bl	_ZStlsISt11char_traitsIcEERSt13basic_ostreamIcT_ES5_PKc
	adrp	x0, .LC15
	add	x1, x0, :lo12:.LC15
	adrp	x0, :got:_ZSt4cout
	ldr	x0, [x0, :got_lo12:_ZSt4cout]
	bl	_ZStlsISt11char_traitsIcEERSt13basic_ostreamIcT_ES5_PKc
	mov	x2, x0
	add	x0, sp, 288
	mov	x1, x0
	mov	x0, x2
	bl	_ZStlsIcSt11char_traitsIcESaIcEERSt13basic_ostreamIT_T0_ES7_RKNSt7__cxx1112basic_stringIS4_S5_T1_EE
	mov	x2, x0
	adrp	x0, .LC13
	add	x1, x0, :lo12:.LC13
	mov	x0, x2
	bl	_ZStlsISt11char_traitsIcEERSt13basic_ostreamIcT_ES5_PKc
	adrp	x0, .LC16
	add	x1, x0, :lo12:.LC16
	adrp	x0, :got:_ZSt4cout
	ldr	x0, [x0, :got_lo12:_ZSt4cout]
	bl	_ZStlsISt11char_traitsIcEERSt13basic_ostreamIcT_ES5_PKc
	mov	x2, x0
	add	x0, sp, 320
	mov	x1, x0
	mov	x0, x2
	bl	_ZStlsIcSt11char_traitsIcESaIcEERSt13basic_ostreamIT_T0_ES7_RKNSt7__cxx1112basic_stringIS4_S5_T1_EE
	mov	x2, x0
	adrp	x0, .LC13
	add	x1, x0, :lo12:.LC13
	mov	x0, x2
	bl	_ZStlsISt11char_traitsIcEERSt13basic_ostreamIcT_ES5_PKc
	adrp	x0, .LC17
	add	x1, x0, :lo12:.LC17
	adrp	x0, :got:_ZSt4cout
	ldr	x0, [x0, :got_lo12:_ZSt4cout]
	bl	_ZStlsISt11char_traitsIcEERSt13basic_ostreamIcT_ES5_PKc
	mov	x2, x0
	add	x0, sp, 352
	mov	x1, x0
	mov	x0, x2
	bl	_ZStlsIcSt11char_traitsIcESaIcEERSt13basic_ostreamIT_T0_ES7_RKNSt7__cxx1112basic_stringIS4_S5_T1_EE
	mov	x2, x0
	adrp	x0, .LC13
	add	x1, x0, :lo12:.LC13
	mov	x0, x2
	bl	_ZStlsISt11char_traitsIcEERSt13basic_ostreamIcT_ES5_PKc
	adrp	x0, .LC18
	add	x1, x0, :lo12:.LC18
	adrp	x0, :got:_ZSt4cout
	ldr	x0, [x0, :got_lo12:_ZSt4cout]
	bl	_ZStlsISt11char_traitsIcEERSt13basic_ostreamIcT_ES5_PKc
	adrp	x0, .LC19
	add	x1, x0, :lo12:.LC19
	adrp	x0, :got:_ZSt4cout
	ldr	x0, [x0, :got_lo12:_ZSt4cout]
	bl	_ZStlsISt11char_traitsIcEERSt13basic_ostreamIcT_ES5_PKc
	ldr	w1, [sp, 28]
	bl	_ZNSolsEi
	mov	x2, x0
	adrp	x0, .LC20
	add	x1, x0, :lo12:.LC20
	mov	x0, x2
	bl	_ZStlsISt11char_traitsIcEERSt13basic_ostreamIcT_ES5_PKc
	ldr	w1, [sp, 32]
	bl	_ZNSolsEi
	mov	x2, x0
	adrp	x0, .LC21
	add	x1, x0, :lo12:.LC21
	mov	x0, x2
	bl	_ZStlsISt11char_traitsIcEERSt13basic_ostreamIcT_ES5_PKc
	add	x3, sp, 512
	mov	w2, 16
	adrp	x0, .LC22
	add	x1, x0, :lo12:.LC22
	mov	x0, x3
	bl	_ZNSt14basic_ofstreamIcSt11char_traitsIcEEC1EPKcSt13_Ios_Openmode
.LEHE13:
	add	x0, sp, 512
	add	x0, x0, 256
.LEHB14:
	bl	_ZNKSt9basic_iosIcSt11char_traitsIcEEntEv
	and	w0, w0, 255
	and	w0, w0, 1
	cmp	w0, 0
	beq	.L57
	adrp	x0, .LC23
	add	x1, x0, :lo12:.LC23
	adrp	x0, :got:_ZSt4cerr
	ldr	x0, [x0, :got_lo12:_ZSt4cerr]
	bl	_ZStlsISt11char_traitsIcEERSt13basic_ostreamIcT_ES5_PKc
	mov	w19, 1
	b	.L58
.L57:
	add	x2, sp, 512
	adrp	x0, .LC24
	add	x1, x0, :lo12:.LC24
	mov	x0, x2
	bl	_ZStlsISt11char_traitsIcEERSt13basic_ostreamIcT_ES5_PKc
.LEHE14:
	ldrsw	x1, [sp, 28]
	add	x0, sp, 256
	str	x0, [sp, 136]
	nop
	nop
	add	x2, sp, 256
	add	x0, sp, 184
.LEHB15:
	bl	_ZNSt6vectorIiSaIiEEC1EmRKS0_
.LEHE15:
	add	x0, sp, 256
	bl	_ZNSt15__new_allocatorIiED2Ev
	nop
	ldrsw	x1, [sp, 28]
	add	x0, sp, 256
	str	x0, [sp, 144]
	nop
	nop
	add	x2, sp, 256
	add	x0, sp, 208
.LEHB16:
	bl	_ZNSt6vectorIiSaIiEEC1EmRKS0_
.LEHE16:
	add	x0, sp, 256
	bl	_ZNSt15__new_allocatorIiED2Ev
	nop
	ldrsw	x1, [sp, 28]
	add	x0, sp, 256
	str	x0, [sp, 152]
	nop
	nop
	add	x2, sp, 256
	add	x0, sp, 232
.LEHB17:
	bl	_ZNSt6vectorIiSaIiEEC1EmRKS0_
.LEHE17:
	add	x0, sp, 256
	bl	_ZNSt15__new_allocatorIiED2Ev
	nop
	add	x0, sp, 40
	mov	w2, 41248
	movk	w2, 0x7, lsl 16
	mov	w1, 24288
	movk	w1, 0xfff8, lsl 16
.LEHB18:
	bl	_ZNSt24uniform_int_distributionIiEC1Eii
	add	x0, sp, 160
	str	x0, [sp, 72]
	ldr	x0, [sp, 72]
	bl	_ZNSt6vectorIiSaIiEE5beginEv
	str	x0, [sp, 48]
	ldr	x0, [sp, 72]
	bl	_ZNSt6vectorIiSaIiEE3endEv
	str	x0, [sp, 56]
	b	.L59
.L62:
	add	x0, sp, 48
	bl	_ZNK9__gnu_cxx17__normal_iteratorIPiSt6vectorIiSaIiEEEdeEv
	ldr	w0, [x0]
	str	w0, [sp, 24]
	str	wzr, [sp, 36]
	b	.L60
.L61:
	add	x1, sp, 1040
	add	x0, sp, 40
	bl	_ZNSt24uniform_int_distributionIiEclISt23mersenne_twister_engineImLm32ELm624ELm397ELm31ELm2567483615ELm11ELm4294967295ELm7ELm2636928640ELm15ELm4022730752ELm18ELm1812433253EEEEiRT_
	mov	w19, w0
	ldrsw	x1, [sp, 36]
	add	x0, sp, 184
	bl	_ZNSt6vectorIiSaIiEEixEm
	str	w19, [x0]
	add	x1, sp, 1040
	add	x0, sp, 40
	bl	_ZNSt24uniform_int_distributionIiEclISt23mersenne_twister_engineImLm32ELm624ELm397ELm31ELm2567483615ELm11ELm4294967295ELm7ELm2636928640ELm15ELm4022730752ELm18ELm1812433253EEEEiRT_
	mov	w19, w0
	ldrsw	x1, [sp, 36]
	add	x0, sp, 208
	bl	_ZNSt6vectorIiSaIiEEixEm
	str	w19, [x0]
	ldr	w0, [sp, 36]
	add	w0, w0, 1
	str	w0, [sp, 36]
.L60:
	ldr	w1, [sp, 36]
	ldr	w0, [sp, 28]
	cmp	w1, w0
	blt	.L61
	add	x0, sp, 184
	str	x0, [sp, 256]
	add	x0, sp, 208
	str	x0, [sp, 264]
	add	x0, sp, 232
	str	x0, [sp, 272]
	add	x0, sp, 24
	str	x0, [sp, 280]
	add	x0, sp, 256
	ldr	w1, [sp, 32]
	bl	_Z9time_execIZ4mainEUlvE_EdOT_i
	str	d0, [sp, 80]
	add	x0, sp, 184
	str	x0, [sp, 256]
	add	x0, sp, 208
	str	x0, [sp, 264]
	add	x0, sp, 232
	str	x0, [sp, 272]
	add	x0, sp, 24
	str	x0, [sp, 280]
	add	x0, sp, 256
	ldr	w1, [sp, 32]
	bl	_Z9time_execIZ4mainEUlvE0_EdOT_i
	str	d0, [sp, 88]
	ldr	d0, [sp, 88]
	ldr	d1, [sp, 80]
	fdiv	d0, d1, d0
	str	d0, [sp, 96]
	adrp	x0, .LC25
	add	x1, x0, :lo12:.LC25
	adrp	x0, :got:_ZSt4cout
	ldr	x0, [x0, :got_lo12:_ZSt4cout]
	bl	_ZStlsISt11char_traitsIcEERSt13basic_ostreamIcT_ES5_PKc
	mov	x2, x0
	ldr	w0, [sp, 24]
	mov	w1, w0
	mov	x0, x2
	bl	_ZNSolsEi
	mov	x2, x0
	adrp	x0, .LC13
	add	x1, x0, :lo12:.LC13
	mov	x0, x2
	bl	_ZStlsISt11char_traitsIcEERSt13basic_ostreamIcT_ES5_PKc
	adrp	x0, .LC26
	add	x1, x0, :lo12:.LC26
	adrp	x0, :got:_ZSt4cout
	ldr	x0, [x0, :got_lo12:_ZSt4cout]
	bl	_ZStlsISt11char_traitsIcEERSt13basic_ostreamIcT_ES5_PKc
	ldr	d0, [sp, 80]
	bl	_ZNSolsEd
	mov	x2, x0
	adrp	x0, .LC27
	add	x1, x0, :lo12:.LC27
	mov	x0, x2
	bl	_ZStlsISt11char_traitsIcEERSt13basic_ostreamIcT_ES5_PKc
	adrp	x0, .LC28
	add	x1, x0, :lo12:.LC28
	adrp	x0, :got:_ZSt4cout
	ldr	x0, [x0, :got_lo12:_ZSt4cout]
	bl	_ZStlsISt11char_traitsIcEERSt13basic_ostreamIcT_ES5_PKc
	ldr	d0, [sp, 88]
	bl	_ZNSolsEd
	mov	x2, x0
	adrp	x0, .LC27
	add	x1, x0, :lo12:.LC27
	mov	x0, x2
	bl	_ZStlsISt11char_traitsIcEERSt13basic_ostreamIcT_ES5_PKc
	adrp	x0, .LC29
	add	x1, x0, :lo12:.LC29
	adrp	x0, :got:_ZSt4cout
	ldr	x0, [x0, :got_lo12:_ZSt4cout]
	bl	_ZStlsISt11char_traitsIcEERSt13basic_ostreamIcT_ES5_PKc
	ldr	d0, [sp, 96]
	bl	_ZNSolsEd
	mov	x2, x0
	adrp	x0, .LC30
	add	x1, x0, :lo12:.LC30
	mov	x0, x2
	bl	_ZStlsISt11char_traitsIcEERSt13basic_ostreamIcT_ES5_PKc
	ldr	w1, [sp, 24]
	add	x0, sp, 512
	bl	_ZNSolsEi
	mov	x2, x0
	adrp	x0, .LC31
	add	x1, x0, :lo12:.LC31
	mov	x0, x2
	bl	_ZStlsISt11char_traitsIcEERSt13basic_ostreamIcT_ES5_PKc
	ldr	w1, [sp, 28]
	bl	_ZNSolsEi
	mov	x2, x0
	adrp	x0, .LC31
	add	x1, x0, :lo12:.LC31
	mov	x0, x2
	bl	_ZStlsISt11char_traitsIcEERSt13basic_ostreamIcT_ES5_PKc
	ldr	w1, [sp, 32]
	bl	_ZNSolsEi
	mov	x2, x0
	adrp	x0, .LC31
	add	x1, x0, :lo12:.LC31
	mov	x0, x2
	bl	_ZStlsISt11char_traitsIcEERSt13basic_ostreamIcT_ES5_PKc
	ldr	d0, [sp, 80]
	bl	_ZNSolsEd
	mov	x2, x0
	adrp	x0, .LC31
	add	x1, x0, :lo12:.LC31
	mov	x0, x2
	bl	_ZStlsISt11char_traitsIcEERSt13basic_ostreamIcT_ES5_PKc
	ldr	d0, [sp, 88]
	bl	_ZNSolsEd
	mov	x2, x0
	adrp	x0, .LC31
	add	x1, x0, :lo12:.LC31
	mov	x0, x2
	bl	_ZStlsISt11char_traitsIcEERSt13basic_ostreamIcT_ES5_PKc
	ldr	d0, [sp, 96]
	bl	_ZNSolsEd
	mov	x2, x0
	adrp	x0, .LC13
	add	x1, x0, :lo12:.LC13
	mov	x0, x2
	bl	_ZStlsISt11char_traitsIcEERSt13basic_ostreamIcT_ES5_PKc
	add	x0, sp, 48
	bl	_ZN9__gnu_cxx17__normal_iteratorIPiSt6vectorIiSaIiEEEppEv
.L59:
	add	x1, sp, 56
	add	x0, sp, 48
	bl	_ZN9__gnu_cxxneIPiSt6vectorIiSaIiEEEEbRKNS_17__normal_iteratorIT_T0_EESA_
	and	w0, w0, 255
	and	w0, w0, 1
	cmp	w0, 0
	bne	.L62
	add	x0, sp, 512
	bl	_ZNSt14basic_ofstreamIcSt11char_traitsIcEE5closeEv
	adrp	x0, .LC32
	add	x1, x0, :lo12:.LC32
	adrp	x0, :got:_ZSt4cout
	ldr	x0, [x0, :got_lo12:_ZSt4cout]
	bl	_ZStlsISt11char_traitsIcEERSt13basic_ostreamIcT_ES5_PKc
.LEHE18:
	mov	w19, 0
	add	x0, sp, 232
	bl	_ZNSt6vectorIiSaIiEED1Ev
	add	x0, sp, 208
	bl	_ZNSt6vectorIiSaIiEED1Ev
	add	x0, sp, 184
	bl	_ZNSt6vectorIiSaIiEED1Ev
.L58:
	add	x0, sp, 512
	bl	_ZNSt14basic_ofstreamIcSt11char_traitsIcEED1Ev
	add	x0, sp, 416
	bl	_ZNSt7__cxx1112basic_stringIcSt11char_traitsIcESaIcEED1Ev
	add	x0, sp, 384
	bl	_ZNSt7__cxx1112basic_stringIcSt11char_traitsIcESaIcEED1Ev
	add	x0, sp, 352
	bl	_ZNSt7__cxx1112basic_stringIcSt11char_traitsIcESaIcEED1Ev
	add	x0, sp, 320
	bl	_ZNSt7__cxx1112basic_stringIcSt11char_traitsIcESaIcEED1Ev
	add	x0, sp, 288
	bl	_ZNSt7__cxx1112basic_stringIcSt11char_traitsIcESaIcEED1Ev
	add	x0, sp, 160
	bl	_ZNSt6vectorIiSaIiEED1Ev
	mov	w1, w19
	adrp	x0, :got:__stack_chk_guard
	ldr	x0, [x0, :got_lo12:__stack_chk_guard]
	ldr	x3, [sp, 6424]
	ldr	x2, [x0]
	subs	x3, x3, x2
	mov	x2, 0
	beq	.L83
	b	.L100
.L85:
	mov	x19, x0
	add	x0, sp, 1040
	bl	_ZNSt7__cxx1112basic_stringIcSt11char_traitsIcESaIcEED1Ev
	b	.L65
.L84:
	mov	x19, x0
.L65:
	add	x0, sp, 256
	bl	_ZNSt15__new_allocatorIcED2Ev
	nop
	b	.L66
.L88:
	mov	x19, x0
	add	x0, sp, 1040
	bl	_ZNSt7__cxx1112basic_stringIcSt11char_traitsIcESaIcEED1Ev
	b	.L68
.L87:
	mov	x19, x0
.L68:
	add	x0, sp, 256
	bl	_ZNSt15__new_allocatorIcED2Ev
	nop
	b	.L66
.L90:
	mov	x19, x0
	add	x0, sp, 1040
	bl	_ZNSt7__cxx1112basic_stringIcSt11char_traitsIcESaIcEED1Ev
	b	.L70
.L89:
	mov	x19, x0
.L70:
	add	x0, sp, 232
	bl	_ZNSt15__new_allocatorIcED2Ev
	nop
	b	.L66
.L91:
	mov	x19, x0
	add	x0, sp, 448
	bl	_ZNSt7__cxx1112basic_stringIcSt11char_traitsIcESaIcEED1Ev
	add	x0, sp, 512
	bl	_ZNSt14basic_ifstreamIcSt11char_traitsIcEED1Ev
	b	.L72
.L93:
	mov	x19, x0
	add	x0, sp, 448
	bl	_ZNSt7__cxx1112basic_stringIcSt11char_traitsIcESaIcEED1Ev
	add	x0, sp, 512
	bl	_ZNSt14basic_ifstreamIcSt11char_traitsIcEED1Ev
	b	.L72
.L94:
	mov	x19, x0
	add	x0, sp, 256
	bl	_ZNSt15__new_allocatorIcED2Ev
	nop
	b	.L72
.L96:
	mov	x19, x0
	add	x0, sp, 256
	bl	_ZNSt15__new_allocatorIiED2Ev
	nop
	b	.L76
.L97:
	mov	x19, x0
	add	x0, sp, 256
	bl	_ZNSt15__new_allocatorIiED2Ev
	nop
	b	.L78
.L98:
	mov	x19, x0
	add	x0, sp, 256
	bl	_ZNSt15__new_allocatorIiED2Ev
	nop
	b	.L80
.L99:
	mov	x19, x0
	add	x0, sp, 232
	bl	_ZNSt6vectorIiSaIiEED1Ev
.L80:
	add	x0, sp, 208
	bl	_ZNSt6vectorIiSaIiEED1Ev
.L78:
	add	x0, sp, 184
	bl	_ZNSt6vectorIiSaIiEED1Ev
	b	.L76
.L95:
	mov	x19, x0
.L76:
	add	x0, sp, 512
	bl	_ZNSt14basic_ofstreamIcSt11char_traitsIcEED1Ev
	b	.L72
.L92:
	mov	x19, x0
.L72:
	add	x0, sp, 416
	bl	_ZNSt7__cxx1112basic_stringIcSt11char_traitsIcESaIcEED1Ev
	add	x0, sp, 384
	bl	_ZNSt7__cxx1112basic_stringIcSt11char_traitsIcESaIcEED1Ev
	add	x0, sp, 352
	bl	_ZNSt7__cxx1112basic_stringIcSt11char_traitsIcESaIcEED1Ev
	add	x0, sp, 320
	bl	_ZNSt7__cxx1112basic_stringIcSt11char_traitsIcESaIcEED1Ev
	add	x0, sp, 288
	bl	_ZNSt7__cxx1112basic_stringIcSt11char_traitsIcESaIcEED1Ev
	b	.L66
.L86:
	mov	x19, x0
.L66:
	add	x0, sp, 160
	bl	_ZNSt6vectorIiSaIiEED1Ev
	mov	x1, x19
	adrp	x0, :got:__stack_chk_guard
	ldr	x0, [x0, :got_lo12:__stack_chk_guard]
	ldr	x3, [sp, 6424]
	ldr	x2, [x0]
	subs	x3, x3, x2
	mov	x2, 0
	beq	.L82
	bl	__stack_chk_fail
.L82:
	mov	x0, x1
.LEHB19:
	bl	_Unwind_Resume
.LEHE19:
.L100:
	bl	__stack_chk_fail
.L83:
	mov	w0, w1
	mov	x13, 6432
	add	sp, sp, x13
	.cfi_def_cfa_offset 48
	ldp	x19, x20, [sp, 16]
	ldr	x21, [sp, 32]
	ldp	x29, x30, [sp], 48
	.cfi_restore 30
	.cfi_restore 29
	.cfi_restore 21
	.cfi_restore 19
	.cfi_restore 20
	.cfi_def_cfa_offset 0
	ret
	.cfi_endproc
.LFE4134:
	.global	__gxx_personality_v0
	.section	.gcc_except_table,"a",@progbits
.LLSDA4134:
	.byte	0xff
	.byte	0xff
	.byte	0x1
	.uleb128 .LLSDACSE4134-.LLSDACSB4134
.LLSDACSB4134:
	.uleb128 .LEHB0-.LFB4134
	.uleb128 .LEHE0-.LEHB0
	.uleb128 .L84-.LFB4134
	.uleb128 0
	.uleb128 .LEHB1-.LFB4134
	.uleb128 .LEHE1-.LEHB1
	.uleb128 .L85-.LFB4134
	.uleb128 0
	.uleb128 .LEHB2-.LFB4134
	.uleb128 .LEHE2-.LEHB2
	.uleb128 .L87-.LFB4134
	.uleb128 0
	.uleb128 .LEHB3-.LFB4134
	.uleb128 .LEHE3-.LEHB3
	.uleb128 .L88-.LFB4134
	.uleb128 0
	.uleb128 .LEHB4-.LFB4134
	.uleb128 .LEHE4-.LEHB4
	.uleb128 .L89-.LFB4134
	.uleb128 0
	.uleb128 .LEHB5-.LFB4134
	.uleb128 .LEHE5-.LEHB5
	.uleb128 .L90-.LFB4134
	.uleb128 0
	.uleb128 .LEHB6-.LFB4134
	.uleb128 .LEHE6-.LEHB6
	.uleb128 .L86-.LFB4134
	.uleb128 0
	.uleb128 .LEHB7-.LFB4134
	.uleb128 .LEHE7-.LEHB7
	.uleb128 .L92-.LFB4134
	.uleb128 0
	.uleb128 .LEHB8-.LFB4134
	.uleb128 .LEHE8-.LEHB8
	.uleb128 .L91-.LFB4134
	.uleb128 0
	.uleb128 .LEHB9-.LFB4134
	.uleb128 .LEHE9-.LEHB9
	.uleb128 .L92-.LFB4134
	.uleb128 0
	.uleb128 .LEHB10-.LFB4134
	.uleb128 .LEHE10-.LEHB10
	.uleb128 .L93-.LFB4134
	.uleb128 0
	.uleb128 .LEHB11-.LFB4134
	.uleb128 .LEHE11-.LEHB11
	.uleb128 .L92-.LFB4134
	.uleb128 0
	.uleb128 .LEHB12-.LFB4134
	.uleb128 .LEHE12-.LEHB12
	.uleb128 .L94-.LFB4134
	.uleb128 0
	.uleb128 .LEHB13-.LFB4134
	.uleb128 .LEHE13-.LEHB13
	.uleb128 .L92-.LFB4134
	.uleb128 0
	.uleb128 .LEHB14-.LFB4134
	.uleb128 .LEHE14-.LEHB14
	.uleb128 .L95-.LFB4134
	.uleb128 0
	.uleb128 .LEHB15-.LFB4134
	.uleb128 .LEHE15-.LEHB15
	.uleb128 .L96-.LFB4134
	.uleb128 0
	.uleb128 .LEHB16-.LFB4134
	.uleb128 .LEHE16-.LEHB16
	.uleb128 .L97-.LFB4134
	.uleb128 0
	.uleb128 .LEHB17-.LFB4134
	.uleb128 .LEHE17-.LEHB17
	.uleb128 .L98-.LFB4134
	.uleb128 0
	.uleb128 .LEHB18-.LFB4134
	.uleb128 .LEHE18-.LEHB18
	.uleb128 .L99-.LFB4134
	.uleb128 0
	.uleb128 .LEHB19-.LFB4134
	.uleb128 .LEHE19-.LEHB19
	.uleb128 0
	.uleb128 0
.LLSDACSE4134:
	.text
	.size	main, .-main
	.section	.text._ZN9__gnu_cxx11char_traitsIcE6lengthEPKc,"axG",@progbits,_ZN9__gnu_cxx11char_traitsIcE6lengthEPKc,comdat
	.align	2
	.weak	_ZN9__gnu_cxx11char_traitsIcE6lengthEPKc
	.type	_ZN9__gnu_cxx11char_traitsIcE6lengthEPKc, %function
_ZN9__gnu_cxx11char_traitsIcE6lengthEPKc:
.LFB4151:
	.cfi_startproc
	sub	sp, sp, #64
	.cfi_def_cfa_offset 64
	stp	x29, x30, [sp, 48]
	.cfi_offset 29, -16
	.cfi_offset 30, -8
	add	x29, sp, 48
	str	x0, [sp, 8]
	adrp	x0, :got:__stack_chk_guard
	ldr	x0, [x0, :got_lo12:__stack_chk_guard]
	ldr	x1, [x0]
	str	x1, [sp, 40]
	mov	x1, 0
	str	xzr, [sp, 32]
	b	.L102
.L103:
	ldr	x0, [sp, 32]
	add	x0, x0, 1
	str	x0, [sp, 32]
.L102:
	ldr	x1, [sp, 8]
	ldr	x0, [sp, 32]
	add	x0, x1, x0
	strb	wzr, [sp, 31]
	add	x1, sp, 31
	bl	_ZN9__gnu_cxx11char_traitsIcE2eqERKcS3_
	and	w0, w0, 255
	eor	w0, w0, 1
	and	w0, w0, 255
	and	w0, w0, 1
	cmp	w0, 0
	bne	.L103
	ldr	x0, [sp, 32]
	mov	x1, x0
	adrp	x0, :got:__stack_chk_guard
	ldr	x0, [x0, :got_lo12:__stack_chk_guard]
	ldr	x3, [sp, 40]
	ldr	x2, [x0]
	subs	x3, x3, x2
	mov	x2, 0
	beq	.L105
	bl	__stack_chk_fail
.L105:
	mov	x0, x1
	ldp	x29, x30, [sp, 48]
	add	sp, sp, 64
	.cfi_restore 29
	.cfi_restore 30
	.cfi_def_cfa_offset 0
	ret
	.cfi_endproc
.LFE4151:
	.size	_ZN9__gnu_cxx11char_traitsIcE6lengthEPKc, .-_ZN9__gnu_cxx11char_traitsIcE6lengthEPKc
	.section	.text._ZZN9__gnu_cxx6__stoaIlicJiEEET0_PFT_PKT1_PPS3_DpT2_EPKcS5_PmS9_EN11_Save_errnoC2Ev,"axG",@progbits,_ZZN9__gnu_cxx6__stoaIlicJiEEET0_PFT_PKT1_PPS3_DpT2_EPKcS5_PmS9_EN11_Save_errnoC5Ev,comdat
	.align	2
	.weak	_ZZN9__gnu_cxx6__stoaIlicJiEEET0_PFT_PKT1_PPS3_DpT2_EPKcS5_PmS9_EN11_Save_errnoC2Ev
	.type	_ZZN9__gnu_cxx6__stoaIlicJiEEET0_PFT_PKT1_PPS3_DpT2_EPKcS5_PmS9_EN11_Save_errnoC2Ev, %function
_ZZN9__gnu_cxx6__stoaIlicJiEEET0_PFT_PKT1_PPS3_DpT2_EPKcS5_PmS9_EN11_Save_errnoC2Ev:
.LFB4181:
	.cfi_startproc
	stp	x29, x30, [sp, -32]!
	.cfi_def_cfa_offset 32
	.cfi_offset 29, -32
	.cfi_offset 30, -24
	mov	x29, sp
	str	x0, [sp, 24]
	bl	__errno_location
	ldr	w1, [x0]
	ldr	x0, [sp, 24]
	str	w1, [x0]
	bl	__errno_location
	str	wzr, [x0]
	nop
	ldp	x29, x30, [sp], 32
	.cfi_restore 30
	.cfi_restore 29
	.cfi_def_cfa_offset 0
	ret
	.cfi_endproc
.LFE4181:
	.size	_ZZN9__gnu_cxx6__stoaIlicJiEEET0_PFT_PKT1_PPS3_DpT2_EPKcS5_PmS9_EN11_Save_errnoC2Ev, .-_ZZN9__gnu_cxx6__stoaIlicJiEEET0_PFT_PKT1_PPS3_DpT2_EPKcS5_PmS9_EN11_Save_errnoC2Ev
	.weak	_ZZN9__gnu_cxx6__stoaIlicJiEEET0_PFT_PKT1_PPS3_DpT2_EPKcS5_PmS9_EN11_Save_errnoC1Ev
	.set	_ZZN9__gnu_cxx6__stoaIlicJiEEET0_PFT_PKT1_PPS3_DpT2_EPKcS5_PmS9_EN11_Save_errnoC1Ev,_ZZN9__gnu_cxx6__stoaIlicJiEEET0_PFT_PKT1_PPS3_DpT2_EPKcS5_PmS9_EN11_Save_errnoC2Ev
	.section	.text._ZZN9__gnu_cxx6__stoaIlicJiEEET0_PFT_PKT1_PPS3_DpT2_EPKcS5_PmS9_EN11_Save_errnoD2Ev,"axG",@progbits,_ZZN9__gnu_cxx6__stoaIlicJiEEET0_PFT_PKT1_PPS3_DpT2_EPKcS5_PmS9_EN11_Save_errnoD5Ev,comdat
	.align	2
	.weak	_ZZN9__gnu_cxx6__stoaIlicJiEEET0_PFT_PKT1_PPS3_DpT2_EPKcS5_PmS9_EN11_Save_errnoD2Ev
	.type	_ZZN9__gnu_cxx6__stoaIlicJiEEET0_PFT_PKT1_PPS3_DpT2_EPKcS5_PmS9_EN11_Save_errnoD2Ev, %function
_ZZN9__gnu_cxx6__stoaIlicJiEEET0_PFT_PKT1_PPS3_DpT2_EPKcS5_PmS9_EN11_Save_errnoD2Ev:
.LFB4184:
	.cfi_startproc
	stp	x29, x30, [sp, -32]!
	.cfi_def_cfa_offset 32
	.cfi_offset 29, -32
	.cfi_offset 30, -24
	mov	x29, sp
	str	x0, [sp, 24]
	bl	__errno_location
	ldr	w0, [x0]
	cmp	w0, 0
	bne	.L109
	bl	__errno_location
	mov	x1, x0
	ldr	x0, [sp, 24]
	ldr	w0, [x0]
	str	w0, [x1]
.L109:
	nop
	ldp	x29, x30, [sp], 32
	.cfi_restore 30
	.cfi_restore 29
	.cfi_def_cfa_offset 0
	ret
	.cfi_endproc
.LFE4184:
	.size	_ZZN9__gnu_cxx6__stoaIlicJiEEET0_PFT_PKT1_PPS3_DpT2_EPKcS5_PmS9_EN11_Save_errnoD2Ev, .-_ZZN9__gnu_cxx6__stoaIlicJiEEET0_PFT_PKT1_PPS3_DpT2_EPKcS5_PmS9_EN11_Save_errnoD2Ev
	.weak	_ZZN9__gnu_cxx6__stoaIlicJiEEET0_PFT_PKT1_PPS3_DpT2_EPKcS5_PmS9_EN11_Save_errnoD1Ev
	.set	_ZZN9__gnu_cxx6__stoaIlicJiEEET0_PFT_PKT1_PPS3_DpT2_EPKcS5_PmS9_EN11_Save_errnoD1Ev,_ZZN9__gnu_cxx6__stoaIlicJiEEET0_PFT_PKT1_PPS3_DpT2_EPKcS5_PmS9_EN11_Save_errnoD2Ev
	.section	.text._ZZN9__gnu_cxx6__stoaIlicJiEEET0_PFT_PKT1_PPS3_DpT2_EPKcS5_PmS9_EN10_Range_chk6_S_chkElSt17integral_constantIbLb1EE,"axG",@progbits,_ZZN9__gnu_cxx6__stoaIlicJiEEET0_PFT_PKT1_PPS3_DpT2_EPKcS5_PmS9_EN10_Range_chk6_S_chkElSt17integral_constantIbLb1EE,comdat
	.align	2
	.weak	_ZZN9__gnu_cxx6__stoaIlicJiEEET0_PFT_PKT1_PPS3_DpT2_EPKcS5_PmS9_EN10_Range_chk6_S_chkElSt17integral_constantIbLb1EE
	.type	_ZZN9__gnu_cxx6__stoaIlicJiEEET0_PFT_PKT1_PPS3_DpT2_EPKcS5_PmS9_EN10_Range_chk6_S_chkElSt17integral_constantIbLb1EE, %function
_ZZN9__gnu_cxx6__stoaIlicJiEEET0_PFT_PKT1_PPS3_DpT2_EPKcS5_PmS9_EN10_Range_chk6_S_chkElSt17integral_constantIbLb1EE:
.LFB4187:
	.cfi_startproc
	sub	sp, sp, #16
	.cfi_def_cfa_offset 16
	str	x0, [sp, 8]
	strb	w1, [sp]
	ldr	x1, [sp, 8]
	mov	x0, -2147483648
	cmp	x1, x0
	blt	.L111
	ldr	x1, [sp, 8]
	mov	x0, 2147483647
	cmp	x1, x0
	ble	.L112
.L111:
	mov	w0, 1
	b	.L113
.L112:
	mov	w0, 0
.L113:
	add	sp, sp, 16
	.cfi_def_cfa_offset 0
	ret
	.cfi_endproc
.LFE4187:
	.size	_ZZN9__gnu_cxx6__stoaIlicJiEEET0_PFT_PKT1_PPS3_DpT2_EPKcS5_PmS9_EN10_Range_chk6_S_chkElSt17integral_constantIbLb1EE, .-_ZZN9__gnu_cxx6__stoaIlicJiEEET0_PFT_PKT1_PPS3_DpT2_EPKcS5_PmS9_EN10_Range_chk6_S_chkElSt17integral_constantIbLb1EE
	.section	.text._ZN9__gnu_cxx6__stoaIlicJiEEET0_PFT_PKT1_PPS3_DpT2_EPKcS5_PmS9_,"axG",@progbits,_ZN9__gnu_cxx6__stoaIlicJiEEET0_PFT_PKT1_PPS3_DpT2_EPKcS5_PmS9_,comdat
	.align	2
	.weak	_ZN9__gnu_cxx6__stoaIlicJiEEET0_PFT_PKT1_PPS3_DpT2_EPKcS5_PmS9_
	.type	_ZN9__gnu_cxx6__stoaIlicJiEEET0_PFT_PKT1_PPS3_DpT2_EPKcS5_PmS9_, %function
_ZN9__gnu_cxx6__stoaIlicJiEEET0_PFT_PKT1_PPS3_DpT2_EPKcS5_PmS9_:
.LFB4179:
	.cfi_startproc
	.cfi_personality 0x9b,DW.ref.__gxx_personality_v0
	.cfi_lsda 0x1b,.LLSDA4179
	sub	sp, sp, #128
	.cfi_def_cfa_offset 128
	stp	x29, x30, [sp, 96]
	.cfi_offset 29, -32
	.cfi_offset 30, -24
	add	x29, sp, 96
	str	x19, [sp, 112]
	.cfi_offset 19, -16
	str	x0, [sp, 40]
	str	x1, [sp, 32]
	str	x2, [sp, 24]
	str	x3, [sp, 16]
	str	w4, [sp, 12]
	adrp	x0, :got:__stack_chk_guard
	ldr	x0, [x0, :got_lo12:__stack_chk_guard]
	ldr	x1, [x0]
	str	x1, [sp, 88]
	mov	x1, 0
	add	x0, sp, 64
	bl	_ZZN9__gnu_cxx6__stoaIlicJiEEET0_PFT_PKT1_PPS3_DpT2_EPKcS5_PmS9_EN11_Save_errnoC1Ev
	ldr	x3, [sp, 40]
	add	x0, sp, 72
	ldr	w2, [sp, 12]
	mov	x1, x0
	ldr	x0, [sp, 24]
.LEHB20:
	blr	x3
	str	x0, [sp, 80]
	ldr	x0, [sp, 72]
	ldr	x1, [sp, 24]
	cmp	x1, x0
	bne	.L116
	adrp	x0, :got:__stack_chk_guard
	ldr	x0, [x0, :got_lo12:__stack_chk_guard]
	ldr	x2, [sp, 88]
	ldr	x1, [x0]
	subs	x2, x2, x1
	mov	x1, 0
	beq	.L117
	bl	__stack_chk_fail
.L117:
	ldr	x0, [sp, 32]
	bl	_ZSt24__throw_invalid_argumentPKc
.L116:
	bl	__errno_location
	ldr	w0, [x0]
	cmp	w0, 34
	beq	.L118
	mov	w1, w19
	ldr	x0, [sp, 80]
	bl	_ZZN9__gnu_cxx6__stoaIlicJiEEET0_PFT_PKT1_PPS3_DpT2_EPKcS5_PmS9_EN10_Range_chk6_S_chkElSt17integral_constantIbLb1EE
	and	w0, w0, 255
	and	w0, w0, 1
	cmp	w0, 0
	beq	.L119
.L118:
	mov	w0, 1
	b	.L120
.L119:
	mov	w0, 0
.L120:
	and	w0, w0, 1
	cmp	w0, 0
	beq	.L121
	adrp	x0, :got:__stack_chk_guard
	ldr	x0, [x0, :got_lo12:__stack_chk_guard]
	ldr	x2, [sp, 88]
	ldr	x1, [x0]
	subs	x2, x2, x1
	mov	x1, 0
	beq	.L122
	bl	__stack_chk_fail
.L122:
	ldr	x0, [sp, 32]
	bl	_ZSt20__throw_out_of_rangePKc
.LEHE20:
.L121:
	ldr	x0, [sp, 80]
	str	w0, [sp, 68]
	ldr	x0, [sp, 16]
	cmp	x0, 0
	beq	.L123
	ldr	x1, [sp, 72]
	ldr	x0, [sp, 24]
	sub	x0, x1, x0
	mov	x1, x0
	ldr	x0, [sp, 16]
	str	x1, [x0]
.L123:
	ldr	w19, [sp, 68]
	add	x0, sp, 64
	bl	_ZZN9__gnu_cxx6__stoaIlicJiEEET0_PFT_PKT1_PPS3_DpT2_EPKcS5_PmS9_EN11_Save_errnoD1Ev
	mov	w1, w19
	adrp	x0, :got:__stack_chk_guard
	ldr	x0, [x0, :got_lo12:__stack_chk_guard]
	ldr	x3, [sp, 88]
	ldr	x2, [x0]
	subs	x3, x3, x2
	mov	x2, 0
	beq	.L127
	b	.L129
.L128:
	mov	x19, x0
	add	x0, sp, 64
	bl	_ZZN9__gnu_cxx6__stoaIlicJiEEET0_PFT_PKT1_PPS3_DpT2_EPKcS5_PmS9_EN11_Save_errnoD1Ev
	mov	x1, x19
	adrp	x0, :got:__stack_chk_guard
	ldr	x0, [x0, :got_lo12:__stack_chk_guard]
	ldr	x3, [sp, 88]
	ldr	x2, [x0]
	subs	x3, x3, x2
	mov	x2, 0
	beq	.L126
	bl	__stack_chk_fail
.L126:
	mov	x0, x1
.LEHB21:
	bl	_Unwind_Resume
.LEHE21:
.L129:
	bl	__stack_chk_fail
.L127:
	mov	w0, w1
	ldr	x19, [sp, 112]
	ldp	x29, x30, [sp, 96]
	add	sp, sp, 128
	.cfi_restore 29
	.cfi_restore 30
	.cfi_restore 19
	.cfi_def_cfa_offset 0
	ret
	.cfi_endproc
.LFE4179:
	.section	.gcc_except_table
.LLSDA4179:
	.byte	0xff
	.byte	0xff
	.byte	0x1
	.uleb128 .LLSDACSE4179-.LLSDACSB4179
.LLSDACSB4179:
	.uleb128 .LEHB20-.LFB4179
	.uleb128 .LEHE20-.LEHB20
	.uleb128 .L128-.LFB4179
	.uleb128 0
	.uleb128 .LEHB21-.LFB4179
	.uleb128 .LEHE21-.LEHB21
	.uleb128 0
	.uleb128 0
.LLSDACSE4179:
	.section	.text._ZN9__gnu_cxx6__stoaIlicJiEEET0_PFT_PKT1_PPS3_DpT2_EPKcS5_PmS9_,"axG",@progbits,_ZN9__gnu_cxx6__stoaIlicJiEEET0_PFT_PKT1_PPS3_DpT2_EPKcS5_PmS9_,comdat
	.size	_ZN9__gnu_cxx6__stoaIlicJiEEET0_PFT_PKT1_PPS3_DpT2_EPKcS5_PmS9_, .-_ZN9__gnu_cxx6__stoaIlicJiEEET0_PFT_PKT1_PPS3_DpT2_EPKcS5_PmS9_
	.section	.text._ZNSt7__cxx1112basic_stringIcSt11char_traitsIcESaIcEE12_Alloc_hiderD2Ev,"axG",@progbits,_ZNSt7__cxx1112basic_stringIcSt11char_traitsIcESaIcEE12_Alloc_hiderD5Ev,comdat
	.align	2
	.weak	_ZNSt7__cxx1112basic_stringIcSt11char_traitsIcESaIcEE12_Alloc_hiderD2Ev
	.type	_ZNSt7__cxx1112basic_stringIcSt11char_traitsIcESaIcEE12_Alloc_hiderD2Ev, %function
_ZNSt7__cxx1112basic_stringIcSt11char_traitsIcESaIcEE12_Alloc_hiderD2Ev:
.LFB4260:
	.cfi_startproc
	stp	x29, x30, [sp, -48]!
	.cfi_def_cfa_offset 48
	.cfi_offset 29, -48
	.cfi_offset 30, -40
	mov	x29, sp
	str	x0, [sp, 24]
	ldr	x0, [sp, 24]
	str	x0, [sp, 40]
	ldr	x0, [sp, 40]
	bl	_ZNSt15__new_allocatorIcED2Ev
	nop
	nop
	ldp	x29, x30, [sp], 48
	.cfi_restore 30
	.cfi_restore 29
	.cfi_def_cfa_offset 0
	ret
	.cfi_endproc
.LFE4260:
	.size	_ZNSt7__cxx1112basic_stringIcSt11char_traitsIcESaIcEE12_Alloc_hiderD2Ev, .-_ZNSt7__cxx1112basic_stringIcSt11char_traitsIcESaIcEE12_Alloc_hiderD2Ev
	.weak	_ZNSt7__cxx1112basic_stringIcSt11char_traitsIcESaIcEE12_Alloc_hiderD1Ev
	.set	_ZNSt7__cxx1112basic_stringIcSt11char_traitsIcESaIcEE12_Alloc_hiderD1Ev,_ZNSt7__cxx1112basic_stringIcSt11char_traitsIcESaIcEE12_Alloc_hiderD2Ev
	.section	.text._ZNKSt6chrono10time_pointINS_3_V212system_clockENS_8durationIlSt5ratioILl1ELl1000000000EEEEE16time_since_epochEv,"axG",@progbits,_ZNKSt6chrono10time_pointINS_3_V212system_clockENS_8durationIlSt5ratioILl1ELl1000000000EEEEE16time_since_epochEv,comdat
	.align	2
	.weak	_ZNKSt6chrono10time_pointINS_3_V212system_clockENS_8durationIlSt5ratioILl1ELl1000000000EEEEE16time_since_epochEv
	.type	_ZNKSt6chrono10time_pointINS_3_V212system_clockENS_8durationIlSt5ratioILl1ELl1000000000EEEEE16time_since_epochEv, %function
_ZNKSt6chrono10time_pointINS_3_V212system_clockENS_8durationIlSt5ratioILl1ELl1000000000EEEEE16time_since_epochEv:
.LFB4405:
	.cfi_startproc
	sub	sp, sp, #16
	.cfi_def_cfa_offset 16
	str	x0, [sp, 8]
	ldr	x0, [sp, 8]
	ldr	x0, [x0]
	add	sp, sp, 16
	.cfi_def_cfa_offset 0
	ret
	.cfi_endproc
.LFE4405:
	.size	_ZNKSt6chrono10time_pointINS_3_V212system_clockENS_8durationIlSt5ratioILl1ELl1000000000EEEEE16time_since_epochEv, .-_ZNKSt6chrono10time_pointINS_3_V212system_clockENS_8durationIlSt5ratioILl1ELl1000000000EEEEE16time_since_epochEv
	.section	.rodata
	.align	3
.LC33:
	.string	"basic_string: construction from null is not valid"
	.section	.text._ZNSt7__cxx1112basic_stringIcSt11char_traitsIcESaIcEEC2IS3_EEPKcRKS3_,"axG",@progbits,_ZNSt7__cxx1112basic_stringIcSt11char_traitsIcESaIcEEC5IS3_EEPKcRKS3_,comdat
	.align	2
	.weak	_ZNSt7__cxx1112basic_stringIcSt11char_traitsIcESaIcEEC2IS3_EEPKcRKS3_
	.type	_ZNSt7__cxx1112basic_stringIcSt11char_traitsIcESaIcEEC2IS3_EEPKcRKS3_, %function
_ZNSt7__cxx1112basic_stringIcSt11char_traitsIcESaIcEEC2IS3_EEPKcRKS3_:
.LFB4485:
	.cfi_startproc
	.cfi_personality 0x9b,DW.ref.__gxx_personality_v0
	.cfi_lsda 0x1b,.LLSDA4485
	stp	x29, x30, [sp, -80]!
	.cfi_def_cfa_offset 80
	.cfi_offset 29, -80
	.cfi_offset 30, -72
	mov	x29, sp
	stp	x19, x20, [sp, 16]
	.cfi_offset 19, -64
	.cfi_offset 20, -56
	str	x0, [sp, 56]
	str	x1, [sp, 48]
	str	x2, [sp, 40]
	ldr	x19, [sp, 56]
	ldr	x0, [sp, 56]
	bl	_ZNSt7__cxx1112basic_stringIcSt11char_traitsIcESaIcEE13_M_local_dataEv
	ldr	x2, [sp, 40]
	mov	x1, x0
	mov	x0, x19
	bl	_ZNSt7__cxx1112basic_stringIcSt11char_traitsIcESaIcEE12_Alloc_hiderC1EPcRKS3_
	ldr	x0, [sp, 48]
	cmp	x0, 0
	bne	.L134
	adrp	x0, .LC33
	add	x0, x0, :lo12:.LC33
.LEHB22:
	bl	_ZSt19__throw_logic_errorPKc
.L134:
	ldr	x0, [sp, 48]
	bl	_ZNSt11char_traitsIcE6lengthEPKc
	mov	x1, x0
	ldr	x0, [sp, 48]
	add	x0, x0, x1
	str	x0, [sp, 72]
	mov	w3, w20
	ldr	x2, [sp, 72]
	ldr	x1, [sp, 48]
	ldr	x0, [sp, 56]
	bl	_ZNSt7__cxx1112basic_stringIcSt11char_traitsIcESaIcEE12_M_constructIPKcEEvT_S8_St20forward_iterator_tag
.LEHE22:
	b	.L137
.L136:
	mov	x19, x0
	ldr	x0, [sp, 56]
	bl	_ZNSt7__cxx1112basic_stringIcSt11char_traitsIcESaIcEE12_Alloc_hiderD1Ev
	mov	x0, x19
.LEHB23:
	bl	_Unwind_Resume
.LEHE23:
.L137:
	ldp	x19, x20, [sp, 16]
	ldp	x29, x30, [sp], 80
	.cfi_restore 30
	.cfi_restore 29
	.cfi_restore 19
	.cfi_restore 20
	.cfi_def_cfa_offset 0
	ret
	.cfi_endproc
.LFE4485:
	.section	.gcc_except_table
.LLSDA4485:
	.byte	0xff
	.byte	0xff
	.byte	0x1
	.uleb128 .LLSDACSE4485-.LLSDACSB4485
.LLSDACSB4485:
	.uleb128 .LEHB22-.LFB4485
	.uleb128 .LEHE22-.LEHB22
	.uleb128 .L136-.LFB4485
	.uleb128 0
	.uleb128 .LEHB23-.LFB4485
	.uleb128 .LEHE23-.LEHB23
	.uleb128 0
	.uleb128 0
.LLSDACSE4485:
	.section	.text._ZNSt7__cxx1112basic_stringIcSt11char_traitsIcESaIcEEC2IS3_EEPKcRKS3_,"axG",@progbits,_ZNSt7__cxx1112basic_stringIcSt11char_traitsIcESaIcEEC5IS3_EEPKcRKS3_,comdat
	.size	_ZNSt7__cxx1112basic_stringIcSt11char_traitsIcESaIcEEC2IS3_EEPKcRKS3_, .-_ZNSt7__cxx1112basic_stringIcSt11char_traitsIcESaIcEEC2IS3_EEPKcRKS3_
	.weak	_ZNSt7__cxx1112basic_stringIcSt11char_traitsIcESaIcEEC1IS3_EEPKcRKS3_
	.set	_ZNSt7__cxx1112basic_stringIcSt11char_traitsIcESaIcEEC1IS3_EEPKcRKS3_,_ZNSt7__cxx1112basic_stringIcSt11char_traitsIcESaIcEEC2IS3_EEPKcRKS3_
	.section	.text._ZNKSt6vectorIiSaIiEE4sizeEv,"axG",@progbits,_ZNKSt6vectorIiSaIiEE4sizeEv,comdat
	.align	2
	.weak	_ZNKSt6vectorIiSaIiEE4sizeEv
	.type	_ZNKSt6vectorIiSaIiEE4sizeEv, %function
_ZNKSt6vectorIiSaIiEE4sizeEv:
.LFB4516:
	.cfi_startproc
	sub	sp, sp, #16
	.cfi_def_cfa_offset 16
	str	x0, [sp, 8]
	ldr	x0, [sp, 8]
	ldr	x1, [x0, 8]
	ldr	x0, [sp, 8]
	ldr	x0, [x0]
	sub	x0, x1, x0
	asr	x0, x0, 2
	add	sp, sp, 16
	.cfi_def_cfa_offset 0
	ret
	.cfi_endproc
.LFE4516:
	.size	_ZNKSt6vectorIiSaIiEE4sizeEv, .-_ZNKSt6vectorIiSaIiEE4sizeEv
	.section	.text._ZNKSt6vectorIiSaIiEEixEm,"axG",@progbits,_ZNKSt6vectorIiSaIiEEixEm,comdat
	.align	2
	.weak	_ZNKSt6vectorIiSaIiEEixEm
	.type	_ZNKSt6vectorIiSaIiEEixEm, %function
_ZNKSt6vectorIiSaIiEEixEm:
.LFB4517:
	.cfi_startproc
	sub	sp, sp, #16
	.cfi_def_cfa_offset 16
	str	x0, [sp, 8]
	str	x1, [sp]
	ldr	x0, [sp, 8]
	ldr	x1, [x0]
	ldr	x0, [sp]
	lsl	x0, x0, 2
	add	x0, x1, x0
	add	sp, sp, 16
	.cfi_def_cfa_offset 0
	ret
	.cfi_endproc
.LFE4517:
	.size	_ZNKSt6vectorIiSaIiEEixEm, .-_ZNKSt6vectorIiSaIiEEixEm
	.section	.text._ZNSt6vectorIiSaIiEEixEm,"axG",@progbits,_ZNSt6vectorIiSaIiEEixEm,comdat
	.align	2
	.weak	_ZNSt6vectorIiSaIiEEixEm
	.type	_ZNSt6vectorIiSaIiEEixEm, %function
_ZNSt6vectorIiSaIiEEixEm:
.LFB4518:
	.cfi_startproc
	sub	sp, sp, #16
	.cfi_def_cfa_offset 16
	str	x0, [sp, 8]
	str	x1, [sp]
	ldr	x0, [sp, 8]
	ldr	x1, [x0]
	ldr	x0, [sp]
	lsl	x0, x0, 2
	add	x0, x1, x0
	add	sp, sp, 16
	.cfi_def_cfa_offset 0
	ret
	.cfi_endproc
.LFE4518:
	.size	_ZNSt6vectorIiSaIiEEixEm, .-_ZNSt6vectorIiSaIiEEixEm
	.section	.text._ZNSt12_Vector_baseIiSaIiEE12_Vector_implC2Ev,"axG",@progbits,_ZNSt12_Vector_baseIiSaIiEE12_Vector_implC5Ev,comdat
	.align	2
	.weak	_ZNSt12_Vector_baseIiSaIiEE12_Vector_implC2Ev
	.type	_ZNSt12_Vector_baseIiSaIiEE12_Vector_implC2Ev, %function
_ZNSt12_Vector_baseIiSaIiEE12_Vector_implC2Ev:
.LFB4520:
	.cfi_startproc
	stp	x29, x30, [sp, -48]!
	.cfi_def_cfa_offset 48
	.cfi_offset 29, -48
	.cfi_offset 30, -40
	mov	x29, sp
	str	x0, [sp, 24]
	ldr	x0, [sp, 24]
	str	x0, [sp, 32]
	ldr	x0, [sp, 32]
	str	x0, [sp, 40]
	nop
	nop
	ldr	x0, [sp, 24]
	bl	_ZNSt12_Vector_baseIiSaIiEE17_Vector_impl_dataC2Ev
	nop
	ldp	x29, x30, [sp], 48
	.cfi_restore 30
	.cfi_restore 29
	.cfi_def_cfa_offset 0
	ret
	.cfi_endproc
.LFE4520:
	.size	_ZNSt12_Vector_baseIiSaIiEE12_Vector_implC2Ev, .-_ZNSt12_Vector_baseIiSaIiEE12_Vector_implC2Ev
	.weak	_ZNSt12_Vector_baseIiSaIiEE12_Vector_implC1Ev
	.set	_ZNSt12_Vector_baseIiSaIiEE12_Vector_implC1Ev,_ZNSt12_Vector_baseIiSaIiEE12_Vector_implC2Ev
	.section	.text._ZNSt12_Vector_baseIiSaIiEED2Ev,"axG",@progbits,_ZNSt12_Vector_baseIiSaIiEED5Ev,comdat
	.align	2
	.weak	_ZNSt12_Vector_baseIiSaIiEED2Ev
	.type	_ZNSt12_Vector_baseIiSaIiEED2Ev, %function
_ZNSt12_Vector_baseIiSaIiEED2Ev:
.LFB4526:
	.cfi_startproc
	.cfi_personality 0x9b,DW.ref.__gxx_personality_v0
	.cfi_lsda 0x1b,.LLSDA4526
	stp	x29, x30, [sp, -32]!
	.cfi_def_cfa_offset 32
	.cfi_offset 29, -32
	.cfi_offset 30, -24
	mov	x29, sp
	str	x0, [sp, 24]
	ldr	x0, [sp, 24]
	ldr	x3, [x0]
	ldr	x0, [sp, 24]
	ldr	x1, [x0, 16]
	ldr	x0, [sp, 24]
	ldr	x0, [x0]
	sub	x0, x1, x0
	asr	x0, x0, 2
	mov	x2, x0
	mov	x1, x3
	ldr	x0, [sp, 24]
	bl	_ZNSt12_Vector_baseIiSaIiEE13_M_deallocateEPim
	ldr	x0, [sp, 24]
	bl	_ZNSt12_Vector_baseIiSaIiEE12_Vector_implD1Ev
	nop
	ldp	x29, x30, [sp], 32
	.cfi_restore 30
	.cfi_restore 29
	.cfi_def_cfa_offset 0
	ret
	.cfi_endproc
.LFE4526:
	.section	.gcc_except_table
.LLSDA4526:
	.byte	0xff
	.byte	0xff
	.byte	0x1
	.uleb128 .LLSDACSE4526-.LLSDACSB4526
.LLSDACSB4526:
.LLSDACSE4526:
	.section	.text._ZNSt12_Vector_baseIiSaIiEED2Ev,"axG",@progbits,_ZNSt12_Vector_baseIiSaIiEED5Ev,comdat
	.size	_ZNSt12_Vector_baseIiSaIiEED2Ev, .-_ZNSt12_Vector_baseIiSaIiEED2Ev
	.weak	_ZNSt12_Vector_baseIiSaIiEED1Ev
	.set	_ZNSt12_Vector_baseIiSaIiEED1Ev,_ZNSt12_Vector_baseIiSaIiEED2Ev
	.section	.text._ZNSt6vectorIiSaIiEED2Ev,"axG",@progbits,_ZNSt6vectorIiSaIiEED5Ev,comdat
	.align	2
	.weak	_ZNSt6vectorIiSaIiEED2Ev
	.type	_ZNSt6vectorIiSaIiEED2Ev, %function
_ZNSt6vectorIiSaIiEED2Ev:
.LFB4529:
	.cfi_startproc
	.cfi_personality 0x9b,DW.ref.__gxx_personality_v0
	.cfi_lsda 0x1b,.LLSDA4529
	stp	x29, x30, [sp, -80]!
	.cfi_def_cfa_offset 80
	.cfi_offset 29, -80
	.cfi_offset 30, -72
	mov	x29, sp
	stp	x19, x20, [sp, 16]
	.cfi_offset 19, -64
	.cfi_offset 20, -56
	str	x0, [sp, 40]
	ldr	x0, [sp, 40]
	ldr	x20, [x0]
	ldr	x0, [sp, 40]
	ldr	x19, [x0, 8]
	ldr	x0, [sp, 40]
	bl	_ZNSt12_Vector_baseIiSaIiEE19_M_get_Tp_allocatorEv
	str	x20, [sp, 56]
	str	x19, [sp, 64]
	str	x0, [sp, 72]
	ldr	x1, [sp, 64]
	ldr	x0, [sp, 56]
	bl	_ZSt8_DestroyIPiEvT_S1_
	nop
	ldr	x0, [sp, 40]
	bl	_ZNSt12_Vector_baseIiSaIiEED2Ev
	nop
	ldp	x19, x20, [sp, 16]
	ldp	x29, x30, [sp], 80
	.cfi_restore 30
	.cfi_restore 29
	.cfi_restore 19
	.cfi_restore 20
	.cfi_def_cfa_offset 0
	ret
	.cfi_endproc
.LFE4529:
	.section	.gcc_except_table
.LLSDA4529:
	.byte	0xff
	.byte	0xff
	.byte	0x1
	.uleb128 .LLSDACSE4529-.LLSDACSB4529
.LLSDACSB4529:
.LLSDACSE4529:
	.section	.text._ZNSt6vectorIiSaIiEED2Ev,"axG",@progbits,_ZNSt6vectorIiSaIiEED5Ev,comdat
	.size	_ZNSt6vectorIiSaIiEED2Ev, .-_ZNSt6vectorIiSaIiEED2Ev
	.weak	_ZNSt6vectorIiSaIiEED1Ev
	.set	_ZNSt6vectorIiSaIiEED1Ev,_ZNSt6vectorIiSaIiEED2Ev
	.section	.text._ZNSt6vectorIiSaIiEE9push_backEOi,"axG",@progbits,_ZNSt6vectorIiSaIiEE9push_backEOi,comdat
	.align	2
	.weak	_ZNSt6vectorIiSaIiEE9push_backEOi
	.type	_ZNSt6vectorIiSaIiEE9push_backEOi, %function
_ZNSt6vectorIiSaIiEE9push_backEOi:
.LFB4531:
	.cfi_startproc
	stp	x29, x30, [sp, -32]!
	.cfi_def_cfa_offset 32
	.cfi_offset 29, -32
	.cfi_offset 30, -24
	mov	x29, sp
	str	x0, [sp, 24]
	str	x1, [sp, 16]
	ldr	x0, [sp, 16]
	bl	_ZSt4moveIRiEONSt16remove_referenceIT_E4typeEOS2_
	mov	x1, x0
	ldr	x0, [sp, 24]
	bl	_ZNSt6vectorIiSaIiEE12emplace_backIJiEEERiDpOT_
	nop
	ldp	x29, x30, [sp], 32
	.cfi_restore 30
	.cfi_restore 29
	.cfi_def_cfa_offset 0
	ret
	.cfi_endproc
.LFE4531:
	.size	_ZNSt6vectorIiSaIiEE9push_backEOi, .-_ZNSt6vectorIiSaIiEE9push_backEOi
	.section	.text._ZNSt6vectorIiSaIiEEaSESt16initializer_listIiE,"axG",@progbits,_ZNSt6vectorIiSaIiEEaSESt16initializer_listIiE,comdat
	.align	2
	.weak	_ZNSt6vectorIiSaIiEEaSESt16initializer_listIiE
	.type	_ZNSt6vectorIiSaIiEEaSESt16initializer_listIiE, %function
_ZNSt6vectorIiSaIiEEaSESt16initializer_listIiE:
.LFB4532:
	.cfi_startproc
	sub	sp, sp, #80
	.cfi_def_cfa_offset 80
	stp	x29, x30, [sp, 48]
	.cfi_offset 29, -32
	.cfi_offset 30, -24
	add	x29, sp, 48
	stp	x19, x20, [sp, 64]
	.cfi_offset 19, -16
	.cfi_offset 20, -8
	str	x0, [sp, 24]
	stp	x1, x2, [sp, 8]
	adrp	x0, :got:__stack_chk_guard
	ldr	x0, [x0, :got_lo12:__stack_chk_guard]
	ldr	x1, [x0]
	str	x1, [sp, 40]
	mov	x1, 0
	add	x0, sp, 8
	bl	_ZNKSt16initializer_listIiE5beginEv
	mov	x19, x0
	add	x0, sp, 8
	bl	_ZNKSt16initializer_listIiE3endEv
	mov	w3, w20
	mov	x2, x0
	mov	x1, x19
	ldr	x0, [sp, 24]
	bl	_ZNSt6vectorIiSaIiEE13_M_assign_auxIPKiEEvT_S5_St20forward_iterator_tag
	ldr	x0, [sp, 24]
	mov	x1, x0
	adrp	x0, :got:__stack_chk_guard
	ldr	x0, [x0, :got_lo12:__stack_chk_guard]
	ldr	x3, [sp, 40]
	ldr	x2, [x0]
	subs	x3, x3, x2
	mov	x2, 0
	beq	.L150
	bl	__stack_chk_fail
.L150:
	mov	x0, x1
	ldp	x19, x20, [sp, 64]
	ldp	x29, x30, [sp, 48]
	add	sp, sp, 80
	.cfi_restore 29
	.cfi_restore 30
	.cfi_restore 19
	.cfi_restore 20
	.cfi_def_cfa_offset 0
	ret
	.cfi_endproc
.LFE4532:
	.size	_ZNSt6vectorIiSaIiEEaSESt16initializer_listIiE, .-_ZNSt6vectorIiSaIiEEaSESt16initializer_listIiE
	.section	.text._ZNSt23mersenne_twister_engineImLm32ELm624ELm397ELm31ELm2567483615ELm11ELm4294967295ELm7ELm2636928640ELm15ELm4022730752ELm18ELm1812433253EEC2Em,"axG",@progbits,_ZNSt23mersenne_twister_engineImLm32ELm624ELm397ELm31ELm2567483615ELm11ELm4294967295ELm7ELm2636928640ELm15ELm4022730752ELm18ELm1812433253EEC5Em,comdat
	.align	2
	.weak	_ZNSt23mersenne_twister_engineImLm32ELm624ELm397ELm31ELm2567483615ELm11ELm4294967295ELm7ELm2636928640ELm15ELm4022730752ELm18ELm1812433253EEC2Em
	.type	_ZNSt23mersenne_twister_engineImLm32ELm624ELm397ELm31ELm2567483615ELm11ELm4294967295ELm7ELm2636928640ELm15ELm4022730752ELm18ELm1812433253EEC2Em, %function
_ZNSt23mersenne_twister_engineImLm32ELm624ELm397ELm31ELm2567483615ELm11ELm4294967295ELm7ELm2636928640ELm15ELm4022730752ELm18ELm1812433253EEC2Em:
.LFB4534:
	.cfi_startproc
	stp	x29, x30, [sp, -32]!
	.cfi_def_cfa_offset 32
	.cfi_offset 29, -32
	.cfi_offset 30, -24
	mov	x29, sp
	str	x0, [sp, 24]
	str	x1, [sp, 16]
	ldr	x1, [sp, 16]
	ldr	x0, [sp, 24]
	bl	_ZNSt23mersenne_twister_engineImLm32ELm624ELm397ELm31ELm2567483615ELm11ELm4294967295ELm7ELm2636928640ELm15ELm4022730752ELm18ELm1812433253EE4seedEm
	nop
	ldp	x29, x30, [sp], 32
	.cfi_restore 30
	.cfi_restore 29
	.cfi_def_cfa_offset 0
	ret
	.cfi_endproc
.LFE4534:
	.size	_ZNSt23mersenne_twister_engineImLm32ELm624ELm397ELm31ELm2567483615ELm11ELm4294967295ELm7ELm2636928640ELm15ELm4022730752ELm18ELm1812433253EEC2Em, .-_ZNSt23mersenne_twister_engineImLm32ELm624ELm397ELm31ELm2567483615ELm11ELm4294967295ELm7ELm2636928640ELm15ELm4022730752ELm18ELm1812433253EEC2Em
	.weak	_ZNSt23mersenne_twister_engineImLm32ELm624ELm397ELm31ELm2567483615ELm11ELm4294967295ELm7ELm2636928640ELm15ELm4022730752ELm18ELm1812433253EEC1Em
	.set	_ZNSt23mersenne_twister_engineImLm32ELm624ELm397ELm31ELm2567483615ELm11ELm4294967295ELm7ELm2636928640ELm15ELm4022730752ELm18ELm1812433253EEC1Em,_ZNSt23mersenne_twister_engineImLm32ELm624ELm397ELm31ELm2567483615ELm11ELm4294967295ELm7ELm2636928640ELm15ELm4022730752ELm18ELm1812433253EEC2Em
	.section	.text._ZNSt6vectorIiSaIiEEC2EmRKS0_,"axG",@progbits,_ZNSt6vectorIiSaIiEEC5EmRKS0_,comdat
	.align	2
	.weak	_ZNSt6vectorIiSaIiEEC2EmRKS0_
	.type	_ZNSt6vectorIiSaIiEEC2EmRKS0_, %function
_ZNSt6vectorIiSaIiEEC2EmRKS0_:
.LFB4571:
	.cfi_startproc
	.cfi_personality 0x9b,DW.ref.__gxx_personality_v0
	.cfi_lsda 0x1b,.LLSDA4571
	stp	x29, x30, [sp, -64]!
	.cfi_def_cfa_offset 64
	.cfi_offset 29, -64
	.cfi_offset 30, -56
	mov	x29, sp
	str	x19, [sp, 16]
	.cfi_offset 19, -48
	str	x0, [sp, 56]
	str	x1, [sp, 48]
	str	x2, [sp, 40]
	ldr	x19, [sp, 56]
	ldr	x1, [sp, 40]
	ldr	x0, [sp, 48]
.LEHB24:
	bl	_ZNSt6vectorIiSaIiEE17_S_check_init_lenEmRKS0_
	ldr	x2, [sp, 40]
	mov	x1, x0
	mov	x0, x19
	bl	_ZNSt12_Vector_baseIiSaIiEEC2EmRKS0_
.LEHE24:
	ldr	x1, [sp, 48]
	ldr	x0, [sp, 56]
.LEHB25:
	bl	_ZNSt6vectorIiSaIiEE21_M_default_initializeEm
.LEHE25:
	b	.L155
.L154:
	mov	x19, x0
	ldr	x0, [sp, 56]
	bl	_ZNSt12_Vector_baseIiSaIiEED2Ev
	mov	x0, x19
.LEHB26:
	bl	_Unwind_Resume
.LEHE26:
.L155:
	ldr	x19, [sp, 16]
	ldp	x29, x30, [sp], 64
	.cfi_restore 30
	.cfi_restore 29
	.cfi_restore 19
	.cfi_def_cfa_offset 0
	ret
	.cfi_endproc
.LFE4571:
	.section	.gcc_except_table
.LLSDA4571:
	.byte	0xff
	.byte	0xff
	.byte	0x1
	.uleb128 .LLSDACSE4571-.LLSDACSB4571
.LLSDACSB4571:
	.uleb128 .LEHB24-.LFB4571
	.uleb128 .LEHE24-.LEHB24
	.uleb128 0
	.uleb128 0
	.uleb128 .LEHB25-.LFB4571
	.uleb128 .LEHE25-.LEHB25
	.uleb128 .L154-.LFB4571
	.uleb128 0
	.uleb128 .LEHB26-.LFB4571
	.uleb128 .LEHE26-.LEHB26
	.uleb128 0
	.uleb128 0
.LLSDACSE4571:
	.section	.text._ZNSt6vectorIiSaIiEEC2EmRKS0_,"axG",@progbits,_ZNSt6vectorIiSaIiEEC5EmRKS0_,comdat
	.size	_ZNSt6vectorIiSaIiEEC2EmRKS0_, .-_ZNSt6vectorIiSaIiEEC2EmRKS0_
	.weak	_ZNSt6vectorIiSaIiEEC1EmRKS0_
	.set	_ZNSt6vectorIiSaIiEEC1EmRKS0_,_ZNSt6vectorIiSaIiEEC2EmRKS0_
	.section	.text._ZNSt24uniform_int_distributionIiEC2Eii,"axG",@progbits,_ZNSt24uniform_int_distributionIiEC5Eii,comdat
	.align	2
	.weak	_ZNSt24uniform_int_distributionIiEC2Eii
	.type	_ZNSt24uniform_int_distributionIiEC2Eii, %function
_ZNSt24uniform_int_distributionIiEC2Eii:
.LFB4574:
	.cfi_startproc
	stp	x29, x30, [sp, -32]!
	.cfi_def_cfa_offset 32
	.cfi_offset 29, -32
	.cfi_offset 30, -24
	mov	x29, sp
	str	x0, [sp, 24]
	str	w1, [sp, 20]
	str	w2, [sp, 16]
	ldr	x0, [sp, 24]
	ldr	w2, [sp, 16]
	ldr	w1, [sp, 20]
	bl	_ZNSt24uniform_int_distributionIiE10param_typeC1Eii
	nop
	ldp	x29, x30, [sp], 32
	.cfi_restore 30
	.cfi_restore 29
	.cfi_def_cfa_offset 0
	ret
	.cfi_endproc
.LFE4574:
	.size	_ZNSt24uniform_int_distributionIiEC2Eii, .-_ZNSt24uniform_int_distributionIiEC2Eii
	.weak	_ZNSt24uniform_int_distributionIiEC1Eii
	.set	_ZNSt24uniform_int_distributionIiEC1Eii,_ZNSt24uniform_int_distributionIiEC2Eii
	.section	.text._ZNSt6vectorIiSaIiEE5beginEv,"axG",@progbits,_ZNSt6vectorIiSaIiEE5beginEv,comdat
	.align	2
	.weak	_ZNSt6vectorIiSaIiEE5beginEv
	.type	_ZNSt6vectorIiSaIiEE5beginEv, %function
_ZNSt6vectorIiSaIiEE5beginEv:
.LFB4576:
	.cfi_startproc
	sub	sp, sp, #48
	.cfi_def_cfa_offset 48
	stp	x29, x30, [sp, 32]
	.cfi_offset 29, -16
	.cfi_offset 30, -8
	add	x29, sp, 32
	str	x0, [sp, 8]
	adrp	x0, :got:__stack_chk_guard
	ldr	x0, [x0, :got_lo12:__stack_chk_guard]
	ldr	x1, [x0]
	str	x1, [sp, 24]
	mov	x1, 0
	ldr	x1, [sp, 8]
	add	x0, sp, 16
	bl	_ZN9__gnu_cxx17__normal_iteratorIPiSt6vectorIiSaIiEEEC1ERKS1_
	ldr	x0, [sp, 16]
	mov	x1, x0
	adrp	x0, :got:__stack_chk_guard
	ldr	x0, [x0, :got_lo12:__stack_chk_guard]
	ldr	x3, [sp, 24]
	ldr	x2, [x0]
	subs	x3, x3, x2
	mov	x2, 0
	beq	.L159
	bl	__stack_chk_fail
.L159:
	mov	x0, x1
	ldp	x29, x30, [sp, 32]
	add	sp, sp, 48
	.cfi_restore 29
	.cfi_restore 30
	.cfi_def_cfa_offset 0
	ret
	.cfi_endproc
.LFE4576:
	.size	_ZNSt6vectorIiSaIiEE5beginEv, .-_ZNSt6vectorIiSaIiEE5beginEv
	.section	.text._ZNSt6vectorIiSaIiEE3endEv,"axG",@progbits,_ZNSt6vectorIiSaIiEE3endEv,comdat
	.align	2
	.weak	_ZNSt6vectorIiSaIiEE3endEv
	.type	_ZNSt6vectorIiSaIiEE3endEv, %function
_ZNSt6vectorIiSaIiEE3endEv:
.LFB4577:
	.cfi_startproc
	sub	sp, sp, #48
	.cfi_def_cfa_offset 48
	stp	x29, x30, [sp, 32]
	.cfi_offset 29, -16
	.cfi_offset 30, -8
	add	x29, sp, 32
	str	x0, [sp, 8]
	adrp	x0, :got:__stack_chk_guard
	ldr	x0, [x0, :got_lo12:__stack_chk_guard]
	ldr	x1, [x0]
	str	x1, [sp, 24]
	mov	x1, 0
	ldr	x0, [sp, 8]
	add	x1, x0, 8
	add	x0, sp, 16
	bl	_ZN9__gnu_cxx17__normal_iteratorIPiSt6vectorIiSaIiEEEC1ERKS1_
	ldr	x0, [sp, 16]
	mov	x1, x0
	adrp	x0, :got:__stack_chk_guard
	ldr	x0, [x0, :got_lo12:__stack_chk_guard]
	ldr	x3, [sp, 24]
	ldr	x2, [x0]
	subs	x3, x3, x2
	mov	x2, 0
	beq	.L162
	bl	__stack_chk_fail
.L162:
	mov	x0, x1
	ldp	x29, x30, [sp, 32]
	add	sp, sp, 48
	.cfi_restore 29
	.cfi_restore 30
	.cfi_def_cfa_offset 0
	ret
	.cfi_endproc
.LFE4577:
	.size	_ZNSt6vectorIiSaIiEE3endEv, .-_ZNSt6vectorIiSaIiEE3endEv
	.section	.text._ZN9__gnu_cxxneIPiSt6vectorIiSaIiEEEEbRKNS_17__normal_iteratorIT_T0_EESA_,"axG",@progbits,_ZN9__gnu_cxxneIPiSt6vectorIiSaIiEEEEbRKNS_17__normal_iteratorIT_T0_EESA_,comdat
	.align	2
	.weak	_ZN9__gnu_cxxneIPiSt6vectorIiSaIiEEEEbRKNS_17__normal_iteratorIT_T0_EESA_
	.type	_ZN9__gnu_cxxneIPiSt6vectorIiSaIiEEEEbRKNS_17__normal_iteratorIT_T0_EESA_, %function
_ZN9__gnu_cxxneIPiSt6vectorIiSaIiEEEEbRKNS_17__normal_iteratorIT_T0_EESA_:
.LFB4578:
	.cfi_startproc
	stp	x29, x30, [sp, -48]!
	.cfi_def_cfa_offset 48
	.cfi_offset 29, -48
	.cfi_offset 30, -40
	mov	x29, sp
	str	x19, [sp, 16]
	.cfi_offset 19, -32
	str	x0, [sp, 40]
	str	x1, [sp, 32]
	ldr	x0, [sp, 40]
	bl	_ZNK9__gnu_cxx17__normal_iteratorIPiSt6vectorIiSaIiEEE4baseEv
	ldr	x19, [x0]
	ldr	x0, [sp, 32]
	bl	_ZNK9__gnu_cxx17__normal_iteratorIPiSt6vectorIiSaIiEEE4baseEv
	ldr	x0, [x0]
	cmp	x19, x0
	cset	w0, ne
	and	w0, w0, 255
	ldr	x19, [sp, 16]
	ldp	x29, x30, [sp], 48
	.cfi_restore 30
	.cfi_restore 29
	.cfi_restore 19
	.cfi_def_cfa_offset 0
	ret
	.cfi_endproc
.LFE4578:
	.size	_ZN9__gnu_cxxneIPiSt6vectorIiSaIiEEEEbRKNS_17__normal_iteratorIT_T0_EESA_, .-_ZN9__gnu_cxxneIPiSt6vectorIiSaIiEEEEbRKNS_17__normal_iteratorIT_T0_EESA_
	.section	.text._ZN9__gnu_cxx17__normal_iteratorIPiSt6vectorIiSaIiEEEppEv,"axG",@progbits,_ZN9__gnu_cxx17__normal_iteratorIPiSt6vectorIiSaIiEEEppEv,comdat
	.align	2
	.weak	_ZN9__gnu_cxx17__normal_iteratorIPiSt6vectorIiSaIiEEEppEv
	.type	_ZN9__gnu_cxx17__normal_iteratorIPiSt6vectorIiSaIiEEEppEv, %function
_ZN9__gnu_cxx17__normal_iteratorIPiSt6vectorIiSaIiEEEppEv:
.LFB4579:
	.cfi_startproc
	sub	sp, sp, #16
	.cfi_def_cfa_offset 16
	str	x0, [sp, 8]
	ldr	x0, [sp, 8]
	ldr	x0, [x0]
	add	x1, x0, 4
	ldr	x0, [sp, 8]
	str	x1, [x0]
	ldr	x0, [sp, 8]
	add	sp, sp, 16
	.cfi_def_cfa_offset 0
	ret
	.cfi_endproc
.LFE4579:
	.size	_ZN9__gnu_cxx17__normal_iteratorIPiSt6vectorIiSaIiEEEppEv, .-_ZN9__gnu_cxx17__normal_iteratorIPiSt6vectorIiSaIiEEEppEv
	.section	.text._ZNK9__gnu_cxx17__normal_iteratorIPiSt6vectorIiSaIiEEEdeEv,"axG",@progbits,_ZNK9__gnu_cxx17__normal_iteratorIPiSt6vectorIiSaIiEEEdeEv,comdat
	.align	2
	.weak	_ZNK9__gnu_cxx17__normal_iteratorIPiSt6vectorIiSaIiEEEdeEv
	.type	_ZNK9__gnu_cxx17__normal_iteratorIPiSt6vectorIiSaIiEEEdeEv, %function
_ZNK9__gnu_cxx17__normal_iteratorIPiSt6vectorIiSaIiEEEdeEv:
.LFB4580:
	.cfi_startproc
	sub	sp, sp, #16
	.cfi_def_cfa_offset 16
	str	x0, [sp, 8]
	ldr	x0, [sp, 8]
	ldr	x0, [x0]
	add	sp, sp, 16
	.cfi_def_cfa_offset 0
	ret
	.cfi_endproc
.LFE4580:
	.size	_ZNK9__gnu_cxx17__normal_iteratorIPiSt6vectorIiSaIiEEEdeEv, .-_ZNK9__gnu_cxx17__normal_iteratorIPiSt6vectorIiSaIiEEEdeEv
	.section	.text._ZNSt24uniform_int_distributionIiEclISt23mersenne_twister_engineImLm32ELm624ELm397ELm31ELm2567483615ELm11ELm4294967295ELm7ELm2636928640ELm15ELm4022730752ELm18ELm1812433253EEEEiRT_,"axG",@progbits,_ZNSt24uniform_int_distributionIiEclISt23mersenne_twister_engineImLm32ELm624ELm397ELm31ELm2567483615ELm11ELm4294967295ELm7ELm2636928640ELm15ELm4022730752ELm18ELm1812433253EEEEiRT_,comdat
	.align	2
	.weak	_ZNSt24uniform_int_distributionIiEclISt23mersenne_twister_engineImLm32ELm624ELm397ELm31ELm2567483615ELm11ELm4294967295ELm7ELm2636928640ELm15ELm4022730752ELm18ELm1812433253EEEEiRT_
	.type	_ZNSt24uniform_int_distributionIiEclISt23mersenne_twister_engineImLm32ELm624ELm397ELm31ELm2567483615ELm11ELm4294967295ELm7ELm2636928640ELm15ELm4022730752ELm18ELm1812433253EEEEiRT_, %function
_ZNSt24uniform_int_distributionIiEclISt23mersenne_twister_engineImLm32ELm624ELm397ELm31ELm2567483615ELm11ELm4294967295ELm7ELm2636928640ELm15ELm4022730752ELm18ELm1812433253EEEEiRT_:
.LFB4581:
	.cfi_startproc
	stp	x29, x30, [sp, -32]!
	.cfi_def_cfa_offset 32
	.cfi_offset 29, -32
	.cfi_offset 30, -24
	mov	x29, sp
	str	x0, [sp, 24]
	str	x1, [sp, 16]
	ldr	x0, [sp, 24]
	mov	x2, x0
	ldr	x1, [sp, 16]
	ldr	x0, [sp, 24]
	bl	_ZNSt24uniform_int_distributionIiEclISt23mersenne_twister_engineImLm32ELm624ELm397ELm31ELm2567483615ELm11ELm4294967295ELm7ELm2636928640ELm15ELm4022730752ELm18ELm1812433253EEEEiRT_RKNS0_10param_typeE
	ldp	x29, x30, [sp], 32
	.cfi_restore 30
	.cfi_restore 29
	.cfi_def_cfa_offset 0
	ret
	.cfi_endproc
.LFE4581:
	.size	_ZNSt24uniform_int_distributionIiEclISt23mersenne_twister_engineImLm32ELm624ELm397ELm31ELm2567483615ELm11ELm4294967295ELm7ELm2636928640ELm15ELm4022730752ELm18ELm1812433253EEEEiRT_, .-_ZNSt24uniform_int_distributionIiEclISt23mersenne_twister_engineImLm32ELm624ELm397ELm31ELm2567483615ELm11ELm4294967295ELm7ELm2636928640ELm15ELm4022730752ELm18ELm1812433253EEEEiRT_
	.text
	.align	2
	.type	_Z9time_execIZ4mainEUlvE_EdOT_i, %function
_Z9time_execIZ4mainEUlvE_EdOT_i:
.LFB4582:
	.cfi_startproc
	sub	sp, sp, #80
	.cfi_def_cfa_offset 80
	stp	x29, x30, [sp, 64]
	.cfi_offset 29, -16
	.cfi_offset 30, -8
	add	x29, sp, 64
	str	x0, [sp, 8]
	str	w1, [sp, 4]
	adrp	x0, :got:__stack_chk_guard
	ldr	x0, [x0, :got_lo12:__stack_chk_guard]
	ldr	x1, [x0]
	str	x1, [sp, 56]
	mov	x1, 0
	bl	_ZNSt6chrono3_V212system_clock3nowEv
	str	x0, [sp, 24]
	str	wzr, [sp, 20]
	b	.L172
.L173:
	ldr	x0, [sp, 8]
	bl	_ZZ4mainENKUlvE_clEv
	ldr	w0, [sp, 20]
	add	w0, w0, 1
	str	w0, [sp, 20]
.L172:
	ldr	w1, [sp, 20]
	ldr	w0, [sp, 4]
	cmp	w1, w0
	blt	.L173
	bl	_ZNSt6chrono3_V212system_clock3nowEv
	str	x0, [sp, 32]
	add	x1, sp, 24
	add	x0, sp, 32
	bl	_ZNSt6chronomiINS_3_V212system_clockENS_8durationIlSt5ratioILl1ELl1000000000EEEES6_EENSt11common_typeIJT0_T1_EE4typeERKNS_10time_pointIT_S8_EERKNSC_ISD_S9_EE
	str	x0, [sp, 40]
	add	x1, sp, 40
	add	x0, sp, 48
	bl	_ZNSt6chrono8durationIdSt5ratioILl1ELl1EEEC1IlS1_ILl1ELl1000000000EEvEERKNS0_IT_T0_EE
	add	x0, sp, 48
	bl	_ZNKSt6chrono8durationIdSt5ratioILl1ELl1EEE5countEv
	adrp	x0, :got:__stack_chk_guard
	ldr	x0, [x0, :got_lo12:__stack_chk_guard]
	ldr	x2, [sp, 56]
	ldr	x1, [x0]
	subs	x2, x2, x1
	mov	x1, 0
	beq	.L175
	bl	__stack_chk_fail
.L175:
	ldp	x29, x30, [sp, 64]
	add	sp, sp, 80
	.cfi_restore 29
	.cfi_restore 30
	.cfi_def_cfa_offset 0
	ret
	.cfi_endproc
.LFE4582:
	.size	_Z9time_execIZ4mainEUlvE_EdOT_i, .-_Z9time_execIZ4mainEUlvE_EdOT_i
	.align	2
	.type	_Z9time_execIZ4mainEUlvE0_EdOT_i, %function
_Z9time_execIZ4mainEUlvE0_EdOT_i:
.LFB4584:
	.cfi_startproc
	sub	sp, sp, #80
	.cfi_def_cfa_offset 80
	stp	x29, x30, [sp, 64]
	.cfi_offset 29, -16
	.cfi_offset 30, -8
	add	x29, sp, 64
	str	x0, [sp, 8]
	str	w1, [sp, 4]
	adrp	x0, :got:__stack_chk_guard
	ldr	x0, [x0, :got_lo12:__stack_chk_guard]
	ldr	x1, [x0]
	str	x1, [sp, 56]
	mov	x1, 0
	bl	_ZNSt6chrono3_V212system_clock3nowEv
	str	x0, [sp, 24]
	str	wzr, [sp, 20]
	b	.L177
.L178:
	ldr	x0, [sp, 8]
	bl	_ZZ4mainENKUlvE0_clEv
	ldr	w0, [sp, 20]
	add	w0, w0, 1
	str	w0, [sp, 20]
.L177:
	ldr	w1, [sp, 20]
	ldr	w0, [sp, 4]
	cmp	w1, w0
	blt	.L178
	bl	_ZNSt6chrono3_V212system_clock3nowEv
	str	x0, [sp, 32]
	add	x1, sp, 24
	add	x0, sp, 32
	bl	_ZNSt6chronomiINS_3_V212system_clockENS_8durationIlSt5ratioILl1ELl1000000000EEEES6_EENSt11common_typeIJT0_T1_EE4typeERKNS_10time_pointIT_S8_EERKNSC_ISD_S9_EE
	str	x0, [sp, 40]
	add	x1, sp, 40
	add	x0, sp, 48
	bl	_ZNSt6chrono8durationIdSt5ratioILl1ELl1EEEC1IlS1_ILl1ELl1000000000EEvEERKNS0_IT_T0_EE
	add	x0, sp, 48
	bl	_ZNKSt6chrono8durationIdSt5ratioILl1ELl1EEE5countEv
	adrp	x0, :got:__stack_chk_guard
	ldr	x0, [x0, :got_lo12:__stack_chk_guard]
	ldr	x2, [sp, 56]
	ldr	x1, [x0]
	subs	x2, x2, x1
	mov	x1, 0
	beq	.L180
	bl	__stack_chk_fail
.L180:
	ldp	x29, x30, [sp, 64]
	add	sp, sp, 80
	.cfi_restore 29
	.cfi_restore 30
	.cfi_def_cfa_offset 0
	ret
	.cfi_endproc
.LFE4584:
	.size	_Z9time_execIZ4mainEUlvE0_EdOT_i, .-_Z9time_execIZ4mainEUlvE0_EdOT_i
	.section	.text._ZN9__gnu_cxx11char_traitsIcE2eqERKcS3_,"axG",@progbits,_ZN9__gnu_cxx11char_traitsIcE2eqERKcS3_,comdat
	.align	2
	.weak	_ZN9__gnu_cxx11char_traitsIcE2eqERKcS3_
	.type	_ZN9__gnu_cxx11char_traitsIcE2eqERKcS3_, %function
_ZN9__gnu_cxx11char_traitsIcE2eqERKcS3_:
.LFB4587:
	.cfi_startproc
	sub	sp, sp, #16
	.cfi_def_cfa_offset 16
	str	x0, [sp, 8]
	str	x1, [sp]
	ldr	x0, [sp, 8]
	ldrb	w1, [x0]
	ldr	x0, [sp]
	ldrb	w0, [x0]
	cmp	w1, w0
	cset	w0, eq
	and	w0, w0, 255
	add	sp, sp, 16
	.cfi_def_cfa_offset 0
	ret
	.cfi_endproc
.LFE4587:
	.size	_ZN9__gnu_cxx11char_traitsIcE2eqERKcS3_, .-_ZN9__gnu_cxx11char_traitsIcE2eqERKcS3_
	.section	.text._ZNSt15__new_allocatorIcED2Ev,"axG",@progbits,_ZNSt15__new_allocatorIcED5Ev,comdat
	.align	2
	.weak	_ZNSt15__new_allocatorIcED2Ev
	.type	_ZNSt15__new_allocatorIcED2Ev, %function
_ZNSt15__new_allocatorIcED2Ev:
.LFB4595:
	.cfi_startproc
	sub	sp, sp, #16
	.cfi_def_cfa_offset 16
	str	x0, [sp, 8]
	nop
	add	sp, sp, 16
	.cfi_def_cfa_offset 0
	ret
	.cfi_endproc
.LFE4595:
	.size	_ZNSt15__new_allocatorIcED2Ev, .-_ZNSt15__new_allocatorIcED2Ev
	.weak	_ZNSt15__new_allocatorIcED1Ev
	.set	_ZNSt15__new_allocatorIcED1Ev,_ZNSt15__new_allocatorIcED2Ev
	.section	.text._ZZNSt7__cxx1112basic_stringIcSt11char_traitsIcESaIcEE12_M_constructIPKcEEvT_S8_St20forward_iterator_tagEN6_GuardC2EPS4_,"axG",@progbits,_ZZNSt7__cxx1112basic_stringIcSt11char_traitsIcESaIcEE12_M_constructIPKcEEvT_S8_St20forward_iterator_tagEN6_GuardC5EPS4_,comdat
	.align	2
	.weak	_ZZNSt7__cxx1112basic_stringIcSt11char_traitsIcESaIcEE12_M_constructIPKcEEvT_S8_St20forward_iterator_tagEN6_GuardC2EPS4_
	.type	_ZZNSt7__cxx1112basic_stringIcSt11char_traitsIcESaIcEE12_M_constructIPKcEEvT_S8_St20forward_iterator_tagEN6_GuardC2EPS4_, %function
_ZZNSt7__cxx1112basic_stringIcSt11char_traitsIcESaIcEE12_M_constructIPKcEEvT_S8_St20forward_iterator_tagEN6_GuardC2EPS4_:
.LFB4625:
	.cfi_startproc
	sub	sp, sp, #16
	.cfi_def_cfa_offset 16
	str	x0, [sp, 8]
	str	x1, [sp]
	ldr	x0, [sp, 8]
	ldr	x1, [sp]
	str	x1, [x0]
	nop
	add	sp, sp, 16
	.cfi_def_cfa_offset 0
	ret
	.cfi_endproc
.LFE4625:
	.size	_ZZNSt7__cxx1112basic_stringIcSt11char_traitsIcESaIcEE12_M_constructIPKcEEvT_S8_St20forward_iterator_tagEN6_GuardC2EPS4_, .-_ZZNSt7__cxx1112basic_stringIcSt11char_traitsIcESaIcEE12_M_constructIPKcEEvT_S8_St20forward_iterator_tagEN6_GuardC2EPS4_
	.weak	_ZZNSt7__cxx1112basic_stringIcSt11char_traitsIcESaIcEE12_M_constructIPKcEEvT_S8_St20forward_iterator_tagEN6_GuardC1EPS4_
	.set	_ZZNSt7__cxx1112basic_stringIcSt11char_traitsIcESaIcEE12_M_constructIPKcEEvT_S8_St20forward_iterator_tagEN6_GuardC1EPS4_,_ZZNSt7__cxx1112basic_stringIcSt11char_traitsIcESaIcEE12_M_constructIPKcEEvT_S8_St20forward_iterator_tagEN6_GuardC2EPS4_
	.section	.text._ZZNSt7__cxx1112basic_stringIcSt11char_traitsIcESaIcEE12_M_constructIPKcEEvT_S8_St20forward_iterator_tagEN6_GuardD2Ev,"axG",@progbits,_ZZNSt7__cxx1112basic_stringIcSt11char_traitsIcESaIcEE12_M_constructIPKcEEvT_S8_St20forward_iterator_tagEN6_GuardD5Ev,comdat
	.align	2
	.weak	_ZZNSt7__cxx1112basic_stringIcSt11char_traitsIcESaIcEE12_M_constructIPKcEEvT_S8_St20forward_iterator_tagEN6_GuardD2Ev
	.type	_ZZNSt7__cxx1112basic_stringIcSt11char_traitsIcESaIcEE12_M_constructIPKcEEvT_S8_St20forward_iterator_tagEN6_GuardD2Ev, %function
_ZZNSt7__cxx1112basic_stringIcSt11char_traitsIcESaIcEE12_M_constructIPKcEEvT_S8_St20forward_iterator_tagEN6_GuardD2Ev:
.LFB4628:
	.cfi_startproc
	.cfi_personality 0x9b,DW.ref.__gxx_personality_v0
	.cfi_lsda 0x1b,.LLSDA4628
	stp	x29, x30, [sp, -32]!
	.cfi_def_cfa_offset 32
	.cfi_offset 29, -32
	.cfi_offset 30, -24
	mov	x29, sp
	str	x0, [sp, 24]
	ldr	x0, [sp, 24]
	ldr	x0, [x0]
	cmp	x0, 0
	beq	.L187
	ldr	x0, [sp, 24]
	ldr	x0, [x0]
	bl	_ZNSt7__cxx1112basic_stringIcSt11char_traitsIcESaIcEE10_M_disposeEv
.L187:
	nop
	ldp	x29, x30, [sp], 32
	.cfi_restore 30
	.cfi_restore 29
	.cfi_def_cfa_offset 0
	ret
	.cfi_endproc
.LFE4628:
	.section	.gcc_except_table
.LLSDA4628:
	.byte	0xff
	.byte	0xff
	.byte	0x1
	.uleb128 .LLSDACSE4628-.LLSDACSB4628
.LLSDACSB4628:
.LLSDACSE4628:
	.section	.text._ZZNSt7__cxx1112basic_stringIcSt11char_traitsIcESaIcEE12_M_constructIPKcEEvT_S8_St20forward_iterator_tagEN6_GuardD2Ev,"axG",@progbits,_ZZNSt7__cxx1112basic_stringIcSt11char_traitsIcESaIcEE12_M_constructIPKcEEvT_S8_St20forward_iterator_tagEN6_GuardD5Ev,comdat
	.size	_ZZNSt7__cxx1112basic_stringIcSt11char_traitsIcESaIcEE12_M_constructIPKcEEvT_S8_St20forward_iterator_tagEN6_GuardD2Ev, .-_ZZNSt7__cxx1112basic_stringIcSt11char_traitsIcESaIcEE12_M_constructIPKcEEvT_S8_St20forward_iterator_tagEN6_GuardD2Ev
	.weak	_ZZNSt7__cxx1112basic_stringIcSt11char_traitsIcESaIcEE12_M_constructIPKcEEvT_S8_St20forward_iterator_tagEN6_GuardD1Ev
	.set	_ZZNSt7__cxx1112basic_stringIcSt11char_traitsIcESaIcEE12_M_constructIPKcEEvT_S8_St20forward_iterator_tagEN6_GuardD1Ev,_ZZNSt7__cxx1112basic_stringIcSt11char_traitsIcESaIcEE12_M_constructIPKcEEvT_S8_St20forward_iterator_tagEN6_GuardD2Ev
	.section	.text._ZNSt7__cxx1112basic_stringIcSt11char_traitsIcESaIcEE12_M_constructIPKcEEvT_S8_St20forward_iterator_tag,"axG",@progbits,_ZNSt7__cxx1112basic_stringIcSt11char_traitsIcESaIcEE12_M_constructIPKcEEvT_S8_St20forward_iterator_tag,comdat
	.align	2
	.weak	_ZNSt7__cxx1112basic_stringIcSt11char_traitsIcESaIcEE12_M_constructIPKcEEvT_S8_St20forward_iterator_tag
	.type	_ZNSt7__cxx1112basic_stringIcSt11char_traitsIcESaIcEE12_M_constructIPKcEEvT_S8_St20forward_iterator_tag, %function
_ZNSt7__cxx1112basic_stringIcSt11char_traitsIcESaIcEE12_M_constructIPKcEEvT_S8_St20forward_iterator_tag:
.LFB4623:
	.cfi_startproc
	sub	sp, sp, #112
	.cfi_def_cfa_offset 112
	stp	x29, x30, [sp, 96]
	.cfi_offset 29, -16
	.cfi_offset 30, -8
	add	x29, sp, 96
	str	x0, [sp, 24]
	str	x1, [sp, 16]
	str	x2, [sp, 8]
	strb	w3, [sp]
	adrp	x0, :got:__stack_chk_guard
	ldr	x0, [x0, :got_lo12:__stack_chk_guard]
	ldr	x1, [x0]
	str	x1, [sp, 88]
	mov	x1, 0
	ldr	x0, [sp, 16]
	str	x0, [sp, 48]
	ldr	x0, [sp, 8]
	str	x0, [sp, 56]
	ldr	x0, [sp, 48]
	nop
	str	x0, [sp, 64]
	ldr	x0, [sp, 56]
	str	x0, [sp, 72]
	ldr	x1, [sp, 72]
	ldr	x0, [sp, 64]
	sub	x0, x1, x0
	nop
	str	x0, [sp, 40]
	ldr	x0, [sp, 40]
	cmp	x0, 15
	bls	.L192
	add	x0, sp, 40
	mov	x2, 0
	mov	x1, x0
	ldr	x0, [sp, 24]
	bl	_ZNSt7__cxx1112basic_stringIcSt11char_traitsIcESaIcEE9_M_createERmm
	mov	x1, x0
	ldr	x0, [sp, 24]
	bl	_ZNSt7__cxx1112basic_stringIcSt11char_traitsIcESaIcEE7_M_dataEPc
	ldr	x0, [sp, 40]
	mov	x1, x0
	ldr	x0, [sp, 24]
	bl	_ZNSt7__cxx1112basic_stringIcSt11char_traitsIcESaIcEE11_M_capacityEm
	b	.L193
.L192:
	ldr	x0, [sp, 24]
	str	x0, [sp, 80]
	nop
.L193:
	add	x0, sp, 48
	ldr	x1, [sp, 24]
	bl	_ZZNSt7__cxx1112basic_stringIcSt11char_traitsIcESaIcEE12_M_constructIPKcEEvT_S8_St20forward_iterator_tagEN6_GuardC1EPS4_
	ldr	x0, [sp, 24]
	bl	_ZNKSt7__cxx1112basic_stringIcSt11char_traitsIcESaIcEE7_M_dataEv
	ldr	x2, [sp, 8]
	ldr	x1, [sp, 16]
	bl	_ZNSt7__cxx1112basic_stringIcSt11char_traitsIcESaIcEE13_S_copy_charsEPcPKcS7_
	str	xzr, [sp, 48]
	ldr	x0, [sp, 40]
	mov	x1, x0
	ldr	x0, [sp, 24]
	bl	_ZNSt7__cxx1112basic_stringIcSt11char_traitsIcESaIcEE13_M_set_lengthEm
	add	x0, sp, 48
	bl	_ZZNSt7__cxx1112basic_stringIcSt11char_traitsIcESaIcEE12_M_constructIPKcEEvT_S8_St20forward_iterator_tagEN6_GuardD1Ev
	adrp	x0, :got:__stack_chk_guard
	ldr	x0, [x0, :got_lo12:__stack_chk_guard]
	ldr	x2, [sp, 88]
	ldr	x1, [x0]
	subs	x2, x2, x1
	mov	x1, 0
	beq	.L194
	bl	__stack_chk_fail
.L194:
	ldp	x29, x30, [sp, 96]
	add	sp, sp, 112
	.cfi_restore 29
	.cfi_restore 30
	.cfi_def_cfa_offset 0
	ret
	.cfi_endproc
.LFE4623:
	.size	_ZNSt7__cxx1112basic_stringIcSt11char_traitsIcESaIcEE12_M_constructIPKcEEvT_S8_St20forward_iterator_tag, .-_ZNSt7__cxx1112basic_stringIcSt11char_traitsIcESaIcEE12_M_constructIPKcEEvT_S8_St20forward_iterator_tag
	.section	.text._ZNSt12_Vector_baseIiSaIiEE17_Vector_impl_dataC2Ev,"axG",@progbits,_ZNSt12_Vector_baseIiSaIiEE17_Vector_impl_dataC5Ev,comdat
	.align	2
	.weak	_ZNSt12_Vector_baseIiSaIiEE17_Vector_impl_dataC2Ev
	.type	_ZNSt12_Vector_baseIiSaIiEE17_Vector_impl_dataC2Ev, %function
_ZNSt12_Vector_baseIiSaIiEE17_Vector_impl_dataC2Ev:
.LFB4762:
	.cfi_startproc
	sub	sp, sp, #16
	.cfi_def_cfa_offset 16
	str	x0, [sp, 8]
	ldr	x0, [sp, 8]
	str	xzr, [x0]
	ldr	x0, [sp, 8]
	str	xzr, [x0, 8]
	ldr	x0, [sp, 8]
	str	xzr, [x0, 16]
	nop
	add	sp, sp, 16
	.cfi_def_cfa_offset 0
	ret
	.cfi_endproc
.LFE4762:
	.size	_ZNSt12_Vector_baseIiSaIiEE17_Vector_impl_dataC2Ev, .-_ZNSt12_Vector_baseIiSaIiEE17_Vector_impl_dataC2Ev
	.weak	_ZNSt12_Vector_baseIiSaIiEE17_Vector_impl_dataC1Ev
	.set	_ZNSt12_Vector_baseIiSaIiEE17_Vector_impl_dataC1Ev,_ZNSt12_Vector_baseIiSaIiEE17_Vector_impl_dataC2Ev
	.section	.text._ZNSt15__new_allocatorIiED2Ev,"axG",@progbits,_ZNSt15__new_allocatorIiED5Ev,comdat
	.align	2
	.weak	_ZNSt15__new_allocatorIiED2Ev
	.type	_ZNSt15__new_allocatorIiED2Ev, %function
_ZNSt15__new_allocatorIiED2Ev:
.LFB4765:
	.cfi_startproc
	sub	sp, sp, #16
	.cfi_def_cfa_offset 16
	str	x0, [sp, 8]
	nop
	add	sp, sp, 16
	.cfi_def_cfa_offset 0
	ret
	.cfi_endproc
.LFE4765:
	.size	_ZNSt15__new_allocatorIiED2Ev, .-_ZNSt15__new_allocatorIiED2Ev
	.weak	_ZNSt15__new_allocatorIiED1Ev
	.set	_ZNSt15__new_allocatorIiED1Ev,_ZNSt15__new_allocatorIiED2Ev
	.section	.text._ZNSt12_Vector_baseIiSaIiEE13_M_deallocateEPim,"axG",@progbits,_ZNSt12_Vector_baseIiSaIiEE13_M_deallocateEPim,comdat
	.align	2
	.weak	_ZNSt12_Vector_baseIiSaIiEE13_M_deallocateEPim
	.type	_ZNSt12_Vector_baseIiSaIiEE13_M_deallocateEPim, %function
_ZNSt12_Vector_baseIiSaIiEE13_M_deallocateEPim:
.LFB4767:
	.cfi_startproc
	stp	x29, x30, [sp, -80]!
	.cfi_def_cfa_offset 80
	.cfi_offset 29, -80
	.cfi_offset 30, -72
	mov	x29, sp
	str	x0, [sp, 40]
	str	x1, [sp, 32]
	str	x2, [sp, 24]
	ldr	x0, [sp, 32]
	cmp	x0, 0
	beq	.L199
	ldr	x0, [sp, 40]
	str	x0, [sp, 56]
	ldr	x0, [sp, 32]
	str	x0, [sp, 64]
	ldr	x0, [sp, 24]
	str	x0, [sp, 72]
	ldr	x2, [sp, 72]
	ldr	x1, [sp, 64]
	ldr	x0, [sp, 56]
	bl	_ZNSt15__new_allocatorIiE10deallocateEPim
	nop
.L199:
	nop
	ldp	x29, x30, [sp], 80
	.cfi_restore 30
	.cfi_restore 29
	.cfi_def_cfa_offset 0
	ret
	.cfi_endproc
.LFE4767:
	.size	_ZNSt12_Vector_baseIiSaIiEE13_M_deallocateEPim, .-_ZNSt12_Vector_baseIiSaIiEE13_M_deallocateEPim
	.section	.text._ZNSt12_Vector_baseIiSaIiEE19_M_get_Tp_allocatorEv,"axG",@progbits,_ZNSt12_Vector_baseIiSaIiEE19_M_get_Tp_allocatorEv,comdat
	.align	2
	.weak	_ZNSt12_Vector_baseIiSaIiEE19_M_get_Tp_allocatorEv
	.type	_ZNSt12_Vector_baseIiSaIiEE19_M_get_Tp_allocatorEv, %function
_ZNSt12_Vector_baseIiSaIiEE19_M_get_Tp_allocatorEv:
.LFB4768:
	.cfi_startproc
	sub	sp, sp, #16
	.cfi_def_cfa_offset 16
	str	x0, [sp, 8]
	ldr	x0, [sp, 8]
	add	sp, sp, 16
	.cfi_def_cfa_offset 0
	ret
	.cfi_endproc
.LFE4768:
	.size	_ZNSt12_Vector_baseIiSaIiEE19_M_get_Tp_allocatorEv, .-_ZNSt12_Vector_baseIiSaIiEE19_M_get_Tp_allocatorEv
	.section	.text._ZSt4moveIRiEONSt16remove_referenceIT_E4typeEOS2_,"axG",@progbits,_ZSt4moveIRiEONSt16remove_referenceIT_E4typeEOS2_,comdat
	.align	2
	.weak	_ZSt4moveIRiEONSt16remove_referenceIT_E4typeEOS2_
	.type	_ZSt4moveIRiEONSt16remove_referenceIT_E4typeEOS2_, %function
_ZSt4moveIRiEONSt16remove_referenceIT_E4typeEOS2_:
.LFB4770:
	.cfi_startproc
	sub	sp, sp, #16
	.cfi_def_cfa_offset 16
	str	x0, [sp, 8]
	ldr	x0, [sp, 8]
	add	sp, sp, 16
	.cfi_def_cfa_offset 0
	ret
	.cfi_endproc
.LFE4770:
	.size	_ZSt4moveIRiEONSt16remove_referenceIT_E4typeEOS2_, .-_ZSt4moveIRiEONSt16remove_referenceIT_E4typeEOS2_
	.section	.text._ZNSt6vectorIiSaIiEE12emplace_backIJiEEERiDpOT_,"axG",@progbits,_ZNSt6vectorIiSaIiEE12emplace_backIJiEEERiDpOT_,comdat
	.align	2
	.weak	_ZNSt6vectorIiSaIiEE12emplace_backIJiEEERiDpOT_
	.type	_ZNSt6vectorIiSaIiEE12emplace_backIJiEEERiDpOT_, %function
_ZNSt6vectorIiSaIiEE12emplace_backIJiEEERiDpOT_:
.LFB4771:
	.cfi_startproc
	stp	x29, x30, [sp, -96]!
	.cfi_def_cfa_offset 96
	.cfi_offset 29, -96
	.cfi_offset 30, -88
	mov	x29, sp
	stp	x19, x20, [sp, 16]
	.cfi_offset 19, -80
	.cfi_offset 20, -72
	str	x0, [sp, 40]
	str	x1, [sp, 32]
	ldr	x0, [sp, 40]
	ldr	x1, [x0, 8]
	ldr	x0, [sp, 40]
	ldr	x0, [x0, 16]
	cmp	x1, x0
	beq	.L205
	ldr	x20, [sp, 40]
	ldr	x0, [sp, 40]
	ldr	x19, [x0, 8]
	ldr	x0, [sp, 32]
	bl	_ZSt7forwardIiEOT_RNSt16remove_referenceIS0_E4typeE
	str	x20, [sp, 48]
	str	x19, [sp, 56]
	str	x0, [sp, 64]
	ldr	x0, [sp, 64]
	bl	_ZSt7forwardIiEOT_RNSt16remove_referenceIS0_E4typeE
	mov	x1, x0
	ldr	x0, [sp, 48]
	str	x0, [sp, 72]
	ldr	x0, [sp, 56]
	str	x0, [sp, 80]
	str	x1, [sp, 88]
	ldr	x0, [sp, 80]
	mov	x1, x0
	mov	x0, 4
	bl	_ZnwmPv
	mov	x19, x0
	ldr	x0, [sp, 88]
	bl	_ZSt7forwardIiEOT_RNSt16remove_referenceIS0_E4typeE
	ldr	w0, [x0]
	str	w0, [x19]
	nop
	nop
	ldr	x0, [sp, 40]
	ldr	x0, [x0, 8]
	add	x1, x0, 4
	ldr	x0, [sp, 40]
	str	x1, [x0, 8]
	b	.L206
.L205:
	ldr	x0, [sp, 40]
	bl	_ZNSt6vectorIiSaIiEE3endEv
	mov	x19, x0
	ldr	x0, [sp, 32]
	bl	_ZSt7forwardIiEOT_RNSt16remove_referenceIS0_E4typeE
	mov	x2, x0
	mov	x1, x19
	ldr	x0, [sp, 40]
	bl	_ZNSt6vectorIiSaIiEE17_M_realloc_insertIJiEEEvN9__gnu_cxx17__normal_iteratorIPiS1_EEDpOT_
.L206:
	ldr	x0, [sp, 40]
	bl	_ZNSt6vectorIiSaIiEE4backEv
	ldp	x19, x20, [sp, 16]
	ldp	x29, x30, [sp], 96
	.cfi_restore 30
	.cfi_restore 29
	.cfi_restore 19
	.cfi_restore 20
	.cfi_def_cfa_offset 0
	ret
	.cfi_endproc
.LFE4771:
	.size	_ZNSt6vectorIiSaIiEE12emplace_backIJiEEERiDpOT_, .-_ZNSt6vectorIiSaIiEE12emplace_backIJiEEERiDpOT_
	.section	.text._ZNKSt16initializer_listIiE5beginEv,"axG",@progbits,_ZNKSt16initializer_listIiE5beginEv,comdat
	.align	2
	.weak	_ZNKSt16initializer_listIiE5beginEv
	.type	_ZNKSt16initializer_listIiE5beginEv, %function
_ZNKSt16initializer_listIiE5beginEv:
.LFB4773:
	.cfi_startproc
	sub	sp, sp, #16
	.cfi_def_cfa_offset 16
	str	x0, [sp, 8]
	ldr	x0, [sp, 8]
	ldr	x0, [x0]
	add	sp, sp, 16
	.cfi_def_cfa_offset 0
	ret
	.cfi_endproc
.LFE4773:
	.size	_ZNKSt16initializer_listIiE5beginEv, .-_ZNKSt16initializer_listIiE5beginEv
	.section	.text._ZNKSt16initializer_listIiE3endEv,"axG",@progbits,_ZNKSt16initializer_listIiE3endEv,comdat
	.align	2
	.weak	_ZNKSt16initializer_listIiE3endEv
	.type	_ZNKSt16initializer_listIiE3endEv, %function
_ZNKSt16initializer_listIiE3endEv:
.LFB4774:
	.cfi_startproc
	stp	x29, x30, [sp, -48]!
	.cfi_def_cfa_offset 48
	.cfi_offset 29, -48
	.cfi_offset 30, -40
	mov	x29, sp
	str	x19, [sp, 16]
	.cfi_offset 19, -32
	str	x0, [sp, 40]
	ldr	x0, [sp, 40]
	bl	_ZNKSt16initializer_listIiE5beginEv
	mov	x19, x0
	ldr	x0, [sp, 40]
	bl	_ZNKSt16initializer_listIiE4sizeEv
	lsl	x0, x0, 2
	add	x0, x19, x0
	ldr	x19, [sp, 16]
	ldp	x29, x30, [sp], 48
	.cfi_restore 30
	.cfi_restore 29
	.cfi_restore 19
	.cfi_def_cfa_offset 0
	ret
	.cfi_endproc
.LFE4774:
	.size	_ZNKSt16initializer_listIiE3endEv, .-_ZNKSt16initializer_listIiE3endEv
	.section	.text._ZNSt6vectorIiSaIiEE13_M_assign_auxIPKiEEvT_S5_St20forward_iterator_tag,"axG",@progbits,_ZNSt6vectorIiSaIiEE13_M_assign_auxIPKiEEvT_S5_St20forward_iterator_tag,comdat
	.align	2
	.weak	_ZNSt6vectorIiSaIiEE13_M_assign_auxIPKiEEvT_S5_St20forward_iterator_tag
	.type	_ZNSt6vectorIiSaIiEE13_M_assign_auxIPKiEEvT_S5_St20forward_iterator_tag, %function
_ZNSt6vectorIiSaIiEE13_M_assign_auxIPKiEEvT_S5_St20forward_iterator_tag:
.LFB4775:
	.cfi_startproc
	sub	sp, sp, #176
	.cfi_def_cfa_offset 176
	stp	x29, x30, [sp, 144]
	.cfi_offset 29, -32
	.cfi_offset 30, -24
	add	x29, sp, 144
	stp	x19, x20, [sp, 160]
	.cfi_offset 19, -16
	.cfi_offset 20, -8
	str	x0, [sp, 24]
	str	x1, [sp, 16]
	str	x2, [sp, 8]
	strb	w3, [sp]
	adrp	x0, :got:__stack_chk_guard
	ldr	x0, [x0, :got_lo12:__stack_chk_guard]
	ldr	x1, [x0]
	str	x1, [sp, 136]
	mov	x1, 0
	ldr	x0, [sp, 16]
	str	x0, [sp, 32]
	ldr	x0, [sp, 8]
	str	x0, [sp, 64]
	ldr	x0, [sp, 32]
	nop
	str	x0, [sp, 72]
	ldr	x0, [sp, 64]
	str	x0, [sp, 80]
	ldr	x1, [sp, 80]
	ldr	x0, [sp, 72]
	sub	x0, x1, x0
	asr	x0, x0, 2
	nop
	str	x0, [sp, 40]
	ldr	x0, [sp, 24]
	bl	_ZNKSt6vectorIiSaIiEE8capacityEv
	mov	x1, x0
	ldr	x0, [sp, 40]
	cmp	x0, x1
	cset	w0, hi
	and	w0, w0, 255
	and	w0, w0, 1
	cmp	w0, 0
	beq	.L216
	ldr	x0, [sp, 24]
	bl	_ZNSt12_Vector_baseIiSaIiEE19_M_get_Tp_allocatorEv
	mov	x1, x0
	ldr	x0, [sp, 40]
	bl	_ZNSt6vectorIiSaIiEE17_S_check_init_lenEmRKS0_
	ldr	x3, [sp, 8]
	ldr	x2, [sp, 16]
	ldr	x1, [sp, 40]
	ldr	x0, [sp, 24]
	bl	_ZNSt6vectorIiSaIiEE20_M_allocate_and_copyIPKiEEPimT_S6_
	str	x0, [sp, 56]
	ldr	x0, [sp, 24]
	ldr	x20, [x0]
	ldr	x0, [sp, 24]
	ldr	x19, [x0, 8]
	ldr	x0, [sp, 24]
	bl	_ZNSt12_Vector_baseIiSaIiEE19_M_get_Tp_allocatorEv
	str	x20, [sp, 88]
	str	x19, [sp, 96]
	str	x0, [sp, 104]
	ldr	x1, [sp, 96]
	ldr	x0, [sp, 88]
	bl	_ZSt8_DestroyIPiEvT_S1_
	nop
	ldr	x3, [sp, 24]
	ldr	x0, [sp, 24]
	ldr	x4, [x0]
	ldr	x0, [sp, 24]
	ldr	x1, [x0, 16]
	ldr	x0, [sp, 24]
	ldr	x0, [x0]
	sub	x0, x1, x0
	asr	x0, x0, 2
	mov	x2, x0
	mov	x1, x4
	mov	x0, x3
	bl	_ZNSt12_Vector_baseIiSaIiEE13_M_deallocateEPim
	ldr	x0, [sp, 24]
	ldr	x1, [sp, 56]
	str	x1, [x0]
	ldr	x0, [sp, 24]
	ldr	x1, [x0]
	ldr	x0, [sp, 40]
	lsl	x0, x0, 2
	add	x1, x1, x0
	ldr	x0, [sp, 24]
	str	x1, [x0, 8]
	ldr	x0, [sp, 24]
	ldr	x1, [x0, 8]
	ldr	x0, [sp, 24]
	str	x1, [x0, 16]
	b	.L221
.L216:
	ldr	x0, [sp, 24]
	bl	_ZNKSt6vectorIiSaIiEE4sizeEv
	mov	x1, x0
	ldr	x0, [sp, 40]
	cmp	x0, x1
	cset	w0, ls
	and	w0, w0, 255
	and	w0, w0, 1
	cmp	w0, 0
	beq	.L218
	ldr	x0, [sp, 24]
	ldr	x0, [x0]
	mov	x2, x0
	ldr	x1, [sp, 8]
	ldr	x0, [sp, 16]
	bl	_ZSt4copyIPKiPiET0_T_S4_S3_
	mov	x1, x0
	ldr	x0, [sp, 24]
	bl	_ZNSt6vectorIiSaIiEE15_M_erase_at_endEPi
	b	.L221
.L218:
	ldr	x0, [sp, 16]
	str	x0, [sp, 32]
	ldr	x0, [sp, 24]
	bl	_ZNKSt6vectorIiSaIiEE4sizeEv
	str	x0, [sp, 112]
	ldr	x0, [sp, 112]
	str	x0, [sp, 120]
	add	x0, sp, 32
	str	x0, [sp, 128]
	nop
	add	x0, sp, 32
	mov	w2, w19
	ldr	x1, [sp, 120]
	bl	_ZSt9__advanceIPKilEvRT_T0_St26random_access_iterator_tag
	nop
	ldr	x1, [sp, 32]
	ldr	x0, [sp, 24]
	ldr	x0, [x0]
	mov	x2, x0
	ldr	x0, [sp, 16]
	bl	_ZSt4copyIPKiPiET0_T_S4_S3_
	ldr	x0, [sp, 24]
	bl	_ZNKSt6vectorIiSaIiEE4sizeEv
	mov	x1, x0
	ldr	x0, [sp, 40]
	sub	x0, x0, x1
	str	x0, [sp, 48]
	ldr	x19, [sp, 32]
	ldr	x0, [sp, 24]
	ldr	x20, [x0, 8]
	ldr	x0, [sp, 24]
	bl	_ZNSt12_Vector_baseIiSaIiEE19_M_get_Tp_allocatorEv
	mov	x3, x0
	mov	x2, x20
	ldr	x1, [sp, 8]
	mov	x0, x19
	bl	_ZSt22__uninitialized_copy_aIPKiPiiET0_T_S4_S3_RSaIT1_E
	mov	x1, x0
	ldr	x0, [sp, 24]
	str	x1, [x0, 8]
.L221:
	nop
	adrp	x0, :got:__stack_chk_guard
	ldr	x0, [x0, :got_lo12:__stack_chk_guard]
	ldr	x2, [sp, 136]
	ldr	x1, [x0]
	subs	x2, x2, x1
	mov	x1, 0
	beq	.L220
	bl	__stack_chk_fail
.L220:
	ldp	x19, x20, [sp, 160]
	ldp	x29, x30, [sp, 144]
	add	sp, sp, 176
	.cfi_restore 29
	.cfi_restore 30
	.cfi_restore 19
	.cfi_restore 20
	.cfi_def_cfa_offset 0
	ret
	.cfi_endproc
.LFE4775:
	.size	_ZNSt6vectorIiSaIiEE13_M_assign_auxIPKiEEvT_S5_St20forward_iterator_tag, .-_ZNSt6vectorIiSaIiEE13_M_assign_auxIPKiEEvT_S5_St20forward_iterator_tag
	.section	.text._ZNSt23mersenne_twister_engineImLm32ELm624ELm397ELm31ELm2567483615ELm11ELm4294967295ELm7ELm2636928640ELm15ELm4022730752ELm18ELm1812433253EE4seedEm,"axG",@progbits,_ZNSt23mersenne_twister_engineImLm32ELm624ELm397ELm31ELm2567483615ELm11ELm4294967295ELm7ELm2636928640ELm15ELm4022730752ELm18ELm1812433253EE4seedEm,comdat
	.align	2
	.weak	_ZNSt23mersenne_twister_engineImLm32ELm624ELm397ELm31ELm2567483615ELm11ELm4294967295ELm7ELm2636928640ELm15ELm4022730752ELm18ELm1812433253EE4seedEm
	.type	_ZNSt23mersenne_twister_engineImLm32ELm624ELm397ELm31ELm2567483615ELm11ELm4294967295ELm7ELm2636928640ELm15ELm4022730752ELm18ELm1812433253EE4seedEm, %function
_ZNSt23mersenne_twister_engineImLm32ELm624ELm397ELm31ELm2567483615ELm11ELm4294967295ELm7ELm2636928640ELm15ELm4022730752ELm18ELm1812433253EE4seedEm:
.LFB4777:
	.cfi_startproc
	stp	x29, x30, [sp, -48]!
	.cfi_def_cfa_offset 48
	.cfi_offset 29, -48
	.cfi_offset 30, -40
	mov	x29, sp
	str	x0, [sp, 24]
	str	x1, [sp, 16]
	ldr	x0, [sp, 16]
	bl	_ZNSt8__detail5__modImLm4294967296ELm1ELm0EEET_S1_
	mov	x1, x0
	ldr	x0, [sp, 24]
	str	x1, [x0]
	mov	x0, 1
	str	x0, [sp, 32]
	b	.L223
.L224:
	ldr	x0, [sp, 32]
	sub	x1, x0, #1
	ldr	x0, [sp, 24]
	ldr	x0, [x0, x1, lsl 3]
	str	x0, [sp, 40]
	ldr	x0, [sp, 40]
	lsr	x0, x0, 30
	ldr	x1, [sp, 40]
	eor	x0, x1, x0
	str	x0, [sp, 40]
	ldr	x1, [sp, 40]
	mov	x0, 35173
	movk	x0, 0x6c07, lsl 16
	mul	x0, x1, x0
	str	x0, [sp, 40]
	ldr	x0, [sp, 32]
	bl	_ZNSt8__detail5__modImLm624ELm1ELm0EEET_S1_
	mov	x1, x0
	ldr	x0, [sp, 40]
	add	x0, x0, x1
	str	x0, [sp, 40]
	ldr	x0, [sp, 40]
	bl	_ZNSt8__detail5__modImLm4294967296ELm1ELm0EEET_S1_
	mov	x2, x0
	ldr	x0, [sp, 24]
	ldr	x1, [sp, 32]
	str	x2, [x0, x1, lsl 3]
	ldr	x0, [sp, 32]
	add	x0, x0, 1
	str	x0, [sp, 32]
.L223:
	ldr	x0, [sp, 32]
	cmp	x0, 623
	bls	.L224
	ldr	x0, [sp, 24]
	mov	x1, 624
	str	x1, [x0, 4992]
	nop
	ldp	x29, x30, [sp], 48
	.cfi_restore 30
	.cfi_restore 29
	.cfi_def_cfa_offset 0
	ret
	.cfi_endproc
.LFE4777:
	.size	_ZNSt23mersenne_twister_engineImLm32ELm624ELm397ELm31ELm2567483615ELm11ELm4294967295ELm7ELm2636928640ELm15ELm4022730752ELm18ELm1812433253EE4seedEm, .-_ZNSt23mersenne_twister_engineImLm32ELm624ELm397ELm31ELm2567483615ELm11ELm4294967295ELm7ELm2636928640ELm15ELm4022730752ELm18ELm1812433253EE4seedEm
	.section	.rodata
	.align	3
.LC34:
	.string	"cannot create std::vector larger than max_size()"
	.section	.text._ZNSt6vectorIiSaIiEE17_S_check_init_lenEmRKS0_,"axG",@progbits,_ZNSt6vectorIiSaIiEE17_S_check_init_lenEmRKS0_,comdat
	.align	2
	.weak	_ZNSt6vectorIiSaIiEE17_S_check_init_lenEmRKS0_
	.type	_ZNSt6vectorIiSaIiEE17_S_check_init_lenEmRKS0_, %function
_ZNSt6vectorIiSaIiEE17_S_check_init_lenEmRKS0_:
.LFB4825:
	.cfi_startproc
	sub	sp, sp, #96
	.cfi_def_cfa_offset 96
	stp	x29, x30, [sp, 64]
	.cfi_offset 29, -32
	.cfi_offset 30, -24
	add	x29, sp, 64
	str	x19, [sp, 80]
	.cfi_offset 19, -16
	str	x0, [sp, 8]
	str	x1, [sp]
	adrp	x0, :got:__stack_chk_guard
	ldr	x0, [x0, :got_lo12:__stack_chk_guard]
	ldr	x1, [x0]
	str	x1, [sp, 56]
	mov	x1, 0
	ldr	x0, [sp]
	str	x0, [sp, 32]
	add	x0, sp, 24
	str	x0, [sp, 40]
	ldr	x0, [sp, 32]
	str	x0, [sp, 48]
	nop
	nop
	add	x0, sp, 24
	bl	_ZNSt6vectorIiSaIiEE11_S_max_sizeERKS0_
	mov	x1, x0
	ldr	x0, [sp, 8]
	cmp	x0, x1
	cset	w0, hi
	and	w19, w0, 255
	add	x0, sp, 24
	bl	_ZNSt15__new_allocatorIiED2Ev
	nop
	and	w0, w19, 1
	cmp	w0, 0
	beq	.L226
	adrp	x0, :got:__stack_chk_guard
	ldr	x0, [x0, :got_lo12:__stack_chk_guard]
	ldr	x2, [sp, 56]
	ldr	x1, [x0]
	subs	x2, x2, x1
	mov	x1, 0
	beq	.L227
	bl	__stack_chk_fail
.L227:
	adrp	x0, .LC34
	add	x0, x0, :lo12:.LC34
	bl	_ZSt20__throw_length_errorPKc
.L226:
	ldr	x0, [sp, 8]
	mov	x1, x0
	adrp	x0, :got:__stack_chk_guard
	ldr	x0, [x0, :got_lo12:__stack_chk_guard]
	ldr	x3, [sp, 56]
	ldr	x2, [x0]
	subs	x3, x3, x2
	mov	x2, 0
	beq	.L229
	bl	__stack_chk_fail
.L229:
	mov	x0, x1
	ldr	x19, [sp, 80]
	ldp	x29, x30, [sp, 64]
	add	sp, sp, 96
	.cfi_restore 29
	.cfi_restore 30
	.cfi_restore 19
	.cfi_def_cfa_offset 0
	ret
	.cfi_endproc
.LFE4825:
	.size	_ZNSt6vectorIiSaIiEE17_S_check_init_lenEmRKS0_, .-_ZNSt6vectorIiSaIiEE17_S_check_init_lenEmRKS0_
	.section	.text._ZNSt12_Vector_baseIiSaIiEEC2EmRKS0_,"axG",@progbits,_ZNSt12_Vector_baseIiSaIiEEC5EmRKS0_,comdat
	.align	2
	.weak	_ZNSt12_Vector_baseIiSaIiEEC2EmRKS0_
	.type	_ZNSt12_Vector_baseIiSaIiEEC2EmRKS0_, %function
_ZNSt12_Vector_baseIiSaIiEEC2EmRKS0_:
.LFB4827:
	.cfi_startproc
	.cfi_personality 0x9b,DW.ref.__gxx_personality_v0
	.cfi_lsda 0x1b,.LLSDA4827
	stp	x29, x30, [sp, -64]!
	.cfi_def_cfa_offset 64
	.cfi_offset 29, -64
	.cfi_offset 30, -56
	mov	x29, sp
	str	x19, [sp, 16]
	.cfi_offset 19, -48
	str	x0, [sp, 56]
	str	x1, [sp, 48]
	str	x2, [sp, 40]
	ldr	x0, [sp, 56]
	ldr	x1, [sp, 40]
	bl	_ZNSt12_Vector_baseIiSaIiEE12_Vector_implC1ERKS0_
	ldr	x1, [sp, 48]
	ldr	x0, [sp, 56]
.LEHB27:
	bl	_ZNSt12_Vector_baseIiSaIiEE17_M_create_storageEm
.LEHE27:
	b	.L233
.L232:
	mov	x19, x0
	ldr	x0, [sp, 56]
	bl	_ZNSt12_Vector_baseIiSaIiEE12_Vector_implD1Ev
	mov	x0, x19
.LEHB28:
	bl	_Unwind_Resume
.LEHE28:
.L233:
	ldr	x19, [sp, 16]
	ldp	x29, x30, [sp], 64
	.cfi_restore 30
	.cfi_restore 29
	.cfi_restore 19
	.cfi_def_cfa_offset 0
	ret
	.cfi_endproc
.LFE4827:
	.section	.gcc_except_table
.LLSDA4827:
	.byte	0xff
	.byte	0xff
	.byte	0x1
	.uleb128 .LLSDACSE4827-.LLSDACSB4827
.LLSDACSB4827:
	.uleb128 .LEHB27-.LFB4827
	.uleb128 .LEHE27-.LEHB27
	.uleb128 .L232-.LFB4827
	.uleb128 0
	.uleb128 .LEHB28-.LFB4827
	.uleb128 .LEHE28-.LEHB28
	.uleb128 0
	.uleb128 0
.LLSDACSE4827:
	.section	.text._ZNSt12_Vector_baseIiSaIiEEC2EmRKS0_,"axG",@progbits,_ZNSt12_Vector_baseIiSaIiEEC5EmRKS0_,comdat
	.size	_ZNSt12_Vector_baseIiSaIiEEC2EmRKS0_, .-_ZNSt12_Vector_baseIiSaIiEEC2EmRKS0_
	.weak	_ZNSt12_Vector_baseIiSaIiEEC1EmRKS0_
	.set	_ZNSt12_Vector_baseIiSaIiEEC1EmRKS0_,_ZNSt12_Vector_baseIiSaIiEEC2EmRKS0_
	.section	.text._ZNSt6vectorIiSaIiEE21_M_default_initializeEm,"axG",@progbits,_ZNSt6vectorIiSaIiEE21_M_default_initializeEm,comdat
	.align	2
	.weak	_ZNSt6vectorIiSaIiEE21_M_default_initializeEm
	.type	_ZNSt6vectorIiSaIiEE21_M_default_initializeEm, %function
_ZNSt6vectorIiSaIiEE21_M_default_initializeEm:
.LFB4829:
	.cfi_startproc
	stp	x29, x30, [sp, -48]!
	.cfi_def_cfa_offset 48
	.cfi_offset 29, -48
	.cfi_offset 30, -40
	mov	x29, sp
	str	x19, [sp, 16]
	.cfi_offset 19, -32
	str	x0, [sp, 40]
	str	x1, [sp, 32]
	ldr	x0, [sp, 40]
	ldr	x19, [x0]
	ldr	x0, [sp, 40]
	bl	_ZNSt12_Vector_baseIiSaIiEE19_M_get_Tp_allocatorEv
	mov	x2, x0
	ldr	x1, [sp, 32]
	mov	x0, x19
	bl	_ZSt27__uninitialized_default_n_aIPimiET_S1_T0_RSaIT1_E
	mov	x1, x0
	ldr	x0, [sp, 40]
	str	x1, [x0, 8]
	nop
	ldr	x19, [sp, 16]
	ldp	x29, x30, [sp], 48
	.cfi_restore 30
	.cfi_restore 29
	.cfi_restore 19
	.cfi_def_cfa_offset 0
	ret
	.cfi_endproc
.LFE4829:
	.size	_ZNSt6vectorIiSaIiEE21_M_default_initializeEm, .-_ZNSt6vectorIiSaIiEE21_M_default_initializeEm
	.section	.text._ZNSt24uniform_int_distributionIiE10param_typeC2Eii,"axG",@progbits,_ZNSt24uniform_int_distributionIiE10param_typeC5Eii,comdat
	.align	2
	.weak	_ZNSt24uniform_int_distributionIiE10param_typeC2Eii
	.type	_ZNSt24uniform_int_distributionIiE10param_typeC2Eii, %function
_ZNSt24uniform_int_distributionIiE10param_typeC2Eii:
.LFB4831:
	.cfi_startproc
	stp	x29, x30, [sp, -32]!
	.cfi_def_cfa_offset 32
	.cfi_offset 29, -32
	.cfi_offset 30, -24
	mov	x29, sp
	str	x0, [sp, 24]
	str	w1, [sp, 20]
	str	w2, [sp, 16]
	ldr	x0, [sp, 24]
	ldr	w1, [sp, 20]
	str	w1, [x0]
	ldr	x0, [sp, 24]
	ldr	w1, [sp, 16]
	str	w1, [x0, 4]
	bl	_ZSt23__is_constant_evaluatedv
	and	w0, w0, 255
	and	w0, w0, 1
	cmp	w0, 0
	beq	.L236
	ldr	x0, [sp, 24]
	ldr	w1, [x0]
	ldr	x0, [sp, 24]
	ldr	w0, [x0, 4]
	cmp	w1, w0
	ble	.L236
	mov	w0, 1
	b	.L237
.L236:
	mov	w0, 0
.L237:
	and	w0, w0, 1
	cmp	w0, 0
	nop
	ldp	x29, x30, [sp], 32
	.cfi_restore 30
	.cfi_restore 29
	.cfi_def_cfa_offset 0
	ret
	.cfi_endproc
.LFE4831:
	.size	_ZNSt24uniform_int_distributionIiE10param_typeC2Eii, .-_ZNSt24uniform_int_distributionIiE10param_typeC2Eii
	.weak	_ZNSt24uniform_int_distributionIiE10param_typeC1Eii
	.set	_ZNSt24uniform_int_distributionIiE10param_typeC1Eii,_ZNSt24uniform_int_distributionIiE10param_typeC2Eii
	.section	.text._ZN9__gnu_cxx17__normal_iteratorIPiSt6vectorIiSaIiEEEC2ERKS1_,"axG",@progbits,_ZN9__gnu_cxx17__normal_iteratorIPiSt6vectorIiSaIiEEEC5ERKS1_,comdat
	.align	2
	.weak	_ZN9__gnu_cxx17__normal_iteratorIPiSt6vectorIiSaIiEEEC2ERKS1_
	.type	_ZN9__gnu_cxx17__normal_iteratorIPiSt6vectorIiSaIiEEEC2ERKS1_, %function
_ZN9__gnu_cxx17__normal_iteratorIPiSt6vectorIiSaIiEEEC2ERKS1_:
.LFB4834:
	.cfi_startproc
	sub	sp, sp, #16
	.cfi_def_cfa_offset 16
	str	x0, [sp, 8]
	str	x1, [sp]
	ldr	x0, [sp]
	ldr	x1, [x0]
	ldr	x0, [sp, 8]
	str	x1, [x0]
	nop
	add	sp, sp, 16
	.cfi_def_cfa_offset 0
	ret
	.cfi_endproc
.LFE4834:
	.size	_ZN9__gnu_cxx17__normal_iteratorIPiSt6vectorIiSaIiEEEC2ERKS1_, .-_ZN9__gnu_cxx17__normal_iteratorIPiSt6vectorIiSaIiEEEC2ERKS1_
	.weak	_ZN9__gnu_cxx17__normal_iteratorIPiSt6vectorIiSaIiEEEC1ERKS1_
	.set	_ZN9__gnu_cxx17__normal_iteratorIPiSt6vectorIiSaIiEEEC1ERKS1_,_ZN9__gnu_cxx17__normal_iteratorIPiSt6vectorIiSaIiEEEC2ERKS1_
	.section	.text._ZNK9__gnu_cxx17__normal_iteratorIPiSt6vectorIiSaIiEEE4baseEv,"axG",@progbits,_ZNK9__gnu_cxx17__normal_iteratorIPiSt6vectorIiSaIiEEE4baseEv,comdat
	.align	2
	.weak	_ZNK9__gnu_cxx17__normal_iteratorIPiSt6vectorIiSaIiEEE4baseEv
	.type	_ZNK9__gnu_cxx17__normal_iteratorIPiSt6vectorIiSaIiEEE4baseEv, %function
_ZNK9__gnu_cxx17__normal_iteratorIPiSt6vectorIiSaIiEEE4baseEv:
.LFB4836:
	.cfi_startproc
	sub	sp, sp, #16
	.cfi_def_cfa_offset 16
	str	x0, [sp, 8]
	ldr	x0, [sp, 8]
	add	sp, sp, 16
	.cfi_def_cfa_offset 0
	ret
	.cfi_endproc
.LFE4836:
	.size	_ZNK9__gnu_cxx17__normal_iteratorIPiSt6vectorIiSaIiEEE4baseEv, .-_ZNK9__gnu_cxx17__normal_iteratorIPiSt6vectorIiSaIiEEE4baseEv
	.section	.text._ZNSt24uniform_int_distributionIiEclISt23mersenne_twister_engineImLm32ELm624ELm397ELm31ELm2567483615ELm11ELm4294967295ELm7ELm2636928640ELm15ELm4022730752ELm18ELm1812433253EEEEiRT_RKNS0_10param_typeE,"axG",@progbits,_ZNSt24uniform_int_distributionIiEclISt23mersenne_twister_engineImLm32ELm624ELm397ELm31ELm2567483615ELm11ELm4294967295ELm7ELm2636928640ELm15ELm4022730752ELm18ELm1812433253EEEEiRT_RKNS0_10param_typeE,comdat
	.align	2
	.weak	_ZNSt24uniform_int_distributionIiEclISt23mersenne_twister_engineImLm32ELm624ELm397ELm31ELm2567483615ELm11ELm4294967295ELm7ELm2636928640ELm15ELm4022730752ELm18ELm1812433253EEEEiRT_RKNS0_10param_typeE
	.type	_ZNSt24uniform_int_distributionIiEclISt23mersenne_twister_engineImLm32ELm624ELm397ELm31ELm2567483615ELm11ELm4294967295ELm7ELm2636928640ELm15ELm4022730752ELm18ELm1812433253EEEEiRT_RKNS0_10param_typeE, %function
_ZNSt24uniform_int_distributionIiEclISt23mersenne_twister_engineImLm32ELm624ELm397ELm31ELm2567483615ELm11ELm4294967295ELm7ELm2636928640ELm15ELm4022730752ELm18ELm1812433253EEEEiRT_RKNS0_10param_typeE:
.LFB4837:
	.cfi_startproc
	sub	sp, sp, #160
	.cfi_def_cfa_offset 160
	stp	x29, x30, [sp, 128]
	.cfi_offset 29, -32
	.cfi_offset 30, -24
	add	x29, sp, 128
	str	x19, [sp, 144]
	.cfi_offset 19, -16
	str	x0, [sp, 24]
	str	x1, [sp, 16]
	str	x2, [sp, 8]
	adrp	x0, :got:__stack_chk_guard
	ldr	x0, [x0, :got_lo12:__stack_chk_guard]
	ldr	x1, [x0]
	str	x1, [sp, 120]
	mov	x1, 0
	str	xzr, [sp, 64]
	mov	x0, 4294967295
	str	x0, [sp, 72]
	mov	x0, 4294967295
	str	x0, [sp, 80]
	ldr	x0, [sp, 8]
	bl	_ZNKSt24uniform_int_distributionIiE10param_type1bEv
	sxtw	x19, w0
	ldr	x0, [sp, 8]
	bl	_ZNKSt24uniform_int_distributionIiE10param_type1aEv
	sxtw	x0, w0
	sub	x0, x19, x0
	str	x0, [sp, 88]
	ldr	x1, [sp, 88]
	mov	x0, 4294967294
	cmp	x1, x0
	bhi	.L243
	ldr	x0, [sp, 88]
	add	x0, x0, 1
	str	x0, [sp, 112]
	ldr	x0, [sp, 112]
	str	w0, [sp, 44]
	ldr	w1, [sp, 44]
	ldr	x0, [sp, 16]
	bl	_ZNSt24uniform_int_distributionIiE5_S_ndImSt23mersenne_twister_engineImLm32ELm624ELm397ELm31ELm2567483615ELm11ELm4294967295ELm7ELm2636928640ELm15ELm4022730752ELm18ELm1812433253EEjEET1_RT0_S4_
	uxtw	x0, w0
	str	x0, [sp, 56]
	b	.L244
.L243:
	ldr	x1, [sp, 88]
	mov	x0, 4294967295
	cmp	x1, x0
	bhi	.L245
	b	.L250
.L245:
	mov	x0, 4294967296
	str	x0, [sp, 96]
	ldr	x0, [sp, 88]
	lsr	x0, x0, 32
	mov	w1, w0
	add	x0, sp, 48
	mov	w2, w1
	mov	w1, 0
	bl	_ZNSt24uniform_int_distributionIiE10param_typeC1Eii
	add	x0, sp, 48
	mov	x2, x0
	ldr	x1, [sp, 16]
	ldr	x0, [sp, 24]
	bl	_ZNSt24uniform_int_distributionIiEclISt23mersenne_twister_engineImLm32ELm624ELm397ELm31ELm2567483615ELm11ELm4294967295ELm7ELm2636928640ELm15ELm4022730752ELm18ELm1812433253EEEEiRT_RKNS0_10param_typeE
	sxtw	x0, w0
	lsl	x0, x0, 32
	str	x0, [sp, 104]
	ldr	x0, [sp, 16]
	bl	_ZNSt23mersenne_twister_engineImLm32ELm624ELm397ELm31ELm2567483615ELm11ELm4294967295ELm7ELm2636928640ELm15ELm4022730752ELm18ELm1812433253EEclEv
	mov	x1, x0
	ldr	x0, [sp, 104]
	add	x0, x0, x1
	str	x0, [sp, 56]
	ldr	x1, [sp, 56]
	ldr	x0, [sp, 88]
	cmp	x1, x0
	bhi	.L245
	ldr	x1, [sp, 56]
	ldr	x0, [sp, 104]
	cmp	x1, x0
	bcc	.L245
	b	.L244
.L250:
	ldr	x0, [sp, 16]
	bl	_ZNSt23mersenne_twister_engineImLm32ELm624ELm397ELm31ELm2567483615ELm11ELm4294967295ELm7ELm2636928640ELm15ELm4022730752ELm18ELm1812433253EEclEv
	str	x0, [sp, 56]
.L244:
	ldr	x0, [sp, 8]
	bl	_ZNKSt24uniform_int_distributionIiE10param_type1aEv
	mov	w1, w0
	ldr	x0, [sp, 56]
	add	w0, w1, w0
	mov	w1, w0
	adrp	x0, :got:__stack_chk_guard
	ldr	x0, [x0, :got_lo12:__stack_chk_guard]
	ldr	x3, [sp, 120]
	ldr	x2, [x0]
	subs	x3, x3, x2
	mov	x2, 0
	beq	.L249
	bl	__stack_chk_fail
.L249:
	mov	w0, w1
	ldr	x19, [sp, 144]
	ldp	x29, x30, [sp, 128]
	add	sp, sp, 160
	.cfi_restore 29
	.cfi_restore 30
	.cfi_restore 19
	.cfi_def_cfa_offset 0
	ret
	.cfi_endproc
.LFE4837:
	.size	_ZNSt24uniform_int_distributionIiEclISt23mersenne_twister_engineImLm32ELm624ELm397ELm31ELm2567483615ELm11ELm4294967295ELm7ELm2636928640ELm15ELm4022730752ELm18ELm1812433253EEEEiRT_RKNS0_10param_typeE, .-_ZNSt24uniform_int_distributionIiEclISt23mersenne_twister_engineImLm32ELm624ELm397ELm31ELm2567483615ELm11ELm4294967295ELm7ELm2636928640ELm15ELm4022730752ELm18ELm1812433253EEEEiRT_RKNS0_10param_typeE
	.section	.text._ZNSt6chronomiINS_3_V212system_clockENS_8durationIlSt5ratioILl1ELl1000000000EEEES6_EENSt11common_typeIJT0_T1_EE4typeERKNS_10time_pointIT_S8_EERKNSC_ISD_S9_EE,"axG",@progbits,_ZNSt6chronomiINS_3_V212system_clockENS_8durationIlSt5ratioILl1ELl1000000000EEEES6_EENSt11common_typeIJT0_T1_EE4typeERKNS_10time_pointIT_S8_EERKNSC_ISD_S9_EE,comdat
	.align	2
	.weak	_ZNSt6chronomiINS_3_V212system_clockENS_8durationIlSt5ratioILl1ELl1000000000EEEES6_EENSt11common_typeIJT0_T1_EE4typeERKNS_10time_pointIT_S8_EERKNSC_ISD_S9_EE
	.type	_ZNSt6chronomiINS_3_V212system_clockENS_8durationIlSt5ratioILl1ELl1000000000EEEES6_EENSt11common_typeIJT0_T1_EE4typeERKNS_10time_pointIT_S8_EERKNSC_ISD_S9_EE, %function
_ZNSt6chronomiINS_3_V212system_clockENS_8durationIlSt5ratioILl1ELl1000000000EEEES6_EENSt11common_typeIJT0_T1_EE4typeERKNS_10time_pointIT_S8_EERKNSC_ISD_S9_EE:
.LFB4840:
	.cfi_startproc
	sub	sp, sp, #64
	.cfi_def_cfa_offset 64
	stp	x29, x30, [sp, 48]
	.cfi_offset 29, -16
	.cfi_offset 30, -8
	add	x29, sp, 48
	str	x0, [sp, 8]
	str	x1, [sp]
	adrp	x0, :got:__stack_chk_guard
	ldr	x0, [x0, :got_lo12:__stack_chk_guard]
	ldr	x1, [x0]
	str	x1, [sp, 40]
	mov	x1, 0
	ldr	x0, [sp, 8]
	bl	_ZNKSt6chrono10time_pointINS_3_V212system_clockENS_8durationIlSt5ratioILl1ELl1000000000EEEEE16time_since_epochEv
	str	x0, [sp, 24]
	ldr	x0, [sp]
	bl	_ZNKSt6chrono10time_pointINS_3_V212system_clockENS_8durationIlSt5ratioILl1ELl1000000000EEEEE16time_since_epochEv
	str	x0, [sp, 32]
	add	x1, sp, 32
	add	x0, sp, 24
	bl	_ZNSt6chronomiIlSt5ratioILl1ELl1000000000EElS2_EENSt11common_typeIJNS_8durationIT_T0_EENS4_IT1_T2_EEEE4typeERKS7_RKSA_
	mov	x1, x0
	adrp	x0, :got:__stack_chk_guard
	ldr	x0, [x0, :got_lo12:__stack_chk_guard]
	ldr	x3, [sp, 40]
	ldr	x2, [x0]
	subs	x3, x3, x2
	mov	x2, 0
	beq	.L253
	bl	__stack_chk_fail
.L253:
	mov	x0, x1
	ldp	x29, x30, [sp, 48]
	add	sp, sp, 64
	.cfi_restore 29
	.cfi_restore 30
	.cfi_def_cfa_offset 0
	ret
	.cfi_endproc
.LFE4840:
	.size	_ZNSt6chronomiINS_3_V212system_clockENS_8durationIlSt5ratioILl1ELl1000000000EEEES6_EENSt11common_typeIJT0_T1_EE4typeERKNS_10time_pointIT_S8_EERKNSC_ISD_S9_EE, .-_ZNSt6chronomiINS_3_V212system_clockENS_8durationIlSt5ratioILl1ELl1000000000EEEES6_EENSt11common_typeIJT0_T1_EE4typeERKNS_10time_pointIT_S8_EERKNSC_ISD_S9_EE
	.section	.text._ZNSt6chrono8durationIdSt5ratioILl1ELl1EEEC2IlS1_ILl1ELl1000000000EEvEERKNS0_IT_T0_EE,"axG",@progbits,_ZNSt6chrono8durationIdSt5ratioILl1ELl1EEEC5IlS1_ILl1ELl1000000000EEvEERKNS0_IT_T0_EE,comdat
	.align	2
	.weak	_ZNSt6chrono8durationIdSt5ratioILl1ELl1EEEC2IlS1_ILl1ELl1000000000EEvEERKNS0_IT_T0_EE
	.type	_ZNSt6chrono8durationIdSt5ratioILl1ELl1EEEC2IlS1_ILl1ELl1000000000EEvEERKNS0_IT_T0_EE, %function
_ZNSt6chrono8durationIdSt5ratioILl1ELl1EEEC2IlS1_ILl1ELl1000000000EEvEERKNS0_IT_T0_EE:
.LFB4842:
	.cfi_startproc
	sub	sp, sp, #48
	.cfi_def_cfa_offset 48
	stp	x29, x30, [sp, 32]
	.cfi_offset 29, -16
	.cfi_offset 30, -8
	add	x29, sp, 32
	str	x0, [sp, 8]
	str	x1, [sp]
	adrp	x0, :got:__stack_chk_guard
	ldr	x0, [x0, :got_lo12:__stack_chk_guard]
	ldr	x1, [x0]
	str	x1, [sp, 24]
	mov	x1, 0
	ldr	x0, [sp]
	bl	_ZNSt6chrono13duration_castINS_8durationIdSt5ratioILl1ELl1EEEElS2_ILl1ELl1000000000EEEENSt9enable_ifIXsrNS_13__is_durationIT_EE5valueES8_E4typeERKNS1_IT0_T1_EE
	str	d0, [sp, 16]
	add	x0, sp, 16
	bl	_ZNKSt6chrono8durationIdSt5ratioILl1ELl1EEE5countEv
	ldr	x0, [sp, 8]
	str	d0, [x0]
	nop
	adrp	x0, :got:__stack_chk_guard
	ldr	x0, [x0, :got_lo12:__stack_chk_guard]
	ldr	x2, [sp, 24]
	ldr	x1, [x0]
	subs	x2, x2, x1
	mov	x1, 0
	beq	.L255
	bl	__stack_chk_fail
.L255:
	ldp	x29, x30, [sp, 32]
	add	sp, sp, 48
	.cfi_restore 29
	.cfi_restore 30
	.cfi_def_cfa_offset 0
	ret
	.cfi_endproc
.LFE4842:
	.size	_ZNSt6chrono8durationIdSt5ratioILl1ELl1EEEC2IlS1_ILl1ELl1000000000EEvEERKNS0_IT_T0_EE, .-_ZNSt6chrono8durationIdSt5ratioILl1ELl1EEEC2IlS1_ILl1ELl1000000000EEvEERKNS0_IT_T0_EE
	.weak	_ZNSt6chrono8durationIdSt5ratioILl1ELl1EEEC1IlS1_ILl1ELl1000000000EEvEERKNS0_IT_T0_EE
	.set	_ZNSt6chrono8durationIdSt5ratioILl1ELl1EEEC1IlS1_ILl1ELl1000000000EEvEERKNS0_IT_T0_EE,_ZNSt6chrono8durationIdSt5ratioILl1ELl1EEEC2IlS1_ILl1ELl1000000000EEvEERKNS0_IT_T0_EE
	.section	.text._ZNKSt6chrono8durationIdSt5ratioILl1ELl1EEE5countEv,"axG",@progbits,_ZNKSt6chrono8durationIdSt5ratioILl1ELl1EEE5countEv,comdat
	.align	2
	.weak	_ZNKSt6chrono8durationIdSt5ratioILl1ELl1EEE5countEv
	.type	_ZNKSt6chrono8durationIdSt5ratioILl1ELl1EEE5countEv, %function
_ZNKSt6chrono8durationIdSt5ratioILl1ELl1EEE5countEv:
.LFB4844:
	.cfi_startproc
	sub	sp, sp, #16
	.cfi_def_cfa_offset 16
	str	x0, [sp, 8]
	ldr	x0, [sp, 8]
	ldr	d0, [x0]
	add	sp, sp, 16
	.cfi_def_cfa_offset 0
	ret
	.cfi_endproc
.LFE4844:
	.size	_ZNKSt6chrono8durationIdSt5ratioILl1ELl1EEE5countEv, .-_ZNKSt6chrono8durationIdSt5ratioILl1ELl1EEE5countEv
	.section	.text._ZSt8_DestroyIPiEvT_S1_,"axG",@progbits,_ZSt8_DestroyIPiEvT_S1_,comdat
	.align	2
	.weak	_ZSt8_DestroyIPiEvT_S1_
	.type	_ZSt8_DestroyIPiEvT_S1_, %function
_ZSt8_DestroyIPiEvT_S1_:
.LFB4948:
	.cfi_startproc
	stp	x29, x30, [sp, -32]!
	.cfi_def_cfa_offset 32
	.cfi_offset 29, -32
	.cfi_offset 30, -24
	mov	x29, sp
	str	x0, [sp, 24]
	str	x1, [sp, 16]
	ldr	x1, [sp, 16]
	ldr	x0, [sp, 24]
	bl	_ZNSt12_Destroy_auxILb1EE9__destroyIPiEEvT_S3_
	nop
	ldp	x29, x30, [sp], 32
	.cfi_restore 30
	.cfi_restore 29
	.cfi_def_cfa_offset 0
	ret
	.cfi_endproc
.LFE4948:
	.size	_ZSt8_DestroyIPiEvT_S1_, .-_ZSt8_DestroyIPiEvT_S1_
	.section	.text._ZSt7forwardIiEOT_RNSt16remove_referenceIS0_E4typeE,"axG",@progbits,_ZSt7forwardIiEOT_RNSt16remove_referenceIS0_E4typeE,comdat
	.align	2
	.weak	_ZSt7forwardIiEOT_RNSt16remove_referenceIS0_E4typeE
	.type	_ZSt7forwardIiEOT_RNSt16remove_referenceIS0_E4typeE, %function
_ZSt7forwardIiEOT_RNSt16remove_referenceIS0_E4typeE:
.LFB4949:
	.cfi_startproc
	sub	sp, sp, #16
	.cfi_def_cfa_offset 16
	str	x0, [sp, 8]
	ldr	x0, [sp, 8]
	add	sp, sp, 16
	.cfi_def_cfa_offset 0
	ret
	.cfi_endproc
.LFE4949:
	.size	_ZSt7forwardIiEOT_RNSt16remove_referenceIS0_E4typeE, .-_ZSt7forwardIiEOT_RNSt16remove_referenceIS0_E4typeE
	.section	.rodata
	.align	3
.LC35:
	.string	"vector::_M_realloc_insert"
	.section	.text._ZNSt6vectorIiSaIiEE17_M_realloc_insertIJiEEEvN9__gnu_cxx17__normal_iteratorIPiS1_EEDpOT_,"axG",@progbits,_ZNSt6vectorIiSaIiEE17_M_realloc_insertIJiEEEvN9__gnu_cxx17__normal_iteratorIPiS1_EEDpOT_,comdat
	.align	2
	.weak	_ZNSt6vectorIiSaIiEE17_M_realloc_insertIJiEEEvN9__gnu_cxx17__normal_iteratorIPiS1_EEDpOT_
	.type	_ZNSt6vectorIiSaIiEE17_M_realloc_insertIJiEEEvN9__gnu_cxx17__normal_iteratorIPiS1_EEDpOT_, %function
_ZNSt6vectorIiSaIiEE17_M_realloc_insertIJiEEEvN9__gnu_cxx17__normal_iteratorIPiS1_EEDpOT_:
.LFB4951:
	.cfi_startproc
	sub	sp, sp, #176
	.cfi_def_cfa_offset 176
	stp	x29, x30, [sp, 144]
	.cfi_offset 29, -32
	.cfi_offset 30, -24
	add	x29, sp, 144
	stp	x19, x20, [sp, 160]
	.cfi_offset 19, -16
	.cfi_offset 20, -8
	str	x0, [sp, 24]
	str	x1, [sp, 16]
	str	x2, [sp, 8]
	adrp	x0, :got:__stack_chk_guard
	ldr	x0, [x0, :got_lo12:__stack_chk_guard]
	ldr	x1, [x0]
	str	x1, [sp, 136]
	mov	x1, 0
	adrp	x0, .LC35
	add	x2, x0, :lo12:.LC35
	mov	x1, 1
	ldr	x0, [sp, 24]
	bl	_ZNKSt6vectorIiSaIiEE12_M_check_lenEmPKc
	str	x0, [sp, 40]
	ldr	x0, [sp, 24]
	ldr	x0, [x0]
	str	x0, [sp, 48]
	ldr	x0, [sp, 24]
	ldr	x0, [x0, 8]
	str	x0, [sp, 56]
	ldr	x0, [sp, 24]
	bl	_ZNSt6vectorIiSaIiEE5beginEv
	str	x0, [sp, 32]
	add	x1, sp, 32
	add	x0, sp, 16
	bl	_ZN9__gnu_cxxmiIPiSt6vectorIiSaIiEEEENS_17__normal_iteratorIT_T0_E15difference_typeERKS8_SB_
	str	x0, [sp, 64]
	ldr	x0, [sp, 24]
	ldr	x1, [sp, 40]
	bl	_ZNSt12_Vector_baseIiSaIiEE11_M_allocateEm
	str	x0, [sp, 72]
	ldr	x0, [sp, 72]
	str	x0, [sp, 80]
	ldr	x20, [sp, 24]
	ldr	x0, [sp, 64]
	lsl	x0, x0, 2
	ldr	x1, [sp, 72]
	add	x19, x1, x0
	ldr	x0, [sp, 8]
	bl	_ZSt7forwardIiEOT_RNSt16remove_referenceIS0_E4typeE
	str	x20, [sp, 88]
	str	x19, [sp, 96]
	str	x0, [sp, 104]
	ldr	x0, [sp, 104]
	bl	_ZSt7forwardIiEOT_RNSt16remove_referenceIS0_E4typeE
	mov	x1, x0
	ldr	x0, [sp, 88]
	str	x0, [sp, 112]
	ldr	x0, [sp, 96]
	str	x0, [sp, 120]
	str	x1, [sp, 128]
	ldr	x0, [sp, 120]
	mov	x1, x0
	mov	x0, 4
	bl	_ZnwmPv
	mov	x19, x0
	ldr	x0, [sp, 128]
	bl	_ZSt7forwardIiEOT_RNSt16remove_referenceIS0_E4typeE
	ldr	w0, [x0]
	str	w0, [x19]
	nop
	nop
	str	xzr, [sp, 80]
	add	x0, sp, 16
	bl	_ZNK9__gnu_cxx17__normal_iteratorIPiSt6vectorIiSaIiEEE4baseEv
	ldr	x19, [x0]
	ldr	x0, [sp, 24]
	bl	_ZNSt12_Vector_baseIiSaIiEE19_M_get_Tp_allocatorEv
	mov	x3, x0
	ldr	x2, [sp, 72]
	mov	x1, x19
	ldr	x0, [sp, 48]
	bl	_ZNSt6vectorIiSaIiEE11_S_relocateEPiS2_S2_RS0_
	str	x0, [sp, 80]
	ldr	x0, [sp, 80]
	add	x0, x0, 4
	str	x0, [sp, 80]
	add	x0, sp, 16
	bl	_ZNK9__gnu_cxx17__normal_iteratorIPiSt6vectorIiSaIiEEE4baseEv
	ldr	x19, [x0]
	ldr	x0, [sp, 24]
	bl	_ZNSt12_Vector_baseIiSaIiEE19_M_get_Tp_allocatorEv
	mov	x3, x0
	ldr	x2, [sp, 80]
	ldr	x1, [sp, 56]
	mov	x0, x19
	bl	_ZNSt6vectorIiSaIiEE11_S_relocateEPiS2_S2_RS0_
	str	x0, [sp, 80]
	ldr	x3, [sp, 24]
	ldr	x0, [sp, 24]
	ldr	x1, [x0, 16]
	ldr	x0, [sp, 48]
	sub	x0, x1, x0
	asr	x0, x0, 2
	mov	x2, x0
	ldr	x1, [sp, 48]
	mov	x0, x3
	bl	_ZNSt12_Vector_baseIiSaIiEE13_M_deallocateEPim
	ldr	x0, [sp, 24]
	ldr	x1, [sp, 72]
	str	x1, [x0]
	ldr	x0, [sp, 24]
	ldr	x1, [sp, 80]
	str	x1, [x0, 8]
	ldr	x0, [sp, 40]
	lsl	x0, x0, 2
	ldr	x1, [sp, 72]
	add	x1, x1, x0
	ldr	x0, [sp, 24]
	str	x1, [x0, 16]
	nop
	adrp	x0, :got:__stack_chk_guard
	ldr	x0, [x0, :got_lo12:__stack_chk_guard]
	ldr	x2, [sp, 136]
	ldr	x1, [x0]
	subs	x2, x2, x1
	mov	x1, 0
	beq	.L262
	bl	__stack_chk_fail
.L262:
	ldp	x19, x20, [sp, 160]
	ldp	x29, x30, [sp, 144]
	add	sp, sp, 176
	.cfi_restore 29
	.cfi_restore 30
	.cfi_restore 19
	.cfi_restore 20
	.cfi_def_cfa_offset 0
	ret
	.cfi_endproc
.LFE4951:
	.size	_ZNSt6vectorIiSaIiEE17_M_realloc_insertIJiEEEvN9__gnu_cxx17__normal_iteratorIPiS1_EEDpOT_, .-_ZNSt6vectorIiSaIiEE17_M_realloc_insertIJiEEEvN9__gnu_cxx17__normal_iteratorIPiS1_EEDpOT_
	.section	.text._ZNSt6vectorIiSaIiEE4backEv,"axG",@progbits,_ZNSt6vectorIiSaIiEE4backEv,comdat
	.align	2
	.weak	_ZNSt6vectorIiSaIiEE4backEv
	.type	_ZNSt6vectorIiSaIiEE4backEv, %function
_ZNSt6vectorIiSaIiEE4backEv:
.LFB4955:
	.cfi_startproc
	sub	sp, sp, #64
	.cfi_def_cfa_offset 64
	stp	x29, x30, [sp, 48]
	.cfi_offset 29, -16
	.cfi_offset 30, -8
	add	x29, sp, 48
	str	x0, [sp, 8]
	adrp	x0, :got:__stack_chk_guard
	ldr	x0, [x0, :got_lo12:__stack_chk_guard]
	ldr	x1, [x0]
	str	x1, [sp, 40]
	mov	x1, 0
	ldr	x0, [sp, 8]
	bl	_ZNSt6vectorIiSaIiEE3endEv
	str	x0, [sp, 24]
	add	x0, sp, 24
	mov	x1, 1
	bl	_ZNK9__gnu_cxx17__normal_iteratorIPiSt6vectorIiSaIiEEEmiEl
	str	x0, [sp, 32]
	add	x0, sp, 32
	bl	_ZNK9__gnu_cxx17__normal_iteratorIPiSt6vectorIiSaIiEEEdeEv
	mov	x1, x0
	adrp	x0, :got:__stack_chk_guard
	ldr	x0, [x0, :got_lo12:__stack_chk_guard]
	ldr	x3, [sp, 40]
	ldr	x2, [x0]
	subs	x3, x3, x2
	mov	x2, 0
	beq	.L265
	bl	__stack_chk_fail
.L265:
	mov	x0, x1
	ldp	x29, x30, [sp, 48]
	add	sp, sp, 64
	.cfi_restore 29
	.cfi_restore 30
	.cfi_def_cfa_offset 0
	ret
	.cfi_endproc
.LFE4955:
	.size	_ZNSt6vectorIiSaIiEE4backEv, .-_ZNSt6vectorIiSaIiEE4backEv
	.section	.text._ZNKSt16initializer_listIiE4sizeEv,"axG",@progbits,_ZNKSt16initializer_listIiE4sizeEv,comdat
	.align	2
	.weak	_ZNKSt16initializer_listIiE4sizeEv
	.type	_ZNKSt16initializer_listIiE4sizeEv, %function
_ZNKSt16initializer_listIiE4sizeEv:
.LFB4956:
	.cfi_startproc
	sub	sp, sp, #16
	.cfi_def_cfa_offset 16
	str	x0, [sp, 8]
	ldr	x0, [sp, 8]
	ldr	x0, [x0, 8]
	add	sp, sp, 16
	.cfi_def_cfa_offset 0
	ret
	.cfi_endproc
.LFE4956:
	.size	_ZNKSt16initializer_listIiE4sizeEv, .-_ZNKSt16initializer_listIiE4sizeEv
	.section	.text._ZNKSt6vectorIiSaIiEE8capacityEv,"axG",@progbits,_ZNKSt6vectorIiSaIiEE8capacityEv,comdat
	.align	2
	.weak	_ZNKSt6vectorIiSaIiEE8capacityEv
	.type	_ZNKSt6vectorIiSaIiEE8capacityEv, %function
_ZNKSt6vectorIiSaIiEE8capacityEv:
.LFB4959:
	.cfi_startproc
	sub	sp, sp, #16
	.cfi_def_cfa_offset 16
	str	x0, [sp, 8]
	ldr	x0, [sp, 8]
	ldr	x1, [x0, 16]
	ldr	x0, [sp, 8]
	ldr	x0, [x0]
	sub	x0, x1, x0
	asr	x0, x0, 2
	add	sp, sp, 16
	.cfi_def_cfa_offset 0
	ret
	.cfi_endproc
.LFE4959:
	.size	_ZNKSt6vectorIiSaIiEE8capacityEv, .-_ZNKSt6vectorIiSaIiEE8capacityEv
	.section	.text._ZNSt6vectorIiSaIiEE20_M_allocate_and_copyIPKiEEPimT_S6_,"axG",@progbits,_ZNSt6vectorIiSaIiEE20_M_allocate_and_copyIPKiEEPimT_S6_,comdat
	.align	2
	.weak	_ZNSt6vectorIiSaIiEE20_M_allocate_and_copyIPKiEEPimT_S6_
	.type	_ZNSt6vectorIiSaIiEE20_M_allocate_and_copyIPKiEEPimT_S6_, %function
_ZNSt6vectorIiSaIiEE20_M_allocate_and_copyIPKiEEPimT_S6_:
.LFB4960:
	.cfi_startproc
	.cfi_personality 0x9b,DW.ref.__gxx_personality_v0
	.cfi_lsda 0x1b,.LLSDA4960
	stp	x29, x30, [sp, -80]!
	.cfi_def_cfa_offset 80
	.cfi_offset 29, -80
	.cfi_offset 30, -72
	mov	x29, sp
	str	x19, [sp, 16]
	.cfi_offset 19, -64
	str	x0, [sp, 56]
	str	x1, [sp, 48]
	str	x2, [sp, 40]
	str	x3, [sp, 32]
	ldr	x0, [sp, 56]
	ldr	x1, [sp, 48]
.LEHB29:
	bl	_ZNSt12_Vector_baseIiSaIiEE11_M_allocateEm
.LEHE29:
	str	x0, [sp, 72]
	ldr	x0, [sp, 56]
	bl	_ZNSt12_Vector_baseIiSaIiEE19_M_get_Tp_allocatorEv
	mov	x3, x0
	ldr	x2, [sp, 72]
	ldr	x1, [sp, 32]
	ldr	x0, [sp, 40]
.LEHB30:
	bl	_ZSt22__uninitialized_copy_aIPKiPiiET0_T_S4_S3_RSaIT1_E
.LEHE30:
	ldr	x0, [sp, 72]
	b	.L276
.L274:
	bl	__cxa_begin_catch
	ldr	x0, [sp, 56]
	ldr	x2, [sp, 48]
	ldr	x1, [sp, 72]
	bl	_ZNSt12_Vector_baseIiSaIiEE13_M_deallocateEPim
.LEHB31:
	bl	__cxa_rethrow
.LEHE31:
.L275:
	mov	x19, x0
	bl	__cxa_end_catch
	mov	x0, x19
.LEHB32:
	bl	_Unwind_Resume
.LEHE32:
.L276:
	ldr	x19, [sp, 16]
	ldp	x29, x30, [sp], 80
	.cfi_restore 30
	.cfi_restore 29
	.cfi_restore 19
	.cfi_def_cfa_offset 0
	ret
	.cfi_endproc
.LFE4960:
	.section	.gcc_except_table
	.align	2
.LLSDA4960:
	.byte	0xff
	.byte	0x9b
	.uleb128 .LLSDATT4960-.LLSDATTD4960
.LLSDATTD4960:
	.byte	0x1
	.uleb128 .LLSDACSE4960-.LLSDACSB4960
.LLSDACSB4960:
	.uleb128 .LEHB29-.LFB4960
	.uleb128 .LEHE29-.LEHB29
	.uleb128 0
	.uleb128 0
	.uleb128 .LEHB30-.LFB4960
	.uleb128 .LEHE30-.LEHB30
	.uleb128 .L274-.LFB4960
	.uleb128 0x1
	.uleb128 .LEHB31-.LFB4960
	.uleb128 .LEHE31-.LEHB31
	.uleb128 .L275-.LFB4960
	.uleb128 0
	.uleb128 .LEHB32-.LFB4960
	.uleb128 .LEHE32-.LEHB32
	.uleb128 0
	.uleb128 0
.LLSDACSE4960:
	.byte	0x1
	.byte	0
	.align	2
	.4byte	0

.LLSDATT4960:
	.section	.text._ZNSt6vectorIiSaIiEE20_M_allocate_and_copyIPKiEEPimT_S6_,"axG",@progbits,_ZNSt6vectorIiSaIiEE20_M_allocate_and_copyIPKiEEPimT_S6_,comdat
	.size	_ZNSt6vectorIiSaIiEE20_M_allocate_and_copyIPKiEEPimT_S6_, .-_ZNSt6vectorIiSaIiEE20_M_allocate_and_copyIPKiEEPimT_S6_
	.section	.text._ZNSt6vectorIiSaIiEE15_M_erase_at_endEPi,"axG",@progbits,_ZNSt6vectorIiSaIiEE15_M_erase_at_endEPi,comdat
	.align	2
	.weak	_ZNSt6vectorIiSaIiEE15_M_erase_at_endEPi
	.type	_ZNSt6vectorIiSaIiEE15_M_erase_at_endEPi, %function
_ZNSt6vectorIiSaIiEE15_M_erase_at_endEPi:
.LFB4961:
	.cfi_startproc
	stp	x29, x30, [sp, -80]!
	.cfi_def_cfa_offset 80
	.cfi_offset 29, -80
	.cfi_offset 30, -72
	mov	x29, sp
	str	x19, [sp, 16]
	.cfi_offset 19, -64
	str	x0, [sp, 40]
	str	x1, [sp, 32]
	ldr	x0, [sp, 40]
	ldr	x1, [x0, 8]
	ldr	x0, [sp, 32]
	sub	x0, x1, x0
	asr	x0, x0, 2
	str	x0, [sp, 48]
	ldr	x0, [sp, 48]
	cmp	x0, 0
	beq	.L279
	ldr	x0, [sp, 40]
	ldr	x19, [x0, 8]
	ldr	x0, [sp, 40]
	bl	_ZNSt12_Vector_baseIiSaIiEE19_M_get_Tp_allocatorEv
	mov	x1, x0
	ldr	x0, [sp, 32]
	str	x0, [sp, 56]
	str	x19, [sp, 64]
	str	x1, [sp, 72]
	ldr	x1, [sp, 64]
	ldr	x0, [sp, 56]
	bl	_ZSt8_DestroyIPiEvT_S1_
	nop
	ldr	x0, [sp, 40]
	ldr	x1, [sp, 32]
	str	x1, [x0, 8]
.L279:
	nop
	ldr	x19, [sp, 16]
	ldp	x29, x30, [sp], 80
	.cfi_restore 30
	.cfi_restore 29
	.cfi_restore 19
	.cfi_def_cfa_offset 0
	ret
	.cfi_endproc
.LFE4961:
	.size	_ZNSt6vectorIiSaIiEE15_M_erase_at_endEPi, .-_ZNSt6vectorIiSaIiEE15_M_erase_at_endEPi
	.section	.text._ZSt4copyIPKiPiET0_T_S4_S3_,"axG",@progbits,_ZSt4copyIPKiPiET0_T_S4_S3_,comdat
	.align	2
	.weak	_ZSt4copyIPKiPiET0_T_S4_S3_
	.type	_ZSt4copyIPKiPiET0_T_S4_S3_, %function
_ZSt4copyIPKiPiET0_T_S4_S3_:
.LFB4962:
	.cfi_startproc
	stp	x29, x30, [sp, -64]!
	.cfi_def_cfa_offset 64
	.cfi_offset 29, -64
	.cfi_offset 30, -56
	mov	x29, sp
	str	x19, [sp, 16]
	.cfi_offset 19, -48
	str	x0, [sp, 56]
	str	x1, [sp, 48]
	str	x2, [sp, 40]
	ldr	x0, [sp, 56]
	bl	_ZSt12__miter_baseIPKiET_S2_
	mov	x19, x0
	ldr	x0, [sp, 48]
	bl	_ZSt12__miter_baseIPKiET_S2_
	ldr	x2, [sp, 40]
	mov	x1, x0
	mov	x0, x19
	bl	_ZSt13__copy_move_aILb0EPKiPiET1_T0_S4_S3_
	ldr	x19, [sp, 16]
	ldp	x29, x30, [sp], 64
	.cfi_restore 30
	.cfi_restore 29
	.cfi_restore 19
	.cfi_def_cfa_offset 0
	ret
	.cfi_endproc
.LFE4962:
	.size	_ZSt4copyIPKiPiET0_T_S4_S3_, .-_ZSt4copyIPKiPiET0_T_S4_S3_
	.section	.text._ZSt22__uninitialized_copy_aIPKiPiiET0_T_S4_S3_RSaIT1_E,"axG",@progbits,_ZSt22__uninitialized_copy_aIPKiPiiET0_T_S4_S3_RSaIT1_E,comdat
	.align	2
	.weak	_ZSt22__uninitialized_copy_aIPKiPiiET0_T_S4_S3_RSaIT1_E
	.type	_ZSt22__uninitialized_copy_aIPKiPiiET0_T_S4_S3_RSaIT1_E, %function
_ZSt22__uninitialized_copy_aIPKiPiiET0_T_S4_S3_RSaIT1_E:
.LFB4964:
	.cfi_startproc
	stp	x29, x30, [sp, -48]!
	.cfi_def_cfa_offset 48
	.cfi_offset 29, -48
	.cfi_offset 30, -40
	mov	x29, sp
	str	x0, [sp, 40]
	str	x1, [sp, 32]
	str	x2, [sp, 24]
	str	x3, [sp, 16]
	ldr	x2, [sp, 24]
	ldr	x1, [sp, 32]
	ldr	x0, [sp, 40]
	bl	_ZSt18uninitialized_copyIPKiPiET0_T_S4_S3_
	ldp	x29, x30, [sp], 48
	.cfi_restore 30
	.cfi_restore 29
	.cfi_def_cfa_offset 0
	ret
	.cfi_endproc
.LFE4964:
	.size	_ZSt22__uninitialized_copy_aIPKiPiiET0_T_S4_S3_RSaIT1_E, .-_ZSt22__uninitialized_copy_aIPKiPiiET0_T_S4_S3_RSaIT1_E
	.section	.text._ZNSt8__detail5__modImLm4294967296ELm1ELm0EEET_S1_,"axG",@progbits,_ZNSt8__detail5__modImLm4294967296ELm1ELm0EEET_S1_,comdat
	.align	2
	.weak	_ZNSt8__detail5__modImLm4294967296ELm1ELm0EEET_S1_
	.type	_ZNSt8__detail5__modImLm4294967296ELm1ELm0EEET_S1_, %function
_ZNSt8__detail5__modImLm4294967296ELm1ELm0EEET_S1_:
.LFB4965:
	.cfi_startproc
	stp	x29, x30, [sp, -48]!
	.cfi_def_cfa_offset 48
	.cfi_offset 29, -48
	.cfi_offset 30, -40
	mov	x29, sp
	str	x0, [sp, 24]
	mov	x0, 1
	str	x0, [sp, 40]
	ldr	x0, [sp, 24]
	bl	_ZNSt8__detail4_ModImLm4294967296ELm1ELm0ELb1ELb1EE6__calcEm
	ldp	x29, x30, [sp], 48
	.cfi_restore 30
	.cfi_restore 29
	.cfi_def_cfa_offset 0
	ret
	.cfi_endproc
.LFE4965:
	.size	_ZNSt8__detail5__modImLm4294967296ELm1ELm0EEET_S1_, .-_ZNSt8__detail5__modImLm4294967296ELm1ELm0EEET_S1_
	.section	.text._ZNSt8__detail5__modImLm624ELm1ELm0EEET_S1_,"axG",@progbits,_ZNSt8__detail5__modImLm624ELm1ELm0EEET_S1_,comdat
	.align	2
	.weak	_ZNSt8__detail5__modImLm624ELm1ELm0EEET_S1_
	.type	_ZNSt8__detail5__modImLm624ELm1ELm0EEET_S1_, %function
_ZNSt8__detail5__modImLm624ELm1ELm0EEET_S1_:
.LFB4966:
	.cfi_startproc
	stp	x29, x30, [sp, -48]!
	.cfi_def_cfa_offset 48
	.cfi_offset 29, -48
	.cfi_offset 30, -40
	mov	x29, sp
	str	x0, [sp, 24]
	mov	x0, 1
	str	x0, [sp, 40]
	ldr	x0, [sp, 24]
	bl	_ZNSt8__detail4_ModImLm624ELm1ELm0ELb1ELb1EE6__calcEm
	ldp	x29, x30, [sp], 48
	.cfi_restore 30
	.cfi_restore 29
	.cfi_def_cfa_offset 0
	ret
	.cfi_endproc
.LFE4966:
	.size	_ZNSt8__detail5__modImLm624ELm1ELm0EEET_S1_, .-_ZNSt8__detail5__modImLm624ELm1ELm0EEET_S1_
	.section	.text._ZNSt6vectorIiSaIiEE11_S_max_sizeERKS0_,"axG",@progbits,_ZNSt6vectorIiSaIiEE11_S_max_sizeERKS0_,comdat
	.align	2
	.weak	_ZNSt6vectorIiSaIiEE11_S_max_sizeERKS0_
	.type	_ZNSt6vectorIiSaIiEE11_S_max_sizeERKS0_, %function
_ZNSt6vectorIiSaIiEE11_S_max_sizeERKS0_:
.LFB4979:
	.cfi_startproc
	sub	sp, sp, #80
	.cfi_def_cfa_offset 80
	stp	x29, x30, [sp, 64]
	.cfi_offset 29, -16
	.cfi_offset 30, -8
	add	x29, sp, 64
	str	x0, [sp, 8]
	adrp	x0, :got:__stack_chk_guard
	ldr	x0, [x0, :got_lo12:__stack_chk_guard]
	ldr	x1, [x0]
	str	x1, [sp, 56]
	mov	x1, 0
	mov	x0, 2305843009213693951
	str	x0, [sp, 16]
	ldr	x0, [sp, 8]
	str	x0, [sp, 32]
	ldr	x0, [sp, 32]
	str	x0, [sp, 40]
	ldr	x0, [sp, 40]
	str	x0, [sp, 48]
	mov	x0, 2305843009213693951
	nop
	nop
	str	x0, [sp, 24]
	add	x1, sp, 24
	add	x0, sp, 16
	bl	_ZSt3minImERKT_S2_S2_
	ldr	x0, [x0]
	mov	x1, x0
	adrp	x0, :got:__stack_chk_guard
	ldr	x0, [x0, :got_lo12:__stack_chk_guard]
	ldr	x3, [sp, 56]
	ldr	x2, [x0]
	subs	x3, x3, x2
	mov	x2, 0
	beq	.L293
	bl	__stack_chk_fail
.L293:
	mov	x0, x1
	ldp	x29, x30, [sp, 64]
	add	sp, sp, 80
	.cfi_restore 29
	.cfi_restore 30
	.cfi_def_cfa_offset 0
	ret
	.cfi_endproc
.LFE4979:
	.size	_ZNSt6vectorIiSaIiEE11_S_max_sizeERKS0_, .-_ZNSt6vectorIiSaIiEE11_S_max_sizeERKS0_
	.section	.text._ZNSt12_Vector_baseIiSaIiEE12_Vector_implC2ERKS0_,"axG",@progbits,_ZNSt12_Vector_baseIiSaIiEE12_Vector_implC5ERKS0_,comdat
	.align	2
	.weak	_ZNSt12_Vector_baseIiSaIiEE12_Vector_implC2ERKS0_
	.type	_ZNSt12_Vector_baseIiSaIiEE12_Vector_implC2ERKS0_, %function
_ZNSt12_Vector_baseIiSaIiEE12_Vector_implC2ERKS0_:
.LFB4984:
	.cfi_startproc
	stp	x29, x30, [sp, -64]!
	.cfi_def_cfa_offset 64
	.cfi_offset 29, -64
	.cfi_offset 30, -56
	mov	x29, sp
	str	x0, [sp, 24]
	str	x1, [sp, 16]
	ldr	x0, [sp, 24]
	str	x0, [sp, 32]
	ldr	x0, [sp, 16]
	str	x0, [sp, 40]
	ldr	x0, [sp, 32]
	str	x0, [sp, 48]
	ldr	x0, [sp, 40]
	str	x0, [sp, 56]
	nop
	nop
	ldr	x0, [sp, 24]
	bl	_ZNSt12_Vector_baseIiSaIiEE17_Vector_impl_dataC2Ev
	nop
	ldp	x29, x30, [sp], 64
	.cfi_restore 30
	.cfi_restore 29
	.cfi_def_cfa_offset 0
	ret
	.cfi_endproc
.LFE4984:
	.size	_ZNSt12_Vector_baseIiSaIiEE12_Vector_implC2ERKS0_, .-_ZNSt12_Vector_baseIiSaIiEE12_Vector_implC2ERKS0_
	.weak	_ZNSt12_Vector_baseIiSaIiEE12_Vector_implC1ERKS0_
	.set	_ZNSt12_Vector_baseIiSaIiEE12_Vector_implC1ERKS0_,_ZNSt12_Vector_baseIiSaIiEE12_Vector_implC2ERKS0_
	.section	.text._ZNSt12_Vector_baseIiSaIiEE17_M_create_storageEm,"axG",@progbits,_ZNSt12_Vector_baseIiSaIiEE17_M_create_storageEm,comdat
	.align	2
	.weak	_ZNSt12_Vector_baseIiSaIiEE17_M_create_storageEm
	.type	_ZNSt12_Vector_baseIiSaIiEE17_M_create_storageEm, %function
_ZNSt12_Vector_baseIiSaIiEE17_M_create_storageEm:
.LFB4986:
	.cfi_startproc
	stp	x29, x30, [sp, -32]!
	.cfi_def_cfa_offset 32
	.cfi_offset 29, -32
	.cfi_offset 30, -24
	mov	x29, sp
	str	x0, [sp, 24]
	str	x1, [sp, 16]
	ldr	x1, [sp, 16]
	ldr	x0, [sp, 24]
	bl	_ZNSt12_Vector_baseIiSaIiEE11_M_allocateEm
	mov	x1, x0
	ldr	x0, [sp, 24]
	str	x1, [x0]
	ldr	x0, [sp, 24]
	ldr	x1, [x0]
	ldr	x0, [sp, 24]
	str	x1, [x0, 8]
	ldr	x0, [sp, 24]
	ldr	x1, [x0]
	ldr	x0, [sp, 16]
	lsl	x0, x0, 2
	add	x1, x1, x0
	ldr	x0, [sp, 24]
	str	x1, [x0, 16]
	nop
	ldp	x29, x30, [sp], 32
	.cfi_restore 30
	.cfi_restore 29
	.cfi_def_cfa_offset 0
	ret
	.cfi_endproc
.LFE4986:
	.size	_ZNSt12_Vector_baseIiSaIiEE17_M_create_storageEm, .-_ZNSt12_Vector_baseIiSaIiEE17_M_create_storageEm
	.section	.text._ZSt27__uninitialized_default_n_aIPimiET_S1_T0_RSaIT1_E,"axG",@progbits,_ZSt27__uninitialized_default_n_aIPimiET_S1_T0_RSaIT1_E,comdat
	.align	2
	.weak	_ZSt27__uninitialized_default_n_aIPimiET_S1_T0_RSaIT1_E
	.type	_ZSt27__uninitialized_default_n_aIPimiET_S1_T0_RSaIT1_E, %function
_ZSt27__uninitialized_default_n_aIPimiET_S1_T0_RSaIT1_E:
.LFB4987:
	.cfi_startproc
	stp	x29, x30, [sp, -48]!
	.cfi_def_cfa_offset 48
	.cfi_offset 29, -48
	.cfi_offset 30, -40
	mov	x29, sp
	str	x0, [sp, 40]
	str	x1, [sp, 32]
	str	x2, [sp, 24]
	ldr	x1, [sp, 32]
	ldr	x0, [sp, 40]
	bl	_ZSt25__uninitialized_default_nIPimET_S1_T0_
	ldp	x29, x30, [sp], 48
	.cfi_restore 30
	.cfi_restore 29
	.cfi_def_cfa_offset 0
	ret
	.cfi_endproc
.LFE4987:
	.size	_ZSt27__uninitialized_default_n_aIPimiET_S1_T0_RSaIT1_E, .-_ZSt27__uninitialized_default_n_aIPimiET_S1_T0_RSaIT1_E
	.section	.text._ZNKSt24uniform_int_distributionIiE10param_type1bEv,"axG",@progbits,_ZNKSt24uniform_int_distributionIiE10param_type1bEv,comdat
	.align	2
	.weak	_ZNKSt24uniform_int_distributionIiE10param_type1bEv
	.type	_ZNKSt24uniform_int_distributionIiE10param_type1bEv, %function
_ZNKSt24uniform_int_distributionIiE10param_type1bEv:
.LFB4988:
	.cfi_startproc
	sub	sp, sp, #16
	.cfi_def_cfa_offset 16
	str	x0, [sp, 8]
	ldr	x0, [sp, 8]
	ldr	w0, [x0, 4]
	add	sp, sp, 16
	.cfi_def_cfa_offset 0
	ret
	.cfi_endproc
.LFE4988:
	.size	_ZNKSt24uniform_int_distributionIiE10param_type1bEv, .-_ZNKSt24uniform_int_distributionIiE10param_type1bEv
	.section	.text._ZNKSt24uniform_int_distributionIiE10param_type1aEv,"axG",@progbits,_ZNKSt24uniform_int_distributionIiE10param_type1aEv,comdat
	.align	2
	.weak	_ZNKSt24uniform_int_distributionIiE10param_type1aEv
	.type	_ZNKSt24uniform_int_distributionIiE10param_type1aEv, %function
_ZNKSt24uniform_int_distributionIiE10param_type1aEv:
.LFB4989:
	.cfi_startproc
	sub	sp, sp, #16
	.cfi_def_cfa_offset 16
	str	x0, [sp, 8]
	ldr	x0, [sp, 8]
	ldr	w0, [x0]
	add	sp, sp, 16
	.cfi_def_cfa_offset 0
	ret
	.cfi_endproc
.LFE4989:
	.size	_ZNKSt24uniform_int_distributionIiE10param_type1aEv, .-_ZNKSt24uniform_int_distributionIiE10param_type1aEv
	.section	.text._ZNSt24uniform_int_distributionIiE5_S_ndImSt23mersenne_twister_engineImLm32ELm624ELm397ELm31ELm2567483615ELm11ELm4294967295ELm7ELm2636928640ELm15ELm4022730752ELm18ELm1812433253EEjEET1_RT0_S4_,"axG",@progbits,_ZNSt24uniform_int_distributionIiE5_S_ndImSt23mersenne_twister_engineImLm32ELm624ELm397ELm31ELm2567483615ELm11ELm4294967295ELm7ELm2636928640ELm15ELm4022730752ELm18ELm1812433253EEjEET1_RT0_S4_,comdat
	.align	2
	.weak	_ZNSt24uniform_int_distributionIiE5_S_ndImSt23mersenne_twister_engineImLm32ELm624ELm397ELm31ELm2567483615ELm11ELm4294967295ELm7ELm2636928640ELm15ELm4022730752ELm18ELm1812433253EEjEET1_RT0_S4_
	.type	_ZNSt24uniform_int_distributionIiE5_S_ndImSt23mersenne_twister_engineImLm32ELm624ELm397ELm31ELm2567483615ELm11ELm4294967295ELm7ELm2636928640ELm15ELm4022730752ELm18ELm1812433253EEjEET1_RT0_S4_, %function
_ZNSt24uniform_int_distributionIiE5_S_ndImSt23mersenne_twister_engineImLm32ELm624ELm397ELm31ELm2567483615ELm11ELm4294967295ELm7ELm2636928640ELm15ELm4022730752ELm18ELm1812433253EEjEET1_RT0_S4_:
.LFB4990:
	.cfi_startproc
	stp	x29, x30, [sp, -48]!
	.cfi_def_cfa_offset 48
	.cfi_offset 29, -48
	.cfi_offset 30, -40
	mov	x29, sp
	str	x0, [sp, 24]
	str	w1, [sp, 20]
	ldr	x0, [sp, 24]
	bl	_ZNSt23mersenne_twister_engineImLm32ELm624ELm397ELm31ELm2567483615ELm11ELm4294967295ELm7ELm2636928640ELm15ELm4022730752ELm18ELm1812433253EEclEv
	mov	x1, x0
	ldr	w0, [sp, 20]
	mul	x0, x1, x0
	str	x0, [sp, 40]
	ldr	x0, [sp, 40]
	str	w0, [sp, 32]
	ldr	w1, [sp, 32]
	ldr	w0, [sp, 20]
	cmp	w1, w0
	bcs	.L303
	ldr	w0, [sp, 20]
	neg	w0, w0
	ldr	w1, [sp, 20]
	udiv	w2, w0, w1
	ldr	w1, [sp, 20]
	mul	w1, w2, w1
	sub	w0, w0, w1
	str	w0, [sp, 36]
	b	.L304
.L305:
	ldr	x0, [sp, 24]
	bl	_ZNSt23mersenne_twister_engineImLm32ELm624ELm397ELm31ELm2567483615ELm11ELm4294967295ELm7ELm2636928640ELm15ELm4022730752ELm18ELm1812433253EEclEv
	mov	x1, x0
	ldr	w0, [sp, 20]
	mul	x0, x1, x0
	str	x0, [sp, 40]
	ldr	x0, [sp, 40]
	str	w0, [sp, 32]
.L304:
	ldr	w1, [sp, 32]
	ldr	w0, [sp, 36]
	cmp	w1, w0
	bcc	.L305
.L303:
	ldr	x0, [sp, 40]
	lsr	x0, x0, 32
	ldp	x29, x30, [sp], 48
	.cfi_restore 30
	.cfi_restore 29
	.cfi_def_cfa_offset 0
	ret
	.cfi_endproc
.LFE4990:
	.size	_ZNSt24uniform_int_distributionIiE5_S_ndImSt23mersenne_twister_engineImLm32ELm624ELm397ELm31ELm2567483615ELm11ELm4294967295ELm7ELm2636928640ELm15ELm4022730752ELm18ELm1812433253EEjEET1_RT0_S4_, .-_ZNSt24uniform_int_distributionIiE5_S_ndImSt23mersenne_twister_engineImLm32ELm624ELm397ELm31ELm2567483615ELm11ELm4294967295ELm7ELm2636928640ELm15ELm4022730752ELm18ELm1812433253EEjEET1_RT0_S4_
	.section	.text._ZNSt23mersenne_twister_engineImLm32ELm624ELm397ELm31ELm2567483615ELm11ELm4294967295ELm7ELm2636928640ELm15ELm4022730752ELm18ELm1812433253EEclEv,"axG",@progbits,_ZNSt23mersenne_twister_engineImLm32ELm624ELm397ELm31ELm2567483615ELm11ELm4294967295ELm7ELm2636928640ELm15ELm4022730752ELm18ELm1812433253EEclEv,comdat
	.align	2
	.weak	_ZNSt23mersenne_twister_engineImLm32ELm624ELm397ELm31ELm2567483615ELm11ELm4294967295ELm7ELm2636928640ELm15ELm4022730752ELm18ELm1812433253EEclEv
	.type	_ZNSt23mersenne_twister_engineImLm32ELm624ELm397ELm31ELm2567483615ELm11ELm4294967295ELm7ELm2636928640ELm15ELm4022730752ELm18ELm1812433253EEclEv, %function
_ZNSt23mersenne_twister_engineImLm32ELm624ELm397ELm31ELm2567483615ELm11ELm4294967295ELm7ELm2636928640ELm15ELm4022730752ELm18ELm1812433253EEclEv:
.LFB4991:
	.cfi_startproc
	stp	x29, x30, [sp, -48]!
	.cfi_def_cfa_offset 48
	.cfi_offset 29, -48
	.cfi_offset 30, -40
	mov	x29, sp
	str	x0, [sp, 24]
	ldr	x0, [sp, 24]
	ldr	x0, [x0, 4992]
	cmp	x0, 623
	bls	.L308
	ldr	x0, [sp, 24]
	bl	_ZNSt23mersenne_twister_engineImLm32ELm624ELm397ELm31ELm2567483615ELm11ELm4294967295ELm7ELm2636928640ELm15ELm4022730752ELm18ELm1812433253EE11_M_gen_randEv
.L308:
	ldr	x0, [sp, 24]
	ldr	x0, [x0, 4992]
	add	x2, x0, 1
	ldr	x1, [sp, 24]
	str	x2, [x1, 4992]
	ldr	x1, [sp, 24]
	ldr	x0, [x1, x0, lsl 3]
	str	x0, [sp, 40]
	ldr	x0, [sp, 40]
	lsr	x0, x0, 11
	and	x0, x0, 4294967295
	ldr	x1, [sp, 40]
	eor	x0, x1, x0
	str	x0, [sp, 40]
	ldr	x0, [sp, 40]
	lsl	x1, x0, 7
	mov	x0, 22144
	movk	x0, 0x9d2c, lsl 16
	and	x0, x1, x0
	ldr	x1, [sp, 40]
	eor	x0, x1, x0
	str	x0, [sp, 40]
	ldr	x0, [sp, 40]
	lsl	x1, x0, 15
	mov	x0, 4022730752
	and	x0, x1, x0
	ldr	x1, [sp, 40]
	eor	x0, x1, x0
	str	x0, [sp, 40]
	ldr	x0, [sp, 40]
	lsr	x0, x0, 18
	ldr	x1, [sp, 40]
	eor	x0, x1, x0
	str	x0, [sp, 40]
	ldr	x0, [sp, 40]
	ldp	x29, x30, [sp], 48
	.cfi_restore 30
	.cfi_restore 29
	.cfi_def_cfa_offset 0
	ret
	.cfi_endproc
.LFE4991:
	.size	_ZNSt23mersenne_twister_engineImLm32ELm624ELm397ELm31ELm2567483615ELm11ELm4294967295ELm7ELm2636928640ELm15ELm4022730752ELm18ELm1812433253EEclEv, .-_ZNSt23mersenne_twister_engineImLm32ELm624ELm397ELm31ELm2567483615ELm11ELm4294967295ELm7ELm2636928640ELm15ELm4022730752ELm18ELm1812433253EEclEv
	.section	.text._ZNSt6chronomiIlSt5ratioILl1ELl1000000000EElS2_EENSt11common_typeIJNS_8durationIT_T0_EENS4_IT1_T2_EEEE4typeERKS7_RKSA_,"axG",@progbits,_ZNSt6chronomiIlSt5ratioILl1ELl1000000000EElS2_EENSt11common_typeIJNS_8durationIT_T0_EENS4_IT1_T2_EEEE4typeERKS7_RKSA_,comdat
	.align	2
	.weak	_ZNSt6chronomiIlSt5ratioILl1ELl1000000000EElS2_EENSt11common_typeIJNS_8durationIT_T0_EENS4_IT1_T2_EEEE4typeERKS7_RKSA_
	.type	_ZNSt6chronomiIlSt5ratioILl1ELl1000000000EElS2_EENSt11common_typeIJNS_8durationIT_T0_EENS4_IT1_T2_EEEE4typeERKS7_RKSA_, %function
_ZNSt6chronomiIlSt5ratioILl1ELl1000000000EElS2_EENSt11common_typeIJNS_8durationIT_T0_EENS4_IT1_T2_EEEE4typeERKS7_RKSA_:
.LFB4992:
	.cfi_startproc
	sub	sp, sp, #96
	.cfi_def_cfa_offset 96
	stp	x29, x30, [sp, 64]
	.cfi_offset 29, -32
	.cfi_offset 30, -24
	add	x29, sp, 64
	str	x19, [sp, 80]
	.cfi_offset 19, -16
	str	x0, [sp, 8]
	str	x1, [sp]
	adrp	x0, :got:__stack_chk_guard
	ldr	x0, [x0, :got_lo12:__stack_chk_guard]
	ldr	x1, [x0]
	str	x1, [sp, 56]
	mov	x1, 0
	ldr	x0, [sp, 8]
	ldr	x0, [x0]
	str	x0, [sp, 24]
	add	x0, sp, 24
	bl	_ZNKSt6chrono8durationIlSt5ratioILl1ELl1000000000EEE5countEv
	mov	x19, x0
	ldr	x0, [sp]
	ldr	x0, [x0]
	str	x0, [sp, 32]
	add	x0, sp, 32
	bl	_ZNKSt6chrono8durationIlSt5ratioILl1ELl1000000000EEE5countEv
	sub	x0, x19, x0
	str	x0, [sp, 40]
	add	x1, sp, 40
	add	x0, sp, 48
	bl	_ZNSt6chrono8durationIlSt5ratioILl1ELl1000000000EEEC1IlvEERKT_
	ldr	x0, [sp, 48]
	mov	x1, x0
	adrp	x0, :got:__stack_chk_guard
	ldr	x0, [x0, :got_lo12:__stack_chk_guard]
	ldr	x3, [sp, 56]
	ldr	x2, [x0]
	subs	x3, x3, x2
	mov	x2, 0
	beq	.L312
	bl	__stack_chk_fail
.L312:
	mov	x0, x1
	ldr	x19, [sp, 80]
	ldp	x29, x30, [sp, 64]
	add	sp, sp, 96
	.cfi_restore 29
	.cfi_restore 30
	.cfi_restore 19
	.cfi_def_cfa_offset 0
	ret
	.cfi_endproc
.LFE4992:
	.size	_ZNSt6chronomiIlSt5ratioILl1ELl1000000000EElS2_EENSt11common_typeIJNS_8durationIT_T0_EENS4_IT1_T2_EEEE4typeERKS7_RKSA_, .-_ZNSt6chronomiIlSt5ratioILl1ELl1000000000EElS2_EENSt11common_typeIJNS_8durationIT_T0_EENS4_IT1_T2_EEEE4typeERKS7_RKSA_
	.section	.text._ZNSt6chrono13duration_castINS_8durationIdSt5ratioILl1ELl1EEEElS2_ILl1ELl1000000000EEEENSt9enable_ifIXsrNS_13__is_durationIT_EE5valueES8_E4typeERKNS1_IT0_T1_EE,"axG",@progbits,_ZNSt6chrono13duration_castINS_8durationIdSt5ratioILl1ELl1EEEElS2_ILl1ELl1000000000EEEENSt9enable_ifIXsrNS_13__is_durationIT_EE5valueES8_E4typeERKNS1_IT0_T1_EE,comdat
	.align	2
	.weak	_ZNSt6chrono13duration_castINS_8durationIdSt5ratioILl1ELl1EEEElS2_ILl1ELl1000000000EEEENSt9enable_ifIXsrNS_13__is_durationIT_EE5valueES8_E4typeERKNS1_IT0_T1_EE
	.type	_ZNSt6chrono13duration_castINS_8durationIdSt5ratioILl1ELl1EEEElS2_ILl1ELl1000000000EEEENSt9enable_ifIXsrNS_13__is_durationIT_EE5valueES8_E4typeERKNS1_IT0_T1_EE, %function
_ZNSt6chrono13duration_castINS_8durationIdSt5ratioILl1ELl1EEEElS2_ILl1ELl1000000000EEEENSt9enable_ifIXsrNS_13__is_durationIT_EE5valueES8_E4typeERKNS1_IT0_T1_EE:
.LFB4993:
	.cfi_startproc
	stp	x29, x30, [sp, -32]!
	.cfi_def_cfa_offset 32
	.cfi_offset 29, -32
	.cfi_offset 30, -24
	mov	x29, sp
	str	x0, [sp, 24]
	ldr	x0, [sp, 24]
	bl	_ZNSt6chrono20__duration_cast_implINS_8durationIdSt5ratioILl1ELl1EEEES2_ILl1ELl1000000000EEdLb1ELb0EE6__castIlS5_EES4_RKNS1_IT_T0_EE
	fmov	x0, d0
	fmov	d0, x0
	ldp	x29, x30, [sp], 32
	.cfi_restore 30
	.cfi_restore 29
	.cfi_def_cfa_offset 0
	ret
	.cfi_endproc
.LFE4993:
	.size	_ZNSt6chrono13duration_castINS_8durationIdSt5ratioILl1ELl1EEEElS2_ILl1ELl1000000000EEEENSt9enable_ifIXsrNS_13__is_durationIT_EE5valueES8_E4typeERKNS1_IT0_T1_EE, .-_ZNSt6chrono13duration_castINS_8durationIdSt5ratioILl1ELl1EEEElS2_ILl1ELl1000000000EEEENSt9enable_ifIXsrNS_13__is_durationIT_EE5valueES8_E4typeERKNS1_IT0_T1_EE
	.section	.text._ZNSt15__new_allocatorIiE10deallocateEPim,"axG",@progbits,_ZNSt15__new_allocatorIiE10deallocateEPim,comdat
	.align	2
	.weak	_ZNSt15__new_allocatorIiE10deallocateEPim
	.type	_ZNSt15__new_allocatorIiE10deallocateEPim, %function
_ZNSt15__new_allocatorIiE10deallocateEPim:
.LFB5061:
	.cfi_startproc
	stp	x29, x30, [sp, -48]!
	.cfi_def_cfa_offset 48
	.cfi_offset 29, -48
	.cfi_offset 30, -40
	mov	x29, sp
	str	x0, [sp, 40]
	str	x1, [sp, 32]
	str	x2, [sp, 24]
	ldr	x0, [sp, 24]
	lsl	x0, x0, 2
	mov	x1, x0
	ldr	x0, [sp, 32]
	bl	_ZdlPvm
	ldp	x29, x30, [sp], 48
	.cfi_restore 30
	.cfi_restore 29
	.cfi_def_cfa_offset 0
	ret
	.cfi_endproc
.LFE5061:
	.size	_ZNSt15__new_allocatorIiE10deallocateEPim, .-_ZNSt15__new_allocatorIiE10deallocateEPim
	.section	.text._ZNSt12_Destroy_auxILb1EE9__destroyIPiEEvT_S3_,"axG",@progbits,_ZNSt12_Destroy_auxILb1EE9__destroyIPiEEvT_S3_,comdat
	.align	2
	.weak	_ZNSt12_Destroy_auxILb1EE9__destroyIPiEEvT_S3_
	.type	_ZNSt12_Destroy_auxILb1EE9__destroyIPiEEvT_S3_, %function
_ZNSt12_Destroy_auxILb1EE9__destroyIPiEEvT_S3_:
.LFB5062:
	.cfi_startproc
	sub	sp, sp, #16
	.cfi_def_cfa_offset 16
	str	x0, [sp, 8]
	str	x1, [sp]
	nop
	add	sp, sp, 16
	.cfi_def_cfa_offset 0
	ret
	.cfi_endproc
.LFE5062:
	.size	_ZNSt12_Destroy_auxILb1EE9__destroyIPiEEvT_S3_, .-_ZNSt12_Destroy_auxILb1EE9__destroyIPiEEvT_S3_
	.section	.text._ZNKSt6vectorIiSaIiEE12_M_check_lenEmPKc,"axG",@progbits,_ZNKSt6vectorIiSaIiEE12_M_check_lenEmPKc,comdat
	.align	2
	.weak	_ZNKSt6vectorIiSaIiEE12_M_check_lenEmPKc
	.type	_ZNKSt6vectorIiSaIiEE12_M_check_lenEmPKc, %function
_ZNKSt6vectorIiSaIiEE12_M_check_lenEmPKc:
.LFB5064:
	.cfi_startproc
	sub	sp, sp, #96
	.cfi_def_cfa_offset 96
	stp	x29, x30, [sp, 64]
	.cfi_offset 29, -32
	.cfi_offset 30, -24
	add	x29, sp, 64
	str	x19, [sp, 80]
	.cfi_offset 19, -16
	str	x0, [sp, 24]
	str	x1, [sp, 16]
	str	x2, [sp, 8]
	adrp	x0, :got:__stack_chk_guard
	ldr	x0, [x0, :got_lo12:__stack_chk_guard]
	ldr	x1, [x0]
	str	x1, [sp, 56]
	mov	x1, 0
	ldr	x0, [sp, 24]
	bl	_ZNKSt6vectorIiSaIiEE8max_sizeEv
	mov	x19, x0
	ldr	x0, [sp, 24]
	bl	_ZNKSt6vectorIiSaIiEE4sizeEv
	sub	x1, x19, x0
	ldr	x0, [sp, 16]
	cmp	x1, x0
	cset	w0, cc
	and	w0, w0, 255
	and	w0, w0, 1
	cmp	w0, 0
	beq	.L319
	adrp	x0, :got:__stack_chk_guard
	ldr	x0, [x0, :got_lo12:__stack_chk_guard]
	ldr	x2, [sp, 56]
	ldr	x1, [x0]
	subs	x2, x2, x1
	mov	x1, 0
	beq	.L320
	bl	__stack_chk_fail
.L320:
	ldr	x0, [sp, 8]
	bl	_ZSt20__throw_length_errorPKc
.L319:
	ldr	x0, [sp, 24]
	bl	_ZNKSt6vectorIiSaIiEE4sizeEv
	mov	x19, x0
	ldr	x0, [sp, 24]
	bl	_ZNKSt6vectorIiSaIiEE4sizeEv
	str	x0, [sp, 40]
	add	x1, sp, 16
	add	x0, sp, 40
	bl	_ZSt3maxImERKT_S2_S2_
	ldr	x0, [x0]
	add	x0, x19, x0
	str	x0, [sp, 48]
	ldr	x0, [sp, 24]
	bl	_ZNKSt6vectorIiSaIiEE4sizeEv
	mov	x1, x0
	ldr	x0, [sp, 48]
	cmp	x0, x1
	bcc	.L321
	ldr	x0, [sp, 24]
	bl	_ZNKSt6vectorIiSaIiEE8max_sizeEv
	mov	x1, x0
	ldr	x0, [sp, 48]
	cmp	x0, x1
	bls	.L322
.L321:
	ldr	x0, [sp, 24]
	bl	_ZNKSt6vectorIiSaIiEE8max_sizeEv
	b	.L323
.L322:
	ldr	x0, [sp, 48]
.L323:
	mov	x1, x0
	adrp	x0, :got:__stack_chk_guard
	ldr	x0, [x0, :got_lo12:__stack_chk_guard]
	ldr	x3, [sp, 56]
	ldr	x2, [x0]
	subs	x3, x3, x2
	mov	x2, 0
	beq	.L325
	bl	__stack_chk_fail
.L325:
	mov	x0, x1
	ldr	x19, [sp, 80]
	ldp	x29, x30, [sp, 64]
	add	sp, sp, 96
	.cfi_restore 29
	.cfi_restore 30
	.cfi_restore 19
	.cfi_def_cfa_offset 0
	ret
	.cfi_endproc
.LFE5064:
	.size	_ZNKSt6vectorIiSaIiEE12_M_check_lenEmPKc, .-_ZNKSt6vectorIiSaIiEE12_M_check_lenEmPKc
	.section	.text._ZN9__gnu_cxxmiIPiSt6vectorIiSaIiEEEENS_17__normal_iteratorIT_T0_E15difference_typeERKS8_SB_,"axG",@progbits,_ZN9__gnu_cxxmiIPiSt6vectorIiSaIiEEEENS_17__normal_iteratorIT_T0_E15difference_typeERKS8_SB_,comdat
	.align	2
	.weak	_ZN9__gnu_cxxmiIPiSt6vectorIiSaIiEEEENS_17__normal_iteratorIT_T0_E15difference_typeERKS8_SB_
	.type	_ZN9__gnu_cxxmiIPiSt6vectorIiSaIiEEEENS_17__normal_iteratorIT_T0_E15difference_typeERKS8_SB_, %function
_ZN9__gnu_cxxmiIPiSt6vectorIiSaIiEEEENS_17__normal_iteratorIT_T0_E15difference_typeERKS8_SB_:
.LFB5065:
	.cfi_startproc
	stp	x29, x30, [sp, -48]!
	.cfi_def_cfa_offset 48
	.cfi_offset 29, -48
	.cfi_offset 30, -40
	mov	x29, sp
	str	x19, [sp, 16]
	.cfi_offset 19, -32
	str	x0, [sp, 40]
	str	x1, [sp, 32]
	ldr	x0, [sp, 40]
	bl	_ZNK9__gnu_cxx17__normal_iteratorIPiSt6vectorIiSaIiEEE4baseEv
	ldr	x19, [x0]
	ldr	x0, [sp, 32]
	bl	_ZNK9__gnu_cxx17__normal_iteratorIPiSt6vectorIiSaIiEEE4baseEv
	ldr	x0, [x0]
	sub	x0, x19, x0
	asr	x0, x0, 2
	ldr	x19, [sp, 16]
	ldp	x29, x30, [sp], 48
	.cfi_restore 30
	.cfi_restore 29
	.cfi_restore 19
	.cfi_def_cfa_offset 0
	ret
	.cfi_endproc
.LFE5065:
	.size	_ZN9__gnu_cxxmiIPiSt6vectorIiSaIiEEEENS_17__normal_iteratorIT_T0_E15difference_typeERKS8_SB_, .-_ZN9__gnu_cxxmiIPiSt6vectorIiSaIiEEEENS_17__normal_iteratorIT_T0_E15difference_typeERKS8_SB_
	.section	.text._ZNSt12_Vector_baseIiSaIiEE11_M_allocateEm,"axG",@progbits,_ZNSt12_Vector_baseIiSaIiEE11_M_allocateEm,comdat
	.align	2
	.weak	_ZNSt12_Vector_baseIiSaIiEE11_M_allocateEm
	.type	_ZNSt12_Vector_baseIiSaIiEE11_M_allocateEm, %function
_ZNSt12_Vector_baseIiSaIiEE11_M_allocateEm:
.LFB5066:
	.cfi_startproc
	stp	x29, x30, [sp, -48]!
	.cfi_def_cfa_offset 48
	.cfi_offset 29, -48
	.cfi_offset 30, -40
	mov	x29, sp
	str	x0, [sp, 24]
	str	x1, [sp, 16]
	ldr	x0, [sp, 16]
	cmp	x0, 0
	beq	.L329
	ldr	x0, [sp, 24]
	str	x0, [sp, 32]
	ldr	x0, [sp, 16]
	str	x0, [sp, 40]
	mov	x2, 0
	ldr	x1, [sp, 40]
	ldr	x0, [sp, 32]
	bl	_ZNSt15__new_allocatorIiE8allocateEmPKv
	nop
	b	.L331
.L329:
	mov	x0, 0
.L331:
	ldp	x29, x30, [sp], 48
	.cfi_restore 30
	.cfi_restore 29
	.cfi_def_cfa_offset 0
	ret
	.cfi_endproc
.LFE5066:
	.size	_ZNSt12_Vector_baseIiSaIiEE11_M_allocateEm, .-_ZNSt12_Vector_baseIiSaIiEE11_M_allocateEm
	.section	.text._ZNSt6vectorIiSaIiEE11_S_relocateEPiS2_S2_RS0_,"axG",@progbits,_ZNSt6vectorIiSaIiEE11_S_relocateEPiS2_S2_RS0_,comdat
	.align	2
	.weak	_ZNSt6vectorIiSaIiEE11_S_relocateEPiS2_S2_RS0_
	.type	_ZNSt6vectorIiSaIiEE11_S_relocateEPiS2_S2_RS0_, %function
_ZNSt6vectorIiSaIiEE11_S_relocateEPiS2_S2_RS0_:
.LFB5067:
	.cfi_startproc
	stp	x29, x30, [sp, -48]!
	.cfi_def_cfa_offset 48
	.cfi_offset 29, -48
	.cfi_offset 30, -40
	mov	x29, sp
	str	x0, [sp, 40]
	str	x1, [sp, 32]
	str	x2, [sp, 24]
	str	x3, [sp, 16]
	ldr	x3, [sp, 16]
	ldr	x2, [sp, 24]
	ldr	x1, [sp, 32]
	ldr	x0, [sp, 40]
	bl	_ZSt12__relocate_aIPiS0_SaIiEET0_T_S3_S2_RT1_
	ldp	x29, x30, [sp], 48
	.cfi_restore 30
	.cfi_restore 29
	.cfi_def_cfa_offset 0
	ret
	.cfi_endproc
.LFE5067:
	.size	_ZNSt6vectorIiSaIiEE11_S_relocateEPiS2_S2_RS0_, .-_ZNSt6vectorIiSaIiEE11_S_relocateEPiS2_S2_RS0_
	.section	.text._ZNK9__gnu_cxx17__normal_iteratorIPiSt6vectorIiSaIiEEEmiEl,"axG",@progbits,_ZNK9__gnu_cxx17__normal_iteratorIPiSt6vectorIiSaIiEEEmiEl,comdat
	.align	2
	.weak	_ZNK9__gnu_cxx17__normal_iteratorIPiSt6vectorIiSaIiEEEmiEl
	.type	_ZNK9__gnu_cxx17__normal_iteratorIPiSt6vectorIiSaIiEEEmiEl, %function
_ZNK9__gnu_cxx17__normal_iteratorIPiSt6vectorIiSaIiEEEmiEl:
.LFB5069:
	.cfi_startproc
	sub	sp, sp, #64
	.cfi_def_cfa_offset 64
	stp	x29, x30, [sp, 48]
	.cfi_offset 29, -16
	.cfi_offset 30, -8
	add	x29, sp, 48
	str	x0, [sp, 8]
	str	x1, [sp]
	adrp	x0, :got:__stack_chk_guard
	ldr	x0, [x0, :got_lo12:__stack_chk_guard]
	ldr	x1, [x0]
	str	x1, [sp, 40]
	mov	x1, 0
	ldr	x0, [sp, 8]
	ldr	x1, [x0]
	ldr	x0, [sp]
	lsl	x0, x0, 2
	neg	x0, x0
	add	x0, x1, x0
	str	x0, [sp, 24]
	add	x1, sp, 24
	add	x0, sp, 32
	bl	_ZN9__gnu_cxx17__normal_iteratorIPiSt6vectorIiSaIiEEEC1ERKS1_
	ldr	x0, [sp, 32]
	mov	x1, x0
	adrp	x0, :got:__stack_chk_guard
	ldr	x0, [x0, :got_lo12:__stack_chk_guard]
	ldr	x3, [sp, 40]
	ldr	x2, [x0]
	subs	x3, x3, x2
	mov	x2, 0
	beq	.L337
	bl	__stack_chk_fail
.L337:
	mov	x0, x1
	ldp	x29, x30, [sp, 48]
	add	sp, sp, 64
	.cfi_restore 29
	.cfi_restore 30
	.cfi_def_cfa_offset 0
	ret
	.cfi_endproc
.LFE5069:
	.size	_ZNK9__gnu_cxx17__normal_iteratorIPiSt6vectorIiSaIiEEEmiEl, .-_ZNK9__gnu_cxx17__normal_iteratorIPiSt6vectorIiSaIiEEEmiEl
	.section	.text._ZSt12__miter_baseIPKiET_S2_,"axG",@progbits,_ZSt12__miter_baseIPKiET_S2_,comdat
	.align	2
	.weak	_ZSt12__miter_baseIPKiET_S2_
	.type	_ZSt12__miter_baseIPKiET_S2_, %function
_ZSt12__miter_baseIPKiET_S2_:
.LFB5070:
	.cfi_startproc
	sub	sp, sp, #16
	.cfi_def_cfa_offset 16
	str	x0, [sp, 8]
	ldr	x0, [sp, 8]
	add	sp, sp, 16
	.cfi_def_cfa_offset 0
	ret
	.cfi_endproc
.LFE5070:
	.size	_ZSt12__miter_baseIPKiET_S2_, .-_ZSt12__miter_baseIPKiET_S2_
	.section	.text._ZSt13__copy_move_aILb0EPKiPiET1_T0_S4_S3_,"axG",@progbits,_ZSt13__copy_move_aILb0EPKiPiET1_T0_S4_S3_,comdat
	.align	2
	.weak	_ZSt13__copy_move_aILb0EPKiPiET1_T0_S4_S3_
	.type	_ZSt13__copy_move_aILb0EPKiPiET1_T0_S4_S3_, %function
_ZSt13__copy_move_aILb0EPKiPiET1_T0_S4_S3_:
.LFB5071:
	.cfi_startproc
	stp	x29, x30, [sp, -64]!
	.cfi_def_cfa_offset 64
	.cfi_offset 29, -64
	.cfi_offset 30, -56
	mov	x29, sp
	stp	x19, x20, [sp, 16]
	.cfi_offset 19, -48
	.cfi_offset 20, -40
	str	x0, [sp, 56]
	str	x1, [sp, 48]
	str	x2, [sp, 40]
	ldr	x0, [sp, 56]
	bl	_ZSt12__niter_baseIPKiET_S2_
	mov	x19, x0
	ldr	x0, [sp, 48]
	bl	_ZSt12__niter_baseIPKiET_S2_
	mov	x20, x0
	ldr	x0, [sp, 40]
	bl	_ZSt12__niter_baseIPiET_S1_
	mov	x2, x0
	mov	x1, x20
	mov	x0, x19
	bl	_ZSt14__copy_move_a1ILb0EPKiPiET1_T0_S4_S3_
	mov	x1, x0
	add	x0, sp, 40
	bl	_ZSt12__niter_wrapIPiET_RKS1_S1_
	ldp	x19, x20, [sp, 16]
	ldp	x29, x30, [sp], 64
	.cfi_restore 30
	.cfi_restore 29
	.cfi_restore 19
	.cfi_restore 20
	.cfi_def_cfa_offset 0
	ret
	.cfi_endproc
.LFE5071:
	.size	_ZSt13__copy_move_aILb0EPKiPiET1_T0_S4_S3_, .-_ZSt13__copy_move_aILb0EPKiPiET1_T0_S4_S3_
	.section	.text._ZSt9__advanceIPKilEvRT_T0_St26random_access_iterator_tag,"axG",@progbits,_ZSt9__advanceIPKilEvRT_T0_St26random_access_iterator_tag,comdat
	.align	2
	.weak	_ZSt9__advanceIPKilEvRT_T0_St26random_access_iterator_tag
	.type	_ZSt9__advanceIPKilEvRT_T0_St26random_access_iterator_tag, %function
_ZSt9__advanceIPKilEvRT_T0_St26random_access_iterator_tag:
.LFB5073:
	.cfi_startproc
	sub	sp, sp, #32
	.cfi_def_cfa_offset 32
	str	x0, [sp, 24]
	str	x1, [sp, 16]
	strb	w2, [sp, 8]
	ldr	x0, [sp, 24]
	ldr	x1, [x0]
	ldr	x0, [sp, 16]
	lsl	x0, x0, 2
	add	x1, x1, x0
	ldr	x0, [sp, 24]
	str	x1, [x0]
	nop
	add	sp, sp, 32
	.cfi_def_cfa_offset 0
	ret
	.cfi_endproc
.LFE5073:
	.size	_ZSt9__advanceIPKilEvRT_T0_St26random_access_iterator_tag, .-_ZSt9__advanceIPKilEvRT_T0_St26random_access_iterator_tag
	.section	.text._ZSt18uninitialized_copyIPKiPiET0_T_S4_S3_,"axG",@progbits,_ZSt18uninitialized_copyIPKiPiET0_T_S4_S3_,comdat
	.align	2
	.weak	_ZSt18uninitialized_copyIPKiPiET0_T_S4_S3_
	.type	_ZSt18uninitialized_copyIPKiPiET0_T_S4_S3_, %function
_ZSt18uninitialized_copyIPKiPiET0_T_S4_S3_:
.LFB5074:
	.cfi_startproc
	stp	x29, x30, [sp, -64]!
	.cfi_def_cfa_offset 64
	.cfi_offset 29, -64
	.cfi_offset 30, -56
	mov	x29, sp
	str	x0, [sp, 40]
	str	x1, [sp, 32]
	str	x2, [sp, 24]
	mov	w0, 1
	strb	w0, [sp, 62]
	mov	w0, 1
	strb	w0, [sp, 63]
	ldr	x2, [sp, 24]
	ldr	x1, [sp, 32]
	ldr	x0, [sp, 40]
	bl	_ZNSt20__uninitialized_copyILb1EE13__uninit_copyIPKiPiEET0_T_S6_S5_
	ldp	x29, x30, [sp], 64
	.cfi_restore 30
	.cfi_restore 29
	.cfi_def_cfa_offset 0
	ret
	.cfi_endproc
.LFE5074:
	.size	_ZSt18uninitialized_copyIPKiPiET0_T_S4_S3_, .-_ZSt18uninitialized_copyIPKiPiET0_T_S4_S3_
	.section	.text._ZNSt8__detail4_ModImLm4294967296ELm1ELm0ELb1ELb1EE6__calcEm,"axG",@progbits,_ZNSt8__detail4_ModImLm4294967296ELm1ELm0ELb1ELb1EE6__calcEm,comdat
	.align	2
	.weak	_ZNSt8__detail4_ModImLm4294967296ELm1ELm0ELb1ELb1EE6__calcEm
	.type	_ZNSt8__detail4_ModImLm4294967296ELm1ELm0ELb1ELb1EE6__calcEm, %function
_ZNSt8__detail4_ModImLm4294967296ELm1ELm0ELb1ELb1EE6__calcEm:
.LFB5076:
	.cfi_startproc
	sub	sp, sp, #32
	.cfi_def_cfa_offset 32
	str	x0, [sp, 8]
	ldr	x0, [sp, 8]
	str	x0, [sp, 24]
	ldr	x0, [sp, 24]
	and	x0, x0, 4294967295
	str	x0, [sp, 24]
	ldr	x0, [sp, 24]
	add	sp, sp, 32
	.cfi_def_cfa_offset 0
	ret
	.cfi_endproc
.LFE5076:
	.size	_ZNSt8__detail4_ModImLm4294967296ELm1ELm0ELb1ELb1EE6__calcEm, .-_ZNSt8__detail4_ModImLm4294967296ELm1ELm0ELb1ELb1EE6__calcEm
	.section	.text._ZNSt8__detail4_ModImLm624ELm1ELm0ELb1ELb1EE6__calcEm,"axG",@progbits,_ZNSt8__detail4_ModImLm624ELm1ELm0ELb1ELb1EE6__calcEm,comdat
	.align	2
	.weak	_ZNSt8__detail4_ModImLm624ELm1ELm0ELb1ELb1EE6__calcEm
	.type	_ZNSt8__detail4_ModImLm624ELm1ELm0ELb1ELb1EE6__calcEm, %function
_ZNSt8__detail4_ModImLm624ELm1ELm0ELb1ELb1EE6__calcEm:
.LFB5077:
	.cfi_startproc
	sub	sp, sp, #32
	.cfi_def_cfa_offset 32
	str	x0, [sp, 8]
	ldr	x0, [sp, 8]
	str	x0, [sp, 24]
	ldr	x2, [sp, 24]
	lsr	x1, x2, 4
	mov	x0, 3361
	movk	x0, 0x20d2, lsl 16
	movk	x0, 0xd20d, lsl 32
	movk	x0, 0xd20, lsl 48
	umulh	x0, x1, x0
	lsr	x1, x0, 1
	mov	x0, x1
	lsl	x0, x0, 2
	add	x0, x0, x1
	lsl	x0, x0, 3
	sub	x0, x0, x1
	lsl	x0, x0, 4
	sub	x0, x2, x0
	str	x0, [sp, 24]
	ldr	x0, [sp, 24]
	add	sp, sp, 32
	.cfi_def_cfa_offset 0
	ret
	.cfi_endproc
.LFE5077:
	.size	_ZNSt8__detail4_ModImLm624ELm1ELm0ELb1ELb1EE6__calcEm, .-_ZNSt8__detail4_ModImLm624ELm1ELm0ELb1ELb1EE6__calcEm
	.section	.text._ZSt3minImERKT_S2_S2_,"axG",@progbits,_ZSt3minImERKT_S2_S2_,comdat
	.align	2
	.weak	_ZSt3minImERKT_S2_S2_
	.type	_ZSt3minImERKT_S2_S2_, %function
_ZSt3minImERKT_S2_S2_:
.LFB5081:
	.cfi_startproc
	sub	sp, sp, #16
	.cfi_def_cfa_offset 16
	str	x0, [sp, 8]
	str	x1, [sp]
	ldr	x0, [sp]
	ldr	x1, [x0]
	ldr	x0, [sp, 8]
	ldr	x0, [x0]
	cmp	x1, x0
	bcs	.L350
	ldr	x0, [sp]
	b	.L351
.L350:
	ldr	x0, [sp, 8]
.L351:
	add	sp, sp, 16
	.cfi_def_cfa_offset 0
	ret
	.cfi_endproc
.LFE5081:
	.size	_ZSt3minImERKT_S2_S2_, .-_ZSt3minImERKT_S2_S2_
	.section	.text._ZSt25__uninitialized_default_nIPimET_S1_T0_,"axG",@progbits,_ZSt25__uninitialized_default_nIPimET_S1_T0_,comdat
	.align	2
	.weak	_ZSt25__uninitialized_default_nIPimET_S1_T0_
	.type	_ZSt25__uninitialized_default_nIPimET_S1_T0_, %function
_ZSt25__uninitialized_default_nIPimET_S1_T0_:
.LFB5085:
	.cfi_startproc
	stp	x29, x30, [sp, -48]!
	.cfi_def_cfa_offset 48
	.cfi_offset 29, -48
	.cfi_offset 30, -40
	mov	x29, sp
	str	x0, [sp, 24]
	str	x1, [sp, 16]
	mov	w0, 1
	strb	w0, [sp, 47]
	ldr	x1, [sp, 16]
	ldr	x0, [sp, 24]
	bl	_ZNSt27__uninitialized_default_n_1ILb1EE18__uninit_default_nIPimEET_S3_T0_
	ldp	x29, x30, [sp], 48
	.cfi_restore 30
	.cfi_restore 29
	.cfi_def_cfa_offset 0
	ret
	.cfi_endproc
.LFE5085:
	.size	_ZSt25__uninitialized_default_nIPimET_S1_T0_, .-_ZSt25__uninitialized_default_nIPimET_S1_T0_
	.section	.text._ZNSt23mersenne_twister_engineImLm32ELm624ELm397ELm31ELm2567483615ELm11ELm4294967295ELm7ELm2636928640ELm15ELm4022730752ELm18ELm1812433253EE11_M_gen_randEv,"axG",@progbits,_ZNSt23mersenne_twister_engineImLm32ELm624ELm397ELm31ELm2567483615ELm11ELm4294967295ELm7ELm2636928640ELm15ELm4022730752ELm18ELm1812433253EE11_M_gen_randEv,comdat
	.align	2
	.weak	_ZNSt23mersenne_twister_engineImLm32ELm624ELm397ELm31ELm2567483615ELm11ELm4294967295ELm7ELm2636928640ELm15ELm4022730752ELm18ELm1812433253EE11_M_gen_randEv
	.type	_ZNSt23mersenne_twister_engineImLm32ELm624ELm397ELm31ELm2567483615ELm11ELm4294967295ELm7ELm2636928640ELm15ELm4022730752ELm18ELm1812433253EE11_M_gen_randEv, %function
_ZNSt23mersenne_twister_engineImLm32ELm624ELm397ELm31ELm2567483615ELm11ELm4294967295ELm7ELm2636928640ELm15ELm4022730752ELm18ELm1812433253EE11_M_gen_randEv:
.LFB5086:
	.cfi_startproc
	sub	sp, sp, #80
	.cfi_def_cfa_offset 80
	str	x0, [sp, 8]
	mov	x0, -2147483648
	str	x0, [sp, 40]
	mov	x0, 2147483647
	str	x0, [sp, 48]
	str	xzr, [sp, 24]
	b	.L355
.L358:
	ldr	x0, [sp, 8]
	ldr	x1, [sp, 24]
	ldr	x0, [x0, x1, lsl 3]
	and	x1, x0, -2147483648
	ldr	x0, [sp, 24]
	add	x2, x0, 1
	ldr	x0, [sp, 8]
	ldr	x0, [x0, x2, lsl 3]
	and	x0, x0, 2147483647
	orr	x0, x1, x0
	str	x0, [sp, 72]
	ldr	x0, [sp, 24]
	add	x1, x0, 397
	ldr	x0, [sp, 8]
	ldr	x1, [x0, x1, lsl 3]
	ldr	x0, [sp, 72]
	lsr	x0, x0, 1
	eor	x1, x1, x0
	ldr	x0, [sp, 72]
	and	x0, x0, 1
	cmp	x0, 0
	beq	.L356
	mov	x0, 45279
	movk	x0, 0x9908, lsl 16
	b	.L357
.L356:
	mov	x0, 0
.L357:
	eor	x2, x0, x1
	ldr	x0, [sp, 8]
	ldr	x1, [sp, 24]
	str	x2, [x0, x1, lsl 3]
	ldr	x0, [sp, 24]
	add	x0, x0, 1
	str	x0, [sp, 24]
.L355:
	ldr	x0, [sp, 24]
	cmp	x0, 226
	bls	.L358
	mov	x0, 227
	str	x0, [sp, 32]
	b	.L359
.L362:
	ldr	x0, [sp, 8]
	ldr	x1, [sp, 32]
	ldr	x0, [x0, x1, lsl 3]
	and	x1, x0, -2147483648
	ldr	x0, [sp, 32]
	add	x2, x0, 1
	ldr	x0, [sp, 8]
	ldr	x0, [x0, x2, lsl 3]
	and	x0, x0, 2147483647
	orr	x0, x1, x0
	str	x0, [sp, 64]
	ldr	x0, [sp, 32]
	sub	x1, x0, #227
	ldr	x0, [sp, 8]
	ldr	x1, [x0, x1, lsl 3]
	ldr	x0, [sp, 64]
	lsr	x0, x0, 1
	eor	x1, x1, x0
	ldr	x0, [sp, 64]
	and	x0, x0, 1
	cmp	x0, 0
	beq	.L360
	mov	x0, 45279
	movk	x0, 0x9908, lsl 16
	b	.L361
.L360:
	mov	x0, 0
.L361:
	eor	x2, x0, x1
	ldr	x0, [sp, 8]
	ldr	x1, [sp, 32]
	str	x2, [x0, x1, lsl 3]
	ldr	x0, [sp, 32]
	add	x0, x0, 1
	str	x0, [sp, 32]
.L359:
	ldr	x0, [sp, 32]
	cmp	x0, 622
	bls	.L362
	ldr	x0, [sp, 8]
	ldr	x0, [x0, 4984]
	and	x1, x0, -2147483648
	ldr	x0, [sp, 8]
	ldr	x0, [x0]
	and	x0, x0, 2147483647
	orr	x0, x1, x0
	str	x0, [sp, 56]
	ldr	x0, [sp, 8]
	ldr	x1, [x0, 3168]
	ldr	x0, [sp, 56]
	lsr	x0, x0, 1
	eor	x1, x1, x0
	ldr	x0, [sp, 56]
	and	x0, x0, 1
	cmp	x0, 0
	beq	.L363
	mov	x0, 45279
	movk	x0, 0x9908, lsl 16
	b	.L364
.L363:
	mov	x0, 0
.L364:
	eor	x1, x0, x1
	ldr	x0, [sp, 8]
	str	x1, [x0, 4984]
	ldr	x0, [sp, 8]
	str	xzr, [x0, 4992]
	nop
	add	sp, sp, 80
	.cfi_def_cfa_offset 0
	ret
	.cfi_endproc
.LFE5086:
	.size	_ZNSt23mersenne_twister_engineImLm32ELm624ELm397ELm31ELm2567483615ELm11ELm4294967295ELm7ELm2636928640ELm15ELm4022730752ELm18ELm1812433253EE11_M_gen_randEv, .-_ZNSt23mersenne_twister_engineImLm32ELm624ELm397ELm31ELm2567483615ELm11ELm4294967295ELm7ELm2636928640ELm15ELm4022730752ELm18ELm1812433253EE11_M_gen_randEv
	.section	.text._ZNSt6chrono20__duration_cast_implINS_8durationIdSt5ratioILl1ELl1EEEES2_ILl1ELl1000000000EEdLb1ELb0EE6__castIlS5_EES4_RKNS1_IT_T0_EE,"axG",@progbits,_ZNSt6chrono20__duration_cast_implINS_8durationIdSt5ratioILl1ELl1EEEES2_ILl1ELl1000000000EEdLb1ELb0EE6__castIlS5_EES4_RKNS1_IT_T0_EE,comdat
	.align	2
	.weak	_ZNSt6chrono20__duration_cast_implINS_8durationIdSt5ratioILl1ELl1EEEES2_ILl1ELl1000000000EEdLb1ELb0EE6__castIlS5_EES4_RKNS1_IT_T0_EE
	.type	_ZNSt6chrono20__duration_cast_implINS_8durationIdSt5ratioILl1ELl1EEEES2_ILl1ELl1000000000EEdLb1ELb0EE6__castIlS5_EES4_RKNS1_IT_T0_EE, %function
_ZNSt6chrono20__duration_cast_implINS_8durationIdSt5ratioILl1ELl1EEEES2_ILl1ELl1000000000EEdLb1ELb0EE6__castIlS5_EES4_RKNS1_IT_T0_EE:
.LFB5087:
	.cfi_startproc
	sub	sp, sp, #64
	.cfi_def_cfa_offset 64
	stp	x29, x30, [sp, 48]
	.cfi_offset 29, -16
	.cfi_offset 30, -8
	add	x29, sp, 48
	str	x0, [sp, 8]
	adrp	x0, :got:__stack_chk_guard
	ldr	x0, [x0, :got_lo12:__stack_chk_guard]
	ldr	x1, [x0]
	str	x1, [sp, 40]
	mov	x1, 0
	ldr	x0, [sp, 8]
	bl	_ZNKSt6chrono8durationIlSt5ratioILl1ELl1000000000EEE5countEv
	scvtf	d0, x0
	mov	x0, 225833675390976
	movk	x0, 0x41cd, lsl 48
	fmov	d1, x0
	fdiv	d0, d0, d1
	str	d0, [sp, 24]
	add	x1, sp, 24
	add	x0, sp, 32
	bl	_ZNSt6chrono8durationIdSt5ratioILl1ELl1EEEC1IdvEERKT_
	ldr	d0, [sp, 32]
	fmov	x0, d0
	fmov	d0, x0
	adrp	x0, :got:__stack_chk_guard
	ldr	x0, [x0, :got_lo12:__stack_chk_guard]
	ldr	x2, [sp, 40]
	ldr	x1, [x0]
	subs	x2, x2, x1
	mov	x1, 0
	beq	.L367
	bl	__stack_chk_fail
.L367:
	ldp	x29, x30, [sp, 48]
	add	sp, sp, 64
	.cfi_restore 29
	.cfi_restore 30
	.cfi_def_cfa_offset 0
	ret
	.cfi_endproc
.LFE5087:
	.size	_ZNSt6chrono20__duration_cast_implINS_8durationIdSt5ratioILl1ELl1EEEES2_ILl1ELl1000000000EEdLb1ELb0EE6__castIlS5_EES4_RKNS1_IT_T0_EE, .-_ZNSt6chrono20__duration_cast_implINS_8durationIdSt5ratioILl1ELl1EEEES2_ILl1ELl1000000000EEdLb1ELb0EE6__castIlS5_EES4_RKNS1_IT_T0_EE
	.section	.text._ZNKSt6vectorIiSaIiEE8max_sizeEv,"axG",@progbits,_ZNKSt6vectorIiSaIiEE8max_sizeEv,comdat
	.align	2
	.weak	_ZNKSt6vectorIiSaIiEE8max_sizeEv
	.type	_ZNKSt6vectorIiSaIiEE8max_sizeEv, %function
_ZNKSt6vectorIiSaIiEE8max_sizeEv:
.LFB5111:
	.cfi_startproc
	stp	x29, x30, [sp, -32]!
	.cfi_def_cfa_offset 32
	.cfi_offset 29, -32
	.cfi_offset 30, -24
	mov	x29, sp
	str	x0, [sp, 24]
	ldr	x0, [sp, 24]
	bl	_ZNKSt12_Vector_baseIiSaIiEE19_M_get_Tp_allocatorEv
	bl	_ZNSt6vectorIiSaIiEE11_S_max_sizeERKS0_
	ldp	x29, x30, [sp], 32
	.cfi_restore 30
	.cfi_restore 29
	.cfi_def_cfa_offset 0
	ret
	.cfi_endproc
.LFE5111:
	.size	_ZNKSt6vectorIiSaIiEE8max_sizeEv, .-_ZNKSt6vectorIiSaIiEE8max_sizeEv
	.section	.text._ZSt3maxImERKT_S2_S2_,"axG",@progbits,_ZSt3maxImERKT_S2_S2_,comdat
	.align	2
	.weak	_ZSt3maxImERKT_S2_S2_
	.type	_ZSt3maxImERKT_S2_S2_, %function
_ZSt3maxImERKT_S2_S2_:
.LFB5112:
	.cfi_startproc
	sub	sp, sp, #16
	.cfi_def_cfa_offset 16
	str	x0, [sp, 8]
	str	x1, [sp]
	ldr	x0, [sp, 8]
	ldr	x1, [x0]
	ldr	x0, [sp]
	ldr	x0, [x0]
	cmp	x1, x0
	bcs	.L371
	ldr	x0, [sp]
	b	.L372
.L371:
	ldr	x0, [sp, 8]
.L372:
	add	sp, sp, 16
	.cfi_def_cfa_offset 0
	ret
	.cfi_endproc
.LFE5112:
	.size	_ZSt3maxImERKT_S2_S2_, .-_ZSt3maxImERKT_S2_S2_
	.section	.text._ZSt12__relocate_aIPiS0_SaIiEET0_T_S3_S2_RT1_,"axG",@progbits,_ZSt12__relocate_aIPiS0_SaIiEET0_T_S3_S2_RT1_,comdat
	.align	2
	.weak	_ZSt12__relocate_aIPiS0_SaIiEET0_T_S3_S2_RT1_
	.type	_ZSt12__relocate_aIPiS0_SaIiEET0_T_S3_S2_RT1_, %function
_ZSt12__relocate_aIPiS0_SaIiEET0_T_S3_S2_RT1_:
.LFB5114:
	.cfi_startproc
	stp	x29, x30, [sp, -64]!
	.cfi_def_cfa_offset 64
	.cfi_offset 29, -64
	.cfi_offset 30, -56
	mov	x29, sp
	stp	x19, x20, [sp, 16]
	.cfi_offset 19, -48
	.cfi_offset 20, -40
	str	x0, [sp, 56]
	str	x1, [sp, 48]
	str	x2, [sp, 40]
	str	x3, [sp, 32]
	ldr	x0, [sp, 56]
	bl	_ZSt12__niter_baseIPiET_S1_
	mov	x19, x0
	ldr	x0, [sp, 48]
	bl	_ZSt12__niter_baseIPiET_S1_
	mov	x20, x0
	ldr	x0, [sp, 40]
	bl	_ZSt12__niter_baseIPiET_S1_
	ldr	x3, [sp, 32]
	mov	x2, x0
	mov	x1, x20
	mov	x0, x19
	bl	_ZSt14__relocate_a_1IiiENSt9enable_ifIXsrSt24__is_bitwise_relocatableIT_vE5valueEPS2_E4typeES4_S4_S4_RSaIT0_E
	ldp	x19, x20, [sp, 16]
	ldp	x29, x30, [sp], 64
	.cfi_restore 30
	.cfi_restore 29
	.cfi_restore 19
	.cfi_restore 20
	.cfi_def_cfa_offset 0
	ret
	.cfi_endproc
.LFE5114:
	.size	_ZSt12__relocate_aIPiS0_SaIiEET0_T_S3_S2_RT1_, .-_ZSt12__relocate_aIPiS0_SaIiEET0_T_S3_S2_RT1_
	.section	.text._ZSt12__niter_baseIPKiET_S2_,"axG",@progbits,_ZSt12__niter_baseIPKiET_S2_,comdat
	.align	2
	.weak	_ZSt12__niter_baseIPKiET_S2_
	.type	_ZSt12__niter_baseIPKiET_S2_, %function
_ZSt12__niter_baseIPKiET_S2_:
.LFB5116:
	.cfi_startproc
	sub	sp, sp, #16
	.cfi_def_cfa_offset 16
	str	x0, [sp, 8]
	ldr	x0, [sp, 8]
	add	sp, sp, 16
	.cfi_def_cfa_offset 0
	ret
	.cfi_endproc
.LFE5116:
	.size	_ZSt12__niter_baseIPKiET_S2_, .-_ZSt12__niter_baseIPKiET_S2_
	.section	.text._ZSt12__niter_baseIPiET_S1_,"axG",@progbits,_ZSt12__niter_baseIPiET_S1_,comdat
	.align	2
	.weak	_ZSt12__niter_baseIPiET_S1_
	.type	_ZSt12__niter_baseIPiET_S1_, %function
_ZSt12__niter_baseIPiET_S1_:
.LFB5117:
	.cfi_startproc
	sub	sp, sp, #16
	.cfi_def_cfa_offset 16
	str	x0, [sp, 8]
	ldr	x0, [sp, 8]
	add	sp, sp, 16
	.cfi_def_cfa_offset 0
	ret
	.cfi_endproc
.LFE5117:
	.size	_ZSt12__niter_baseIPiET_S1_, .-_ZSt12__niter_baseIPiET_S1_
	.section	.text._ZSt14__copy_move_a1ILb0EPKiPiET1_T0_S4_S3_,"axG",@progbits,_ZSt14__copy_move_a1ILb0EPKiPiET1_T0_S4_S3_,comdat
	.align	2
	.weak	_ZSt14__copy_move_a1ILb0EPKiPiET1_T0_S4_S3_
	.type	_ZSt14__copy_move_a1ILb0EPKiPiET1_T0_S4_S3_, %function
_ZSt14__copy_move_a1ILb0EPKiPiET1_T0_S4_S3_:
.LFB5118:
	.cfi_startproc
	stp	x29, x30, [sp, -48]!
	.cfi_def_cfa_offset 48
	.cfi_offset 29, -48
	.cfi_offset 30, -40
	mov	x29, sp
	str	x0, [sp, 40]
	str	x1, [sp, 32]
	str	x2, [sp, 24]
	ldr	x2, [sp, 24]
	ldr	x1, [sp, 32]
	ldr	x0, [sp, 40]
	bl	_ZSt14__copy_move_a2ILb0EPKiPiET1_T0_S4_S3_
	ldp	x29, x30, [sp], 48
	.cfi_restore 30
	.cfi_restore 29
	.cfi_def_cfa_offset 0
	ret
	.cfi_endproc
.LFE5118:
	.size	_ZSt14__copy_move_a1ILb0EPKiPiET1_T0_S4_S3_, .-_ZSt14__copy_move_a1ILb0EPKiPiET1_T0_S4_S3_
	.section	.text._ZSt12__niter_wrapIPiET_RKS1_S1_,"axG",@progbits,_ZSt12__niter_wrapIPiET_RKS1_S1_,comdat
	.align	2
	.weak	_ZSt12__niter_wrapIPiET_RKS1_S1_
	.type	_ZSt12__niter_wrapIPiET_RKS1_S1_, %function
_ZSt12__niter_wrapIPiET_RKS1_S1_:
.LFB5119:
	.cfi_startproc
	sub	sp, sp, #16
	.cfi_def_cfa_offset 16
	str	x0, [sp, 8]
	str	x1, [sp]
	ldr	x0, [sp]
	add	sp, sp, 16
	.cfi_def_cfa_offset 0
	ret
	.cfi_endproc
.LFE5119:
	.size	_ZSt12__niter_wrapIPiET_RKS1_S1_, .-_ZSt12__niter_wrapIPiET_RKS1_S1_
	.section	.text._ZNSt20__uninitialized_copyILb1EE13__uninit_copyIPKiPiEET0_T_S6_S5_,"axG",@progbits,_ZNSt20__uninitialized_copyILb1EE13__uninit_copyIPKiPiEET0_T_S6_S5_,comdat
	.align	2
	.weak	_ZNSt20__uninitialized_copyILb1EE13__uninit_copyIPKiPiEET0_T_S6_S5_
	.type	_ZNSt20__uninitialized_copyILb1EE13__uninit_copyIPKiPiEET0_T_S6_S5_, %function
_ZNSt20__uninitialized_copyILb1EE13__uninit_copyIPKiPiEET0_T_S6_S5_:
.LFB5120:
	.cfi_startproc
	stp	x29, x30, [sp, -48]!
	.cfi_def_cfa_offset 48
	.cfi_offset 29, -48
	.cfi_offset 30, -40
	mov	x29, sp
	str	x0, [sp, 40]
	str	x1, [sp, 32]
	str	x2, [sp, 24]
	ldr	x2, [sp, 24]
	ldr	x1, [sp, 32]
	ldr	x0, [sp, 40]
	bl	_ZSt4copyIPKiPiET0_T_S4_S3_
	ldp	x29, x30, [sp], 48
	.cfi_restore 30
	.cfi_restore 29
	.cfi_def_cfa_offset 0
	ret
	.cfi_endproc
.LFE5120:
	.size	_ZNSt20__uninitialized_copyILb1EE13__uninit_copyIPKiPiEET0_T_S6_S5_, .-_ZNSt20__uninitialized_copyILb1EE13__uninit_copyIPKiPiEET0_T_S6_S5_
	.section	.text._ZNSt27__uninitialized_default_n_1ILb1EE18__uninit_default_nIPimEET_S3_T0_,"axG",@progbits,_ZNSt27__uninitialized_default_n_1ILb1EE18__uninit_default_nIPimEET_S3_T0_,comdat
	.align	2
	.weak	_ZNSt27__uninitialized_default_n_1ILb1EE18__uninit_default_nIPimEET_S3_T0_
	.type	_ZNSt27__uninitialized_default_n_1ILb1EE18__uninit_default_nIPimEET_S3_T0_, %function
_ZNSt27__uninitialized_default_n_1ILb1EE18__uninit_default_nIPimEET_S3_T0_:
.LFB5123:
	.cfi_startproc
	stp	x29, x30, [sp, -48]!
	.cfi_def_cfa_offset 48
	.cfi_offset 29, -48
	.cfi_offset 30, -40
	mov	x29, sp
	str	x0, [sp, 24]
	str	x1, [sp, 16]
	ldr	x0, [sp, 16]
	cmp	x0, 0
	beq	.L386
	ldr	x0, [sp, 24]
	bl	_ZSt11__addressofIiEPT_RS0_
	str	x0, [sp, 40]
	ldr	x0, [sp, 40]
	bl	_ZSt10_ConstructIiJEEvPT_DpOT0_
	ldr	x0, [sp, 24]
	add	x0, x0, 4
	str	x0, [sp, 24]
	ldr	x0, [sp, 16]
	sub	x0, x0, #1
	ldr	x2, [sp, 40]
	mov	x1, x0
	ldr	x0, [sp, 24]
	bl	_ZSt6fill_nIPimiET_S1_T0_RKT1_
	str	x0, [sp, 24]
.L386:
	ldr	x0, [sp, 24]
	ldp	x29, x30, [sp], 48
	.cfi_restore 30
	.cfi_restore 29
	.cfi_def_cfa_offset 0
	ret
	.cfi_endproc
.LFE5123:
	.size	_ZNSt27__uninitialized_default_n_1ILb1EE18__uninit_default_nIPimEET_S3_T0_, .-_ZNSt27__uninitialized_default_n_1ILb1EE18__uninit_default_nIPimEET_S3_T0_
	.section	.text._ZNSt6chrono8durationIdSt5ratioILl1ELl1EEEC2IdvEERKT_,"axG",@progbits,_ZNSt6chrono8durationIdSt5ratioILl1ELl1EEEC5IdvEERKT_,comdat
	.align	2
	.weak	_ZNSt6chrono8durationIdSt5ratioILl1ELl1EEEC2IdvEERKT_
	.type	_ZNSt6chrono8durationIdSt5ratioILl1ELl1EEEC2IdvEERKT_, %function
_ZNSt6chrono8durationIdSt5ratioILl1ELl1EEEC2IdvEERKT_:
.LFB5125:
	.cfi_startproc
	sub	sp, sp, #16
	.cfi_def_cfa_offset 16
	str	x0, [sp, 8]
	str	x1, [sp]
	ldr	x0, [sp]
	ldr	d0, [x0]
	ldr	x0, [sp, 8]
	str	d0, [x0]
	nop
	add	sp, sp, 16
	.cfi_def_cfa_offset 0
	ret
	.cfi_endproc
.LFE5125:
	.size	_ZNSt6chrono8durationIdSt5ratioILl1ELl1EEEC2IdvEERKT_, .-_ZNSt6chrono8durationIdSt5ratioILl1ELl1EEEC2IdvEERKT_
	.weak	_ZNSt6chrono8durationIdSt5ratioILl1ELl1EEEC1IdvEERKT_
	.set	_ZNSt6chrono8durationIdSt5ratioILl1ELl1EEEC1IdvEERKT_,_ZNSt6chrono8durationIdSt5ratioILl1ELl1EEEC2IdvEERKT_
	.section	.text._ZNKSt12_Vector_baseIiSaIiEE19_M_get_Tp_allocatorEv,"axG",@progbits,_ZNKSt12_Vector_baseIiSaIiEE19_M_get_Tp_allocatorEv,comdat
	.align	2
	.weak	_ZNKSt12_Vector_baseIiSaIiEE19_M_get_Tp_allocatorEv
	.type	_ZNKSt12_Vector_baseIiSaIiEE19_M_get_Tp_allocatorEv, %function
_ZNKSt12_Vector_baseIiSaIiEE19_M_get_Tp_allocatorEv:
.LFB5137:
	.cfi_startproc
	sub	sp, sp, #16
	.cfi_def_cfa_offset 16
	str	x0, [sp, 8]
	ldr	x0, [sp, 8]
	add	sp, sp, 16
	.cfi_def_cfa_offset 0
	ret
	.cfi_endproc
.LFE5137:
	.size	_ZNKSt12_Vector_baseIiSaIiEE19_M_get_Tp_allocatorEv, .-_ZNKSt12_Vector_baseIiSaIiEE19_M_get_Tp_allocatorEv
	.section	.text._ZNSt15__new_allocatorIiE8allocateEmPKv,"axG",@progbits,_ZNSt15__new_allocatorIiE8allocateEmPKv,comdat
	.align	2
	.weak	_ZNSt15__new_allocatorIiE8allocateEmPKv
	.type	_ZNSt15__new_allocatorIiE8allocateEmPKv, %function
_ZNSt15__new_allocatorIiE8allocateEmPKv:
.LFB5138:
	.cfi_startproc
	stp	x29, x30, [sp, -64]!
	.cfi_def_cfa_offset 64
	.cfi_offset 29, -64
	.cfi_offset 30, -56
	mov	x29, sp
	str	x0, [sp, 40]
	str	x1, [sp, 32]
	str	x2, [sp, 24]
	ldr	x0, [sp, 40]
	str	x0, [sp, 56]
	mov	x0, 2305843009213693951
	ldr	x1, [sp, 32]
	cmp	x1, x0
	cset	w0, hi
	and	w0, w0, 255
	and	x0, x0, 255
	cmp	x0, 0
	cset	w0, ne
	and	w0, w0, 255
	and	w0, w0, 1
	cmp	w0, 0
	beq	.L393
	ldr	x1, [sp, 32]
	mov	x0, 4611686018427387903
	cmp	x1, x0
	bls	.L394
	bl	_ZSt28__throw_bad_array_new_lengthv
.L394:
	bl	_ZSt17__throw_bad_allocv
.L393:
	ldr	x0, [sp, 32]
	lsl	x0, x0, 2
	bl	_Znwm
	nop
	ldp	x29, x30, [sp], 64
	.cfi_restore 30
	.cfi_restore 29
	.cfi_def_cfa_offset 0
	ret
	.cfi_endproc
.LFE5138:
	.size	_ZNSt15__new_allocatorIiE8allocateEmPKv, .-_ZNSt15__new_allocatorIiE8allocateEmPKv
	.section	.text._ZSt14__relocate_a_1IiiENSt9enable_ifIXsrSt24__is_bitwise_relocatableIT_vE5valueEPS2_E4typeES4_S4_S4_RSaIT0_E,"axG",@progbits,_ZSt14__relocate_a_1IiiENSt9enable_ifIXsrSt24__is_bitwise_relocatableIT_vE5valueEPS2_E4typeES4_S4_S4_RSaIT0_E,comdat
	.align	2
	.weak	_ZSt14__relocate_a_1IiiENSt9enable_ifIXsrSt24__is_bitwise_relocatableIT_vE5valueEPS2_E4typeES4_S4_S4_RSaIT0_E
	.type	_ZSt14__relocate_a_1IiiENSt9enable_ifIXsrSt24__is_bitwise_relocatableIT_vE5valueEPS2_E4typeES4_S4_S4_RSaIT0_E, %function
_ZSt14__relocate_a_1IiiENSt9enable_ifIXsrSt24__is_bitwise_relocatableIT_vE5valueEPS2_E4typeES4_S4_S4_RSaIT0_E:
.LFB5139:
	.cfi_startproc
	stp	x29, x30, [sp, -64]!
	.cfi_def_cfa_offset 64
	.cfi_offset 29, -64
	.cfi_offset 30, -56
	mov	x29, sp
	str	x0, [sp, 40]
	str	x1, [sp, 32]
	str	x2, [sp, 24]
	str	x3, [sp, 16]
	ldr	x1, [sp, 32]
	ldr	x0, [sp, 40]
	sub	x0, x1, x0
	asr	x0, x0, 2
	str	x0, [sp, 56]
	ldr	x0, [sp, 56]
	cmp	x0, 0
	ble	.L397
	ldr	x0, [sp, 56]
	lsl	x0, x0, 2
	mov	x2, x0
	ldr	x1, [sp, 40]
	ldr	x0, [sp, 24]
	bl	memmove
.L397:
	ldr	x0, [sp, 56]
	lsl	x0, x0, 2
	ldr	x1, [sp, 24]
	add	x0, x1, x0
	ldp	x29, x30, [sp], 64
	.cfi_restore 30
	.cfi_restore 29
	.cfi_def_cfa_offset 0
	ret
	.cfi_endproc
.LFE5139:
	.size	_ZSt14__relocate_a_1IiiENSt9enable_ifIXsrSt24__is_bitwise_relocatableIT_vE5valueEPS2_E4typeES4_S4_S4_RSaIT0_E, .-_ZSt14__relocate_a_1IiiENSt9enable_ifIXsrSt24__is_bitwise_relocatableIT_vE5valueEPS2_E4typeES4_S4_S4_RSaIT0_E
	.section	.text._ZSt14__copy_move_a2ILb0EPKiPiET1_T0_S4_S3_,"axG",@progbits,_ZSt14__copy_move_a2ILb0EPKiPiET1_T0_S4_S3_,comdat
	.align	2
	.weak	_ZSt14__copy_move_a2ILb0EPKiPiET1_T0_S4_S3_
	.type	_ZSt14__copy_move_a2ILb0EPKiPiET1_T0_S4_S3_, %function
_ZSt14__copy_move_a2ILb0EPKiPiET1_T0_S4_S3_:
.LFB5140:
	.cfi_startproc
	stp	x29, x30, [sp, -48]!
	.cfi_def_cfa_offset 48
	.cfi_offset 29, -48
	.cfi_offset 30, -40
	mov	x29, sp
	str	x0, [sp, 40]
	str	x1, [sp, 32]
	str	x2, [sp, 24]
	ldr	x2, [sp, 24]
	ldr	x1, [sp, 32]
	ldr	x0, [sp, 40]
	bl	_ZNSt11__copy_moveILb0ELb1ESt26random_access_iterator_tagE8__copy_mIKiiEEPT0_PT_S7_S5_
	ldp	x29, x30, [sp], 48
	.cfi_restore 30
	.cfi_restore 29
	.cfi_def_cfa_offset 0
	ret
	.cfi_endproc
.LFE5140:
	.size	_ZSt14__copy_move_a2ILb0EPKiPiET1_T0_S4_S3_, .-_ZSt14__copy_move_a2ILb0EPKiPiET1_T0_S4_S3_
	.section	.text._ZSt11__addressofIiEPT_RS0_,"axG",@progbits,_ZSt11__addressofIiEPT_RS0_,comdat
	.align	2
	.weak	_ZSt11__addressofIiEPT_RS0_
	.type	_ZSt11__addressofIiEPT_RS0_, %function
_ZSt11__addressofIiEPT_RS0_:
.LFB5143:
	.cfi_startproc
	sub	sp, sp, #16
	.cfi_def_cfa_offset 16
	str	x0, [sp, 8]
	ldr	x0, [sp, 8]
	add	sp, sp, 16
	.cfi_def_cfa_offset 0
	ret
	.cfi_endproc
.LFE5143:
	.size	_ZSt11__addressofIiEPT_RS0_, .-_ZSt11__addressofIiEPT_RS0_
	.section	.text._ZSt10_ConstructIiJEEvPT_DpOT0_,"axG",@progbits,_ZSt10_ConstructIiJEEvPT_DpOT0_,comdat
	.align	2
	.weak	_ZSt10_ConstructIiJEEvPT_DpOT0_
	.type	_ZSt10_ConstructIiJEEvPT_DpOT0_, %function
_ZSt10_ConstructIiJEEvPT_DpOT0_:
.LFB5144:
	.cfi_startproc
	stp	x29, x30, [sp, -32]!
	.cfi_def_cfa_offset 32
	.cfi_offset 29, -32
	.cfi_offset 30, -24
	mov	x29, sp
	str	x0, [sp, 24]
	ldr	x0, [sp, 24]
	mov	x1, x0
	mov	x0, 4
	bl	_ZnwmPv
	str	wzr, [x0]
	nop
	ldp	x29, x30, [sp], 32
	.cfi_restore 30
	.cfi_restore 29
	.cfi_def_cfa_offset 0
	ret
	.cfi_endproc
.LFE5144:
	.size	_ZSt10_ConstructIiJEEvPT_DpOT0_, .-_ZSt10_ConstructIiJEEvPT_DpOT0_
	.section	.text._ZSt6fill_nIPimiET_S1_T0_RKT1_,"axG",@progbits,_ZSt6fill_nIPimiET_S1_T0_RKT1_,comdat
	.align	2
	.weak	_ZSt6fill_nIPimiET_S1_T0_RKT1_
	.type	_ZSt6fill_nIPimiET_S1_T0_RKT1_, %function
_ZSt6fill_nIPimiET_S1_T0_RKT1_:
.LFB5145:
	.cfi_startproc
	stp	x29, x30, [sp, -64]!
	.cfi_def_cfa_offset 64
	.cfi_offset 29, -64
	.cfi_offset 30, -56
	mov	x29, sp
	stp	x19, x20, [sp, 16]
	.cfi_offset 19, -48
	.cfi_offset 20, -40
	str	x0, [sp, 56]
	str	x1, [sp, 48]
	str	x2, [sp, 40]
	ldr	x19, [sp, 56]
	ldr	x0, [sp, 48]
	bl	_ZSt17__size_to_integerm
	nop
	mov	w3, w20
	ldr	x2, [sp, 40]
	mov	x1, x0
	mov	x0, x19
	bl	_ZSt10__fill_n_aIPimiET_S1_T0_RKT1_St26random_access_iterator_tag
	ldp	x19, x20, [sp, 16]
	ldp	x29, x30, [sp], 64
	.cfi_restore 30
	.cfi_restore 29
	.cfi_restore 19
	.cfi_restore 20
	.cfi_def_cfa_offset 0
	ret
	.cfi_endproc
.LFE5145:
	.size	_ZSt6fill_nIPimiET_S1_T0_RKT1_, .-_ZSt6fill_nIPimiET_S1_T0_RKT1_
	.section	.text._ZNSt11__copy_moveILb0ELb1ESt26random_access_iterator_tagE8__copy_mIKiiEEPT0_PT_S7_S5_,"axG",@progbits,_ZNSt11__copy_moveILb0ELb1ESt26random_access_iterator_tagE8__copy_mIKiiEEPT0_PT_S7_S5_,comdat
	.align	2
	.weak	_ZNSt11__copy_moveILb0ELb1ESt26random_access_iterator_tagE8__copy_mIKiiEEPT0_PT_S7_S5_
	.type	_ZNSt11__copy_moveILb0ELb1ESt26random_access_iterator_tagE8__copy_mIKiiEEPT0_PT_S7_S5_, %function
_ZNSt11__copy_moveILb0ELb1ESt26random_access_iterator_tagE8__copy_mIKiiEEPT0_PT_S7_S5_:
.LFB5151:
	.cfi_startproc
	stp	x29, x30, [sp, -64]!
	.cfi_def_cfa_offset 64
	.cfi_offset 29, -64
	.cfi_offset 30, -56
	mov	x29, sp
	str	x0, [sp, 40]
	str	x1, [sp, 32]
	str	x2, [sp, 24]
	ldr	x1, [sp, 32]
	ldr	x0, [sp, 40]
	sub	x0, x1, x0
	asr	x0, x0, 2
	str	x0, [sp, 56]
	ldr	x0, [sp, 56]
	cmp	x0, 1
	cset	w0, gt
	and	w0, w0, 255
	and	x0, x0, 255
	cmp	x0, 0
	beq	.L408
	ldr	x0, [sp, 56]
	lsl	x0, x0, 2
	mov	x2, x0
	ldr	x1, [sp, 40]
	ldr	x0, [sp, 24]
	bl	memmove
	b	.L409
.L408:
	ldr	x0, [sp, 56]
	cmp	x0, 1
	bne	.L409
	ldr	x1, [sp, 40]
	ldr	x0, [sp, 24]
	bl	_ZNSt11__copy_moveILb0ELb0ESt26random_access_iterator_tagE12__assign_oneIiKiEEvPT_PT0_
.L409:
	ldr	x0, [sp, 56]
	lsl	x0, x0, 2
	ldr	x1, [sp, 24]
	add	x0, x1, x0
	ldp	x29, x30, [sp], 64
	.cfi_restore 30
	.cfi_restore 29
	.cfi_def_cfa_offset 0
	ret
	.cfi_endproc
.LFE5151:
	.size	_ZNSt11__copy_moveILb0ELb1ESt26random_access_iterator_tagE8__copy_mIKiiEEPT0_PT_S7_S5_, .-_ZNSt11__copy_moveILb0ELb1ESt26random_access_iterator_tagE8__copy_mIKiiEEPT0_PT_S7_S5_
	.section	.text._ZSt10__fill_n_aIPimiET_S1_T0_RKT1_St26random_access_iterator_tag,"axG",@progbits,_ZSt10__fill_n_aIPimiET_S1_T0_RKT1_St26random_access_iterator_tag,comdat
	.align	2
	.weak	_ZSt10__fill_n_aIPimiET_S1_T0_RKT1_St26random_access_iterator_tag
	.type	_ZSt10__fill_n_aIPimiET_S1_T0_RKT1_St26random_access_iterator_tag, %function
_ZSt10__fill_n_aIPimiET_S1_T0_RKT1_St26random_access_iterator_tag:
.LFB5153:
	.cfi_startproc
	stp	x29, x30, [sp, -48]!
	.cfi_def_cfa_offset 48
	.cfi_offset 29, -48
	.cfi_offset 30, -40
	mov	x29, sp
	str	x0, [sp, 40]
	str	x1, [sp, 32]
	str	x2, [sp, 24]
	strb	w3, [sp, 16]
	ldr	x0, [sp, 32]
	cmp	x0, 0
	bne	.L412
	ldr	x0, [sp, 40]
	b	.L413
.L412:
	ldr	x0, [sp, 32]
	lsl	x0, x0, 2
	ldr	x1, [sp, 40]
	add	x0, x1, x0
	ldr	x2, [sp, 24]
	mov	x1, x0
	ldr	x0, [sp, 40]
	bl	_ZSt8__fill_aIPiiEvT_S1_RKT0_
	ldr	x0, [sp, 32]
	lsl	x0, x0, 2
	ldr	x1, [sp, 40]
	add	x0, x1, x0
.L413:
	ldp	x29, x30, [sp], 48
	.cfi_restore 30
	.cfi_restore 29
	.cfi_def_cfa_offset 0
	ret
	.cfi_endproc
.LFE5153:
	.size	_ZSt10__fill_n_aIPimiET_S1_T0_RKT1_St26random_access_iterator_tag, .-_ZSt10__fill_n_aIPimiET_S1_T0_RKT1_St26random_access_iterator_tag
	.section	.text._ZNSt11__copy_moveILb0ELb0ESt26random_access_iterator_tagE12__assign_oneIiKiEEvPT_PT0_,"axG",@progbits,_ZNSt11__copy_moveILb0ELb0ESt26random_access_iterator_tagE12__assign_oneIiKiEEvPT_PT0_,comdat
	.align	2
	.weak	_ZNSt11__copy_moveILb0ELb0ESt26random_access_iterator_tagE12__assign_oneIiKiEEvPT_PT0_
	.type	_ZNSt11__copy_moveILb0ELb0ESt26random_access_iterator_tagE12__assign_oneIiKiEEvPT_PT0_, %function
_ZNSt11__copy_moveILb0ELb0ESt26random_access_iterator_tagE12__assign_oneIiKiEEvPT_PT0_:
.LFB5154:
	.cfi_startproc
	sub	sp, sp, #16
	.cfi_def_cfa_offset 16
	str	x0, [sp, 8]
	str	x1, [sp]
	ldr	x0, [sp]
	ldr	w1, [x0]
	ldr	x0, [sp, 8]
	str	w1, [x0]
	nop
	add	sp, sp, 16
	.cfi_def_cfa_offset 0
	ret
	.cfi_endproc
.LFE5154:
	.size	_ZNSt11__copy_moveILb0ELb0ESt26random_access_iterator_tagE12__assign_oneIiKiEEvPT_PT0_, .-_ZNSt11__copy_moveILb0ELb0ESt26random_access_iterator_tagE12__assign_oneIiKiEEvPT_PT0_
	.section	.text._ZSt8__fill_aIPiiEvT_S1_RKT0_,"axG",@progbits,_ZSt8__fill_aIPiiEvT_S1_RKT0_,comdat
	.align	2
	.weak	_ZSt8__fill_aIPiiEvT_S1_RKT0_
	.type	_ZSt8__fill_aIPiiEvT_S1_RKT0_, %function
_ZSt8__fill_aIPiiEvT_S1_RKT0_:
.LFB5155:
	.cfi_startproc
	stp	x29, x30, [sp, -48]!
	.cfi_def_cfa_offset 48
	.cfi_offset 29, -48
	.cfi_offset 30, -40
	mov	x29, sp
	str	x0, [sp, 40]
	str	x1, [sp, 32]
	str	x2, [sp, 24]
	ldr	x2, [sp, 24]
	ldr	x1, [sp, 32]
	ldr	x0, [sp, 40]
	bl	_ZSt9__fill_a1IPiiEN9__gnu_cxx11__enable_ifIXsrSt11__is_scalarIT0_E7__valueEvE6__typeET_S8_RKS4_
	nop
	ldp	x29, x30, [sp], 48
	.cfi_restore 30
	.cfi_restore 29
	.cfi_def_cfa_offset 0
	ret
	.cfi_endproc
.LFE5155:
	.size	_ZSt8__fill_aIPiiEvT_S1_RKT0_, .-_ZSt8__fill_aIPiiEvT_S1_RKT0_
	.section	.text._ZSt9__fill_a1IPiiEN9__gnu_cxx11__enable_ifIXsrSt11__is_scalarIT0_E7__valueEvE6__typeET_S8_RKS4_,"axG",@progbits,_ZSt9__fill_a1IPiiEN9__gnu_cxx11__enable_ifIXsrSt11__is_scalarIT0_E7__valueEvE6__typeET_S8_RKS4_,comdat
	.align	2
	.weak	_ZSt9__fill_a1IPiiEN9__gnu_cxx11__enable_ifIXsrSt11__is_scalarIT0_E7__valueEvE6__typeET_S8_RKS4_
	.type	_ZSt9__fill_a1IPiiEN9__gnu_cxx11__enable_ifIXsrSt11__is_scalarIT0_E7__valueEvE6__typeET_S8_RKS4_, %function
_ZSt9__fill_a1IPiiEN9__gnu_cxx11__enable_ifIXsrSt11__is_scalarIT0_E7__valueEvE6__typeET_S8_RKS4_:
.LFB5156:
	.cfi_startproc
	sub	sp, sp, #48
	.cfi_def_cfa_offset 48
	str	x0, [sp, 24]
	str	x1, [sp, 16]
	str	x2, [sp, 8]
	ldr	x0, [sp, 8]
	ldr	w0, [x0]
	str	w0, [sp, 44]
	b	.L417
.L418:
	ldr	x0, [sp, 24]
	ldr	w1, [sp, 44]
	str	w1, [x0]
	ldr	x0, [sp, 24]
	add	x0, x0, 4
	str	x0, [sp, 24]
.L417:
	ldr	x1, [sp, 24]
	ldr	x0, [sp, 16]
	cmp	x1, x0
	bne	.L418
	nop
	nop
	add	sp, sp, 48
	.cfi_def_cfa_offset 0
	ret
	.cfi_endproc
.LFE5156:
	.size	_ZSt9__fill_a1IPiiEN9__gnu_cxx11__enable_ifIXsrSt11__is_scalarIT0_E7__valueEvE6__typeET_S8_RKS4_, .-_ZSt9__fill_a1IPiiEN9__gnu_cxx11__enable_ifIXsrSt11__is_scalarIT0_E7__valueEvE6__typeET_S8_RKS4_
	.section	.rodata
	.type	_ZNSt8__detail30__integer_to_chars_is_unsignedIjEE, %object
	.size	_ZNSt8__detail30__integer_to_chars_is_unsignedIjEE, 1
_ZNSt8__detail30__integer_to_chars_is_unsignedIjEE:
	.byte	1
	.type	_ZNSt8__detail30__integer_to_chars_is_unsignedImEE, %object
	.size	_ZNSt8__detail30__integer_to_chars_is_unsignedImEE, 1
_ZNSt8__detail30__integer_to_chars_is_unsignedImEE:
	.byte	1
	.type	_ZNSt8__detail30__integer_to_chars_is_unsignedIyEE, %object
	.size	_ZNSt8__detail30__integer_to_chars_is_unsignedIyEE, 1
_ZNSt8__detail30__integer_to_chars_is_unsignedIyEE:
	.byte	1
	.type	_ZSt12__is_ratio_vISt5ratioILl1ELl1000000000EEE, %object
	.size	_ZSt12__is_ratio_vISt5ratioILl1ELl1000000000EEE, 1
_ZSt12__is_ratio_vISt5ratioILl1ELl1000000000EEE:
	.byte	1
	.type	_ZSt12__is_ratio_vISt5ratioILl1ELl1EEE, %object
	.size	_ZSt12__is_ratio_vISt5ratioILl1ELl1EEE, 1
_ZSt12__is_ratio_vISt5ratioILl1ELl1EEE:
	.byte	1
	.type	_ZSt12__is_ratio_vISt5ratioILl1000000000ELl1EEE, %object
	.size	_ZSt12__is_ratio_vISt5ratioILl1000000000ELl1EEE, 1
_ZSt12__is_ratio_vISt5ratioILl1000000000ELl1EEE:
	.byte	1
	.hidden	DW.ref.__gxx_personality_v0
	.weak	DW.ref.__gxx_personality_v0
	.section	.data.rel.local.DW.ref.__gxx_personality_v0,"awG",@progbits,DW.ref.__gxx_personality_v0,comdat
	.align	3
	.type	DW.ref.__gxx_personality_v0, %object
	.size	DW.ref.__gxx_personality_v0, 8
DW.ref.__gxx_personality_v0:
	.xword	__gxx_personality_v0
	.ident	"GCC: (Ubuntu 13.3.0-6ubuntu2~24.04) 13.3.0"
	.section	.note.GNU-stack,"",@progbits
