	.arch armv8-a
	.file	"bench_chacha_stream.cpp"
	.text
	.section	.text._ZSt23__is_constant_evaluatedv,"axG",@progbits,_ZSt23__is_constant_evaluatedv,comdat
	.align	2
	.weak	_ZSt23__is_constant_evaluatedv
	.type	_ZSt23__is_constant_evaluatedv, %function
_ZSt23__is_constant_evaluatedv:
.LFB1:
	.cfi_startproc
	mov	w0, 0
	ret
	.cfi_endproc
.LFE1:
	.size	_ZSt23__is_constant_evaluatedv, .-_ZSt23__is_constant_evaluatedv
	.section	.text._ZnwmPv,"axG",@progbits,_ZnwmPv,comdat
	.align	2
	.weak	_ZnwmPv
	.type	_ZnwmPv, %function
_ZnwmPv:
.LFB40:
	.cfi_startproc
	sub	sp, sp, #16
	.cfi_def_cfa_offset 16
	str	x0, [sp, 8]
	str	x1, [sp]
	ldr	x0, [sp]
	add	sp, sp, 16
	.cfi_def_cfa_offset 0
	ret
	.cfi_endproc
.LFE40:
	.size	_ZnwmPv, .-_ZnwmPv
	.section	.text._ZNSt11char_traitsIcE6lengthEPKc,"axG",@progbits,_ZNSt11char_traitsIcE6lengthEPKc,comdat
	.align	2
	.weak	_ZNSt11char_traitsIcE6lengthEPKc
	.type	_ZNSt11char_traitsIcE6lengthEPKc, %function
_ZNSt11char_traitsIcE6lengthEPKc:
.LFB115:
	.cfi_startproc
	stp	x29, x30, [sp, -32]!
	.cfi_def_cfa_offset 32
	.cfi_offset 29, -32
	.cfi_offset 30, -24
	mov	x29, sp
	str	x0, [sp, 24]
	bl	_ZSt23__is_constant_evaluatedv
	and	w0, w0, 255
	and	w0, w0, 1
	cmp	w0, 0
	beq	.L6
	ldr	x0, [sp, 24]
	bl	_ZN9__gnu_cxx11char_traitsIcE6lengthEPKc
	b	.L7
.L6:
	ldr	x0, [sp, 24]
	bl	strlen
	nop
.L7:
	ldp	x29, x30, [sp], 32
	.cfi_restore 30
	.cfi_restore 29
	.cfi_def_cfa_offset 0
	ret
	.cfi_endproc
.LFE115:
	.size	_ZNSt11char_traitsIcE6lengthEPKc, .-_ZNSt11char_traitsIcE6lengthEPKc
	.section	.text._ZSt17__size_to_integerm,"axG",@progbits,_ZSt17__size_to_integerm,comdat
	.align	2
	.weak	_ZSt17__size_to_integerm
	.type	_ZSt17__size_to_integerm, %function
_ZSt17__size_to_integerm:
.LFB658:
	.cfi_startproc
	sub	sp, sp, #16
	.cfi_def_cfa_offset 16
	str	x0, [sp, 8]
	ldr	x0, [sp, 8]
	add	sp, sp, 16
	.cfi_def_cfa_offset 0
	ret
	.cfi_endproc
.LFE658:
	.size	_ZSt17__size_to_integerm, .-_ZSt17__size_to_integerm
	.section	.rodata
	.align	3
.LC0:
	.string	"stoul"
	.section	.text._ZNSt7__cxx115stoulERKNS_12basic_stringIcSt11char_traitsIcESaIcEEEPmi,"axG",@progbits,_ZNSt7__cxx115stoulERKNS_12basic_stringIcSt11char_traitsIcESaIcEEEPmi,comdat
	.align	2
	.weak	_ZNSt7__cxx115stoulERKNS_12basic_stringIcSt11char_traitsIcESaIcEEEPmi
	.type	_ZNSt7__cxx115stoulERKNS_12basic_stringIcSt11char_traitsIcESaIcEEEPmi, %function
_ZNSt7__cxx115stoulERKNS_12basic_stringIcSt11char_traitsIcESaIcEEEPmi:
.LFB1171:
	.cfi_startproc
	stp	x29, x30, [sp, -48]!
	.cfi_def_cfa_offset 48
	.cfi_offset 29, -48
	.cfi_offset 30, -40
	mov	x29, sp
	str	x0, [sp, 40]
	str	x1, [sp, 32]
	str	w2, [sp, 28]
	ldr	x0, [sp, 40]
	bl	_ZNKSt7__cxx1112basic_stringIcSt11char_traitsIcESaIcEE5c_strEv
	ldr	w4, [sp, 28]
	ldr	x3, [sp, 32]
	mov	x2, x0
	adrp	x0, .LC0
	add	x1, x0, :lo12:.LC0
	adrp	x0, :got:__isoc23_strtoul
	ldr	x0, [x0, :got_lo12:__isoc23_strtoul]
	bl	_ZN9__gnu_cxx6__stoaImmcJiEEET0_PFT_PKT1_PPS3_DpT2_EPKcS5_PmS9_
	ldp	x29, x30, [sp], 48
	.cfi_restore 30
	.cfi_restore 29
	.cfi_def_cfa_offset 0
	ret
	.cfi_endproc
.LFE1171:
	.size	_ZNSt7__cxx115stoulERKNS_12basic_stringIcSt11char_traitsIcESaIcEEEPmi, .-_ZNSt7__cxx115stoulERKNS_12basic_stringIcSt11char_traitsIcESaIcEEEPmi
	.section	.rodata
	.align	3
.LC1:
	.string	"stoull"
	.section	.text._ZNSt7__cxx116stoullERKNS_12basic_stringIcSt11char_traitsIcESaIcEEEPmi,"axG",@progbits,_ZNSt7__cxx116stoullERKNS_12basic_stringIcSt11char_traitsIcESaIcEEEPmi,comdat
	.align	2
	.weak	_ZNSt7__cxx116stoullERKNS_12basic_stringIcSt11char_traitsIcESaIcEEEPmi
	.type	_ZNSt7__cxx116stoullERKNS_12basic_stringIcSt11char_traitsIcESaIcEEEPmi, %function
_ZNSt7__cxx116stoullERKNS_12basic_stringIcSt11char_traitsIcESaIcEEEPmi:
.LFB1173:
	.cfi_startproc
	stp	x29, x30, [sp, -48]!
	.cfi_def_cfa_offset 48
	.cfi_offset 29, -48
	.cfi_offset 30, -40
	mov	x29, sp
	str	x0, [sp, 40]
	str	x1, [sp, 32]
	str	w2, [sp, 28]
	ldr	x0, [sp, 40]
	bl	_ZNKSt7__cxx1112basic_stringIcSt11char_traitsIcESaIcEE5c_strEv
	ldr	w4, [sp, 28]
	ldr	x3, [sp, 32]
	mov	x2, x0
	adrp	x0, .LC1
	add	x1, x0, :lo12:.LC1
	adrp	x0, :got:__isoc23_strtoull
	ldr	x0, [x0, :got_lo12:__isoc23_strtoull]
	bl	_ZN9__gnu_cxx6__stoaIyycJiEEET0_PFT_PKT1_PPS3_DpT2_EPKcS5_PmS9_
	ldp	x29, x30, [sp], 48
	.cfi_restore 30
	.cfi_restore 29
	.cfi_def_cfa_offset 0
	ret
	.cfi_endproc
.LFE1173:
	.size	_ZNSt7__cxx116stoullERKNS_12basic_stringIcSt11char_traitsIcESaIcEEEPmi, .-_ZNSt7__cxx116stoullERKNS_12basic_stringIcSt11char_traitsIcESaIcEEEPmi
	.section	.text._ZStanSt13_Ios_FmtflagsS_,"axG",@progbits,_ZStanSt13_Ios_FmtflagsS_,comdat
	.align	2
	.weak	_ZStanSt13_Ios_FmtflagsS_
	.type	_ZStanSt13_Ios_FmtflagsS_, %function
_ZStanSt13_Ios_FmtflagsS_:
.LFB1572:
	.cfi_startproc
	sub	sp, sp, #16
	.cfi_def_cfa_offset 16
	str	w0, [sp, 12]
	str	w1, [sp, 8]
	ldr	w1, [sp, 12]
	ldr	w0, [sp, 8]
	and	w0, w1, w0
	add	sp, sp, 16
	.cfi_def_cfa_offset 0
	ret
	.cfi_endproc
.LFE1572:
	.size	_ZStanSt13_Ios_FmtflagsS_, .-_ZStanSt13_Ios_FmtflagsS_
	.section	.text._ZStorSt13_Ios_FmtflagsS_,"axG",@progbits,_ZStorSt13_Ios_FmtflagsS_,comdat
	.align	2
	.weak	_ZStorSt13_Ios_FmtflagsS_
	.type	_ZStorSt13_Ios_FmtflagsS_, %function
_ZStorSt13_Ios_FmtflagsS_:
.LFB1573:
	.cfi_startproc
	sub	sp, sp, #16
	.cfi_def_cfa_offset 16
	str	w0, [sp, 12]
	str	w1, [sp, 8]
	ldr	w1, [sp, 12]
	ldr	w0, [sp, 8]
	orr	w0, w1, w0
	add	sp, sp, 16
	.cfi_def_cfa_offset 0
	ret
	.cfi_endproc
.LFE1573:
	.size	_ZStorSt13_Ios_FmtflagsS_, .-_ZStorSt13_Ios_FmtflagsS_
	.section	.text._ZStcoSt13_Ios_Fmtflags,"axG",@progbits,_ZStcoSt13_Ios_Fmtflags,comdat
	.align	2
	.weak	_ZStcoSt13_Ios_Fmtflags
	.type	_ZStcoSt13_Ios_Fmtflags, %function
_ZStcoSt13_Ios_Fmtflags:
.LFB1575:
	.cfi_startproc
	sub	sp, sp, #16
	.cfi_def_cfa_offset 16
	str	w0, [sp, 12]
	ldr	w0, [sp, 12]
	mvn	w0, w0
	add	sp, sp, 16
	.cfi_def_cfa_offset 0
	ret
	.cfi_endproc
.LFE1575:
	.size	_ZStcoSt13_Ios_Fmtflags, .-_ZStcoSt13_Ios_Fmtflags
	.section	.text._ZStoRRSt13_Ios_FmtflagsS_,"axG",@progbits,_ZStoRRSt13_Ios_FmtflagsS_,comdat
	.align	2
	.weak	_ZStoRRSt13_Ios_FmtflagsS_
	.type	_ZStoRRSt13_Ios_FmtflagsS_, %function
_ZStoRRSt13_Ios_FmtflagsS_:
.LFB1576:
	.cfi_startproc
	stp	x29, x30, [sp, -32]!
	.cfi_def_cfa_offset 32
	.cfi_offset 29, -32
	.cfi_offset 30, -24
	mov	x29, sp
	str	x0, [sp, 24]
	str	w1, [sp, 20]
	ldr	x0, [sp, 24]
	ldr	w0, [x0]
	ldr	w1, [sp, 20]
	bl	_ZStorSt13_Ios_FmtflagsS_
	mov	w1, w0
	ldr	x0, [sp, 24]
	str	w1, [x0]
	ldr	x0, [sp, 24]
	ldp	x29, x30, [sp], 32
	.cfi_restore 30
	.cfi_restore 29
	.cfi_def_cfa_offset 0
	ret
	.cfi_endproc
.LFE1576:
	.size	_ZStoRRSt13_Ios_FmtflagsS_, .-_ZStoRRSt13_Ios_FmtflagsS_
	.section	.text._ZStaNRSt13_Ios_FmtflagsS_,"axG",@progbits,_ZStaNRSt13_Ios_FmtflagsS_,comdat
	.align	2
	.weak	_ZStaNRSt13_Ios_FmtflagsS_
	.type	_ZStaNRSt13_Ios_FmtflagsS_, %function
_ZStaNRSt13_Ios_FmtflagsS_:
.LFB1577:
	.cfi_startproc
	stp	x29, x30, [sp, -32]!
	.cfi_def_cfa_offset 32
	.cfi_offset 29, -32
	.cfi_offset 30, -24
	mov	x29, sp
	str	x0, [sp, 24]
	str	w1, [sp, 20]
	ldr	x0, [sp, 24]
	ldr	w0, [x0]
	ldr	w1, [sp, 20]
	bl	_ZStanSt13_Ios_FmtflagsS_
	mov	w1, w0
	ldr	x0, [sp, 24]
	str	w1, [x0]
	ldr	x0, [sp, 24]
	ldp	x29, x30, [sp], 32
	.cfi_restore 30
	.cfi_restore 29
	.cfi_def_cfa_offset 0
	ret
	.cfi_endproc
.LFE1577:
	.size	_ZStaNRSt13_Ios_FmtflagsS_, .-_ZStaNRSt13_Ios_FmtflagsS_
	.section	.text._ZNSt8ios_base4setfESt13_Ios_FmtflagsS0_,"axG",@progbits,_ZNSt8ios_base4setfESt13_Ios_FmtflagsS0_,comdat
	.align	2
	.weak	_ZNSt8ios_base4setfESt13_Ios_FmtflagsS0_
	.type	_ZNSt8ios_base4setfESt13_Ios_FmtflagsS0_, %function
_ZNSt8ios_base4setfESt13_Ios_FmtflagsS0_:
.LFB1606:
	.cfi_startproc
	stp	x29, x30, [sp, -48]!
	.cfi_def_cfa_offset 48
	.cfi_offset 29, -48
	.cfi_offset 30, -40
	mov	x29, sp
	str	x0, [sp, 24]
	str	w1, [sp, 20]
	str	w2, [sp, 16]
	ldr	x0, [sp, 24]
	ldr	w0, [x0, 24]
	str	w0, [sp, 44]
	ldr	w0, [sp, 16]
	bl	_ZStcoSt13_Ios_Fmtflags
	mov	w1, w0
	ldr	x0, [sp, 24]
	add	x0, x0, 24
	bl	_ZStaNRSt13_Ios_FmtflagsS_
	ldr	w1, [sp, 16]
	ldr	w0, [sp, 20]
	bl	_ZStanSt13_Ios_FmtflagsS_
	mov	w1, w0
	ldr	x0, [sp, 24]
	add	x0, x0, 24
	bl	_ZStoRRSt13_Ios_FmtflagsS_
	ldr	w0, [sp, 44]
	ldp	x29, x30, [sp], 48
	.cfi_restore 30
	.cfi_restore 29
	.cfi_def_cfa_offset 0
	ret
	.cfi_endproc
.LFE1606:
	.size	_ZNSt8ios_base4setfESt13_Ios_FmtflagsS0_, .-_ZNSt8ios_base4setfESt13_Ios_FmtflagsS0_
	.section	.text._ZSt3decRSt8ios_base,"axG",@progbits,_ZSt3decRSt8ios_base,comdat
	.align	2
	.weak	_ZSt3decRSt8ios_base
	.type	_ZSt3decRSt8ios_base, %function
_ZSt3decRSt8ios_base:
.LFB1633:
	.cfi_startproc
	stp	x29, x30, [sp, -32]!
	.cfi_def_cfa_offset 32
	.cfi_offset 29, -32
	.cfi_offset 30, -24
	mov	x29, sp
	str	x0, [sp, 24]
	mov	w2, 74
	mov	w1, 2
	ldr	x0, [sp, 24]
	bl	_ZNSt8ios_base4setfESt13_Ios_FmtflagsS0_
	ldr	x0, [sp, 24]
	ldp	x29, x30, [sp], 32
	.cfi_restore 30
	.cfi_restore 29
	.cfi_def_cfa_offset 0
	ret
	.cfi_endproc
.LFE1633:
	.size	_ZSt3decRSt8ios_base, .-_ZSt3decRSt8ios_base
	.section	.text._ZSt3hexRSt8ios_base,"axG",@progbits,_ZSt3hexRSt8ios_base,comdat
	.align	2
	.weak	_ZSt3hexRSt8ios_base
	.type	_ZSt3hexRSt8ios_base, %function
_ZSt3hexRSt8ios_base:
.LFB1634:
	.cfi_startproc
	stp	x29, x30, [sp, -32]!
	.cfi_def_cfa_offset 32
	.cfi_offset 29, -32
	.cfi_offset 30, -24
	mov	x29, sp
	str	x0, [sp, 24]
	mov	w2, 74
	mov	w1, 8
	ldr	x0, [sp, 24]
	bl	_ZNSt8ios_base4setfESt13_Ios_FmtflagsS0_
	ldr	x0, [sp, 24]
	ldp	x29, x30, [sp], 32
	.cfi_restore 30
	.cfi_restore 29
	.cfi_def_cfa_offset 0
	ret
	.cfi_endproc
.LFE1634:
	.size	_ZSt3hexRSt8ios_base, .-_ZSt3hexRSt8ios_base
	.section	.text._ZSt5fixedRSt8ios_base,"axG",@progbits,_ZSt5fixedRSt8ios_base,comdat
	.align	2
	.weak	_ZSt5fixedRSt8ios_base
	.type	_ZSt5fixedRSt8ios_base, %function
_ZSt5fixedRSt8ios_base:
.LFB1636:
	.cfi_startproc
	stp	x29, x30, [sp, -32]!
	.cfi_def_cfa_offset 32
	.cfi_offset 29, -32
	.cfi_offset 30, -24
	mov	x29, sp
	str	x0, [sp, 24]
	mov	w2, 260
	mov	w1, 4
	ldr	x0, [sp, 24]
	bl	_ZNSt8ios_base4setfESt13_Ios_FmtflagsS0_
	ldr	x0, [sp, 24]
	ldp	x29, x30, [sp], 32
	.cfi_restore 30
	.cfi_restore 29
	.cfi_def_cfa_offset 0
	ret
	.cfi_endproc
.LFE1636:
	.size	_ZSt5fixedRSt8ios_base, .-_ZSt5fixedRSt8ios_base
#APP
	.globl _ZSt21ios_base_library_initv
#NO_APP
	.section	.text._ZNSt6chrono8durationIlSt5ratioILl1ELl1000000000EEEC1IlvEERKT_,"axG",@progbits,_ZNSt6chrono8durationIlSt5ratioILl1ELl1000000000EEEC1IlvEERKT_,comdat
	.align	2
	.weak	_ZNSt6chrono8durationIlSt5ratioILl1ELl1000000000EEEC1IlvEERKT_
	.type	_ZNSt6chrono8durationIlSt5ratioILl1ELl1000000000EEEC1IlvEERKT_, %function
_ZNSt6chrono8durationIlSt5ratioILl1ELl1000000000EEEC1IlvEERKT_:
.LFB2249:
	.cfi_startproc
	sub	sp, sp, #16
	.cfi_def_cfa_offset 16
	str	x0, [sp, 8]
	str	x1, [sp]
	ldr	x0, [sp]
	ldr	x1, [x0]
	ldr	x0, [sp, 8]
	str	x1, [x0]
	nop
	add	sp, sp, 16
	.cfi_def_cfa_offset 0
	ret
	.cfi_endproc
.LFE2249:
	.size	_ZNSt6chrono8durationIlSt5ratioILl1ELl1000000000EEEC1IlvEERKT_, .-_ZNSt6chrono8durationIlSt5ratioILl1ELl1000000000EEEC1IlvEERKT_
	.section	.text._ZNKSt6chrono8durationIlSt5ratioILl1ELl1000000000EEE5countEv,"axG",@progbits,_ZNKSt6chrono8durationIlSt5ratioILl1ELl1000000000EEE5countEv,comdat
	.align	2
	.weak	_ZNKSt6chrono8durationIlSt5ratioILl1ELl1000000000EEE5countEv
	.type	_ZNKSt6chrono8durationIlSt5ratioILl1ELl1000000000EEE5countEv, %function
_ZNKSt6chrono8durationIlSt5ratioILl1ELl1000000000EEE5countEv:
.LFB2251:
	.cfi_startproc
	sub	sp, sp, #16
	.cfi_def_cfa_offset 16
	str	x0, [sp, 8]
	ldr	x0, [sp, 8]
	ldr	x0, [x0]
	add	sp, sp, 16
	.cfi_def_cfa_offset 0
	ret
	.cfi_endproc
.LFE2251:
	.size	_ZNKSt6chrono8durationIlSt5ratioILl1ELl1000000000EEE5countEv, .-_ZNKSt6chrono8durationIlSt5ratioILl1ELl1000000000EEE5countEv
	.section	.text._ZSt12setprecisioni,"axG",@progbits,_ZSt12setprecisioni,comdat
	.align	2
	.weak	_ZSt12setprecisioni
	.type	_ZSt12setprecisioni, %function
_ZSt12setprecisioni:
.LFB2899:
	.cfi_startproc
	sub	sp, sp, #16
	.cfi_def_cfa_offset 16
	str	w0, [sp, 12]
	ldr	w0, [sp, 12]
	add	sp, sp, 16
	.cfi_def_cfa_offset 0
	ret
	.cfi_endproc
.LFE2899:
	.size	_ZSt12setprecisioni, .-_ZSt12setprecisioni
	.section	.text._Z7std_addjj,"axG",@progbits,_Z7std_addjj,comdat
	.align	2
	.weak	_Z7std_addjj
	.type	_Z7std_addjj, %function
_Z7std_addjj:
.LFB3007:
	.cfi_startproc
	sub	sp, sp, #16
	.cfi_def_cfa_offset 16
	str	w0, [sp, 12]
	str	w1, [sp, 8]
	ldr	w1, [sp, 12]
	ldr	w0, [sp, 8]
	add	w0, w1, w0
	add	sp, sp, 16
	.cfi_def_cfa_offset 0
	ret
	.cfi_endproc
.LFE3007:
	.size	_Z7std_addjj, .-_Z7std_addjj
	.section	.text._Z11reist_add32jj,"axG",@progbits,_Z11reist_add32jj,comdat
	.align	2
	.weak	_Z11reist_add32jj
	.type	_Z11reist_add32jj, %function
_Z11reist_add32jj:
.LFB3008:
	.cfi_startproc
	sub	sp, sp, #16
	.cfi_def_cfa_offset 16
	str	w0, [sp, 12]
	str	w1, [sp, 8]
	ldr	w1, [sp, 12]
	ldr	w0, [sp, 8]
	add	w0, w1, w0
	add	sp, sp, 16
	.cfi_def_cfa_offset 0
	ret
	.cfi_endproc
.LFE3008:
	.size	_Z11reist_add32jj, .-_Z11reist_add32jj
	.section	.text._Z13chacha_qr_stdPj,"axG",@progbits,_Z13chacha_qr_stdPj,comdat
	.align	2
	.weak	_Z13chacha_qr_stdPj
	.type	_Z13chacha_qr_stdPj, %function
_Z13chacha_qr_stdPj:
.LFB3009:
	.cfi_startproc
	sub	sp, sp, #16
	.cfi_def_cfa_offset 16
	str	x0, [sp, 8]
	ldr	x0, [sp, 8]
	ldr	w1, [x0]
	ldr	x0, [sp, 8]
	add	x0, x0, 16
	ldr	w0, [x0]
	add	w1, w1, w0
	ldr	x0, [sp, 8]
	str	w1, [x0]
	ldr	x0, [sp, 8]
	add	x0, x0, 48
	ldr	w2, [x0]
	ldr	x0, [sp, 8]
	ldr	w1, [x0]
	ldr	x0, [sp, 8]
	add	x0, x0, 48
	eor	w1, w2, w1
	str	w1, [x0]
	ldr	x0, [sp, 8]
	add	x0, x0, 48
	ldr	w1, [x0]
	ldr	x0, [sp, 8]
	add	x0, x0, 48
	ror	w1, w1, 16
	str	w1, [x0]
	ldr	x0, [sp, 8]
	add	x0, x0, 32
	ldr	w2, [x0]
	ldr	x0, [sp, 8]
	add	x0, x0, 48
	ldr	w1, [x0]
	ldr	x0, [sp, 8]
	add	x0, x0, 32
	add	w1, w2, w1
	str	w1, [x0]
	ldr	x0, [sp, 8]
	add	x0, x0, 16
	ldr	w2, [x0]
	ldr	x0, [sp, 8]
	add	x0, x0, 32
	ldr	w1, [x0]
	ldr	x0, [sp, 8]
	add	x0, x0, 16
	eor	w1, w2, w1
	str	w1, [x0]
	ldr	x0, [sp, 8]
	add	x0, x0, 16
	ldr	w1, [x0]
	ldr	x0, [sp, 8]
	add	x0, x0, 16
	ror	w1, w1, 20
	str	w1, [x0]
	ldr	x0, [sp, 8]
	ldr	w1, [x0]
	ldr	x0, [sp, 8]
	add	x0, x0, 16
	ldr	w0, [x0]
	add	w1, w1, w0
	ldr	x0, [sp, 8]
	str	w1, [x0]
	ldr	x0, [sp, 8]
	add	x0, x0, 48
	ldr	w2, [x0]
	ldr	x0, [sp, 8]
	ldr	w1, [x0]
	ldr	x0, [sp, 8]
	add	x0, x0, 48
	eor	w1, w2, w1
	str	w1, [x0]
	ldr	x0, [sp, 8]
	add	x0, x0, 48
	ldr	w1, [x0]
	ldr	x0, [sp, 8]
	add	x0, x0, 48
	ror	w1, w1, 24
	str	w1, [x0]
	ldr	x0, [sp, 8]
	add	x0, x0, 32
	ldr	w2, [x0]
	ldr	x0, [sp, 8]
	add	x0, x0, 48
	ldr	w1, [x0]
	ldr	x0, [sp, 8]
	add	x0, x0, 32
	add	w1, w2, w1
	str	w1, [x0]
	ldr	x0, [sp, 8]
	add	x0, x0, 16
	ldr	w2, [x0]
	ldr	x0, [sp, 8]
	add	x0, x0, 32
	ldr	w1, [x0]
	ldr	x0, [sp, 8]
	add	x0, x0, 16
	eor	w1, w2, w1
	str	w1, [x0]
	ldr	x0, [sp, 8]
	add	x0, x0, 16
	ldr	w1, [x0]
	ldr	x0, [sp, 8]
	add	x0, x0, 16
	ror	w1, w1, 25
	str	w1, [x0]
	nop
	add	sp, sp, 16
	.cfi_def_cfa_offset 0
	ret
	.cfi_endproc
.LFE3009:
	.size	_Z13chacha_qr_stdPj, .-_Z13chacha_qr_stdPj
	.section	.text._Z15chacha_qr_reistPj,"axG",@progbits,_Z15chacha_qr_reistPj,comdat
	.align	2
	.weak	_Z15chacha_qr_reistPj
	.type	_Z15chacha_qr_reistPj, %function
_Z15chacha_qr_reistPj:
.LFB3010:
	.cfi_startproc
	stp	x29, x30, [sp, -48]!
	.cfi_def_cfa_offset 48
	.cfi_offset 29, -48
	.cfi_offset 30, -40
	mov	x29, sp
	str	x19, [sp, 16]
	.cfi_offset 19, -32
	str	x0, [sp, 40]
	ldr	x0, [sp, 40]
	ldr	w2, [x0]
	ldr	x0, [sp, 40]
	add	x0, x0, 16
	ldr	w0, [x0]
	mov	w1, w0
	mov	w0, w2
	bl	_Z11reist_add32jj
	mov	w1, w0
	ldr	x0, [sp, 40]
	str	w1, [x0]
	ldr	x0, [sp, 40]
	add	x0, x0, 48
	ldr	w2, [x0]
	ldr	x0, [sp, 40]
	ldr	w1, [x0]
	ldr	x0, [sp, 40]
	add	x0, x0, 48
	eor	w1, w2, w1
	str	w1, [x0]
	ldr	x0, [sp, 40]
	add	x0, x0, 48
	ldr	w1, [x0]
	ldr	x0, [sp, 40]
	add	x0, x0, 48
	ror	w1, w1, 16
	str	w1, [x0]
	ldr	x0, [sp, 40]
	add	x0, x0, 32
	ldr	w2, [x0]
	ldr	x0, [sp, 40]
	add	x0, x0, 48
	ldr	w1, [x0]
	ldr	x0, [sp, 40]
	add	x19, x0, 32
	mov	w0, w2
	bl	_Z11reist_add32jj
	str	w0, [x19]
	ldr	x0, [sp, 40]
	add	x0, x0, 16
	ldr	w2, [x0]
	ldr	x0, [sp, 40]
	add	x0, x0, 32
	ldr	w1, [x0]
	ldr	x0, [sp, 40]
	add	x0, x0, 16
	eor	w1, w2, w1
	str	w1, [x0]
	ldr	x0, [sp, 40]
	add	x0, x0, 16
	ldr	w1, [x0]
	ldr	x0, [sp, 40]
	add	x0, x0, 16
	ror	w1, w1, 20
	str	w1, [x0]
	ldr	x0, [sp, 40]
	ldr	w2, [x0]
	ldr	x0, [sp, 40]
	add	x0, x0, 16
	ldr	w0, [x0]
	mov	w1, w0
	mov	w0, w2
	bl	_Z11reist_add32jj
	mov	w1, w0
	ldr	x0, [sp, 40]
	str	w1, [x0]
	ldr	x0, [sp, 40]
	add	x0, x0, 48
	ldr	w2, [x0]
	ldr	x0, [sp, 40]
	ldr	w1, [x0]
	ldr	x0, [sp, 40]
	add	x0, x0, 48
	eor	w1, w2, w1
	str	w1, [x0]
	ldr	x0, [sp, 40]
	add	x0, x0, 48
	ldr	w1, [x0]
	ldr	x0, [sp, 40]
	add	x0, x0, 48
	ror	w1, w1, 24
	str	w1, [x0]
	ldr	x0, [sp, 40]
	add	x0, x0, 32
	ldr	w2, [x0]
	ldr	x0, [sp, 40]
	add	x0, x0, 48
	ldr	w1, [x0]
	ldr	x0, [sp, 40]
	add	x19, x0, 32
	mov	w0, w2
	bl	_Z11reist_add32jj
	str	w0, [x19]
	ldr	x0, [sp, 40]
	add	x0, x0, 16
	ldr	w2, [x0]
	ldr	x0, [sp, 40]
	add	x0, x0, 32
	ldr	w1, [x0]
	ldr	x0, [sp, 40]
	add	x0, x0, 16
	eor	w1, w2, w1
	str	w1, [x0]
	ldr	x0, [sp, 40]
	add	x0, x0, 16
	ldr	w1, [x0]
	ldr	x0, [sp, 40]
	add	x0, x0, 16
	ror	w1, w1, 25
	str	w1, [x0]
	nop
	ldr	x19, [sp, 16]
	ldp	x29, x30, [sp], 48
	.cfi_restore 30
	.cfi_restore 29
	.cfi_restore 19
	.cfi_def_cfa_offset 0
	ret
	.cfi_endproc
.LFE3010:
	.size	_Z15chacha_qr_reistPj, .-_Z15chacha_qr_reistPj
	.text
	.align	2
	.global	_Z16chacha_block_stdPjPKj
	.type	_Z16chacha_block_stdPjPKj, %function
_Z16chacha_block_stdPjPKj:
.LFB3011:
	.cfi_startproc
	sub	sp, sp, #112
	.cfi_def_cfa_offset 112
	stp	x29, x30, [sp, 96]
	.cfi_offset 29, -16
	.cfi_offset 30, -8
	add	x29, sp, 96
	str	x0, [sp, 8]
	str	x1, [sp]
	adrp	x0, :got:__stack_chk_guard
	ldr	x0, [x0, :got_lo12:__stack_chk_guard]
	ldr	x1, [x0]
	str	x1, [sp, 88]
	mov	x1, 0
	add	x0, sp, 24
	mov	x2, 64
	ldr	x1, [sp]
	bl	memcpy
	str	wzr, [sp, 16]
	b	.L44
.L45:
	add	x0, sp, 24
	bl	_Z13chacha_qr_stdPj
	add	x0, sp, 24
	bl	_Z13chacha_qr_stdPj
	ldr	w0, [sp, 16]
	add	w0, w0, 1
	str	w0, [sp, 16]
.L44:
	ldr	w0, [sp, 16]
	cmp	w0, 9
	ble	.L45
	str	wzr, [sp, 20]
	b	.L46
.L47:
	ldrsw	x0, [sp, 20]
	lsl	x0, x0, 2
	add	x1, sp, 24
	ldr	w2, [x1, x0]
	ldrsw	x0, [sp, 20]
	lsl	x0, x0, 2
	ldr	x1, [sp]
	add	x0, x1, x0
	ldr	w1, [x0]
	ldrsw	x0, [sp, 20]
	lsl	x0, x0, 2
	ldr	x3, [sp, 8]
	add	x0, x3, x0
	add	w1, w2, w1
	str	w1, [x0]
	ldr	w0, [sp, 20]
	add	w0, w0, 1
	str	w0, [sp, 20]
.L46:
	ldr	w0, [sp, 20]
	cmp	w0, 15
	ble	.L47
	nop
	adrp	x0, :got:__stack_chk_guard
	ldr	x0, [x0, :got_lo12:__stack_chk_guard]
	ldr	x2, [sp, 88]
	ldr	x1, [x0]
	subs	x2, x2, x1
	mov	x1, 0
	beq	.L48
	bl	__stack_chk_fail
.L48:
	ldp	x29, x30, [sp, 96]
	add	sp, sp, 112
	.cfi_restore 29
	.cfi_restore 30
	.cfi_def_cfa_offset 0
	ret
	.cfi_endproc
.LFE3011:
	.size	_Z16chacha_block_stdPjPKj, .-_Z16chacha_block_stdPjPKj
	.align	2
	.global	_Z18chacha_block_reistPjPKj
	.type	_Z18chacha_block_reistPjPKj, %function
_Z18chacha_block_reistPjPKj:
.LFB3012:
	.cfi_startproc
	sub	sp, sp, #128
	.cfi_def_cfa_offset 128
	stp	x29, x30, [sp, 96]
	.cfi_offset 29, -32
	.cfi_offset 30, -24
	add	x29, sp, 96
	str	x19, [sp, 112]
	.cfi_offset 19, -16
	str	x0, [sp, 8]
	str	x1, [sp]
	adrp	x0, :got:__stack_chk_guard
	ldr	x0, [x0, :got_lo12:__stack_chk_guard]
	ldr	x1, [x0]
	str	x1, [sp, 88]
	mov	x1, 0
	add	x0, sp, 24
	mov	x2, 64
	ldr	x1, [sp]
	bl	memcpy
	str	wzr, [sp, 16]
	b	.L50
.L51:
	add	x0, sp, 24
	bl	_Z15chacha_qr_reistPj
	add	x0, sp, 24
	bl	_Z15chacha_qr_reistPj
	ldr	w0, [sp, 16]
	add	w0, w0, 1
	str	w0, [sp, 16]
.L50:
	ldr	w0, [sp, 16]
	cmp	w0, 9
	ble	.L51
	str	wzr, [sp, 20]
	b	.L52
.L53:
	ldrsw	x0, [sp, 20]
	lsl	x0, x0, 2
	add	x1, sp, 24
	ldr	w2, [x1, x0]
	ldrsw	x0, [sp, 20]
	lsl	x0, x0, 2
	ldr	x1, [sp]
	add	x0, x1, x0
	ldr	w3, [x0]
	ldrsw	x0, [sp, 20]
	lsl	x0, x0, 2
	ldr	x1, [sp, 8]
	add	x19, x1, x0
	mov	w1, w3
	mov	w0, w2
	bl	_Z7std_addjj
	str	w0, [x19]
	ldr	w0, [sp, 20]
	add	w0, w0, 1
	str	w0, [sp, 20]
.L52:
	ldr	w0, [sp, 20]
	cmp	w0, 15
	ble	.L53
	nop
	adrp	x0, :got:__stack_chk_guard
	ldr	x0, [x0, :got_lo12:__stack_chk_guard]
	ldr	x2, [sp, 88]
	ldr	x1, [x0]
	subs	x2, x2, x1
	mov	x1, 0
	beq	.L54
	bl	__stack_chk_fail
.L54:
	ldr	x19, [sp, 112]
	ldp	x29, x30, [sp, 96]
	add	sp, sp, 128
	.cfi_restore 29
	.cfi_restore 30
	.cfi_restore 19
	.cfi_def_cfa_offset 0
	ret
	.cfi_endproc
.LFE3012:
	.size	_Z18chacha_block_reistPjPKj, .-_Z18chacha_block_reistPjPKj
	.align	2
	.type	_ZZ4mainENKUlmE_clEm, %function
_ZZ4mainENKUlmE_clEm:
.LFB3019:
	.cfi_startproc
	stp	x29, x30, [sp, -48]!
	.cfi_def_cfa_offset 48
	.cfi_offset 29, -48
	.cfi_offset 30, -40
	mov	x29, sp
	str	x0, [sp, 24]
	str	x1, [sp, 16]
	str	xzr, [sp, 40]
	b	.L56
.L59:
	ldr	x0, [sp, 24]
	ldr	x2, [x0]
	ldr	x0, [sp, 24]
	ldr	x0, [x0, 8]
	mov	x1, x0
	mov	x0, x2
	bl	_Z16chacha_block_stdPjPKj
	str	wzr, [sp, 36]
	b	.L57
.L58:
	ldr	x0, [sp, 24]
	ldr	x0, [x0, 16]
	ldrsw	x1, [sp, 36]
	bl	_ZNSt6vectorIjSaIjEEixEm
	ldr	w2, [x0]
	ldr	x1, [sp, 24]
	ldr	x1, [x1]
	ldrsw	x3, [sp, 36]
	ldr	w1, [x1, x3, lsl 2]
	eor	w1, w2, w1
	str	w1, [x0]
	ldr	w0, [sp, 36]
	add	w0, w0, 1
	str	w0, [sp, 36]
.L57:
	ldr	w0, [sp, 36]
	cmp	w0, 15
	ble	.L58
	ldr	x0, [sp, 40]
	add	x0, x0, 1
	str	x0, [sp, 40]
.L56:
	ldr	x1, [sp, 40]
	ldr	x0, [sp, 16]
	cmp	x1, x0
	bcc	.L59
	nop
	nop
	ldp	x29, x30, [sp], 48
	.cfi_restore 30
	.cfi_restore 29
	.cfi_def_cfa_offset 0
	ret
	.cfi_endproc
.LFE3019:
	.size	_ZZ4mainENKUlmE_clEm, .-_ZZ4mainENKUlmE_clEm
	.align	2
	.type	_ZZ4mainENKUlmE0_clEm, %function
_ZZ4mainENKUlmE0_clEm:
.LFB3020:
	.cfi_startproc
	stp	x29, x30, [sp, -48]!
	.cfi_def_cfa_offset 48
	.cfi_offset 29, -48
	.cfi_offset 30, -40
	mov	x29, sp
	str	x0, [sp, 24]
	str	x1, [sp, 16]
	str	xzr, [sp, 40]
	b	.L61
.L64:
	ldr	x0, [sp, 24]
	ldr	x2, [x0]
	ldr	x0, [sp, 24]
	ldr	x0, [x0, 8]
	mov	x1, x0
	mov	x0, x2
	bl	_Z18chacha_block_reistPjPKj
	str	wzr, [sp, 36]
	b	.L62
.L63:
	ldr	x0, [sp, 24]
	ldr	x0, [x0, 16]
	ldrsw	x1, [sp, 36]
	bl	_ZNSt6vectorIjSaIjEEixEm
	ldr	w2, [x0]
	ldr	x1, [sp, 24]
	ldr	x1, [x1]
	ldrsw	x3, [sp, 36]
	ldr	w1, [x1, x3, lsl 2]
	eor	w1, w2, w1
	str	w1, [x0]
	ldr	w0, [sp, 36]
	add	w0, w0, 1
	str	w0, [sp, 36]
.L62:
	ldr	w0, [sp, 36]
	cmp	w0, 15
	ble	.L63
	ldr	x0, [sp, 40]
	add	x0, x0, 1
	str	x0, [sp, 40]
.L61:
	ldr	x1, [sp, 40]
	ldr	x0, [sp, 16]
	cmp	x1, x0
	bcc	.L64
	nop
	nop
	ldp	x29, x30, [sp], 48
	.cfi_restore 30
	.cfi_restore 29
	.cfi_def_cfa_offset 0
	ret
	.cfi_endproc
.LFE3020:
	.size	_ZZ4mainENKUlmE0_clEm, .-_ZZ4mainENKUlmE0_clEm
	.section	.rodata
	.align	3
.LC2:
	.string	"/proc/cpuinfo"
	.align	3
.LC3:
	.string	"model name"
	.align	3
.LC4:
	.string	":"
	.align	3
.LC5:
	.string	"cpu MHz"
	.align	3
.LC6:
	.string	"/proc/meminfo"
	.align	3
.LC7:
	.string	"MemTotal"
	.align	3
.LC8:
	.string	"r"
	.align	3
.LC9:
	.string	"uname -o"
	.align	3
.LC10:
	.string	"========================================\n"
	.align	3
.LC11:
	.string	"ChaCha20 Stream Benchmark\n"
	.align	3
.LC12:
	.string	"System Information:\n"
	.align	3
.LC13:
	.string	"  Hostname: "
	.align	3
.LC14:
	.string	"\n"
	.align	3
.LC15:
	.string	"  OS: "
	.align	3
.LC16:
	.string	"  CPU Model: "
	.align	3
.LC17:
	.string	"  CPU MHz: "
	.align	3
.LC18:
	.string	"  Memory: "
	.align	3
.LC19:
	.string	"========================================\n\n"
	.align	3
.LC20:
	.string	"ChaCha20-like keystream benchmark ("
	.align	3
.LC21:
	.string	" MB total)\n\n"
	.align	3
.LC22:
	.string	"Classic : "
	.align	3
.LC23:
	.string	" s ("
	.align	3
.LC24:
	.string	" MB/s)\n"
	.align	3
.LC25:
	.string	"REIST   : "
	.align	3
.LC26:
	.string	"Speed ratio (classic / REIST): "
	.align	3
.LC27:
	.string	"x\n"
	.align	3
.LC28:
	.string	"\nSink XOR: "
	.align	3
.LC29:
	.string	" "
	.text
	.align	2
	.global	main
	.type	main, %function
main:
.LFB3014:
	.cfi_startproc
	.cfi_personality 0x9b,DW.ref.__gxx_personality_v0
	.cfi_lsda 0x1b,.LLSDA3014
	stp	x29, x30, [sp, -32]!
	.cfi_def_cfa_offset 32
	.cfi_offset 29, -32
	.cfi_offset 30, -24
	mov	x29, sp
	str	x19, [sp, 16]
	sub	sp, sp, #1328
	.cfi_def_cfa_offset 1360
	.cfi_offset 19, -16
	str	xzr, [sp, 1024]
	str	w0, [sp, 12]
	str	x1, [sp]
	adrp	x0, :got:__stack_chk_guard
	ldr	x0, [x0, :got_lo12:__stack_chk_guard]
	ldr	x1, [x0]
	str	x1, [sp, 1320]
	mov	x1, 0
	mov	x0, 16960
	movk	x0, 0xf, lsl 16
	str	x0, [sp, 32]
	mov	w0, 47806
	movk	w0, 0xcafe, lsl 16
	str	w0, [sp, 20]
	ldr	w0, [sp, 12]
	cmp	w0, 1
	ble	.L66
	ldr	x0, [sp]
	add	x0, x0, 8
	ldr	x1, [x0]
	add	x0, sp, 128
	str	x0, [sp, 72]
	nop
	nop
	add	x2, sp, 128
	add	x0, sp, 408
.LEHB0:
	bl	_ZNSt7__cxx1112basic_stringIcSt11char_traitsIcESaIcEEC1IS3_EEPKcRKS3_
.LEHE0:
	add	x0, sp, 408
	mov	w2, 10
	mov	x1, 0
.LEHB1:
	bl	_ZNSt7__cxx116stoullERKNS_12basic_stringIcSt11char_traitsIcESaIcEEEPmi
.LEHE1:
	str	x0, [sp, 32]
	add	x0, sp, 408
	bl	_ZNSt7__cxx1112basic_stringIcSt11char_traitsIcESaIcEED1Ev
	add	x0, sp, 128
	bl	_ZNSt15__new_allocatorIcED2Ev
	nop
.L66:
	ldr	w0, [sp, 12]
	cmp	w0, 2
	ble	.L67
	ldr	x0, [sp]
	add	x0, x0, 16
	ldr	x1, [x0]
	add	x0, sp, 128
	str	x0, [sp, 80]
	nop
	nop
	add	x2, sp, 128
	add	x0, sp, 408
.LEHB2:
	bl	_ZNSt7__cxx1112basic_stringIcSt11char_traitsIcESaIcEEC1IS3_EEPKcRKS3_
.LEHE2:
	add	x0, sp, 408
	mov	w2, 10
	mov	x1, 0
.LEHB3:
	bl	_ZNSt7__cxx115stoulERKNS_12basic_stringIcSt11char_traitsIcESaIcEEEPmi
.LEHE3:
	str	w0, [sp, 20]
	add	x0, sp, 408
	bl	_ZNSt7__cxx1112basic_stringIcSt11char_traitsIcESaIcEED1Ev
	add	x0, sp, 128
	bl	_ZNSt15__new_allocatorIcED2Ev
	nop
.L67:
	add	x0, sp, 152
	bl	_ZNSt7__cxx1112basic_stringIcSt11char_traitsIcESaIcEEC1Ev
	add	x0, sp, 184
	bl	_ZNSt7__cxx1112basic_stringIcSt11char_traitsIcESaIcEEC1Ev
	add	x0, sp, 216
	bl	_ZNSt7__cxx1112basic_stringIcSt11char_traitsIcESaIcEEC1Ev
	add	x0, sp, 248
	bl	_ZNSt7__cxx1112basic_stringIcSt11char_traitsIcESaIcEEC1Ev
	add	x0, sp, 280
	bl	_ZNSt7__cxx1112basic_stringIcSt11char_traitsIcESaIcEEC1Ev
	add	x3, sp, 408
	mov	w2, 8
	adrp	x0, .LC2
	add	x1, x0, :lo12:.LC2
	mov	x0, x3
.LEHB4:
	bl	_ZNSt14basic_ifstreamIcSt11char_traitsIcEEC1EPKcSt13_Ios_Openmode
.LEHE4:
	add	x0, sp, 312
	bl	_ZNSt7__cxx1112basic_stringIcSt11char_traitsIcESaIcEEC1Ev
	b	.L70
.L71:
	add	x3, sp, 312
	mov	x2, 0
	adrp	x0, .LC3
	add	x1, x0, :lo12:.LC3
	mov	x0, x3
	bl	_ZNKSt7__cxx1112basic_stringIcSt11char_traitsIcESaIcEE4findEPKcm
	cmn	x0, #1
	cset	w0, ne
	and	w0, w0, 255
	and	w0, w0, 1
	cmp	w0, 0
	beq	.L69
	add	x3, sp, 312
	mov	x2, 0
	adrp	x0, .LC4
	add	x1, x0, :lo12:.LC4
	mov	x0, x3
	bl	_ZNKSt7__cxx1112basic_stringIcSt11char_traitsIcESaIcEE4findEPKcm
	add	x1, x0, 2
	add	x0, sp, 312
	add	x2, sp, 344
	mov	x8, x2
	mov	x2, -1
.LEHB5:
	bl	_ZNKSt7__cxx1112basic_stringIcSt11char_traitsIcESaIcEE6substrEmm
	add	x1, sp, 344
	add	x0, sp, 152
	bl	_ZNSt7__cxx1112basic_stringIcSt11char_traitsIcESaIcEEaSEOS4_
	add	x0, sp, 344
	bl	_ZNSt7__cxx1112basic_stringIcSt11char_traitsIcESaIcEED1Ev
.L69:
	add	x3, sp, 312
	mov	x2, 0
	adrp	x0, .LC5
	add	x1, x0, :lo12:.LC5
	mov	x0, x3
	bl	_ZNKSt7__cxx1112basic_stringIcSt11char_traitsIcESaIcEE4findEPKcm
	cmn	x0, #1
	cset	w0, ne
	and	w0, w0, 255
	and	w0, w0, 1
	cmp	w0, 0
	beq	.L70
	add	x3, sp, 312
	mov	x2, 0
	adrp	x0, .LC4
	add	x1, x0, :lo12:.LC4
	mov	x0, x3
	bl	_ZNKSt7__cxx1112basic_stringIcSt11char_traitsIcESaIcEE4findEPKcm
	add	x1, x0, 2
	add	x0, sp, 312
	add	x2, sp, 344
	mov	x8, x2
	mov	x2, -1
	bl	_ZNKSt7__cxx1112basic_stringIcSt11char_traitsIcESaIcEE6substrEmm
	add	x1, sp, 344
	add	x0, sp, 184
	bl	_ZNSt7__cxx1112basic_stringIcSt11char_traitsIcESaIcEEaSEOS4_
	add	x0, sp, 344
	bl	_ZNSt7__cxx1112basic_stringIcSt11char_traitsIcESaIcEED1Ev
.L70:
	add	x1, sp, 312
	add	x0, sp, 408
	bl	_ZSt7getlineIcSt11char_traitsIcESaIcEERSt13basic_istreamIT_T0_ES7_RNSt7__cxx1112basic_stringIS4_S5_T1_EE
	ldr	x1, [x0]
	sub	x1, x1, #24
	ldr	x1, [x1]
	add	x0, x0, x1
	bl	_ZNKSt9basic_iosIcSt11char_traitsIcEEcvbEv
.LEHE5:
	and	w0, w0, 255
	and	w0, w0, 1
	cmp	w0, 0
	bne	.L71
	add	x0, sp, 312
	bl	_ZNSt7__cxx1112basic_stringIcSt11char_traitsIcESaIcEED1Ev
	add	x0, sp, 408
	bl	_ZNSt14basic_ifstreamIcSt11char_traitsIcEED1Ev
	add	x3, sp, 408
	mov	w2, 8
	adrp	x0, .LC6
	add	x1, x0, :lo12:.LC6
	mov	x0, x3
.LEHB6:
	bl	_ZNSt14basic_ifstreamIcSt11char_traitsIcEEC1EPKcSt13_Ios_Openmode
.LEHE6:
	add	x0, sp, 312
	bl	_ZNSt7__cxx1112basic_stringIcSt11char_traitsIcESaIcEEC1Ev
	add	x1, sp, 312
	add	x0, sp, 408
.LEHB7:
	bl	_ZSt7getlineIcSt11char_traitsIcESaIcEERSt13basic_istreamIT_T0_ES7_RNSt7__cxx1112basic_stringIS4_S5_T1_EE
	ldr	x1, [x0]
	sub	x1, x1, #24
	ldr	x1, [x1]
	add	x0, x0, x1
	bl	_ZNKSt9basic_iosIcSt11char_traitsIcEEcvbEv
	and	w0, w0, 255
	and	w0, w0, 1
	cmp	w0, 0
	beq	.L72
	add	x3, sp, 312
	mov	x2, 0
	adrp	x0, .LC7
	add	x1, x0, :lo12:.LC7
	mov	x0, x3
	bl	_ZNKSt7__cxx1112basic_stringIcSt11char_traitsIcESaIcEE4findEPKcm
	cmn	x0, #1
	cset	w0, ne
	and	w0, w0, 255
	and	w0, w0, 1
	cmp	w0, 0
	beq	.L72
	add	x3, sp, 312
	mov	x2, 0
	adrp	x0, .LC4
	add	x1, x0, :lo12:.LC4
	mov	x0, x3
	bl	_ZNKSt7__cxx1112basic_stringIcSt11char_traitsIcESaIcEE4findEPKcm
	add	x1, x0, 2
	add	x0, sp, 312
	add	x2, sp, 344
	mov	x8, x2
	mov	x2, -1
	bl	_ZNKSt7__cxx1112basic_stringIcSt11char_traitsIcESaIcEE6substrEmm
.LEHE7:
	add	x1, sp, 344
	add	x0, sp, 216
	bl	_ZNSt7__cxx1112basic_stringIcSt11char_traitsIcESaIcEEaSEOS4_
	add	x0, sp, 344
	bl	_ZNSt7__cxx1112basic_stringIcSt11char_traitsIcESaIcEED1Ev
.L72:
	add	x0, sp, 312
	bl	_ZNSt7__cxx1112basic_stringIcSt11char_traitsIcESaIcEED1Ev
	add	x0, sp, 408
	bl	_ZNSt14basic_ifstreamIcSt11char_traitsIcEED1Ev
	add	x0, sp, 1064
	mov	x1, 256
	bl	gethostname
	cmp	w0, 0
	cset	w0, eq
	and	w0, w0, 255
	and	w0, w0, 1
	cmp	w0, 0
	beq	.L73
	add	x1, sp, 1064
	add	x0, sp, 248
.LEHB8:
	bl	_ZNSt7__cxx1112basic_stringIcSt11char_traitsIcESaIcEEaSEPKc
.L73:
	adrp	x0, .LC8
	add	x1, x0, :lo12:.LC8
	adrp	x0, .LC9
	add	x0, x0, :lo12:.LC9
	bl	popen
	str	x0, [sp, 40]
	ldr	x0, [sp, 40]
	cmp	x0, 0
	beq	.L74
	add	x0, sp, 936
	ldr	x2, [sp, 40]
	mov	w1, 128
	bl	fgets
.LEHE8:
	cmp	x0, 0
	cset	w0, ne
	and	w0, w0, 255
	and	w0, w0, 1
	cmp	w0, 0
	beq	.L75
	add	x0, sp, 128
	str	x0, [sp, 88]
	nop
	nop
	add	x2, sp, 128
	add	x1, sp, 936
	add	x0, sp, 408
.LEHB9:
	bl	_ZNSt7__cxx1112basic_stringIcSt11char_traitsIcESaIcEEC1IS3_EEPKcRKS3_
.LEHE9:
	add	x1, sp, 408
	add	x0, sp, 280
	bl	_ZNSt7__cxx1112basic_stringIcSt11char_traitsIcESaIcEEaSEOS4_
	add	x0, sp, 408
	bl	_ZNSt7__cxx1112basic_stringIcSt11char_traitsIcESaIcEED1Ev
	add	x0, sp, 128
	bl	_ZNSt15__new_allocatorIcED2Ev
	nop
	add	x0, sp, 280
	bl	_ZNKSt7__cxx1112basic_stringIcSt11char_traitsIcESaIcEE5emptyEv
	and	w0, w0, 255
	eor	w0, w0, 1
	and	w0, w0, 255
	and	w0, w0, 1
	cmp	w0, 0
	beq	.L76
	add	x0, sp, 280
	bl	_ZNSt7__cxx1112basic_stringIcSt11char_traitsIcESaIcEE4backEv
	ldrb	w0, [x0]
	cmp	w0, 10
	bne	.L76
	mov	w0, 1
	b	.L77
.L76:
	mov	w0, 0
.L77:
	and	w0, w0, 1
	cmp	w0, 0
	beq	.L75
	add	x0, sp, 280
	bl	_ZNSt7__cxx1112basic_stringIcSt11char_traitsIcESaIcEE8pop_backEv
.L75:
	ldr	x0, [sp, 40]
.LEHB10:
	bl	pclose
.LEHE10:
.L74:
	str	wzr, [sp, 24]
	b	.L78
.L79:
	ldr	w1, [sp, 24]
	ldr	w0, [sp, 20]
	mul	w2, w1, w0
	ldrsw	x0, [sp, 24]
	lsl	x0, x0, 2
	add	x1, sp, 344
	str	w2, [x1, x0]
	ldr	w0, [sp, 24]
	add	w0, w0, 1
	str	w0, [sp, 24]
.L78:
	ldr	w0, [sp, 24]
	cmp	w0, 15
	ble	.L79
	add	x0, sp, 128
	str	x0, [sp, 96]
	nop
	nop
	add	x1, sp, 128
	add	x0, sp, 104
	mov	x2, x1
	mov	x1, 16
.LEHB11:
	bl	_ZNSt6vectorIjSaIjEEC1EmRKS0_
.LEHE11:
	add	x0, sp, 128
	bl	_ZNSt15__new_allocatorIjED2Ev
	nop
	adrp	x0, _ZSt5fixedRSt8ios_base
	add	x1, x0, :lo12:_ZSt5fixedRSt8ios_base
	adrp	x0, :got:_ZSt4cout
	ldr	x0, [x0, :got_lo12:_ZSt4cout]
.LEHB12:
	bl	_ZNSolsEPFRSt8ios_baseS0_E
	mov	x19, x0
	mov	w0, 6
	bl	_ZSt12setprecisioni
	mov	w1, w0
	mov	x0, x19
	bl	_ZStlsIcSt11char_traitsIcEERSt13basic_ostreamIT_T0_ES6_St13_Setprecision
	adrp	x0, .LC10
	add	x1, x0, :lo12:.LC10
	adrp	x0, :got:_ZSt4cout
	ldr	x0, [x0, :got_lo12:_ZSt4cout]
	bl	_ZStlsISt11char_traitsIcEERSt13basic_ostreamIcT_ES5_PKc
	adrp	x0, .LC11
	add	x1, x0, :lo12:.LC11
	adrp	x0, :got:_ZSt4cout
	ldr	x0, [x0, :got_lo12:_ZSt4cout]
	bl	_ZStlsISt11char_traitsIcEERSt13basic_ostreamIcT_ES5_PKc
	adrp	x0, .LC10
	add	x1, x0, :lo12:.LC10
	adrp	x0, :got:_ZSt4cout
	ldr	x0, [x0, :got_lo12:_ZSt4cout]
	bl	_ZStlsISt11char_traitsIcEERSt13basic_ostreamIcT_ES5_PKc
	adrp	x0, .LC12
	add	x1, x0, :lo12:.LC12
	adrp	x0, :got:_ZSt4cout
	ldr	x0, [x0, :got_lo12:_ZSt4cout]
	bl	_ZStlsISt11char_traitsIcEERSt13basic_ostreamIcT_ES5_PKc
	adrp	x0, .LC13
	add	x1, x0, :lo12:.LC13
	adrp	x0, :got:_ZSt4cout
	ldr	x0, [x0, :got_lo12:_ZSt4cout]
	bl	_ZStlsISt11char_traitsIcEERSt13basic_ostreamIcT_ES5_PKc
	mov	x2, x0
	add	x0, sp, 248
	mov	x1, x0
	mov	x0, x2
	bl	_ZStlsIcSt11char_traitsIcESaIcEERSt13basic_ostreamIT_T0_ES7_RKNSt7__cxx1112basic_stringIS4_S5_T1_EE
	mov	x2, x0
	adrp	x0, .LC14
	add	x1, x0, :lo12:.LC14
	mov	x0, x2
	bl	_ZStlsISt11char_traitsIcEERSt13basic_ostreamIcT_ES5_PKc
	adrp	x0, .LC15
	add	x1, x0, :lo12:.LC15
	adrp	x0, :got:_ZSt4cout
	ldr	x0, [x0, :got_lo12:_ZSt4cout]
	bl	_ZStlsISt11char_traitsIcEERSt13basic_ostreamIcT_ES5_PKc
	mov	x2, x0
	add	x0, sp, 280
	mov	x1, x0
	mov	x0, x2
	bl	_ZStlsIcSt11char_traitsIcESaIcEERSt13basic_ostreamIT_T0_ES7_RKNSt7__cxx1112basic_stringIS4_S5_T1_EE
	mov	x2, x0
	adrp	x0, .LC14
	add	x1, x0, :lo12:.LC14
	mov	x0, x2
	bl	_ZStlsISt11char_traitsIcEERSt13basic_ostreamIcT_ES5_PKc
	adrp	x0, .LC16
	add	x1, x0, :lo12:.LC16
	adrp	x0, :got:_ZSt4cout
	ldr	x0, [x0, :got_lo12:_ZSt4cout]
	bl	_ZStlsISt11char_traitsIcEERSt13basic_ostreamIcT_ES5_PKc
	mov	x2, x0
	add	x0, sp, 152
	mov	x1, x0
	mov	x0, x2
	bl	_ZStlsIcSt11char_traitsIcESaIcEERSt13basic_ostreamIT_T0_ES7_RKNSt7__cxx1112basic_stringIS4_S5_T1_EE
	mov	x2, x0
	adrp	x0, .LC14
	add	x1, x0, :lo12:.LC14
	mov	x0, x2
	bl	_ZStlsISt11char_traitsIcEERSt13basic_ostreamIcT_ES5_PKc
	adrp	x0, .LC17
	add	x1, x0, :lo12:.LC17
	adrp	x0, :got:_ZSt4cout
	ldr	x0, [x0, :got_lo12:_ZSt4cout]
	bl	_ZStlsISt11char_traitsIcEERSt13basic_ostreamIcT_ES5_PKc
	mov	x2, x0
	add	x0, sp, 184
	mov	x1, x0
	mov	x0, x2
	bl	_ZStlsIcSt11char_traitsIcESaIcEERSt13basic_ostreamIT_T0_ES7_RKNSt7__cxx1112basic_stringIS4_S5_T1_EE
	mov	x2, x0
	adrp	x0, .LC14
	add	x1, x0, :lo12:.LC14
	mov	x0, x2
	bl	_ZStlsISt11char_traitsIcEERSt13basic_ostreamIcT_ES5_PKc
	adrp	x0, .LC18
	add	x1, x0, :lo12:.LC18
	adrp	x0, :got:_ZSt4cout
	ldr	x0, [x0, :got_lo12:_ZSt4cout]
	bl	_ZStlsISt11char_traitsIcEERSt13basic_ostreamIcT_ES5_PKc
	mov	x2, x0
	add	x0, sp, 216
	mov	x1, x0
	mov	x0, x2
	bl	_ZStlsIcSt11char_traitsIcESaIcEERSt13basic_ostreamIT_T0_ES7_RKNSt7__cxx1112basic_stringIS4_S5_T1_EE
	mov	x2, x0
	adrp	x0, .LC14
	add	x1, x0, :lo12:.LC14
	mov	x0, x2
	bl	_ZStlsISt11char_traitsIcEERSt13basic_ostreamIcT_ES5_PKc
	adrp	x0, .LC19
	add	x1, x0, :lo12:.LC19
	adrp	x0, :got:_ZSt4cout
	ldr	x0, [x0, :got_lo12:_ZSt4cout]
	bl	_ZStlsISt11char_traitsIcEERSt13basic_ostreamIcT_ES5_PKc
	add	x0, sp, 408
	str	x0, [sp, 128]
	add	x0, sp, 344
	str	x0, [sp, 136]
	add	x0, sp, 104
	str	x0, [sp, 144]
	add	x0, sp, 128
	ldr	x1, [sp, 32]
	bl	_Z11time_streamIZ4mainEUlmE_EdOT_m
	str	d0, [sp, 48]
	add	x0, sp, 408
	str	x0, [sp, 128]
	add	x0, sp, 344
	str	x0, [sp, 136]
	add	x0, sp, 104
	str	x0, [sp, 144]
	add	x0, sp, 128
	ldr	x1, [sp, 32]
	bl	_Z11time_streamIZ4mainEUlmE0_EdOT_m
	str	d0, [sp, 56]
	ldr	d0, [sp, 32]
	ucvtf	d0, d0
	mov	x0, 4634204016564240384
	fmov	d1, x0
	fmul	d0, d0, d1
	str	d0, [sp, 64]
	adrp	x0, .LC20
	add	x1, x0, :lo12:.LC20
	adrp	x0, :got:_ZSt4cout
	ldr	x0, [x0, :got_lo12:_ZSt4cout]
	bl	_ZStlsISt11char_traitsIcEERSt13basic_ostreamIcT_ES5_PKc
	mov	x1, 4697254411347427328
	fmov	d1, x1
	ldr	d0, [sp, 64]
	fdiv	d0, d0, d1
	bl	_ZNSolsEd
	mov	x2, x0
	adrp	x0, .LC21
	add	x1, x0, :lo12:.LC21
	mov	x0, x2
	bl	_ZStlsISt11char_traitsIcEERSt13basic_ostreamIcT_ES5_PKc
	adrp	x0, .LC22
	add	x1, x0, :lo12:.LC22
	adrp	x0, :got:_ZSt4cout
	ldr	x0, [x0, :got_lo12:_ZSt4cout]
	bl	_ZStlsISt11char_traitsIcEERSt13basic_ostreamIcT_ES5_PKc
	ldr	d0, [sp, 48]
	bl	_ZNSolsEd
	mov	x2, x0
	adrp	x0, .LC23
	add	x1, x0, :lo12:.LC23
	mov	x0, x2
	bl	_ZStlsISt11char_traitsIcEERSt13basic_ostreamIcT_ES5_PKc
	ldr	d0, [sp, 48]
	ldr	d1, [sp, 64]
	fdiv	d0, d1, d0
	mov	x1, 145685290680320
	movk	x1, 0x412e, lsl 48
	fmov	d1, x1
	fdiv	d0, d0, d1
	bl	_ZNSolsEd
	mov	x2, x0
	adrp	x0, .LC24
	add	x1, x0, :lo12:.LC24
	mov	x0, x2
	bl	_ZStlsISt11char_traitsIcEERSt13basic_ostreamIcT_ES5_PKc
	adrp	x0, .LC25
	add	x1, x0, :lo12:.LC25
	adrp	x0, :got:_ZSt4cout
	ldr	x0, [x0, :got_lo12:_ZSt4cout]
	bl	_ZStlsISt11char_traitsIcEERSt13basic_ostreamIcT_ES5_PKc
	ldr	d0, [sp, 56]
	bl	_ZNSolsEd
	mov	x2, x0
	adrp	x0, .LC23
	add	x1, x0, :lo12:.LC23
	mov	x0, x2
	bl	_ZStlsISt11char_traitsIcEERSt13basic_ostreamIcT_ES5_PKc
	ldr	d0, [sp, 56]
	ldr	d1, [sp, 64]
	fdiv	d0, d1, d0
	mov	x1, 145685290680320
	movk	x1, 0x412e, lsl 48
	fmov	d1, x1
	fdiv	d0, d0, d1
	bl	_ZNSolsEd
	mov	x2, x0
	adrp	x0, .LC24
	add	x1, x0, :lo12:.LC24
	mov	x0, x2
	bl	_ZStlsISt11char_traitsIcEERSt13basic_ostreamIcT_ES5_PKc
	ldr	d0, [sp, 56]
	fcmpe	d0, #0.0
	bgt	.L109
	b	.L80
.L109:
	adrp	x0, .LC26
	add	x1, x0, :lo12:.LC26
	adrp	x0, :got:_ZSt4cout
	ldr	x0, [x0, :got_lo12:_ZSt4cout]
	bl	_ZStlsISt11char_traitsIcEERSt13basic_ostreamIcT_ES5_PKc
	ldr	d0, [sp, 56]
	ldr	d1, [sp, 48]
	fdiv	d0, d1, d0
	bl	_ZNSolsEd
	mov	x2, x0
	adrp	x0, .LC27
	add	x1, x0, :lo12:.LC27
	mov	x0, x2
	bl	_ZStlsISt11char_traitsIcEERSt13basic_ostreamIcT_ES5_PKc
.L80:
	adrp	x0, .LC28
	add	x1, x0, :lo12:.LC28
	adrp	x0, :got:_ZSt4cout
	ldr	x0, [x0, :got_lo12:_ZSt4cout]
	bl	_ZStlsISt11char_traitsIcEERSt13basic_ostreamIcT_ES5_PKc
	str	wzr, [sp, 28]
	b	.L82
.L83:
	adrp	x0, _ZSt3hexRSt8ios_base
	add	x1, x0, :lo12:_ZSt3hexRSt8ios_base
	adrp	x0, :got:_ZSt4cout
	ldr	x0, [x0, :got_lo12:_ZSt4cout]
	bl	_ZNSolsEPFRSt8ios_baseS0_E
	mov	x19, x0
	ldrsw	x1, [sp, 28]
	add	x0, sp, 104
	bl	_ZNSt6vectorIjSaIjEEixEm
	ldr	w0, [x0]
	mov	w1, w0
	mov	x0, x19
	bl	_ZNSolsEj
	mov	x2, x0
	adrp	x0, .LC29
	add	x1, x0, :lo12:.LC29
	mov	x0, x2
	bl	_ZStlsISt11char_traitsIcEERSt13basic_ostreamIcT_ES5_PKc
	ldr	w0, [sp, 28]
	add	w0, w0, 1
	str	w0, [sp, 28]
.L82:
	ldr	w0, [sp, 28]
	cmp	w0, 15
	ble	.L83
	adrp	x0, _ZSt3decRSt8ios_base
	add	x1, x0, :lo12:_ZSt3decRSt8ios_base
	adrp	x0, :got:_ZSt4cout
	ldr	x0, [x0, :got_lo12:_ZSt4cout]
	bl	_ZNSolsEPFRSt8ios_baseS0_E
	mov	x2, x0
	adrp	x0, .LC14
	add	x1, x0, :lo12:.LC14
	mov	x0, x2
	bl	_ZStlsISt11char_traitsIcEERSt13basic_ostreamIcT_ES5_PKc
.LEHE12:
	mov	w19, 0
	add	x0, sp, 104
	bl	_ZNSt6vectorIjSaIjEED1Ev
	add	x0, sp, 280
	bl	_ZNSt7__cxx1112basic_stringIcSt11char_traitsIcESaIcEED1Ev
	add	x0, sp, 248
	bl	_ZNSt7__cxx1112basic_stringIcSt11char_traitsIcESaIcEED1Ev
	add	x0, sp, 216
	bl	_ZNSt7__cxx1112basic_stringIcSt11char_traitsIcESaIcEED1Ev
	add	x0, sp, 184
	bl	_ZNSt7__cxx1112basic_stringIcSt11char_traitsIcESaIcEED1Ev
	add	x0, sp, 152
	bl	_ZNSt7__cxx1112basic_stringIcSt11char_traitsIcESaIcEED1Ev
	mov	w1, w19
	adrp	x0, :got:__stack_chk_guard
	ldr	x0, [x0, :got_lo12:__stack_chk_guard]
	ldr	x3, [sp, 1320]
	ldr	x2, [x0]
	subs	x3, x3, x2
	mov	x2, 0
	beq	.L98
	b	.L110
.L100:
	mov	x19, x0
	add	x0, sp, 408
	bl	_ZNSt7__cxx1112basic_stringIcSt11char_traitsIcESaIcEED1Ev
	b	.L86
.L99:
	mov	x19, x0
.L86:
	add	x0, sp, 128
	bl	_ZNSt15__new_allocatorIcED2Ev
	nop
	mov	x1, x19
	adrp	x0, :got:__stack_chk_guard
	ldr	x0, [x0, :got_lo12:__stack_chk_guard]
	ldr	x3, [sp, 1320]
	ldr	x2, [x0]
	subs	x3, x3, x2
	mov	x2, 0
	beq	.L87
	bl	__stack_chk_fail
.L87:
	mov	x0, x1
.LEHB13:
	bl	_Unwind_Resume
.L102:
	mov	x19, x0
	add	x0, sp, 408
	bl	_ZNSt7__cxx1112basic_stringIcSt11char_traitsIcESaIcEED1Ev
	b	.L89
.L101:
	mov	x19, x0
.L89:
	add	x0, sp, 128
	bl	_ZNSt15__new_allocatorIcED2Ev
	nop
	mov	x1, x19
	adrp	x0, :got:__stack_chk_guard
	ldr	x0, [x0, :got_lo12:__stack_chk_guard]
	ldr	x3, [sp, 1320]
	ldr	x2, [x0]
	subs	x3, x3, x2
	mov	x2, 0
	beq	.L90
	bl	__stack_chk_fail
.L90:
	mov	x0, x1
	bl	_Unwind_Resume
.L103:
	mov	x19, x0
	add	x0, sp, 312
	bl	_ZNSt7__cxx1112basic_stringIcSt11char_traitsIcESaIcEED1Ev
	add	x0, sp, 408
	bl	_ZNSt14basic_ifstreamIcSt11char_traitsIcEED1Ev
	b	.L92
.L105:
	mov	x19, x0
	add	x0, sp, 312
	bl	_ZNSt7__cxx1112basic_stringIcSt11char_traitsIcESaIcEED1Ev
	add	x0, sp, 408
	bl	_ZNSt14basic_ifstreamIcSt11char_traitsIcEED1Ev
	b	.L92
.L106:
	mov	x19, x0
	add	x0, sp, 128
	bl	_ZNSt15__new_allocatorIcED2Ev
	nop
	b	.L92
.L107:
	mov	x19, x0
	add	x0, sp, 128
	bl	_ZNSt15__new_allocatorIjED2Ev
	nop
	b	.L92
.L108:
	mov	x19, x0
	add	x0, sp, 104
	bl	_ZNSt6vectorIjSaIjEED1Ev
	b	.L92
.L104:
	mov	x19, x0
.L92:
	add	x0, sp, 280
	bl	_ZNSt7__cxx1112basic_stringIcSt11char_traitsIcESaIcEED1Ev
	add	x0, sp, 248
	bl	_ZNSt7__cxx1112basic_stringIcSt11char_traitsIcESaIcEED1Ev
	add	x0, sp, 216
	bl	_ZNSt7__cxx1112basic_stringIcSt11char_traitsIcESaIcEED1Ev
	add	x0, sp, 184
	bl	_ZNSt7__cxx1112basic_stringIcSt11char_traitsIcESaIcEED1Ev
	add	x0, sp, 152
	bl	_ZNSt7__cxx1112basic_stringIcSt11char_traitsIcESaIcEED1Ev
	mov	x1, x19
	adrp	x0, :got:__stack_chk_guard
	ldr	x0, [x0, :got_lo12:__stack_chk_guard]
	ldr	x3, [sp, 1320]
	ldr	x2, [x0]
	subs	x3, x3, x2
	mov	x2, 0
	beq	.L97
	bl	__stack_chk_fail
.L97:
	mov	x0, x1
	bl	_Unwind_Resume
.LEHE13:
.L110:
	bl	__stack_chk_fail
.L98:
	mov	w0, w1
	add	sp, sp, 1328
	.cfi_def_cfa_offset 32
	ldr	x19, [sp, 16]
	ldp	x29, x30, [sp], 32
	.cfi_restore 30
	.cfi_restore 29
	.cfi_restore 19
	.cfi_def_cfa_offset 0
	ret
	.cfi_endproc
.LFE3014:
	.global	__gxx_personality_v0
	.section	.gcc_except_table,"a",@progbits
.LLSDA3014:
	.byte	0xff
	.byte	0xff
	.byte	0x1
	.uleb128 .LLSDACSE3014-.LLSDACSB3014
.LLSDACSB3014:
	.uleb128 .LEHB0-.LFB3014
	.uleb128 .LEHE0-.LEHB0
	.uleb128 .L99-.LFB3014
	.uleb128 0
	.uleb128 .LEHB1-.LFB3014
	.uleb128 .LEHE1-.LEHB1
	.uleb128 .L100-.LFB3014
	.uleb128 0
	.uleb128 .LEHB2-.LFB3014
	.uleb128 .LEHE2-.LEHB2
	.uleb128 .L101-.LFB3014
	.uleb128 0
	.uleb128 .LEHB3-.LFB3014
	.uleb128 .LEHE3-.LEHB3
	.uleb128 .L102-.LFB3014
	.uleb128 0
	.uleb128 .LEHB4-.LFB3014
	.uleb128 .LEHE4-.LEHB4
	.uleb128 .L104-.LFB3014
	.uleb128 0
	.uleb128 .LEHB5-.LFB3014
	.uleb128 .LEHE5-.LEHB5
	.uleb128 .L103-.LFB3014
	.uleb128 0
	.uleb128 .LEHB6-.LFB3014
	.uleb128 .LEHE6-.LEHB6
	.uleb128 .L104-.LFB3014
	.uleb128 0
	.uleb128 .LEHB7-.LFB3014
	.uleb128 .LEHE7-.LEHB7
	.uleb128 .L105-.LFB3014
	.uleb128 0
	.uleb128 .LEHB8-.LFB3014
	.uleb128 .LEHE8-.LEHB8
	.uleb128 .L104-.LFB3014
	.uleb128 0
	.uleb128 .LEHB9-.LFB3014
	.uleb128 .LEHE9-.LEHB9
	.uleb128 .L106-.LFB3014
	.uleb128 0
	.uleb128 .LEHB10-.LFB3014
	.uleb128 .LEHE10-.LEHB10
	.uleb128 .L104-.LFB3014
	.uleb128 0
	.uleb128 .LEHB11-.LFB3014
	.uleb128 .LEHE11-.LEHB11
	.uleb128 .L107-.LFB3014
	.uleb128 0
	.uleb128 .LEHB12-.LFB3014
	.uleb128 .LEHE12-.LEHB12
	.uleb128 .L108-.LFB3014
	.uleb128 0
	.uleb128 .LEHB13-.LFB3014
	.uleb128 .LEHE13-.LEHB13
	.uleb128 0
	.uleb128 0
.LLSDACSE3014:
	.text
	.size	main, .-main
	.section	.text._ZN9__gnu_cxx11char_traitsIcE6lengthEPKc,"axG",@progbits,_ZN9__gnu_cxx11char_traitsIcE6lengthEPKc,comdat
	.align	2
	.weak	_ZN9__gnu_cxx11char_traitsIcE6lengthEPKc
	.type	_ZN9__gnu_cxx11char_traitsIcE6lengthEPKc, %function
_ZN9__gnu_cxx11char_traitsIcE6lengthEPKc:
.LFB3021:
	.cfi_startproc
	sub	sp, sp, #64
	.cfi_def_cfa_offset 64
	stp	x29, x30, [sp, 48]
	.cfi_offset 29, -16
	.cfi_offset 30, -8
	add	x29, sp, 48
	str	x0, [sp, 8]
	adrp	x0, :got:__stack_chk_guard
	ldr	x0, [x0, :got_lo12:__stack_chk_guard]
	ldr	x1, [x0]
	str	x1, [sp, 40]
	mov	x1, 0
	str	xzr, [sp, 32]
	b	.L112
.L113:
	ldr	x0, [sp, 32]
	add	x0, x0, 1
	str	x0, [sp, 32]
.L112:
	ldr	x1, [sp, 8]
	ldr	x0, [sp, 32]
	add	x0, x1, x0
	strb	wzr, [sp, 31]
	add	x1, sp, 31
	bl	_ZN9__gnu_cxx11char_traitsIcE2eqERKcS3_
	and	w0, w0, 255
	eor	w0, w0, 1
	and	w0, w0, 255
	and	w0, w0, 1
	cmp	w0, 0
	bne	.L113
	ldr	x0, [sp, 32]
	mov	x1, x0
	adrp	x0, :got:__stack_chk_guard
	ldr	x0, [x0, :got_lo12:__stack_chk_guard]
	ldr	x3, [sp, 40]
	ldr	x2, [x0]
	subs	x3, x3, x2
	mov	x2, 0
	beq	.L115
	bl	__stack_chk_fail
.L115:
	mov	x0, x1
	ldp	x29, x30, [sp, 48]
	add	sp, sp, 64
	.cfi_restore 29
	.cfi_restore 30
	.cfi_def_cfa_offset 0
	ret
	.cfi_endproc
.LFE3021:
	.size	_ZN9__gnu_cxx11char_traitsIcE6lengthEPKc, .-_ZN9__gnu_cxx11char_traitsIcE6lengthEPKc
	.section	.text._ZZN9__gnu_cxx6__stoaImmcJiEEET0_PFT_PKT1_PPS3_DpT2_EPKcS5_PmS9_EN11_Save_errnoC2Ev,"axG",@progbits,_ZZN9__gnu_cxx6__stoaImmcJiEEET0_PFT_PKT1_PPS3_DpT2_EPKcS5_PmS9_EN11_Save_errnoC5Ev,comdat
	.align	2
	.weak	_ZZN9__gnu_cxx6__stoaImmcJiEEET0_PFT_PKT1_PPS3_DpT2_EPKcS5_PmS9_EN11_Save_errnoC2Ev
	.type	_ZZN9__gnu_cxx6__stoaImmcJiEEET0_PFT_PKT1_PPS3_DpT2_EPKcS5_PmS9_EN11_Save_errnoC2Ev, %function
_ZZN9__gnu_cxx6__stoaImmcJiEEET0_PFT_PKT1_PPS3_DpT2_EPKcS5_PmS9_EN11_Save_errnoC2Ev:
.LFB3069:
	.cfi_startproc
	stp	x29, x30, [sp, -32]!
	.cfi_def_cfa_offset 32
	.cfi_offset 29, -32
	.cfi_offset 30, -24
	mov	x29, sp
	str	x0, [sp, 24]
	bl	__errno_location
	ldr	w1, [x0]
	ldr	x0, [sp, 24]
	str	w1, [x0]
	bl	__errno_location
	str	wzr, [x0]
	nop
	ldp	x29, x30, [sp], 32
	.cfi_restore 30
	.cfi_restore 29
	.cfi_def_cfa_offset 0
	ret
	.cfi_endproc
.LFE3069:
	.size	_ZZN9__gnu_cxx6__stoaImmcJiEEET0_PFT_PKT1_PPS3_DpT2_EPKcS5_PmS9_EN11_Save_errnoC2Ev, .-_ZZN9__gnu_cxx6__stoaImmcJiEEET0_PFT_PKT1_PPS3_DpT2_EPKcS5_PmS9_EN11_Save_errnoC2Ev
	.weak	_ZZN9__gnu_cxx6__stoaImmcJiEEET0_PFT_PKT1_PPS3_DpT2_EPKcS5_PmS9_EN11_Save_errnoC1Ev
	.set	_ZZN9__gnu_cxx6__stoaImmcJiEEET0_PFT_PKT1_PPS3_DpT2_EPKcS5_PmS9_EN11_Save_errnoC1Ev,_ZZN9__gnu_cxx6__stoaImmcJiEEET0_PFT_PKT1_PPS3_DpT2_EPKcS5_PmS9_EN11_Save_errnoC2Ev
	.section	.text._ZZN9__gnu_cxx6__stoaImmcJiEEET0_PFT_PKT1_PPS3_DpT2_EPKcS5_PmS9_EN11_Save_errnoD2Ev,"axG",@progbits,_ZZN9__gnu_cxx6__stoaImmcJiEEET0_PFT_PKT1_PPS3_DpT2_EPKcS5_PmS9_EN11_Save_errnoD5Ev,comdat
	.align	2
	.weak	_ZZN9__gnu_cxx6__stoaImmcJiEEET0_PFT_PKT1_PPS3_DpT2_EPKcS5_PmS9_EN11_Save_errnoD2Ev
	.type	_ZZN9__gnu_cxx6__stoaImmcJiEEET0_PFT_PKT1_PPS3_DpT2_EPKcS5_PmS9_EN11_Save_errnoD2Ev, %function
_ZZN9__gnu_cxx6__stoaImmcJiEEET0_PFT_PKT1_PPS3_DpT2_EPKcS5_PmS9_EN11_Save_errnoD2Ev:
.LFB3072:
	.cfi_startproc
	stp	x29, x30, [sp, -32]!
	.cfi_def_cfa_offset 32
	.cfi_offset 29, -32
	.cfi_offset 30, -24
	mov	x29, sp
	str	x0, [sp, 24]
	bl	__errno_location
	ldr	w0, [x0]
	cmp	w0, 0
	bne	.L119
	bl	__errno_location
	mov	x1, x0
	ldr	x0, [sp, 24]
	ldr	w0, [x0]
	str	w0, [x1]
.L119:
	nop
	ldp	x29, x30, [sp], 32
	.cfi_restore 30
	.cfi_restore 29
	.cfi_def_cfa_offset 0
	ret
	.cfi_endproc
.LFE3072:
	.size	_ZZN9__gnu_cxx6__stoaImmcJiEEET0_PFT_PKT1_PPS3_DpT2_EPKcS5_PmS9_EN11_Save_errnoD2Ev, .-_ZZN9__gnu_cxx6__stoaImmcJiEEET0_PFT_PKT1_PPS3_DpT2_EPKcS5_PmS9_EN11_Save_errnoD2Ev
	.weak	_ZZN9__gnu_cxx6__stoaImmcJiEEET0_PFT_PKT1_PPS3_DpT2_EPKcS5_PmS9_EN11_Save_errnoD1Ev
	.set	_ZZN9__gnu_cxx6__stoaImmcJiEEET0_PFT_PKT1_PPS3_DpT2_EPKcS5_PmS9_EN11_Save_errnoD1Ev,_ZZN9__gnu_cxx6__stoaImmcJiEEET0_PFT_PKT1_PPS3_DpT2_EPKcS5_PmS9_EN11_Save_errnoD2Ev
	.section	.text._ZZN9__gnu_cxx6__stoaImmcJiEEET0_PFT_PKT1_PPS3_DpT2_EPKcS5_PmS9_EN10_Range_chk6_S_chkEmSt17integral_constantIbLb0EE,"axG",@progbits,_ZZN9__gnu_cxx6__stoaImmcJiEEET0_PFT_PKT1_PPS3_DpT2_EPKcS5_PmS9_EN10_Range_chk6_S_chkEmSt17integral_constantIbLb0EE,comdat
	.align	2
	.weak	_ZZN9__gnu_cxx6__stoaImmcJiEEET0_PFT_PKT1_PPS3_DpT2_EPKcS5_PmS9_EN10_Range_chk6_S_chkEmSt17integral_constantIbLb0EE
	.type	_ZZN9__gnu_cxx6__stoaImmcJiEEET0_PFT_PKT1_PPS3_DpT2_EPKcS5_PmS9_EN10_Range_chk6_S_chkEmSt17integral_constantIbLb0EE, %function
_ZZN9__gnu_cxx6__stoaImmcJiEEET0_PFT_PKT1_PPS3_DpT2_EPKcS5_PmS9_EN10_Range_chk6_S_chkEmSt17integral_constantIbLb0EE:
.LFB3074:
	.cfi_startproc
	sub	sp, sp, #16
	.cfi_def_cfa_offset 16
	str	x0, [sp, 8]
	strb	w1, [sp]
	mov	w0, 0
	add	sp, sp, 16
	.cfi_def_cfa_offset 0
	ret
	.cfi_endproc
.LFE3074:
	.size	_ZZN9__gnu_cxx6__stoaImmcJiEEET0_PFT_PKT1_PPS3_DpT2_EPKcS5_PmS9_EN10_Range_chk6_S_chkEmSt17integral_constantIbLb0EE, .-_ZZN9__gnu_cxx6__stoaImmcJiEEET0_PFT_PKT1_PPS3_DpT2_EPKcS5_PmS9_EN10_Range_chk6_S_chkEmSt17integral_constantIbLb0EE
	.section	.text._ZN9__gnu_cxx6__stoaImmcJiEEET0_PFT_PKT1_PPS3_DpT2_EPKcS5_PmS9_,"axG",@progbits,_ZN9__gnu_cxx6__stoaImmcJiEEET0_PFT_PKT1_PPS3_DpT2_EPKcS5_PmS9_,comdat
	.align	2
	.weak	_ZN9__gnu_cxx6__stoaImmcJiEEET0_PFT_PKT1_PPS3_DpT2_EPKcS5_PmS9_
	.type	_ZN9__gnu_cxx6__stoaImmcJiEEET0_PFT_PKT1_PPS3_DpT2_EPKcS5_PmS9_, %function
_ZN9__gnu_cxx6__stoaImmcJiEEET0_PFT_PKT1_PPS3_DpT2_EPKcS5_PmS9_:
.LFB3067:
	.cfi_startproc
	.cfi_personality 0x9b,DW.ref.__gxx_personality_v0
	.cfi_lsda 0x1b,.LLSDA3067
	sub	sp, sp, #128
	.cfi_def_cfa_offset 128
	stp	x29, x30, [sp, 96]
	.cfi_offset 29, -32
	.cfi_offset 30, -24
	add	x29, sp, 96
	str	x19, [sp, 112]
	.cfi_offset 19, -16
	str	x0, [sp, 40]
	str	x1, [sp, 32]
	str	x2, [sp, 24]
	str	x3, [sp, 16]
	str	w4, [sp, 12]
	adrp	x0, :got:__stack_chk_guard
	ldr	x0, [x0, :got_lo12:__stack_chk_guard]
	ldr	x1, [x0]
	str	x1, [sp, 88]
	mov	x1, 0
	add	x0, sp, 56
	bl	_ZZN9__gnu_cxx6__stoaImmcJiEEET0_PFT_PKT1_PPS3_DpT2_EPKcS5_PmS9_EN11_Save_errnoC1Ev
	ldr	x3, [sp, 40]
	add	x0, sp, 64
	ldr	w2, [sp, 12]
	mov	x1, x0
	ldr	x0, [sp, 24]
.LEHB14:
	blr	x3
	str	x0, [sp, 72]
	ldr	x0, [sp, 64]
	ldr	x1, [sp, 24]
	cmp	x1, x0
	bne	.L123
	adrp	x0, :got:__stack_chk_guard
	ldr	x0, [x0, :got_lo12:__stack_chk_guard]
	ldr	x2, [sp, 88]
	ldr	x1, [x0]
	subs	x2, x2, x1
	mov	x1, 0
	beq	.L124
	bl	__stack_chk_fail
.L124:
	ldr	x0, [sp, 32]
	bl	_ZSt24__throw_invalid_argumentPKc
.L123:
	bl	__errno_location
	ldr	w0, [x0]
	cmp	w0, 34
	beq	.L125
	mov	w1, w19
	ldr	x0, [sp, 72]
	bl	_ZZN9__gnu_cxx6__stoaImmcJiEEET0_PFT_PKT1_PPS3_DpT2_EPKcS5_PmS9_EN10_Range_chk6_S_chkEmSt17integral_constantIbLb0EE
	and	w0, w0, 255
	and	w0, w0, 1
	cmp	w0, 0
	beq	.L126
.L125:
	mov	w0, 1
	b	.L127
.L126:
	mov	w0, 0
.L127:
	and	w0, w0, 1
	cmp	w0, 0
	beq	.L128
	adrp	x0, :got:__stack_chk_guard
	ldr	x0, [x0, :got_lo12:__stack_chk_guard]
	ldr	x2, [sp, 88]
	ldr	x1, [x0]
	subs	x2, x2, x1
	mov	x1, 0
	beq	.L129
	bl	__stack_chk_fail
.L129:
	ldr	x0, [sp, 32]
	bl	_ZSt20__throw_out_of_rangePKc
.LEHE14:
.L128:
	ldr	x0, [sp, 72]
	str	x0, [sp, 80]
	ldr	x0, [sp, 16]
	cmp	x0, 0
	beq	.L130
	ldr	x1, [sp, 64]
	ldr	x0, [sp, 24]
	sub	x0, x1, x0
	mov	x1, x0
	ldr	x0, [sp, 16]
	str	x1, [x0]
.L130:
	ldr	x19, [sp, 80]
	add	x0, sp, 56
	bl	_ZZN9__gnu_cxx6__stoaImmcJiEEET0_PFT_PKT1_PPS3_DpT2_EPKcS5_PmS9_EN11_Save_errnoD1Ev
	mov	x1, x19
	adrp	x0, :got:__stack_chk_guard
	ldr	x0, [x0, :got_lo12:__stack_chk_guard]
	ldr	x3, [sp, 88]
	ldr	x2, [x0]
	subs	x3, x3, x2
	mov	x2, 0
	beq	.L134
	b	.L136
.L135:
	mov	x19, x0
	add	x0, sp, 56
	bl	_ZZN9__gnu_cxx6__stoaImmcJiEEET0_PFT_PKT1_PPS3_DpT2_EPKcS5_PmS9_EN11_Save_errnoD1Ev
	mov	x1, x19
	adrp	x0, :got:__stack_chk_guard
	ldr	x0, [x0, :got_lo12:__stack_chk_guard]
	ldr	x3, [sp, 88]
	ldr	x2, [x0]
	subs	x3, x3, x2
	mov	x2, 0
	beq	.L133
	bl	__stack_chk_fail
.L133:
	mov	x0, x1
.LEHB15:
	bl	_Unwind_Resume
.LEHE15:
.L136:
	bl	__stack_chk_fail
.L134:
	mov	x0, x1
	ldr	x19, [sp, 112]
	ldp	x29, x30, [sp, 96]
	add	sp, sp, 128
	.cfi_restore 29
	.cfi_restore 30
	.cfi_restore 19
	.cfi_def_cfa_offset 0
	ret
	.cfi_endproc
.LFE3067:
	.section	.gcc_except_table
.LLSDA3067:
	.byte	0xff
	.byte	0xff
	.byte	0x1
	.uleb128 .LLSDACSE3067-.LLSDACSB3067
.LLSDACSB3067:
	.uleb128 .LEHB14-.LFB3067
	.uleb128 .LEHE14-.LEHB14
	.uleb128 .L135-.LFB3067
	.uleb128 0
	.uleb128 .LEHB15-.LFB3067
	.uleb128 .LEHE15-.LEHB15
	.uleb128 0
	.uleb128 0
.LLSDACSE3067:
	.section	.text._ZN9__gnu_cxx6__stoaImmcJiEEET0_PFT_PKT1_PPS3_DpT2_EPKcS5_PmS9_,"axG",@progbits,_ZN9__gnu_cxx6__stoaImmcJiEEET0_PFT_PKT1_PPS3_DpT2_EPKcS5_PmS9_,comdat
	.size	_ZN9__gnu_cxx6__stoaImmcJiEEET0_PFT_PKT1_PPS3_DpT2_EPKcS5_PmS9_, .-_ZN9__gnu_cxx6__stoaImmcJiEEET0_PFT_PKT1_PPS3_DpT2_EPKcS5_PmS9_
	.section	.text._ZZN9__gnu_cxx6__stoaIyycJiEEET0_PFT_PKT1_PPS3_DpT2_EPKcS5_PmS9_EN11_Save_errnoC2Ev,"axG",@progbits,_ZZN9__gnu_cxx6__stoaIyycJiEEET0_PFT_PKT1_PPS3_DpT2_EPKcS5_PmS9_EN11_Save_errnoC5Ev,comdat
	.align	2
	.weak	_ZZN9__gnu_cxx6__stoaIyycJiEEET0_PFT_PKT1_PPS3_DpT2_EPKcS5_PmS9_EN11_Save_errnoC2Ev
	.type	_ZZN9__gnu_cxx6__stoaIyycJiEEET0_PFT_PKT1_PPS3_DpT2_EPKcS5_PmS9_EN11_Save_errnoC2Ev, %function
_ZZN9__gnu_cxx6__stoaIyycJiEEET0_PFT_PKT1_PPS3_DpT2_EPKcS5_PmS9_EN11_Save_errnoC2Ev:
.LFB3087:
	.cfi_startproc
	stp	x29, x30, [sp, -32]!
	.cfi_def_cfa_offset 32
	.cfi_offset 29, -32
	.cfi_offset 30, -24
	mov	x29, sp
	str	x0, [sp, 24]
	bl	__errno_location
	ldr	w1, [x0]
	ldr	x0, [sp, 24]
	str	w1, [x0]
	bl	__errno_location
	str	wzr, [x0]
	nop
	ldp	x29, x30, [sp], 32
	.cfi_restore 30
	.cfi_restore 29
	.cfi_def_cfa_offset 0
	ret
	.cfi_endproc
.LFE3087:
	.size	_ZZN9__gnu_cxx6__stoaIyycJiEEET0_PFT_PKT1_PPS3_DpT2_EPKcS5_PmS9_EN11_Save_errnoC2Ev, .-_ZZN9__gnu_cxx6__stoaIyycJiEEET0_PFT_PKT1_PPS3_DpT2_EPKcS5_PmS9_EN11_Save_errnoC2Ev
	.weak	_ZZN9__gnu_cxx6__stoaIyycJiEEET0_PFT_PKT1_PPS3_DpT2_EPKcS5_PmS9_EN11_Save_errnoC1Ev
	.set	_ZZN9__gnu_cxx6__stoaIyycJiEEET0_PFT_PKT1_PPS3_DpT2_EPKcS5_PmS9_EN11_Save_errnoC1Ev,_ZZN9__gnu_cxx6__stoaIyycJiEEET0_PFT_PKT1_PPS3_DpT2_EPKcS5_PmS9_EN11_Save_errnoC2Ev
	.section	.text._ZZN9__gnu_cxx6__stoaIyycJiEEET0_PFT_PKT1_PPS3_DpT2_EPKcS5_PmS9_EN11_Save_errnoD2Ev,"axG",@progbits,_ZZN9__gnu_cxx6__stoaIyycJiEEET0_PFT_PKT1_PPS3_DpT2_EPKcS5_PmS9_EN11_Save_errnoD5Ev,comdat
	.align	2
	.weak	_ZZN9__gnu_cxx6__stoaIyycJiEEET0_PFT_PKT1_PPS3_DpT2_EPKcS5_PmS9_EN11_Save_errnoD2Ev
	.type	_ZZN9__gnu_cxx6__stoaIyycJiEEET0_PFT_PKT1_PPS3_DpT2_EPKcS5_PmS9_EN11_Save_errnoD2Ev, %function
_ZZN9__gnu_cxx6__stoaIyycJiEEET0_PFT_PKT1_PPS3_DpT2_EPKcS5_PmS9_EN11_Save_errnoD2Ev:
.LFB3090:
	.cfi_startproc
	stp	x29, x30, [sp, -32]!
	.cfi_def_cfa_offset 32
	.cfi_offset 29, -32
	.cfi_offset 30, -24
	mov	x29, sp
	str	x0, [sp, 24]
	bl	__errno_location
	ldr	w0, [x0]
	cmp	w0, 0
	bne	.L140
	bl	__errno_location
	mov	x1, x0
	ldr	x0, [sp, 24]
	ldr	w0, [x0]
	str	w0, [x1]
.L140:
	nop
	ldp	x29, x30, [sp], 32
	.cfi_restore 30
	.cfi_restore 29
	.cfi_def_cfa_offset 0
	ret
	.cfi_endproc
.LFE3090:
	.size	_ZZN9__gnu_cxx6__stoaIyycJiEEET0_PFT_PKT1_PPS3_DpT2_EPKcS5_PmS9_EN11_Save_errnoD2Ev, .-_ZZN9__gnu_cxx6__stoaIyycJiEEET0_PFT_PKT1_PPS3_DpT2_EPKcS5_PmS9_EN11_Save_errnoD2Ev
	.weak	_ZZN9__gnu_cxx6__stoaIyycJiEEET0_PFT_PKT1_PPS3_DpT2_EPKcS5_PmS9_EN11_Save_errnoD1Ev
	.set	_ZZN9__gnu_cxx6__stoaIyycJiEEET0_PFT_PKT1_PPS3_DpT2_EPKcS5_PmS9_EN11_Save_errnoD1Ev,_ZZN9__gnu_cxx6__stoaIyycJiEEET0_PFT_PKT1_PPS3_DpT2_EPKcS5_PmS9_EN11_Save_errnoD2Ev
	.section	.text._ZZN9__gnu_cxx6__stoaIyycJiEEET0_PFT_PKT1_PPS3_DpT2_EPKcS5_PmS9_EN10_Range_chk6_S_chkEySt17integral_constantIbLb0EE,"axG",@progbits,_ZZN9__gnu_cxx6__stoaIyycJiEEET0_PFT_PKT1_PPS3_DpT2_EPKcS5_PmS9_EN10_Range_chk6_S_chkEySt17integral_constantIbLb0EE,comdat
	.align	2
	.weak	_ZZN9__gnu_cxx6__stoaIyycJiEEET0_PFT_PKT1_PPS3_DpT2_EPKcS5_PmS9_EN10_Range_chk6_S_chkEySt17integral_constantIbLb0EE
	.type	_ZZN9__gnu_cxx6__stoaIyycJiEEET0_PFT_PKT1_PPS3_DpT2_EPKcS5_PmS9_EN10_Range_chk6_S_chkEySt17integral_constantIbLb0EE, %function
_ZZN9__gnu_cxx6__stoaIyycJiEEET0_PFT_PKT1_PPS3_DpT2_EPKcS5_PmS9_EN10_Range_chk6_S_chkEySt17integral_constantIbLb0EE:
.LFB3092:
	.cfi_startproc
	sub	sp, sp, #16
	.cfi_def_cfa_offset 16
	str	x0, [sp, 8]
	strb	w1, [sp]
	mov	w0, 0
	add	sp, sp, 16
	.cfi_def_cfa_offset 0
	ret
	.cfi_endproc
.LFE3092:
	.size	_ZZN9__gnu_cxx6__stoaIyycJiEEET0_PFT_PKT1_PPS3_DpT2_EPKcS5_PmS9_EN10_Range_chk6_S_chkEySt17integral_constantIbLb0EE, .-_ZZN9__gnu_cxx6__stoaIyycJiEEET0_PFT_PKT1_PPS3_DpT2_EPKcS5_PmS9_EN10_Range_chk6_S_chkEySt17integral_constantIbLb0EE
	.section	.text._ZN9__gnu_cxx6__stoaIyycJiEEET0_PFT_PKT1_PPS3_DpT2_EPKcS5_PmS9_,"axG",@progbits,_ZN9__gnu_cxx6__stoaIyycJiEEET0_PFT_PKT1_PPS3_DpT2_EPKcS5_PmS9_,comdat
	.align	2
	.weak	_ZN9__gnu_cxx6__stoaIyycJiEEET0_PFT_PKT1_PPS3_DpT2_EPKcS5_PmS9_
	.type	_ZN9__gnu_cxx6__stoaIyycJiEEET0_PFT_PKT1_PPS3_DpT2_EPKcS5_PmS9_, %function
_ZN9__gnu_cxx6__stoaIyycJiEEET0_PFT_PKT1_PPS3_DpT2_EPKcS5_PmS9_:
.LFB3085:
	.cfi_startproc
	.cfi_personality 0x9b,DW.ref.__gxx_personality_v0
	.cfi_lsda 0x1b,.LLSDA3085
	sub	sp, sp, #128
	.cfi_def_cfa_offset 128
	stp	x29, x30, [sp, 96]
	.cfi_offset 29, -32
	.cfi_offset 30, -24
	add	x29, sp, 96
	str	x19, [sp, 112]
	.cfi_offset 19, -16
	str	x0, [sp, 40]
	str	x1, [sp, 32]
	str	x2, [sp, 24]
	str	x3, [sp, 16]
	str	w4, [sp, 12]
	adrp	x0, :got:__stack_chk_guard
	ldr	x0, [x0, :got_lo12:__stack_chk_guard]
	ldr	x1, [x0]
	str	x1, [sp, 88]
	mov	x1, 0
	add	x0, sp, 56
	bl	_ZZN9__gnu_cxx6__stoaIyycJiEEET0_PFT_PKT1_PPS3_DpT2_EPKcS5_PmS9_EN11_Save_errnoC1Ev
	ldr	x3, [sp, 40]
	add	x0, sp, 64
	ldr	w2, [sp, 12]
	mov	x1, x0
	ldr	x0, [sp, 24]
.LEHB16:
	blr	x3
	str	x0, [sp, 72]
	ldr	x0, [sp, 64]
	ldr	x1, [sp, 24]
	cmp	x1, x0
	bne	.L144
	adrp	x0, :got:__stack_chk_guard
	ldr	x0, [x0, :got_lo12:__stack_chk_guard]
	ldr	x2, [sp, 88]
	ldr	x1, [x0]
	subs	x2, x2, x1
	mov	x1, 0
	beq	.L145
	bl	__stack_chk_fail
.L145:
	ldr	x0, [sp, 32]
	bl	_ZSt24__throw_invalid_argumentPKc
.L144:
	bl	__errno_location
	ldr	w0, [x0]
	cmp	w0, 34
	beq	.L146
	mov	w1, w19
	ldr	x0, [sp, 72]
	bl	_ZZN9__gnu_cxx6__stoaIyycJiEEET0_PFT_PKT1_PPS3_DpT2_EPKcS5_PmS9_EN10_Range_chk6_S_chkEySt17integral_constantIbLb0EE
	and	w0, w0, 255
	and	w0, w0, 1
	cmp	w0, 0
	beq	.L147
.L146:
	mov	w0, 1
	b	.L148
.L147:
	mov	w0, 0
.L148:
	and	w0, w0, 1
	cmp	w0, 0
	beq	.L149
	adrp	x0, :got:__stack_chk_guard
	ldr	x0, [x0, :got_lo12:__stack_chk_guard]
	ldr	x2, [sp, 88]
	ldr	x1, [x0]
	subs	x2, x2, x1
	mov	x1, 0
	beq	.L150
	bl	__stack_chk_fail
.L150:
	ldr	x0, [sp, 32]
	bl	_ZSt20__throw_out_of_rangePKc
.LEHE16:
.L149:
	ldr	x0, [sp, 72]
	str	x0, [sp, 80]
	ldr	x0, [sp, 16]
	cmp	x0, 0
	beq	.L151
	ldr	x1, [sp, 64]
	ldr	x0, [sp, 24]
	sub	x0, x1, x0
	mov	x1, x0
	ldr	x0, [sp, 16]
	str	x1, [x0]
.L151:
	ldr	x19, [sp, 80]
	add	x0, sp, 56
	bl	_ZZN9__gnu_cxx6__stoaIyycJiEEET0_PFT_PKT1_PPS3_DpT2_EPKcS5_PmS9_EN11_Save_errnoD1Ev
	mov	x1, x19
	adrp	x0, :got:__stack_chk_guard
	ldr	x0, [x0, :got_lo12:__stack_chk_guard]
	ldr	x3, [sp, 88]
	ldr	x2, [x0]
	subs	x3, x3, x2
	mov	x2, 0
	beq	.L155
	b	.L157
.L156:
	mov	x19, x0
	add	x0, sp, 56
	bl	_ZZN9__gnu_cxx6__stoaIyycJiEEET0_PFT_PKT1_PPS3_DpT2_EPKcS5_PmS9_EN11_Save_errnoD1Ev
	mov	x1, x19
	adrp	x0, :got:__stack_chk_guard
	ldr	x0, [x0, :got_lo12:__stack_chk_guard]
	ldr	x3, [sp, 88]
	ldr	x2, [x0]
	subs	x3, x3, x2
	mov	x2, 0
	beq	.L154
	bl	__stack_chk_fail
.L154:
	mov	x0, x1
.LEHB17:
	bl	_Unwind_Resume
.LEHE17:
.L157:
	bl	__stack_chk_fail
.L155:
	mov	x0, x1
	ldr	x19, [sp, 112]
	ldp	x29, x30, [sp, 96]
	add	sp, sp, 128
	.cfi_restore 29
	.cfi_restore 30
	.cfi_restore 19
	.cfi_def_cfa_offset 0
	ret
	.cfi_endproc
.LFE3085:
	.section	.gcc_except_table
.LLSDA3085:
	.byte	0xff
	.byte	0xff
	.byte	0x1
	.uleb128 .LLSDACSE3085-.LLSDACSB3085
.LLSDACSB3085:
	.uleb128 .LEHB16-.LFB3085
	.uleb128 .LEHE16-.LEHB16
	.uleb128 .L156-.LFB3085
	.uleb128 0
	.uleb128 .LEHB17-.LFB3085
	.uleb128 .LEHE17-.LEHB17
	.uleb128 0
	.uleb128 0
.LLSDACSE3085:
	.section	.text._ZN9__gnu_cxx6__stoaIyycJiEEET0_PFT_PKT1_PPS3_DpT2_EPKcS5_PmS9_,"axG",@progbits,_ZN9__gnu_cxx6__stoaIyycJiEEET0_PFT_PKT1_PPS3_DpT2_EPKcS5_PmS9_,comdat
	.size	_ZN9__gnu_cxx6__stoaIyycJiEEET0_PFT_PKT1_PPS3_DpT2_EPKcS5_PmS9_, .-_ZN9__gnu_cxx6__stoaIyycJiEEET0_PFT_PKT1_PPS3_DpT2_EPKcS5_PmS9_
	.section	.text._ZNSt7__cxx1112basic_stringIcSt11char_traitsIcESaIcEE12_Alloc_hiderD2Ev,"axG",@progbits,_ZNSt7__cxx1112basic_stringIcSt11char_traitsIcESaIcEE12_Alloc_hiderD5Ev,comdat
	.align	2
	.weak	_ZNSt7__cxx1112basic_stringIcSt11char_traitsIcESaIcEE12_Alloc_hiderD2Ev
	.type	_ZNSt7__cxx1112basic_stringIcSt11char_traitsIcESaIcEE12_Alloc_hiderD2Ev, %function
_ZNSt7__cxx1112basic_stringIcSt11char_traitsIcESaIcEE12_Alloc_hiderD2Ev:
.LFB3130:
	.cfi_startproc
	stp	x29, x30, [sp, -48]!
	.cfi_def_cfa_offset 48
	.cfi_offset 29, -48
	.cfi_offset 30, -40
	mov	x29, sp
	str	x0, [sp, 24]
	ldr	x0, [sp, 24]
	str	x0, [sp, 40]
	ldr	x0, [sp, 40]
	bl	_ZNSt15__new_allocatorIcED2Ev
	nop
	nop
	ldp	x29, x30, [sp], 48
	.cfi_restore 30
	.cfi_restore 29
	.cfi_def_cfa_offset 0
	ret
	.cfi_endproc
.LFE3130:
	.size	_ZNSt7__cxx1112basic_stringIcSt11char_traitsIcESaIcEE12_Alloc_hiderD2Ev, .-_ZNSt7__cxx1112basic_stringIcSt11char_traitsIcESaIcEE12_Alloc_hiderD2Ev
	.weak	_ZNSt7__cxx1112basic_stringIcSt11char_traitsIcESaIcEE12_Alloc_hiderD1Ev
	.set	_ZNSt7__cxx1112basic_stringIcSt11char_traitsIcESaIcEE12_Alloc_hiderD1Ev,_ZNSt7__cxx1112basic_stringIcSt11char_traitsIcESaIcEE12_Alloc_hiderD2Ev
	.section	.text._ZNKSt6chrono10time_pointINS_3_V212system_clockENS_8durationIlSt5ratioILl1ELl1000000000EEEEE16time_since_epochEv,"axG",@progbits,_ZNKSt6chrono10time_pointINS_3_V212system_clockENS_8durationIlSt5ratioILl1ELl1000000000EEEEE16time_since_epochEv,comdat
	.align	2
	.weak	_ZNKSt6chrono10time_pointINS_3_V212system_clockENS_8durationIlSt5ratioILl1ELl1000000000EEEEE16time_since_epochEv
	.type	_ZNKSt6chrono10time_pointINS_3_V212system_clockENS_8durationIlSt5ratioILl1ELl1000000000EEEEE16time_since_epochEv, %function
_ZNKSt6chrono10time_pointINS_3_V212system_clockENS_8durationIlSt5ratioILl1ELl1000000000EEEEE16time_since_epochEv:
.LFB3275:
	.cfi_startproc
	sub	sp, sp, #16
	.cfi_def_cfa_offset 16
	str	x0, [sp, 8]
	ldr	x0, [sp, 8]
	ldr	x0, [x0]
	add	sp, sp, 16
	.cfi_def_cfa_offset 0
	ret
	.cfi_endproc
.LFE3275:
	.size	_ZNKSt6chrono10time_pointINS_3_V212system_clockENS_8durationIlSt5ratioILl1ELl1000000000EEEEE16time_since_epochEv, .-_ZNKSt6chrono10time_pointINS_3_V212system_clockENS_8durationIlSt5ratioILl1ELl1000000000EEEEE16time_since_epochEv
	.section	.rodata
	.align	3
.LC30:
	.string	"basic_string: construction from null is not valid"
	.section	.text._ZNSt7__cxx1112basic_stringIcSt11char_traitsIcESaIcEEC2IS3_EEPKcRKS3_,"axG",@progbits,_ZNSt7__cxx1112basic_stringIcSt11char_traitsIcESaIcEEC5IS3_EEPKcRKS3_,comdat
	.align	2
	.weak	_ZNSt7__cxx1112basic_stringIcSt11char_traitsIcESaIcEEC2IS3_EEPKcRKS3_
	.type	_ZNSt7__cxx1112basic_stringIcSt11char_traitsIcESaIcEEC2IS3_EEPKcRKS3_, %function
_ZNSt7__cxx1112basic_stringIcSt11char_traitsIcESaIcEEC2IS3_EEPKcRKS3_:
.LFB3320:
	.cfi_startproc
	.cfi_personality 0x9b,DW.ref.__gxx_personality_v0
	.cfi_lsda 0x1b,.LLSDA3320
	stp	x29, x30, [sp, -80]!
	.cfi_def_cfa_offset 80
	.cfi_offset 29, -80
	.cfi_offset 30, -72
	mov	x29, sp
	stp	x19, x20, [sp, 16]
	.cfi_offset 19, -64
	.cfi_offset 20, -56
	str	x0, [sp, 56]
	str	x1, [sp, 48]
	str	x2, [sp, 40]
	ldr	x19, [sp, 56]
	ldr	x0, [sp, 56]
	bl	_ZNSt7__cxx1112basic_stringIcSt11char_traitsIcESaIcEE13_M_local_dataEv
	ldr	x2, [sp, 40]
	mov	x1, x0
	mov	x0, x19
	bl	_ZNSt7__cxx1112basic_stringIcSt11char_traitsIcESaIcEE12_Alloc_hiderC1EPcRKS3_
	ldr	x0, [sp, 48]
	cmp	x0, 0
	bne	.L162
	adrp	x0, .LC30
	add	x0, x0, :lo12:.LC30
.LEHB18:
	bl	_ZSt19__throw_logic_errorPKc
.L162:
	ldr	x0, [sp, 48]
	bl	_ZNSt11char_traitsIcE6lengthEPKc
	mov	x1, x0
	ldr	x0, [sp, 48]
	add	x0, x0, x1
	str	x0, [sp, 72]
	mov	w3, w20
	ldr	x2, [sp, 72]
	ldr	x1, [sp, 48]
	ldr	x0, [sp, 56]
	bl	_ZNSt7__cxx1112basic_stringIcSt11char_traitsIcESaIcEE12_M_constructIPKcEEvT_S8_St20forward_iterator_tag
.LEHE18:
	b	.L165
.L164:
	mov	x19, x0
	ldr	x0, [sp, 56]
	bl	_ZNSt7__cxx1112basic_stringIcSt11char_traitsIcESaIcEE12_Alloc_hiderD1Ev
	mov	x0, x19
.LEHB19:
	bl	_Unwind_Resume
.LEHE19:
.L165:
	ldp	x19, x20, [sp, 16]
	ldp	x29, x30, [sp], 80
	.cfi_restore 30
	.cfi_restore 29
	.cfi_restore 19
	.cfi_restore 20
	.cfi_def_cfa_offset 0
	ret
	.cfi_endproc
.LFE3320:
	.section	.gcc_except_table
.LLSDA3320:
	.byte	0xff
	.byte	0xff
	.byte	0x1
	.uleb128 .LLSDACSE3320-.LLSDACSB3320
.LLSDACSB3320:
	.uleb128 .LEHB18-.LFB3320
	.uleb128 .LEHE18-.LEHB18
	.uleb128 .L164-.LFB3320
	.uleb128 0
	.uleb128 .LEHB19-.LFB3320
	.uleb128 .LEHE19-.LEHB19
	.uleb128 0
	.uleb128 0
.LLSDACSE3320:
	.section	.text._ZNSt7__cxx1112basic_stringIcSt11char_traitsIcESaIcEEC2IS3_EEPKcRKS3_,"axG",@progbits,_ZNSt7__cxx1112basic_stringIcSt11char_traitsIcESaIcEEC5IS3_EEPKcRKS3_,comdat
	.size	_ZNSt7__cxx1112basic_stringIcSt11char_traitsIcESaIcEEC2IS3_EEPKcRKS3_, .-_ZNSt7__cxx1112basic_stringIcSt11char_traitsIcESaIcEEC2IS3_EEPKcRKS3_
	.weak	_ZNSt7__cxx1112basic_stringIcSt11char_traitsIcESaIcEEC1IS3_EEPKcRKS3_
	.set	_ZNSt7__cxx1112basic_stringIcSt11char_traitsIcESaIcEEC1IS3_EEPKcRKS3_,_ZNSt7__cxx1112basic_stringIcSt11char_traitsIcESaIcEEC2IS3_EEPKcRKS3_
	.section	.text._ZNSt6vectorIjSaIjEEC2EmRKS0_,"axG",@progbits,_ZNSt6vectorIjSaIjEEC5EmRKS0_,comdat
	.align	2
	.weak	_ZNSt6vectorIjSaIjEEC2EmRKS0_
	.type	_ZNSt6vectorIjSaIjEEC2EmRKS0_, %function
_ZNSt6vectorIjSaIjEEC2EmRKS0_:
.LFB3348:
	.cfi_startproc
	.cfi_personality 0x9b,DW.ref.__gxx_personality_v0
	.cfi_lsda 0x1b,.LLSDA3348
	stp	x29, x30, [sp, -64]!
	.cfi_def_cfa_offset 64
	.cfi_offset 29, -64
	.cfi_offset 30, -56
	mov	x29, sp
	str	x19, [sp, 16]
	.cfi_offset 19, -48
	str	x0, [sp, 56]
	str	x1, [sp, 48]
	str	x2, [sp, 40]
	ldr	x19, [sp, 56]
	ldr	x1, [sp, 40]
	ldr	x0, [sp, 48]
.LEHB20:
	bl	_ZNSt6vectorIjSaIjEE17_S_check_init_lenEmRKS0_
	ldr	x2, [sp, 40]
	mov	x1, x0
	mov	x0, x19
	bl	_ZNSt12_Vector_baseIjSaIjEEC2EmRKS0_
.LEHE20:
	ldr	x1, [sp, 48]
	ldr	x0, [sp, 56]
.LEHB21:
	bl	_ZNSt6vectorIjSaIjEE21_M_default_initializeEm
.LEHE21:
	b	.L169
.L168:
	mov	x19, x0
	ldr	x0, [sp, 56]
	bl	_ZNSt12_Vector_baseIjSaIjEED2Ev
	mov	x0, x19
.LEHB22:
	bl	_Unwind_Resume
.LEHE22:
.L169:
	ldr	x19, [sp, 16]
	ldp	x29, x30, [sp], 64
	.cfi_restore 30
	.cfi_restore 29
	.cfi_restore 19
	.cfi_def_cfa_offset 0
	ret
	.cfi_endproc
.LFE3348:
	.section	.gcc_except_table
.LLSDA3348:
	.byte	0xff
	.byte	0xff
	.byte	0x1
	.uleb128 .LLSDACSE3348-.LLSDACSB3348
.LLSDACSB3348:
	.uleb128 .LEHB20-.LFB3348
	.uleb128 .LEHE20-.LEHB20
	.uleb128 0
	.uleb128 0
	.uleb128 .LEHB21-.LFB3348
	.uleb128 .LEHE21-.LEHB21
	.uleb128 .L168-.LFB3348
	.uleb128 0
	.uleb128 .LEHB22-.LFB3348
	.uleb128 .LEHE22-.LEHB22
	.uleb128 0
	.uleb128 0
.LLSDACSE3348:
	.section	.text._ZNSt6vectorIjSaIjEEC2EmRKS0_,"axG",@progbits,_ZNSt6vectorIjSaIjEEC5EmRKS0_,comdat
	.size	_ZNSt6vectorIjSaIjEEC2EmRKS0_, .-_ZNSt6vectorIjSaIjEEC2EmRKS0_
	.weak	_ZNSt6vectorIjSaIjEEC1EmRKS0_
	.set	_ZNSt6vectorIjSaIjEEC1EmRKS0_,_ZNSt6vectorIjSaIjEEC2EmRKS0_
	.section	.text._ZNSt6vectorIjSaIjEED2Ev,"axG",@progbits,_ZNSt6vectorIjSaIjEED5Ev,comdat
	.align	2
	.weak	_ZNSt6vectorIjSaIjEED2Ev
	.type	_ZNSt6vectorIjSaIjEED2Ev, %function
_ZNSt6vectorIjSaIjEED2Ev:
.LFB3351:
	.cfi_startproc
	.cfi_personality 0x9b,DW.ref.__gxx_personality_v0
	.cfi_lsda 0x1b,.LLSDA3351
	stp	x29, x30, [sp, -80]!
	.cfi_def_cfa_offset 80
	.cfi_offset 29, -80
	.cfi_offset 30, -72
	mov	x29, sp
	stp	x19, x20, [sp, 16]
	.cfi_offset 19, -64
	.cfi_offset 20, -56
	str	x0, [sp, 40]
	ldr	x0, [sp, 40]
	ldr	x20, [x0]
	ldr	x0, [sp, 40]
	ldr	x19, [x0, 8]
	ldr	x0, [sp, 40]
	bl	_ZNSt12_Vector_baseIjSaIjEE19_M_get_Tp_allocatorEv
	str	x20, [sp, 56]
	str	x19, [sp, 64]
	str	x0, [sp, 72]
	ldr	x1, [sp, 64]
	ldr	x0, [sp, 56]
	bl	_ZSt8_DestroyIPjEvT_S1_
	nop
	ldr	x0, [sp, 40]
	bl	_ZNSt12_Vector_baseIjSaIjEED2Ev
	nop
	ldp	x19, x20, [sp, 16]
	ldp	x29, x30, [sp], 80
	.cfi_restore 30
	.cfi_restore 29
	.cfi_restore 19
	.cfi_restore 20
	.cfi_def_cfa_offset 0
	ret
	.cfi_endproc
.LFE3351:
	.section	.gcc_except_table
.LLSDA3351:
	.byte	0xff
	.byte	0xff
	.byte	0x1
	.uleb128 .LLSDACSE3351-.LLSDACSB3351
.LLSDACSB3351:
.LLSDACSE3351:
	.section	.text._ZNSt6vectorIjSaIjEED2Ev,"axG",@progbits,_ZNSt6vectorIjSaIjEED5Ev,comdat
	.size	_ZNSt6vectorIjSaIjEED2Ev, .-_ZNSt6vectorIjSaIjEED2Ev
	.weak	_ZNSt6vectorIjSaIjEED1Ev
	.set	_ZNSt6vectorIjSaIjEED1Ev,_ZNSt6vectorIjSaIjEED2Ev
	.section	.text._ZNSt6vectorIjSaIjEEixEm,"axG",@progbits,_ZNSt6vectorIjSaIjEEixEm,comdat
	.align	2
	.weak	_ZNSt6vectorIjSaIjEEixEm
	.type	_ZNSt6vectorIjSaIjEEixEm, %function
_ZNSt6vectorIjSaIjEEixEm:
.LFB3357:
	.cfi_startproc
	sub	sp, sp, #16
	.cfi_def_cfa_offset 16
	str	x0, [sp, 8]
	str	x1, [sp]
	ldr	x0, [sp, 8]
	ldr	x1, [x0]
	ldr	x0, [sp]
	lsl	x0, x0, 2
	add	x0, x1, x0
	add	sp, sp, 16
	.cfi_def_cfa_offset 0
	ret
	.cfi_endproc
.LFE3357:
	.size	_ZNSt6vectorIjSaIjEEixEm, .-_ZNSt6vectorIjSaIjEEixEm
	.section	.text._ZNSt6chronomiINS_3_V212system_clockENS_8durationIlSt5ratioILl1ELl1000000000EEEES6_EENSt11common_typeIJT0_T1_EE4typeERKNS_10time_pointIT_S8_EERKNSC_ISD_S9_EE,"axG",@progbits,_ZNSt6chronomiINS_3_V212system_clockENS_8durationIlSt5ratioILl1ELl1000000000EEEES6_EENSt11common_typeIJT0_T1_EE4typeERKNS_10time_pointIT_S8_EERKNSC_ISD_S9_EE,comdat
	.align	2
	.weak	_ZNSt6chronomiINS_3_V212system_clockENS_8durationIlSt5ratioILl1ELl1000000000EEEES6_EENSt11common_typeIJT0_T1_EE4typeERKNS_10time_pointIT_S8_EERKNSC_ISD_S9_EE
	.type	_ZNSt6chronomiINS_3_V212system_clockENS_8durationIlSt5ratioILl1ELl1000000000EEEES6_EENSt11common_typeIJT0_T1_EE4typeERKNS_10time_pointIT_S8_EERKNSC_ISD_S9_EE, %function
_ZNSt6chronomiINS_3_V212system_clockENS_8durationIlSt5ratioILl1ELl1000000000EEEES6_EENSt11common_typeIJT0_T1_EE4typeERKNS_10time_pointIT_S8_EERKNSC_ISD_S9_EE:
.LFB3360:
	.cfi_startproc
	sub	sp, sp, #64
	.cfi_def_cfa_offset 64
	stp	x29, x30, [sp, 48]
	.cfi_offset 29, -16
	.cfi_offset 30, -8
	add	x29, sp, 48
	str	x0, [sp, 8]
	str	x1, [sp]
	adrp	x0, :got:__stack_chk_guard
	ldr	x0, [x0, :got_lo12:__stack_chk_guard]
	ldr	x1, [x0]
	str	x1, [sp, 40]
	mov	x1, 0
	ldr	x0, [sp, 8]
	bl	_ZNKSt6chrono10time_pointINS_3_V212system_clockENS_8durationIlSt5ratioILl1ELl1000000000EEEEE16time_since_epochEv
	str	x0, [sp, 24]
	ldr	x0, [sp]
	bl	_ZNKSt6chrono10time_pointINS_3_V212system_clockENS_8durationIlSt5ratioILl1ELl1000000000EEEEE16time_since_epochEv
	str	x0, [sp, 32]
	add	x1, sp, 32
	add	x0, sp, 24
	bl	_ZNSt6chronomiIlSt5ratioILl1ELl1000000000EElS2_EENSt11common_typeIJNS_8durationIT_T0_EENS4_IT1_T2_EEEE4typeERKS7_RKSA_
	mov	x1, x0
	adrp	x0, :got:__stack_chk_guard
	ldr	x0, [x0, :got_lo12:__stack_chk_guard]
	ldr	x3, [sp, 40]
	ldr	x2, [x0]
	subs	x3, x3, x2
	mov	x2, 0
	beq	.L175
	bl	__stack_chk_fail
.L175:
	mov	x0, x1
	ldp	x29, x30, [sp, 48]
	add	sp, sp, 64
	.cfi_restore 29
	.cfi_restore 30
	.cfi_def_cfa_offset 0
	ret
	.cfi_endproc
.LFE3360:
	.size	_ZNSt6chronomiINS_3_V212system_clockENS_8durationIlSt5ratioILl1ELl1000000000EEEES6_EENSt11common_typeIJT0_T1_EE4typeERKNS_10time_pointIT_S8_EERKNSC_ISD_S9_EE, .-_ZNSt6chronomiINS_3_V212system_clockENS_8durationIlSt5ratioILl1ELl1000000000EEEES6_EENSt11common_typeIJT0_T1_EE4typeERKNS_10time_pointIT_S8_EERKNSC_ISD_S9_EE
	.text
	.align	2
	.type	_Z11time_streamIZ4mainEUlmE_EdOT_m, %function
_Z11time_streamIZ4mainEUlmE_EdOT_m:
.LFB3358:
	.cfi_startproc
	sub	sp, sp, #80
	.cfi_def_cfa_offset 80
	stp	x29, x30, [sp, 64]
	.cfi_offset 29, -16
	.cfi_offset 30, -8
	add	x29, sp, 64
	str	x0, [sp, 8]
	str	x1, [sp]
	adrp	x0, :got:__stack_chk_guard
	ldr	x0, [x0, :got_lo12:__stack_chk_guard]
	ldr	x1, [x0]
	str	x1, [sp, 56]
	mov	x1, 0
	bl	_ZNSt6chrono3_V212system_clock3nowEv
	str	x0, [sp, 24]
	ldr	x1, [sp]
	ldr	x0, [sp, 8]
	bl	_ZZ4mainENKUlmE_clEm
	bl	_ZNSt6chrono3_V212system_clock3nowEv
	str	x0, [sp, 32]
	add	x1, sp, 24
	add	x0, sp, 32
	bl	_ZNSt6chronomiINS_3_V212system_clockENS_8durationIlSt5ratioILl1ELl1000000000EEEES6_EENSt11common_typeIJT0_T1_EE4typeERKNS_10time_pointIT_S8_EERKNSC_ISD_S9_EE
	str	x0, [sp, 48]
	add	x1, sp, 48
	add	x0, sp, 40
	bl	_ZNSt6chrono8durationIdSt5ratioILl1ELl1EEEC1IlS1_ILl1ELl1000000000EEvEERKNS0_IT_T0_EE
	add	x0, sp, 40
	bl	_ZNKSt6chrono8durationIdSt5ratioILl1ELl1EEE5countEv
	adrp	x0, :got:__stack_chk_guard
	ldr	x0, [x0, :got_lo12:__stack_chk_guard]
	ldr	x2, [sp, 56]
	ldr	x1, [x0]
	subs	x2, x2, x1
	mov	x1, 0
	beq	.L178
	bl	__stack_chk_fail
.L178:
	ldp	x29, x30, [sp, 64]
	add	sp, sp, 80
	.cfi_restore 29
	.cfi_restore 30
	.cfi_def_cfa_offset 0
	ret
	.cfi_endproc
.LFE3358:
	.size	_Z11time_streamIZ4mainEUlmE_EdOT_m, .-_Z11time_streamIZ4mainEUlmE_EdOT_m
	.align	2
	.type	_Z11time_streamIZ4mainEUlmE0_EdOT_m, %function
_Z11time_streamIZ4mainEUlmE0_EdOT_m:
.LFB3361:
	.cfi_startproc
	sub	sp, sp, #80
	.cfi_def_cfa_offset 80
	stp	x29, x30, [sp, 64]
	.cfi_offset 29, -16
	.cfi_offset 30, -8
	add	x29, sp, 64
	str	x0, [sp, 8]
	str	x1, [sp]
	adrp	x0, :got:__stack_chk_guard
	ldr	x0, [x0, :got_lo12:__stack_chk_guard]
	ldr	x1, [x0]
	str	x1, [sp, 56]
	mov	x1, 0
	bl	_ZNSt6chrono3_V212system_clock3nowEv
	str	x0, [sp, 24]
	ldr	x1, [sp]
	ldr	x0, [sp, 8]
	bl	_ZZ4mainENKUlmE0_clEm
	bl	_ZNSt6chrono3_V212system_clock3nowEv
	str	x0, [sp, 32]
	add	x1, sp, 24
	add	x0, sp, 32
	bl	_ZNSt6chronomiINS_3_V212system_clockENS_8durationIlSt5ratioILl1ELl1000000000EEEES6_EENSt11common_typeIJT0_T1_EE4typeERKNS_10time_pointIT_S8_EERKNSC_ISD_S9_EE
	str	x0, [sp, 48]
	add	x1, sp, 48
	add	x0, sp, 40
	bl	_ZNSt6chrono8durationIdSt5ratioILl1ELl1EEEC1IlS1_ILl1ELl1000000000EEvEERKNS0_IT_T0_EE
	add	x0, sp, 40
	bl	_ZNKSt6chrono8durationIdSt5ratioILl1ELl1EEE5countEv
	adrp	x0, :got:__stack_chk_guard
	ldr	x0, [x0, :got_lo12:__stack_chk_guard]
	ldr	x2, [sp, 56]
	ldr	x1, [x0]
	subs	x2, x2, x1
	mov	x1, 0
	beq	.L181
	bl	__stack_chk_fail
.L181:
	ldp	x29, x30, [sp, 64]
	add	sp, sp, 80
	.cfi_restore 29
	.cfi_restore 30
	.cfi_def_cfa_offset 0
	ret
	.cfi_endproc
.LFE3361:
	.size	_Z11time_streamIZ4mainEUlmE0_EdOT_m, .-_Z11time_streamIZ4mainEUlmE0_EdOT_m
	.section	.text._ZN9__gnu_cxx11char_traitsIcE2eqERKcS3_,"axG",@progbits,_ZN9__gnu_cxx11char_traitsIcE2eqERKcS3_,comdat
	.align	2
	.weak	_ZN9__gnu_cxx11char_traitsIcE2eqERKcS3_
	.type	_ZN9__gnu_cxx11char_traitsIcE2eqERKcS3_, %function
_ZN9__gnu_cxx11char_traitsIcE2eqERKcS3_:
.LFB3364:
	.cfi_startproc
	sub	sp, sp, #16
	.cfi_def_cfa_offset 16
	str	x0, [sp, 8]
	str	x1, [sp]
	ldr	x0, [sp, 8]
	ldrb	w1, [x0]
	ldr	x0, [sp]
	ldrb	w0, [x0]
	cmp	w1, w0
	cset	w0, eq
	and	w0, w0, 255
	add	sp, sp, 16
	.cfi_def_cfa_offset 0
	ret
	.cfi_endproc
.LFE3364:
	.size	_ZN9__gnu_cxx11char_traitsIcE2eqERKcS3_, .-_ZN9__gnu_cxx11char_traitsIcE2eqERKcS3_
	.section	.text._ZNSt15__new_allocatorIcED2Ev,"axG",@progbits,_ZNSt15__new_allocatorIcED5Ev,comdat
	.align	2
	.weak	_ZNSt15__new_allocatorIcED2Ev
	.type	_ZNSt15__new_allocatorIcED2Ev, %function
_ZNSt15__new_allocatorIcED2Ev:
.LFB3372:
	.cfi_startproc
	sub	sp, sp, #16
	.cfi_def_cfa_offset 16
	str	x0, [sp, 8]
	nop
	add	sp, sp, 16
	.cfi_def_cfa_offset 0
	ret
	.cfi_endproc
.LFE3372:
	.size	_ZNSt15__new_allocatorIcED2Ev, .-_ZNSt15__new_allocatorIcED2Ev
	.weak	_ZNSt15__new_allocatorIcED1Ev
	.set	_ZNSt15__new_allocatorIcED1Ev,_ZNSt15__new_allocatorIcED2Ev
	.section	.text._ZZNSt7__cxx1112basic_stringIcSt11char_traitsIcESaIcEE12_M_constructIPKcEEvT_S8_St20forward_iterator_tagEN6_GuardC2EPS4_,"axG",@progbits,_ZZNSt7__cxx1112basic_stringIcSt11char_traitsIcESaIcEE12_M_constructIPKcEEvT_S8_St20forward_iterator_tagEN6_GuardC5EPS4_,comdat
	.align	2
	.weak	_ZZNSt7__cxx1112basic_stringIcSt11char_traitsIcESaIcEE12_M_constructIPKcEEvT_S8_St20forward_iterator_tagEN6_GuardC2EPS4_
	.type	_ZZNSt7__cxx1112basic_stringIcSt11char_traitsIcESaIcEE12_M_constructIPKcEEvT_S8_St20forward_iterator_tagEN6_GuardC2EPS4_, %function
_ZZNSt7__cxx1112basic_stringIcSt11char_traitsIcESaIcEE12_M_constructIPKcEEvT_S8_St20forward_iterator_tagEN6_GuardC2EPS4_:
.LFB3402:
	.cfi_startproc
	sub	sp, sp, #16
	.cfi_def_cfa_offset 16
	str	x0, [sp, 8]
	str	x1, [sp]
	ldr	x0, [sp, 8]
	ldr	x1, [sp]
	str	x1, [x0]
	nop
	add	sp, sp, 16
	.cfi_def_cfa_offset 0
	ret
	.cfi_endproc
.LFE3402:
	.size	_ZZNSt7__cxx1112basic_stringIcSt11char_traitsIcESaIcEE12_M_constructIPKcEEvT_S8_St20forward_iterator_tagEN6_GuardC2EPS4_, .-_ZZNSt7__cxx1112basic_stringIcSt11char_traitsIcESaIcEE12_M_constructIPKcEEvT_S8_St20forward_iterator_tagEN6_GuardC2EPS4_
	.weak	_ZZNSt7__cxx1112basic_stringIcSt11char_traitsIcESaIcEE12_M_constructIPKcEEvT_S8_St20forward_iterator_tagEN6_GuardC1EPS4_
	.set	_ZZNSt7__cxx1112basic_stringIcSt11char_traitsIcESaIcEE12_M_constructIPKcEEvT_S8_St20forward_iterator_tagEN6_GuardC1EPS4_,_ZZNSt7__cxx1112basic_stringIcSt11char_traitsIcESaIcEE12_M_constructIPKcEEvT_S8_St20forward_iterator_tagEN6_GuardC2EPS4_
	.section	.text._ZZNSt7__cxx1112basic_stringIcSt11char_traitsIcESaIcEE12_M_constructIPKcEEvT_S8_St20forward_iterator_tagEN6_GuardD2Ev,"axG",@progbits,_ZZNSt7__cxx1112basic_stringIcSt11char_traitsIcESaIcEE12_M_constructIPKcEEvT_S8_St20forward_iterator_tagEN6_GuardD5Ev,comdat
	.align	2
	.weak	_ZZNSt7__cxx1112basic_stringIcSt11char_traitsIcESaIcEE12_M_constructIPKcEEvT_S8_St20forward_iterator_tagEN6_GuardD2Ev
	.type	_ZZNSt7__cxx1112basic_stringIcSt11char_traitsIcESaIcEE12_M_constructIPKcEEvT_S8_St20forward_iterator_tagEN6_GuardD2Ev, %function
_ZZNSt7__cxx1112basic_stringIcSt11char_traitsIcESaIcEE12_M_constructIPKcEEvT_S8_St20forward_iterator_tagEN6_GuardD2Ev:
.LFB3405:
	.cfi_startproc
	.cfi_personality 0x9b,DW.ref.__gxx_personality_v0
	.cfi_lsda 0x1b,.LLSDA3405
	stp	x29, x30, [sp, -32]!
	.cfi_def_cfa_offset 32
	.cfi_offset 29, -32
	.cfi_offset 30, -24
	mov	x29, sp
	str	x0, [sp, 24]
	ldr	x0, [sp, 24]
	ldr	x0, [x0]
	cmp	x0, 0
	beq	.L188
	ldr	x0, [sp, 24]
	ldr	x0, [x0]
	bl	_ZNSt7__cxx1112basic_stringIcSt11char_traitsIcESaIcEE10_M_disposeEv
.L188:
	nop
	ldp	x29, x30, [sp], 32
	.cfi_restore 30
	.cfi_restore 29
	.cfi_def_cfa_offset 0
	ret
	.cfi_endproc
.LFE3405:
	.section	.gcc_except_table
.LLSDA3405:
	.byte	0xff
	.byte	0xff
	.byte	0x1
	.uleb128 .LLSDACSE3405-.LLSDACSB3405
.LLSDACSB3405:
.LLSDACSE3405:
	.section	.text._ZZNSt7__cxx1112basic_stringIcSt11char_traitsIcESaIcEE12_M_constructIPKcEEvT_S8_St20forward_iterator_tagEN6_GuardD2Ev,"axG",@progbits,_ZZNSt7__cxx1112basic_stringIcSt11char_traitsIcESaIcEE12_M_constructIPKcEEvT_S8_St20forward_iterator_tagEN6_GuardD5Ev,comdat
	.size	_ZZNSt7__cxx1112basic_stringIcSt11char_traitsIcESaIcEE12_M_constructIPKcEEvT_S8_St20forward_iterator_tagEN6_GuardD2Ev, .-_ZZNSt7__cxx1112basic_stringIcSt11char_traitsIcESaIcEE12_M_constructIPKcEEvT_S8_St20forward_iterator_tagEN6_GuardD2Ev
	.weak	_ZZNSt7__cxx1112basic_stringIcSt11char_traitsIcESaIcEE12_M_constructIPKcEEvT_S8_St20forward_iterator_tagEN6_GuardD1Ev
	.set	_ZZNSt7__cxx1112basic_stringIcSt11char_traitsIcESaIcEE12_M_constructIPKcEEvT_S8_St20forward_iterator_tagEN6_GuardD1Ev,_ZZNSt7__cxx1112basic_stringIcSt11char_traitsIcESaIcEE12_M_constructIPKcEEvT_S8_St20forward_iterator_tagEN6_GuardD2Ev
	.section	.text._ZNSt7__cxx1112basic_stringIcSt11char_traitsIcESaIcEE12_M_constructIPKcEEvT_S8_St20forward_iterator_tag,"axG",@progbits,_ZNSt7__cxx1112basic_stringIcSt11char_traitsIcESaIcEE12_M_constructIPKcEEvT_S8_St20forward_iterator_tag,comdat
	.align	2
	.weak	_ZNSt7__cxx1112basic_stringIcSt11char_traitsIcESaIcEE12_M_constructIPKcEEvT_S8_St20forward_iterator_tag
	.type	_ZNSt7__cxx1112basic_stringIcSt11char_traitsIcESaIcEE12_M_constructIPKcEEvT_S8_St20forward_iterator_tag, %function
_ZNSt7__cxx1112basic_stringIcSt11char_traitsIcESaIcEE12_M_constructIPKcEEvT_S8_St20forward_iterator_tag:
.LFB3400:
	.cfi_startproc
	sub	sp, sp, #112
	.cfi_def_cfa_offset 112
	stp	x29, x30, [sp, 96]
	.cfi_offset 29, -16
	.cfi_offset 30, -8
	add	x29, sp, 96
	str	x0, [sp, 24]
	str	x1, [sp, 16]
	str	x2, [sp, 8]
	strb	w3, [sp]
	adrp	x0, :got:__stack_chk_guard
	ldr	x0, [x0, :got_lo12:__stack_chk_guard]
	ldr	x1, [x0]
	str	x1, [sp, 88]
	mov	x1, 0
	ldr	x0, [sp, 16]
	str	x0, [sp, 48]
	ldr	x0, [sp, 8]
	str	x0, [sp, 56]
	ldr	x0, [sp, 48]
	nop
	str	x0, [sp, 64]
	ldr	x0, [sp, 56]
	str	x0, [sp, 72]
	ldr	x1, [sp, 72]
	ldr	x0, [sp, 64]
	sub	x0, x1, x0
	nop
	str	x0, [sp, 40]
	ldr	x0, [sp, 40]
	cmp	x0, 15
	bls	.L193
	add	x0, sp, 40
	mov	x2, 0
	mov	x1, x0
	ldr	x0, [sp, 24]
	bl	_ZNSt7__cxx1112basic_stringIcSt11char_traitsIcESaIcEE9_M_createERmm
	mov	x1, x0
	ldr	x0, [sp, 24]
	bl	_ZNSt7__cxx1112basic_stringIcSt11char_traitsIcESaIcEE7_M_dataEPc
	ldr	x0, [sp, 40]
	mov	x1, x0
	ldr	x0, [sp, 24]
	bl	_ZNSt7__cxx1112basic_stringIcSt11char_traitsIcESaIcEE11_M_capacityEm
	b	.L194
.L193:
	ldr	x0, [sp, 24]
	str	x0, [sp, 80]
	nop
.L194:
	add	x0, sp, 48
	ldr	x1, [sp, 24]
	bl	_ZZNSt7__cxx1112basic_stringIcSt11char_traitsIcESaIcEE12_M_constructIPKcEEvT_S8_St20forward_iterator_tagEN6_GuardC1EPS4_
	ldr	x0, [sp, 24]
	bl	_ZNKSt7__cxx1112basic_stringIcSt11char_traitsIcESaIcEE7_M_dataEv
	ldr	x2, [sp, 8]
	ldr	x1, [sp, 16]
	bl	_ZNSt7__cxx1112basic_stringIcSt11char_traitsIcESaIcEE13_S_copy_charsEPcPKcS7_
	str	xzr, [sp, 48]
	ldr	x0, [sp, 40]
	mov	x1, x0
	ldr	x0, [sp, 24]
	bl	_ZNSt7__cxx1112basic_stringIcSt11char_traitsIcESaIcEE13_M_set_lengthEm
	add	x0, sp, 48
	bl	_ZZNSt7__cxx1112basic_stringIcSt11char_traitsIcESaIcEE12_M_constructIPKcEEvT_S8_St20forward_iterator_tagEN6_GuardD1Ev
	adrp	x0, :got:__stack_chk_guard
	ldr	x0, [x0, :got_lo12:__stack_chk_guard]
	ldr	x2, [sp, 88]
	ldr	x1, [x0]
	subs	x2, x2, x1
	mov	x1, 0
	beq	.L195
	bl	__stack_chk_fail
.L195:
	ldp	x29, x30, [sp, 96]
	add	sp, sp, 112
	.cfi_restore 29
	.cfi_restore 30
	.cfi_def_cfa_offset 0
	ret
	.cfi_endproc
.LFE3400:
	.size	_ZNSt7__cxx1112basic_stringIcSt11char_traitsIcESaIcEE12_M_constructIPKcEEvT_S8_St20forward_iterator_tag, .-_ZNSt7__cxx1112basic_stringIcSt11char_traitsIcESaIcEE12_M_constructIPKcEEvT_S8_St20forward_iterator_tag
	.section	.text._ZNSt15__new_allocatorIjED2Ev,"axG",@progbits,_ZNSt15__new_allocatorIjED5Ev,comdat
	.align	2
	.weak	_ZNSt15__new_allocatorIjED2Ev
	.type	_ZNSt15__new_allocatorIjED2Ev, %function
_ZNSt15__new_allocatorIjED2Ev:
.LFB3514:
	.cfi_startproc
	sub	sp, sp, #16
	.cfi_def_cfa_offset 16
	str	x0, [sp, 8]
	nop
	add	sp, sp, 16
	.cfi_def_cfa_offset 0
	ret
	.cfi_endproc
.LFE3514:
	.size	_ZNSt15__new_allocatorIjED2Ev, .-_ZNSt15__new_allocatorIjED2Ev
	.weak	_ZNSt15__new_allocatorIjED1Ev
	.set	_ZNSt15__new_allocatorIjED1Ev,_ZNSt15__new_allocatorIjED2Ev
	.section	.rodata
	.align	3
.LC31:
	.string	"cannot create std::vector larger than max_size()"
	.section	.text._ZNSt6vectorIjSaIjEE17_S_check_init_lenEmRKS0_,"axG",@progbits,_ZNSt6vectorIjSaIjEE17_S_check_init_lenEmRKS0_,comdat
	.align	2
	.weak	_ZNSt6vectorIjSaIjEE17_S_check_init_lenEmRKS0_
	.type	_ZNSt6vectorIjSaIjEE17_S_check_init_lenEmRKS0_, %function
_ZNSt6vectorIjSaIjEE17_S_check_init_lenEmRKS0_:
.LFB3516:
	.cfi_startproc
	sub	sp, sp, #96
	.cfi_def_cfa_offset 96
	stp	x29, x30, [sp, 64]
	.cfi_offset 29, -32
	.cfi_offset 30, -24
	add	x29, sp, 64
	str	x19, [sp, 80]
	.cfi_offset 19, -16
	str	x0, [sp, 8]
	str	x1, [sp]
	adrp	x0, :got:__stack_chk_guard
	ldr	x0, [x0, :got_lo12:__stack_chk_guard]
	ldr	x1, [x0]
	str	x1, [sp, 56]
	mov	x1, 0
	ldr	x0, [sp]
	str	x0, [sp, 32]
	add	x0, sp, 24
	str	x0, [sp, 40]
	ldr	x0, [sp, 32]
	str	x0, [sp, 48]
	nop
	nop
	add	x0, sp, 24
	bl	_ZNSt6vectorIjSaIjEE11_S_max_sizeERKS0_
	mov	x1, x0
	ldr	x0, [sp, 8]
	cmp	x0, x1
	cset	w0, hi
	and	w19, w0, 255
	add	x0, sp, 24
	bl	_ZNSt15__new_allocatorIjED2Ev
	nop
	and	w0, w19, 1
	cmp	w0, 0
	beq	.L198
	adrp	x0, :got:__stack_chk_guard
	ldr	x0, [x0, :got_lo12:__stack_chk_guard]
	ldr	x2, [sp, 56]
	ldr	x1, [x0]
	subs	x2, x2, x1
	mov	x1, 0
	beq	.L199
	bl	__stack_chk_fail
.L199:
	adrp	x0, .LC31
	add	x0, x0, :lo12:.LC31
	bl	_ZSt20__throw_length_errorPKc
.L198:
	ldr	x0, [sp, 8]
	mov	x1, x0
	adrp	x0, :got:__stack_chk_guard
	ldr	x0, [x0, :got_lo12:__stack_chk_guard]
	ldr	x3, [sp, 56]
	ldr	x2, [x0]
	subs	x3, x3, x2
	mov	x2, 0
	beq	.L201
	bl	__stack_chk_fail
.L201:
	mov	x0, x1
	ldr	x19, [sp, 80]
	ldp	x29, x30, [sp, 64]
	add	sp, sp, 96
	.cfi_restore 29
	.cfi_restore 30
	.cfi_restore 19
	.cfi_def_cfa_offset 0
	ret
	.cfi_endproc
.LFE3516:
	.size	_ZNSt6vectorIjSaIjEE17_S_check_init_lenEmRKS0_, .-_ZNSt6vectorIjSaIjEE17_S_check_init_lenEmRKS0_
	.section	.text._ZNSt12_Vector_baseIjSaIjEE12_Vector_implD2Ev,"axG",@progbits,_ZNSt12_Vector_baseIjSaIjEE12_Vector_implD5Ev,comdat
	.align	2
	.weak	_ZNSt12_Vector_baseIjSaIjEE12_Vector_implD2Ev
	.type	_ZNSt12_Vector_baseIjSaIjEE12_Vector_implD2Ev, %function
_ZNSt12_Vector_baseIjSaIjEE12_Vector_implD2Ev:
.LFB3519:
	.cfi_startproc
	stp	x29, x30, [sp, -48]!
	.cfi_def_cfa_offset 48
	.cfi_offset 29, -48
	.cfi_offset 30, -40
	mov	x29, sp
	str	x0, [sp, 24]
	ldr	x0, [sp, 24]
	str	x0, [sp, 40]
	ldr	x0, [sp, 40]
	bl	_ZNSt15__new_allocatorIjED2Ev
	nop
	nop
	ldp	x29, x30, [sp], 48
	.cfi_restore 30
	.cfi_restore 29
	.cfi_def_cfa_offset 0
	ret
	.cfi_endproc
.LFE3519:
	.size	_ZNSt12_Vector_baseIjSaIjEE12_Vector_implD2Ev, .-_ZNSt12_Vector_baseIjSaIjEE12_Vector_implD2Ev
	.weak	_ZNSt12_Vector_baseIjSaIjEE12_Vector_implD1Ev
	.set	_ZNSt12_Vector_baseIjSaIjEE12_Vector_implD1Ev,_ZNSt12_Vector_baseIjSaIjEE12_Vector_implD2Ev
	.section	.text._ZNSt12_Vector_baseIjSaIjEEC2EmRKS0_,"axG",@progbits,_ZNSt12_Vector_baseIjSaIjEEC5EmRKS0_,comdat
	.align	2
	.weak	_ZNSt12_Vector_baseIjSaIjEEC2EmRKS0_
	.type	_ZNSt12_Vector_baseIjSaIjEEC2EmRKS0_, %function
_ZNSt12_Vector_baseIjSaIjEEC2EmRKS0_:
.LFB3521:
	.cfi_startproc
	.cfi_personality 0x9b,DW.ref.__gxx_personality_v0
	.cfi_lsda 0x1b,.LLSDA3521
	stp	x29, x30, [sp, -64]!
	.cfi_def_cfa_offset 64
	.cfi_offset 29, -64
	.cfi_offset 30, -56
	mov	x29, sp
	str	x19, [sp, 16]
	.cfi_offset 19, -48
	str	x0, [sp, 56]
	str	x1, [sp, 48]
	str	x2, [sp, 40]
	ldr	x0, [sp, 56]
	ldr	x1, [sp, 40]
	bl	_ZNSt12_Vector_baseIjSaIjEE12_Vector_implC1ERKS0_
	ldr	x1, [sp, 48]
	ldr	x0, [sp, 56]
.LEHB23:
	bl	_ZNSt12_Vector_baseIjSaIjEE17_M_create_storageEm
.LEHE23:
	b	.L206
.L205:
	mov	x19, x0
	ldr	x0, [sp, 56]
	bl	_ZNSt12_Vector_baseIjSaIjEE12_Vector_implD1Ev
	mov	x0, x19
.LEHB24:
	bl	_Unwind_Resume
.LEHE24:
.L206:
	ldr	x19, [sp, 16]
	ldp	x29, x30, [sp], 64
	.cfi_restore 30
	.cfi_restore 29
	.cfi_restore 19
	.cfi_def_cfa_offset 0
	ret
	.cfi_endproc
.LFE3521:
	.section	.gcc_except_table
.LLSDA3521:
	.byte	0xff
	.byte	0xff
	.byte	0x1
	.uleb128 .LLSDACSE3521-.LLSDACSB3521
.LLSDACSB3521:
	.uleb128 .LEHB23-.LFB3521
	.uleb128 .LEHE23-.LEHB23
	.uleb128 .L205-.LFB3521
	.uleb128 0
	.uleb128 .LEHB24-.LFB3521
	.uleb128 .LEHE24-.LEHB24
	.uleb128 0
	.uleb128 0
.LLSDACSE3521:
	.section	.text._ZNSt12_Vector_baseIjSaIjEEC2EmRKS0_,"axG",@progbits,_ZNSt12_Vector_baseIjSaIjEEC5EmRKS0_,comdat
	.size	_ZNSt12_Vector_baseIjSaIjEEC2EmRKS0_, .-_ZNSt12_Vector_baseIjSaIjEEC2EmRKS0_
	.weak	_ZNSt12_Vector_baseIjSaIjEEC1EmRKS0_
	.set	_ZNSt12_Vector_baseIjSaIjEEC1EmRKS0_,_ZNSt12_Vector_baseIjSaIjEEC2EmRKS0_
	.section	.text._ZNSt12_Vector_baseIjSaIjEED2Ev,"axG",@progbits,_ZNSt12_Vector_baseIjSaIjEED5Ev,comdat
	.align	2
	.weak	_ZNSt12_Vector_baseIjSaIjEED2Ev
	.type	_ZNSt12_Vector_baseIjSaIjEED2Ev, %function
_ZNSt12_Vector_baseIjSaIjEED2Ev:
.LFB3524:
	.cfi_startproc
	.cfi_personality 0x9b,DW.ref.__gxx_personality_v0
	.cfi_lsda 0x1b,.LLSDA3524
	stp	x29, x30, [sp, -32]!
	.cfi_def_cfa_offset 32
	.cfi_offset 29, -32
	.cfi_offset 30, -24
	mov	x29, sp
	str	x0, [sp, 24]
	ldr	x0, [sp, 24]
	ldr	x3, [x0]
	ldr	x0, [sp, 24]
	ldr	x1, [x0, 16]
	ldr	x0, [sp, 24]
	ldr	x0, [x0]
	sub	x0, x1, x0
	asr	x0, x0, 2
	mov	x2, x0
	mov	x1, x3
	ldr	x0, [sp, 24]
	bl	_ZNSt12_Vector_baseIjSaIjEE13_M_deallocateEPjm
	ldr	x0, [sp, 24]
	bl	_ZNSt12_Vector_baseIjSaIjEE12_Vector_implD1Ev
	nop
	ldp	x29, x30, [sp], 32
	.cfi_restore 30
	.cfi_restore 29
	.cfi_def_cfa_offset 0
	ret
	.cfi_endproc
.LFE3524:
	.section	.gcc_except_table
.LLSDA3524:
	.byte	0xff
	.byte	0xff
	.byte	0x1
	.uleb128 .LLSDACSE3524-.LLSDACSB3524
.LLSDACSB3524:
.LLSDACSE3524:
	.section	.text._ZNSt12_Vector_baseIjSaIjEED2Ev,"axG",@progbits,_ZNSt12_Vector_baseIjSaIjEED5Ev,comdat
	.size	_ZNSt12_Vector_baseIjSaIjEED2Ev, .-_ZNSt12_Vector_baseIjSaIjEED2Ev
	.weak	_ZNSt12_Vector_baseIjSaIjEED1Ev
	.set	_ZNSt12_Vector_baseIjSaIjEED1Ev,_ZNSt12_Vector_baseIjSaIjEED2Ev
	.section	.text._ZNSt6vectorIjSaIjEE21_M_default_initializeEm,"axG",@progbits,_ZNSt6vectorIjSaIjEE21_M_default_initializeEm,comdat
	.align	2
	.weak	_ZNSt6vectorIjSaIjEE21_M_default_initializeEm
	.type	_ZNSt6vectorIjSaIjEE21_M_default_initializeEm, %function
_ZNSt6vectorIjSaIjEE21_M_default_initializeEm:
.LFB3526:
	.cfi_startproc
	stp	x29, x30, [sp, -48]!
	.cfi_def_cfa_offset 48
	.cfi_offset 29, -48
	.cfi_offset 30, -40
	mov	x29, sp
	str	x19, [sp, 16]
	.cfi_offset 19, -32
	str	x0, [sp, 40]
	str	x1, [sp, 32]
	ldr	x0, [sp, 40]
	ldr	x19, [x0]
	ldr	x0, [sp, 40]
	bl	_ZNSt12_Vector_baseIjSaIjEE19_M_get_Tp_allocatorEv
	mov	x2, x0
	ldr	x1, [sp, 32]
	mov	x0, x19
	bl	_ZSt27__uninitialized_default_n_aIPjmjET_S1_T0_RSaIT1_E
	mov	x1, x0
	ldr	x0, [sp, 40]
	str	x1, [x0, 8]
	nop
	ldr	x19, [sp, 16]
	ldp	x29, x30, [sp], 48
	.cfi_restore 30
	.cfi_restore 29
	.cfi_restore 19
	.cfi_def_cfa_offset 0
	ret
	.cfi_endproc
.LFE3526:
	.size	_ZNSt6vectorIjSaIjEE21_M_default_initializeEm, .-_ZNSt6vectorIjSaIjEE21_M_default_initializeEm
	.section	.text._ZNSt12_Vector_baseIjSaIjEE19_M_get_Tp_allocatorEv,"axG",@progbits,_ZNSt12_Vector_baseIjSaIjEE19_M_get_Tp_allocatorEv,comdat
	.align	2
	.weak	_ZNSt12_Vector_baseIjSaIjEE19_M_get_Tp_allocatorEv
	.type	_ZNSt12_Vector_baseIjSaIjEE19_M_get_Tp_allocatorEv, %function
_ZNSt12_Vector_baseIjSaIjEE19_M_get_Tp_allocatorEv:
.LFB3527:
	.cfi_startproc
	sub	sp, sp, #16
	.cfi_def_cfa_offset 16
	str	x0, [sp, 8]
	ldr	x0, [sp, 8]
	add	sp, sp, 16
	.cfi_def_cfa_offset 0
	ret
	.cfi_endproc
.LFE3527:
	.size	_ZNSt12_Vector_baseIjSaIjEE19_M_get_Tp_allocatorEv, .-_ZNSt12_Vector_baseIjSaIjEE19_M_get_Tp_allocatorEv
	.section	.text._ZNSt6chrono8durationIdSt5ratioILl1ELl1EEEC2IlS1_ILl1ELl1000000000EEvEERKNS0_IT_T0_EE,"axG",@progbits,_ZNSt6chrono8durationIdSt5ratioILl1ELl1EEEC5IlS1_ILl1ELl1000000000EEvEERKNS0_IT_T0_EE,comdat
	.align	2
	.weak	_ZNSt6chrono8durationIdSt5ratioILl1ELl1EEEC2IlS1_ILl1ELl1000000000EEvEERKNS0_IT_T0_EE
	.type	_ZNSt6chrono8durationIdSt5ratioILl1ELl1EEEC2IlS1_ILl1ELl1000000000EEvEERKNS0_IT_T0_EE, %function
_ZNSt6chrono8durationIdSt5ratioILl1ELl1EEEC2IlS1_ILl1ELl1000000000EEvEERKNS0_IT_T0_EE:
.LFB3532:
	.cfi_startproc
	sub	sp, sp, #48
	.cfi_def_cfa_offset 48
	stp	x29, x30, [sp, 32]
	.cfi_offset 29, -16
	.cfi_offset 30, -8
	add	x29, sp, 32
	str	x0, [sp, 8]
	str	x1, [sp]
	adrp	x0, :got:__stack_chk_guard
	ldr	x0, [x0, :got_lo12:__stack_chk_guard]
	ldr	x1, [x0]
	str	x1, [sp, 24]
	mov	x1, 0
	ldr	x0, [sp]
	bl	_ZNSt6chrono13duration_castINS_8durationIdSt5ratioILl1ELl1EEEElS2_ILl1ELl1000000000EEEENSt9enable_ifIXsrNS_13__is_durationIT_EE5valueES8_E4typeERKNS1_IT0_T1_EE
	str	d0, [sp, 16]
	add	x0, sp, 16
	bl	_ZNKSt6chrono8durationIdSt5ratioILl1ELl1EEE5countEv
	ldr	x0, [sp, 8]
	str	d0, [x0]
	nop
	adrp	x0, :got:__stack_chk_guard
	ldr	x0, [x0, :got_lo12:__stack_chk_guard]
	ldr	x2, [sp, 24]
	ldr	x1, [x0]
	subs	x2, x2, x1
	mov	x1, 0
	beq	.L212
	bl	__stack_chk_fail
.L212:
	ldp	x29, x30, [sp, 32]
	add	sp, sp, 48
	.cfi_restore 29
	.cfi_restore 30
	.cfi_def_cfa_offset 0
	ret
	.cfi_endproc
.LFE3532:
	.size	_ZNSt6chrono8durationIdSt5ratioILl1ELl1EEEC2IlS1_ILl1ELl1000000000EEvEERKNS0_IT_T0_EE, .-_ZNSt6chrono8durationIdSt5ratioILl1ELl1EEEC2IlS1_ILl1ELl1000000000EEvEERKNS0_IT_T0_EE
	.weak	_ZNSt6chrono8durationIdSt5ratioILl1ELl1EEEC1IlS1_ILl1ELl1000000000EEvEERKNS0_IT_T0_EE
	.set	_ZNSt6chrono8durationIdSt5ratioILl1ELl1EEEC1IlS1_ILl1ELl1000000000EEvEERKNS0_IT_T0_EE,_ZNSt6chrono8durationIdSt5ratioILl1ELl1EEEC2IlS1_ILl1ELl1000000000EEvEERKNS0_IT_T0_EE
	.section	.text._ZNSt6chronomiIlSt5ratioILl1ELl1000000000EElS2_EENSt11common_typeIJNS_8durationIT_T0_EENS4_IT1_T2_EEEE4typeERKS7_RKSA_,"axG",@progbits,_ZNSt6chronomiIlSt5ratioILl1ELl1000000000EElS2_EENSt11common_typeIJNS_8durationIT_T0_EENS4_IT1_T2_EEEE4typeERKS7_RKSA_,comdat
	.align	2
	.weak	_ZNSt6chronomiIlSt5ratioILl1ELl1000000000EElS2_EENSt11common_typeIJNS_8durationIT_T0_EENS4_IT1_T2_EEEE4typeERKS7_RKSA_
	.type	_ZNSt6chronomiIlSt5ratioILl1ELl1000000000EElS2_EENSt11common_typeIJNS_8durationIT_T0_EENS4_IT1_T2_EEEE4typeERKS7_RKSA_, %function
_ZNSt6chronomiIlSt5ratioILl1ELl1000000000EElS2_EENSt11common_typeIJNS_8durationIT_T0_EENS4_IT1_T2_EEEE4typeERKS7_RKSA_:
.LFB3534:
	.cfi_startproc
	sub	sp, sp, #96
	.cfi_def_cfa_offset 96
	stp	x29, x30, [sp, 64]
	.cfi_offset 29, -32
	.cfi_offset 30, -24
	add	x29, sp, 64
	str	x19, [sp, 80]
	.cfi_offset 19, -16
	str	x0, [sp, 8]
	str	x1, [sp]
	adrp	x0, :got:__stack_chk_guard
	ldr	x0, [x0, :got_lo12:__stack_chk_guard]
	ldr	x1, [x0]
	str	x1, [sp, 56]
	mov	x1, 0
	ldr	x0, [sp, 8]
	ldr	x0, [x0]
	str	x0, [sp, 24]
	add	x0, sp, 24
	bl	_ZNKSt6chrono8durationIlSt5ratioILl1ELl1000000000EEE5countEv
	mov	x19, x0
	ldr	x0, [sp]
	ldr	x0, [x0]
	str	x0, [sp, 32]
	add	x0, sp, 32
	bl	_ZNKSt6chrono8durationIlSt5ratioILl1ELl1000000000EEE5countEv
	sub	x0, x19, x0
	str	x0, [sp, 40]
	add	x1, sp, 40
	add	x0, sp, 48
	bl	_ZNSt6chrono8durationIlSt5ratioILl1ELl1000000000EEEC1IlvEERKT_
	ldr	x0, [sp, 48]
	mov	x1, x0
	adrp	x0, :got:__stack_chk_guard
	ldr	x0, [x0, :got_lo12:__stack_chk_guard]
	ldr	x3, [sp, 56]
	ldr	x2, [x0]
	subs	x3, x3, x2
	mov	x2, 0
	beq	.L215
	bl	__stack_chk_fail
.L215:
	mov	x0, x1
	ldr	x19, [sp, 80]
	ldp	x29, x30, [sp, 64]
	add	sp, sp, 96
	.cfi_restore 29
	.cfi_restore 30
	.cfi_restore 19
	.cfi_def_cfa_offset 0
	ret
	.cfi_endproc
.LFE3534:
	.size	_ZNSt6chronomiIlSt5ratioILl1ELl1000000000EElS2_EENSt11common_typeIJNS_8durationIT_T0_EENS4_IT1_T2_EEEE4typeERKS7_RKSA_, .-_ZNSt6chronomiIlSt5ratioILl1ELl1000000000EElS2_EENSt11common_typeIJNS_8durationIT_T0_EENS4_IT1_T2_EEEE4typeERKS7_RKSA_
	.section	.text._ZNKSt6chrono8durationIdSt5ratioILl1ELl1EEE5countEv,"axG",@progbits,_ZNKSt6chrono8durationIdSt5ratioILl1ELl1EEE5countEv,comdat
	.align	2
	.weak	_ZNKSt6chrono8durationIdSt5ratioILl1ELl1EEE5countEv
	.type	_ZNKSt6chrono8durationIdSt5ratioILl1ELl1EEE5countEv, %function
_ZNKSt6chrono8durationIdSt5ratioILl1ELl1EEE5countEv:
.LFB3535:
	.cfi_startproc
	sub	sp, sp, #16
	.cfi_def_cfa_offset 16
	str	x0, [sp, 8]
	ldr	x0, [sp, 8]
	ldr	d0, [x0]
	add	sp, sp, 16
	.cfi_def_cfa_offset 0
	ret
	.cfi_endproc
.LFE3535:
	.size	_ZNKSt6chrono8durationIdSt5ratioILl1ELl1EEE5countEv, .-_ZNKSt6chrono8durationIdSt5ratioILl1ELl1EEE5countEv
	.section	.text._ZNSt6vectorIjSaIjEE11_S_max_sizeERKS0_,"axG",@progbits,_ZNSt6vectorIjSaIjEE11_S_max_sizeERKS0_,comdat
	.align	2
	.weak	_ZNSt6vectorIjSaIjEE11_S_max_sizeERKS0_
	.type	_ZNSt6vectorIjSaIjEE11_S_max_sizeERKS0_, %function
_ZNSt6vectorIjSaIjEE11_S_max_sizeERKS0_:
.LFB3615:
	.cfi_startproc
	sub	sp, sp, #80
	.cfi_def_cfa_offset 80
	stp	x29, x30, [sp, 64]
	.cfi_offset 29, -16
	.cfi_offset 30, -8
	add	x29, sp, 64
	str	x0, [sp, 8]
	adrp	x0, :got:__stack_chk_guard
	ldr	x0, [x0, :got_lo12:__stack_chk_guard]
	ldr	x1, [x0]
	str	x1, [sp, 56]
	mov	x1, 0
	mov	x0, 2305843009213693951
	str	x0, [sp, 16]
	ldr	x0, [sp, 8]
	str	x0, [sp, 32]
	ldr	x0, [sp, 32]
	str	x0, [sp, 40]
	ldr	x0, [sp, 40]
	str	x0, [sp, 48]
	mov	x0, 2305843009213693951
	nop
	nop
	str	x0, [sp, 24]
	add	x1, sp, 24
	add	x0, sp, 16
	bl	_ZSt3minImERKT_S2_S2_
	ldr	x0, [x0]
	mov	x1, x0
	adrp	x0, :got:__stack_chk_guard
	ldr	x0, [x0, :got_lo12:__stack_chk_guard]
	ldr	x3, [sp, 56]
	ldr	x2, [x0]
	subs	x3, x3, x2
	mov	x2, 0
	beq	.L223
	bl	__stack_chk_fail
.L223:
	mov	x0, x1
	ldp	x29, x30, [sp, 64]
	add	sp, sp, 80
	.cfi_restore 29
	.cfi_restore 30
	.cfi_def_cfa_offset 0
	ret
	.cfi_endproc
.LFE3615:
	.size	_ZNSt6vectorIjSaIjEE11_S_max_sizeERKS0_, .-_ZNSt6vectorIjSaIjEE11_S_max_sizeERKS0_
	.section	.text._ZNSt12_Vector_baseIjSaIjEE12_Vector_implC2ERKS0_,"axG",@progbits,_ZNSt12_Vector_baseIjSaIjEE12_Vector_implC5ERKS0_,comdat
	.align	2
	.weak	_ZNSt12_Vector_baseIjSaIjEE12_Vector_implC2ERKS0_
	.type	_ZNSt12_Vector_baseIjSaIjEE12_Vector_implC2ERKS0_, %function
_ZNSt12_Vector_baseIjSaIjEE12_Vector_implC2ERKS0_:
.LFB3620:
	.cfi_startproc
	stp	x29, x30, [sp, -64]!
	.cfi_def_cfa_offset 64
	.cfi_offset 29, -64
	.cfi_offset 30, -56
	mov	x29, sp
	str	x0, [sp, 24]
	str	x1, [sp, 16]
	ldr	x0, [sp, 24]
	str	x0, [sp, 32]
	ldr	x0, [sp, 16]
	str	x0, [sp, 40]
	ldr	x0, [sp, 32]
	str	x0, [sp, 48]
	ldr	x0, [sp, 40]
	str	x0, [sp, 56]
	nop
	nop
	ldr	x0, [sp, 24]
	bl	_ZNSt12_Vector_baseIjSaIjEE17_Vector_impl_dataC2Ev
	nop
	ldp	x29, x30, [sp], 64
	.cfi_restore 30
	.cfi_restore 29
	.cfi_def_cfa_offset 0
	ret
	.cfi_endproc
.LFE3620:
	.size	_ZNSt12_Vector_baseIjSaIjEE12_Vector_implC2ERKS0_, .-_ZNSt12_Vector_baseIjSaIjEE12_Vector_implC2ERKS0_
	.weak	_ZNSt12_Vector_baseIjSaIjEE12_Vector_implC1ERKS0_
	.set	_ZNSt12_Vector_baseIjSaIjEE12_Vector_implC1ERKS0_,_ZNSt12_Vector_baseIjSaIjEE12_Vector_implC2ERKS0_
	.section	.text._ZNSt12_Vector_baseIjSaIjEE17_M_create_storageEm,"axG",@progbits,_ZNSt12_Vector_baseIjSaIjEE17_M_create_storageEm,comdat
	.align	2
	.weak	_ZNSt12_Vector_baseIjSaIjEE17_M_create_storageEm
	.type	_ZNSt12_Vector_baseIjSaIjEE17_M_create_storageEm, %function
_ZNSt12_Vector_baseIjSaIjEE17_M_create_storageEm:
.LFB3622:
	.cfi_startproc
	stp	x29, x30, [sp, -32]!
	.cfi_def_cfa_offset 32
	.cfi_offset 29, -32
	.cfi_offset 30, -24
	mov	x29, sp
	str	x0, [sp, 24]
	str	x1, [sp, 16]
	ldr	x1, [sp, 16]
	ldr	x0, [sp, 24]
	bl	_ZNSt12_Vector_baseIjSaIjEE11_M_allocateEm
	mov	x1, x0
	ldr	x0, [sp, 24]
	str	x1, [x0]
	ldr	x0, [sp, 24]
	ldr	x1, [x0]
	ldr	x0, [sp, 24]
	str	x1, [x0, 8]
	ldr	x0, [sp, 24]
	ldr	x1, [x0]
	ldr	x0, [sp, 16]
	lsl	x0, x0, 2
	add	x1, x1, x0
	ldr	x0, [sp, 24]
	str	x1, [x0, 16]
	nop
	ldp	x29, x30, [sp], 32
	.cfi_restore 30
	.cfi_restore 29
	.cfi_def_cfa_offset 0
	ret
	.cfi_endproc
.LFE3622:
	.size	_ZNSt12_Vector_baseIjSaIjEE17_M_create_storageEm, .-_ZNSt12_Vector_baseIjSaIjEE17_M_create_storageEm
	.section	.text._ZNSt12_Vector_baseIjSaIjEE13_M_deallocateEPjm,"axG",@progbits,_ZNSt12_Vector_baseIjSaIjEE13_M_deallocateEPjm,comdat
	.align	2
	.weak	_ZNSt12_Vector_baseIjSaIjEE13_M_deallocateEPjm
	.type	_ZNSt12_Vector_baseIjSaIjEE13_M_deallocateEPjm, %function
_ZNSt12_Vector_baseIjSaIjEE13_M_deallocateEPjm:
.LFB3623:
	.cfi_startproc
	stp	x29, x30, [sp, -80]!
	.cfi_def_cfa_offset 80
	.cfi_offset 29, -80
	.cfi_offset 30, -72
	mov	x29, sp
	str	x0, [sp, 40]
	str	x1, [sp, 32]
	str	x2, [sp, 24]
	ldr	x0, [sp, 32]
	cmp	x0, 0
	beq	.L228
	ldr	x0, [sp, 40]
	str	x0, [sp, 56]
	ldr	x0, [sp, 32]
	str	x0, [sp, 64]
	ldr	x0, [sp, 24]
	str	x0, [sp, 72]
	ldr	x2, [sp, 72]
	ldr	x1, [sp, 64]
	ldr	x0, [sp, 56]
	bl	_ZNSt15__new_allocatorIjE10deallocateEPjm
	nop
.L228:
	nop
	ldp	x29, x30, [sp], 80
	.cfi_restore 30
	.cfi_restore 29
	.cfi_def_cfa_offset 0
	ret
	.cfi_endproc
.LFE3623:
	.size	_ZNSt12_Vector_baseIjSaIjEE13_M_deallocateEPjm, .-_ZNSt12_Vector_baseIjSaIjEE13_M_deallocateEPjm
	.section	.text._ZSt27__uninitialized_default_n_aIPjmjET_S1_T0_RSaIT1_E,"axG",@progbits,_ZSt27__uninitialized_default_n_aIPjmjET_S1_T0_RSaIT1_E,comdat
	.align	2
	.weak	_ZSt27__uninitialized_default_n_aIPjmjET_S1_T0_RSaIT1_E
	.type	_ZSt27__uninitialized_default_n_aIPjmjET_S1_T0_RSaIT1_E, %function
_ZSt27__uninitialized_default_n_aIPjmjET_S1_T0_RSaIT1_E:
.LFB3624:
	.cfi_startproc
	stp	x29, x30, [sp, -48]!
	.cfi_def_cfa_offset 48
	.cfi_offset 29, -48
	.cfi_offset 30, -40
	mov	x29, sp
	str	x0, [sp, 40]
	str	x1, [sp, 32]
	str	x2, [sp, 24]
	ldr	x1, [sp, 32]
	ldr	x0, [sp, 40]
	bl	_ZSt25__uninitialized_default_nIPjmET_S1_T0_
	ldp	x29, x30, [sp], 48
	.cfi_restore 30
	.cfi_restore 29
	.cfi_def_cfa_offset 0
	ret
	.cfi_endproc
.LFE3624:
	.size	_ZSt27__uninitialized_default_n_aIPjmjET_S1_T0_RSaIT1_E, .-_ZSt27__uninitialized_default_n_aIPjmjET_S1_T0_RSaIT1_E
	.section	.text._ZSt8_DestroyIPjEvT_S1_,"axG",@progbits,_ZSt8_DestroyIPjEvT_S1_,comdat
	.align	2
	.weak	_ZSt8_DestroyIPjEvT_S1_
	.type	_ZSt8_DestroyIPjEvT_S1_, %function
_ZSt8_DestroyIPjEvT_S1_:
.LFB3625:
	.cfi_startproc
	stp	x29, x30, [sp, -32]!
	.cfi_def_cfa_offset 32
	.cfi_offset 29, -32
	.cfi_offset 30, -24
	mov	x29, sp
	str	x0, [sp, 24]
	str	x1, [sp, 16]
	ldr	x1, [sp, 16]
	ldr	x0, [sp, 24]
	bl	_ZNSt12_Destroy_auxILb1EE9__destroyIPjEEvT_S3_
	nop
	ldp	x29, x30, [sp], 32
	.cfi_restore 30
	.cfi_restore 29
	.cfi_def_cfa_offset 0
	ret
	.cfi_endproc
.LFE3625:
	.size	_ZSt8_DestroyIPjEvT_S1_, .-_ZSt8_DestroyIPjEvT_S1_
	.section	.text._ZNSt6chrono13duration_castINS_8durationIdSt5ratioILl1ELl1EEEElS2_ILl1ELl1000000000EEEENSt9enable_ifIXsrNS_13__is_durationIT_EE5valueES8_E4typeERKNS1_IT0_T1_EE,"axG",@progbits,_ZNSt6chrono13duration_castINS_8durationIdSt5ratioILl1ELl1EEEElS2_ILl1ELl1000000000EEEENSt9enable_ifIXsrNS_13__is_durationIT_EE5valueES8_E4typeERKNS1_IT0_T1_EE,comdat
	.align	2
	.weak	_ZNSt6chrono13duration_castINS_8durationIdSt5ratioILl1ELl1EEEElS2_ILl1ELl1000000000EEEENSt9enable_ifIXsrNS_13__is_durationIT_EE5valueES8_E4typeERKNS1_IT0_T1_EE
	.type	_ZNSt6chrono13duration_castINS_8durationIdSt5ratioILl1ELl1EEEElS2_ILl1ELl1000000000EEEENSt9enable_ifIXsrNS_13__is_durationIT_EE5valueES8_E4typeERKNS1_IT0_T1_EE, %function
_ZNSt6chrono13duration_castINS_8durationIdSt5ratioILl1ELl1EEEElS2_ILl1ELl1000000000EEEENSt9enable_ifIXsrNS_13__is_durationIT_EE5valueES8_E4typeERKNS1_IT0_T1_EE:
.LFB3627:
	.cfi_startproc
	stp	x29, x30, [sp, -32]!
	.cfi_def_cfa_offset 32
	.cfi_offset 29, -32
	.cfi_offset 30, -24
	mov	x29, sp
	str	x0, [sp, 24]
	ldr	x0, [sp, 24]
	bl	_ZNSt6chrono20__duration_cast_implINS_8durationIdSt5ratioILl1ELl1EEEES2_ILl1ELl1000000000EEdLb1ELb0EE6__castIlS5_EES4_RKNS1_IT_T0_EE
	fmov	x0, d0
	fmov	d0, x0
	ldp	x29, x30, [sp], 32
	.cfi_restore 30
	.cfi_restore 29
	.cfi_def_cfa_offset 0
	ret
	.cfi_endproc
.LFE3627:
	.size	_ZNSt6chrono13duration_castINS_8durationIdSt5ratioILl1ELl1EEEElS2_ILl1ELl1000000000EEEENSt9enable_ifIXsrNS_13__is_durationIT_EE5valueES8_E4typeERKNS1_IT0_T1_EE, .-_ZNSt6chrono13duration_castINS_8durationIdSt5ratioILl1ELl1EEEElS2_ILl1ELl1000000000EEEENSt9enable_ifIXsrNS_13__is_durationIT_EE5valueES8_E4typeERKNS1_IT0_T1_EE
	.section	.text._ZSt3minImERKT_S2_S2_,"axG",@progbits,_ZSt3minImERKT_S2_S2_,comdat
	.align	2
	.weak	_ZSt3minImERKT_S2_S2_
	.type	_ZSt3minImERKT_S2_S2_, %function
_ZSt3minImERKT_S2_S2_:
.LFB3682:
	.cfi_startproc
	sub	sp, sp, #16
	.cfi_def_cfa_offset 16
	str	x0, [sp, 8]
	str	x1, [sp]
	ldr	x0, [sp]
	ldr	x1, [x0]
	ldr	x0, [sp, 8]
	ldr	x0, [x0]
	cmp	x1, x0
	bcs	.L235
	ldr	x0, [sp]
	b	.L236
.L235:
	ldr	x0, [sp, 8]
.L236:
	add	sp, sp, 16
	.cfi_def_cfa_offset 0
	ret
	.cfi_endproc
.LFE3682:
	.size	_ZSt3minImERKT_S2_S2_, .-_ZSt3minImERKT_S2_S2_
	.section	.text._ZNSt12_Vector_baseIjSaIjEE17_Vector_impl_dataC2Ev,"axG",@progbits,_ZNSt12_Vector_baseIjSaIjEE17_Vector_impl_dataC5Ev,comdat
	.align	2
	.weak	_ZNSt12_Vector_baseIjSaIjEE17_Vector_impl_dataC2Ev
	.type	_ZNSt12_Vector_baseIjSaIjEE17_Vector_impl_dataC2Ev, %function
_ZNSt12_Vector_baseIjSaIjEE17_Vector_impl_dataC2Ev:
.LFB3687:
	.cfi_startproc
	sub	sp, sp, #16
	.cfi_def_cfa_offset 16
	str	x0, [sp, 8]
	ldr	x0, [sp, 8]
	str	xzr, [x0]
	ldr	x0, [sp, 8]
	str	xzr, [x0, 8]
	ldr	x0, [sp, 8]
	str	xzr, [x0, 16]
	nop
	add	sp, sp, 16
	.cfi_def_cfa_offset 0
	ret
	.cfi_endproc
.LFE3687:
	.size	_ZNSt12_Vector_baseIjSaIjEE17_Vector_impl_dataC2Ev, .-_ZNSt12_Vector_baseIjSaIjEE17_Vector_impl_dataC2Ev
	.weak	_ZNSt12_Vector_baseIjSaIjEE17_Vector_impl_dataC1Ev
	.set	_ZNSt12_Vector_baseIjSaIjEE17_Vector_impl_dataC1Ev,_ZNSt12_Vector_baseIjSaIjEE17_Vector_impl_dataC2Ev
	.section	.text._ZNSt12_Vector_baseIjSaIjEE11_M_allocateEm,"axG",@progbits,_ZNSt12_Vector_baseIjSaIjEE11_M_allocateEm,comdat
	.align	2
	.weak	_ZNSt12_Vector_baseIjSaIjEE11_M_allocateEm
	.type	_ZNSt12_Vector_baseIjSaIjEE11_M_allocateEm, %function
_ZNSt12_Vector_baseIjSaIjEE11_M_allocateEm:
.LFB3689:
	.cfi_startproc
	stp	x29, x30, [sp, -48]!
	.cfi_def_cfa_offset 48
	.cfi_offset 29, -48
	.cfi_offset 30, -40
	mov	x29, sp
	str	x0, [sp, 24]
	str	x1, [sp, 16]
	ldr	x0, [sp, 16]
	cmp	x0, 0
	beq	.L239
	ldr	x0, [sp, 24]
	str	x0, [sp, 32]
	ldr	x0, [sp, 16]
	str	x0, [sp, 40]
	mov	x2, 0
	ldr	x1, [sp, 40]
	ldr	x0, [sp, 32]
	bl	_ZNSt15__new_allocatorIjE8allocateEmPKv
	nop
	b	.L241
.L239:
	mov	x0, 0
.L241:
	ldp	x29, x30, [sp], 48
	.cfi_restore 30
	.cfi_restore 29
	.cfi_def_cfa_offset 0
	ret
	.cfi_endproc
.LFE3689:
	.size	_ZNSt12_Vector_baseIjSaIjEE11_M_allocateEm, .-_ZNSt12_Vector_baseIjSaIjEE11_M_allocateEm
	.section	.text._ZSt25__uninitialized_default_nIPjmET_S1_T0_,"axG",@progbits,_ZSt25__uninitialized_default_nIPjmET_S1_T0_,comdat
	.align	2
	.weak	_ZSt25__uninitialized_default_nIPjmET_S1_T0_
	.type	_ZSt25__uninitialized_default_nIPjmET_S1_T0_, %function
_ZSt25__uninitialized_default_nIPjmET_S1_T0_:
.LFB3691:
	.cfi_startproc
	stp	x29, x30, [sp, -48]!
	.cfi_def_cfa_offset 48
	.cfi_offset 29, -48
	.cfi_offset 30, -40
	mov	x29, sp
	str	x0, [sp, 24]
	str	x1, [sp, 16]
	mov	w0, 1
	strb	w0, [sp, 47]
	ldr	x1, [sp, 16]
	ldr	x0, [sp, 24]
	bl	_ZNSt27__uninitialized_default_n_1ILb1EE18__uninit_default_nIPjmEET_S3_T0_
	ldp	x29, x30, [sp], 48
	.cfi_restore 30
	.cfi_restore 29
	.cfi_def_cfa_offset 0
	ret
	.cfi_endproc
.LFE3691:
	.size	_ZSt25__uninitialized_default_nIPjmET_S1_T0_, .-_ZSt25__uninitialized_default_nIPjmET_S1_T0_
	.section	.text._ZNSt12_Destroy_auxILb1EE9__destroyIPjEEvT_S3_,"axG",@progbits,_ZNSt12_Destroy_auxILb1EE9__destroyIPjEEvT_S3_,comdat
	.align	2
	.weak	_ZNSt12_Destroy_auxILb1EE9__destroyIPjEEvT_S3_
	.type	_ZNSt12_Destroy_auxILb1EE9__destroyIPjEEvT_S3_, %function
_ZNSt12_Destroy_auxILb1EE9__destroyIPjEEvT_S3_:
.LFB3692:
	.cfi_startproc
	sub	sp, sp, #16
	.cfi_def_cfa_offset 16
	str	x0, [sp, 8]
	str	x1, [sp]
	nop
	add	sp, sp, 16
	.cfi_def_cfa_offset 0
	ret
	.cfi_endproc
.LFE3692:
	.size	_ZNSt12_Destroy_auxILb1EE9__destroyIPjEEvT_S3_, .-_ZNSt12_Destroy_auxILb1EE9__destroyIPjEEvT_S3_
	.section	.text._ZNSt6chrono20__duration_cast_implINS_8durationIdSt5ratioILl1ELl1EEEES2_ILl1ELl1000000000EEdLb1ELb0EE6__castIlS5_EES4_RKNS1_IT_T0_EE,"axG",@progbits,_ZNSt6chrono20__duration_cast_implINS_8durationIdSt5ratioILl1ELl1EEEES2_ILl1ELl1000000000EEdLb1ELb0EE6__castIlS5_EES4_RKNS1_IT_T0_EE,comdat
	.align	2
	.weak	_ZNSt6chrono20__duration_cast_implINS_8durationIdSt5ratioILl1ELl1EEEES2_ILl1ELl1000000000EEdLb1ELb0EE6__castIlS5_EES4_RKNS1_IT_T0_EE
	.type	_ZNSt6chrono20__duration_cast_implINS_8durationIdSt5ratioILl1ELl1EEEES2_ILl1ELl1000000000EEdLb1ELb0EE6__castIlS5_EES4_RKNS1_IT_T0_EE, %function
_ZNSt6chrono20__duration_cast_implINS_8durationIdSt5ratioILl1ELl1EEEES2_ILl1ELl1000000000EEdLb1ELb0EE6__castIlS5_EES4_RKNS1_IT_T0_EE:
.LFB3693:
	.cfi_startproc
	sub	sp, sp, #64
	.cfi_def_cfa_offset 64
	stp	x29, x30, [sp, 48]
	.cfi_offset 29, -16
	.cfi_offset 30, -8
	add	x29, sp, 48
	str	x0, [sp, 8]
	adrp	x0, :got:__stack_chk_guard
	ldr	x0, [x0, :got_lo12:__stack_chk_guard]
	ldr	x1, [x0]
	str	x1, [sp, 40]
	mov	x1, 0
	ldr	x0, [sp, 8]
	bl	_ZNKSt6chrono8durationIlSt5ratioILl1ELl1000000000EEE5countEv
	scvtf	d0, x0
	mov	x0, 225833675390976
	movk	x0, 0x41cd, lsl 48
	fmov	d1, x0
	fdiv	d0, d0, d1
	str	d0, [sp, 24]
	add	x1, sp, 24
	add	x0, sp, 32
	bl	_ZNSt6chrono8durationIdSt5ratioILl1ELl1EEEC1IdvEERKT_
	ldr	d0, [sp, 32]
	fmov	x0, d0
	fmov	d0, x0
	adrp	x0, :got:__stack_chk_guard
	ldr	x0, [x0, :got_lo12:__stack_chk_guard]
	ldr	x2, [sp, 40]
	ldr	x1, [x0]
	subs	x2, x2, x1
	mov	x1, 0
	beq	.L248
	bl	__stack_chk_fail
.L248:
	ldp	x29, x30, [sp, 48]
	add	sp, sp, 64
	.cfi_restore 29
	.cfi_restore 30
	.cfi_def_cfa_offset 0
	ret
	.cfi_endproc
.LFE3693:
	.size	_ZNSt6chrono20__duration_cast_implINS_8durationIdSt5ratioILl1ELl1EEEES2_ILl1ELl1000000000EEdLb1ELb0EE6__castIlS5_EES4_RKNS1_IT_T0_EE, .-_ZNSt6chrono20__duration_cast_implINS_8durationIdSt5ratioILl1ELl1EEEES2_ILl1ELl1000000000EEdLb1ELb0EE6__castIlS5_EES4_RKNS1_IT_T0_EE
	.section	.text._ZNSt15__new_allocatorIjE10deallocateEPjm,"axG",@progbits,_ZNSt15__new_allocatorIjE10deallocateEPjm,comdat
	.align	2
	.weak	_ZNSt15__new_allocatorIjE10deallocateEPjm
	.type	_ZNSt15__new_allocatorIjE10deallocateEPjm, %function
_ZNSt15__new_allocatorIjE10deallocateEPjm:
.LFB3716:
	.cfi_startproc
	stp	x29, x30, [sp, -48]!
	.cfi_def_cfa_offset 48
	.cfi_offset 29, -48
	.cfi_offset 30, -40
	mov	x29, sp
	str	x0, [sp, 40]
	str	x1, [sp, 32]
	str	x2, [sp, 24]
	ldr	x0, [sp, 24]
	lsl	x0, x0, 2
	mov	x1, x0
	ldr	x0, [sp, 32]
	bl	_ZdlPvm
	ldp	x29, x30, [sp], 48
	.cfi_restore 30
	.cfi_restore 29
	.cfi_def_cfa_offset 0
	ret
	.cfi_endproc
.LFE3716:
	.size	_ZNSt15__new_allocatorIjE10deallocateEPjm, .-_ZNSt15__new_allocatorIjE10deallocateEPjm
	.section	.text._ZNSt27__uninitialized_default_n_1ILb1EE18__uninit_default_nIPjmEET_S3_T0_,"axG",@progbits,_ZNSt27__uninitialized_default_n_1ILb1EE18__uninit_default_nIPjmEET_S3_T0_,comdat
	.align	2
	.weak	_ZNSt27__uninitialized_default_n_1ILb1EE18__uninit_default_nIPjmEET_S3_T0_
	.type	_ZNSt27__uninitialized_default_n_1ILb1EE18__uninit_default_nIPjmEET_S3_T0_, %function
_ZNSt27__uninitialized_default_n_1ILb1EE18__uninit_default_nIPjmEET_S3_T0_:
.LFB3717:
	.cfi_startproc
	stp	x29, x30, [sp, -48]!
	.cfi_def_cfa_offset 48
	.cfi_offset 29, -48
	.cfi_offset 30, -40
	mov	x29, sp
	str	x0, [sp, 24]
	str	x1, [sp, 16]
	ldr	x0, [sp, 16]
	cmp	x0, 0
	beq	.L252
	ldr	x0, [sp, 24]
	bl	_ZSt11__addressofIjEPT_RS0_
	str	x0, [sp, 40]
	ldr	x0, [sp, 40]
	bl	_ZSt10_ConstructIjJEEvPT_DpOT0_
	ldr	x0, [sp, 24]
	add	x0, x0, 4
	str	x0, [sp, 24]
	ldr	x0, [sp, 16]
	sub	x0, x0, #1
	ldr	x2, [sp, 40]
	mov	x1, x0
	ldr	x0, [sp, 24]
	bl	_ZSt6fill_nIPjmjET_S1_T0_RKT1_
	str	x0, [sp, 24]
.L252:
	ldr	x0, [sp, 24]
	ldp	x29, x30, [sp], 48
	.cfi_restore 30
	.cfi_restore 29
	.cfi_def_cfa_offset 0
	ret
	.cfi_endproc
.LFE3717:
	.size	_ZNSt27__uninitialized_default_n_1ILb1EE18__uninit_default_nIPjmEET_S3_T0_, .-_ZNSt27__uninitialized_default_n_1ILb1EE18__uninit_default_nIPjmEET_S3_T0_
	.section	.text._ZNSt6chrono8durationIdSt5ratioILl1ELl1EEEC2IdvEERKT_,"axG",@progbits,_ZNSt6chrono8durationIdSt5ratioILl1ELl1EEEC5IdvEERKT_,comdat
	.align	2
	.weak	_ZNSt6chrono8durationIdSt5ratioILl1ELl1EEEC2IdvEERKT_
	.type	_ZNSt6chrono8durationIdSt5ratioILl1ELl1EEEC2IdvEERKT_, %function
_ZNSt6chrono8durationIdSt5ratioILl1ELl1EEEC2IdvEERKT_:
.LFB3719:
	.cfi_startproc
	sub	sp, sp, #16
	.cfi_def_cfa_offset 16
	str	x0, [sp, 8]
	str	x1, [sp]
	ldr	x0, [sp]
	ldr	d0, [x0]
	ldr	x0, [sp, 8]
	str	d0, [x0]
	nop
	add	sp, sp, 16
	.cfi_def_cfa_offset 0
	ret
	.cfi_endproc
.LFE3719:
	.size	_ZNSt6chrono8durationIdSt5ratioILl1ELl1EEEC2IdvEERKT_, .-_ZNSt6chrono8durationIdSt5ratioILl1ELl1EEEC2IdvEERKT_
	.weak	_ZNSt6chrono8durationIdSt5ratioILl1ELl1EEEC1IdvEERKT_
	.set	_ZNSt6chrono8durationIdSt5ratioILl1ELl1EEEC1IdvEERKT_,_ZNSt6chrono8durationIdSt5ratioILl1ELl1EEEC2IdvEERKT_
	.section	.text._ZNSt15__new_allocatorIjE8allocateEmPKv,"axG",@progbits,_ZNSt15__new_allocatorIjE8allocateEmPKv,comdat
	.align	2
	.weak	_ZNSt15__new_allocatorIjE8allocateEmPKv
	.type	_ZNSt15__new_allocatorIjE8allocateEmPKv, %function
_ZNSt15__new_allocatorIjE8allocateEmPKv:
.LFB3731:
	.cfi_startproc
	stp	x29, x30, [sp, -64]!
	.cfi_def_cfa_offset 64
	.cfi_offset 29, -64
	.cfi_offset 30, -56
	mov	x29, sp
	str	x0, [sp, 40]
	str	x1, [sp, 32]
	str	x2, [sp, 24]
	ldr	x0, [sp, 40]
	str	x0, [sp, 56]
	mov	x0, 2305843009213693951
	ldr	x1, [sp, 32]
	cmp	x1, x0
	cset	w0, hi
	and	w0, w0, 255
	and	x0, x0, 255
	cmp	x0, 0
	cset	w0, ne
	and	w0, w0, 255
	and	w0, w0, 1
	cmp	w0, 0
	beq	.L257
	ldr	x1, [sp, 32]
	mov	x0, 4611686018427387903
	cmp	x1, x0
	bls	.L258
	bl	_ZSt28__throw_bad_array_new_lengthv
.L258:
	bl	_ZSt17__throw_bad_allocv
.L257:
	ldr	x0, [sp, 32]
	lsl	x0, x0, 2
	bl	_Znwm
	nop
	ldp	x29, x30, [sp], 64
	.cfi_restore 30
	.cfi_restore 29
	.cfi_def_cfa_offset 0
	ret
	.cfi_endproc
.LFE3731:
	.size	_ZNSt15__new_allocatorIjE8allocateEmPKv, .-_ZNSt15__new_allocatorIjE8allocateEmPKv
	.section	.text._ZSt11__addressofIjEPT_RS0_,"axG",@progbits,_ZSt11__addressofIjEPT_RS0_,comdat
	.align	2
	.weak	_ZSt11__addressofIjEPT_RS0_
	.type	_ZSt11__addressofIjEPT_RS0_, %function
_ZSt11__addressofIjEPT_RS0_:
.LFB3732:
	.cfi_startproc
	sub	sp, sp, #16
	.cfi_def_cfa_offset 16
	str	x0, [sp, 8]
	ldr	x0, [sp, 8]
	add	sp, sp, 16
	.cfi_def_cfa_offset 0
	ret
	.cfi_endproc
.LFE3732:
	.size	_ZSt11__addressofIjEPT_RS0_, .-_ZSt11__addressofIjEPT_RS0_
	.section	.text._ZSt10_ConstructIjJEEvPT_DpOT0_,"axG",@progbits,_ZSt10_ConstructIjJEEvPT_DpOT0_,comdat
	.align	2
	.weak	_ZSt10_ConstructIjJEEvPT_DpOT0_
	.type	_ZSt10_ConstructIjJEEvPT_DpOT0_, %function
_ZSt10_ConstructIjJEEvPT_DpOT0_:
.LFB3733:
	.cfi_startproc
	stp	x29, x30, [sp, -32]!
	.cfi_def_cfa_offset 32
	.cfi_offset 29, -32
	.cfi_offset 30, -24
	mov	x29, sp
	str	x0, [sp, 24]
	ldr	x0, [sp, 24]
	mov	x1, x0
	mov	x0, 4
	bl	_ZnwmPv
	str	wzr, [x0]
	nop
	ldp	x29, x30, [sp], 32
	.cfi_restore 30
	.cfi_restore 29
	.cfi_def_cfa_offset 0
	ret
	.cfi_endproc
.LFE3733:
	.size	_ZSt10_ConstructIjJEEvPT_DpOT0_, .-_ZSt10_ConstructIjJEEvPT_DpOT0_
	.section	.text._ZSt6fill_nIPjmjET_S1_T0_RKT1_,"axG",@progbits,_ZSt6fill_nIPjmjET_S1_T0_RKT1_,comdat
	.align	2
	.weak	_ZSt6fill_nIPjmjET_S1_T0_RKT1_
	.type	_ZSt6fill_nIPjmjET_S1_T0_RKT1_, %function
_ZSt6fill_nIPjmjET_S1_T0_RKT1_:
.LFB3734:
	.cfi_startproc
	stp	x29, x30, [sp, -64]!
	.cfi_def_cfa_offset 64
	.cfi_offset 29, -64
	.cfi_offset 30, -56
	mov	x29, sp
	stp	x19, x20, [sp, 16]
	.cfi_offset 19, -48
	.cfi_offset 20, -40
	str	x0, [sp, 56]
	str	x1, [sp, 48]
	str	x2, [sp, 40]
	ldr	x19, [sp, 56]
	ldr	x0, [sp, 48]
	bl	_ZSt17__size_to_integerm
	nop
	mov	w3, w20
	ldr	x2, [sp, 40]
	mov	x1, x0
	mov	x0, x19
	bl	_ZSt10__fill_n_aIPjmjET_S1_T0_RKT1_St26random_access_iterator_tag
	ldp	x19, x20, [sp, 16]
	ldp	x29, x30, [sp], 64
	.cfi_restore 30
	.cfi_restore 29
	.cfi_restore 19
	.cfi_restore 20
	.cfi_def_cfa_offset 0
	ret
	.cfi_endproc
.LFE3734:
	.size	_ZSt6fill_nIPjmjET_S1_T0_RKT1_, .-_ZSt6fill_nIPjmjET_S1_T0_RKT1_
	.section	.text._ZSt10__fill_n_aIPjmjET_S1_T0_RKT1_St26random_access_iterator_tag,"axG",@progbits,_ZSt10__fill_n_aIPjmjET_S1_T0_RKT1_St26random_access_iterator_tag,comdat
	.align	2
	.weak	_ZSt10__fill_n_aIPjmjET_S1_T0_RKT1_St26random_access_iterator_tag
	.type	_ZSt10__fill_n_aIPjmjET_S1_T0_RKT1_St26random_access_iterator_tag, %function
_ZSt10__fill_n_aIPjmjET_S1_T0_RKT1_St26random_access_iterator_tag:
.LFB3741:
	.cfi_startproc
	stp	x29, x30, [sp, -48]!
	.cfi_def_cfa_offset 48
	.cfi_offset 29, -48
	.cfi_offset 30, -40
	mov	x29, sp
	str	x0, [sp, 40]
	str	x1, [sp, 32]
	str	x2, [sp, 24]
	strb	w3, [sp, 16]
	ldr	x0, [sp, 32]
	cmp	x0, 0
	bne	.L267
	ldr	x0, [sp, 40]
	b	.L268
.L267:
	ldr	x0, [sp, 32]
	lsl	x0, x0, 2
	ldr	x1, [sp, 40]
	add	x0, x1, x0
	ldr	x2, [sp, 24]
	mov	x1, x0
	ldr	x0, [sp, 40]
	bl	_ZSt8__fill_aIPjjEvT_S1_RKT0_
	ldr	x0, [sp, 32]
	lsl	x0, x0, 2
	ldr	x1, [sp, 40]
	add	x0, x1, x0
.L268:
	ldp	x29, x30, [sp], 48
	.cfi_restore 30
	.cfi_restore 29
	.cfi_def_cfa_offset 0
	ret
	.cfi_endproc
.LFE3741:
	.size	_ZSt10__fill_n_aIPjmjET_S1_T0_RKT1_St26random_access_iterator_tag, .-_ZSt10__fill_n_aIPjmjET_S1_T0_RKT1_St26random_access_iterator_tag
	.section	.text._ZSt8__fill_aIPjjEvT_S1_RKT0_,"axG",@progbits,_ZSt8__fill_aIPjjEvT_S1_RKT0_,comdat
	.align	2
	.weak	_ZSt8__fill_aIPjjEvT_S1_RKT0_
	.type	_ZSt8__fill_aIPjjEvT_S1_RKT0_, %function
_ZSt8__fill_aIPjjEvT_S1_RKT0_:
.LFB3742:
	.cfi_startproc
	stp	x29, x30, [sp, -48]!
	.cfi_def_cfa_offset 48
	.cfi_offset 29, -48
	.cfi_offset 30, -40
	mov	x29, sp
	str	x0, [sp, 40]
	str	x1, [sp, 32]
	str	x2, [sp, 24]
	ldr	x2, [sp, 24]
	ldr	x1, [sp, 32]
	ldr	x0, [sp, 40]
	bl	_ZSt9__fill_a1IPjjEN9__gnu_cxx11__enable_ifIXsrSt11__is_scalarIT0_E7__valueEvE6__typeET_S8_RKS4_
	nop
	ldp	x29, x30, [sp], 48
	.cfi_restore 30
	.cfi_restore 29
	.cfi_def_cfa_offset 0
	ret
	.cfi_endproc
.LFE3742:
	.size	_ZSt8__fill_aIPjjEvT_S1_RKT0_, .-_ZSt8__fill_aIPjjEvT_S1_RKT0_
	.section	.text._ZSt9__fill_a1IPjjEN9__gnu_cxx11__enable_ifIXsrSt11__is_scalarIT0_E7__valueEvE6__typeET_S8_RKS4_,"axG",@progbits,_ZSt9__fill_a1IPjjEN9__gnu_cxx11__enable_ifIXsrSt11__is_scalarIT0_E7__valueEvE6__typeET_S8_RKS4_,comdat
	.align	2
	.weak	_ZSt9__fill_a1IPjjEN9__gnu_cxx11__enable_ifIXsrSt11__is_scalarIT0_E7__valueEvE6__typeET_S8_RKS4_
	.type	_ZSt9__fill_a1IPjjEN9__gnu_cxx11__enable_ifIXsrSt11__is_scalarIT0_E7__valueEvE6__typeET_S8_RKS4_, %function
_ZSt9__fill_a1IPjjEN9__gnu_cxx11__enable_ifIXsrSt11__is_scalarIT0_E7__valueEvE6__typeET_S8_RKS4_:
.LFB3743:
	.cfi_startproc
	sub	sp, sp, #48
	.cfi_def_cfa_offset 48
	str	x0, [sp, 24]
	str	x1, [sp, 16]
	str	x2, [sp, 8]
	ldr	x0, [sp, 8]
	ldr	w0, [x0]
	str	w0, [sp, 44]
	b	.L271
.L272:
	ldr	x0, [sp, 24]
	ldr	w1, [sp, 44]
	str	w1, [x0]
	ldr	x0, [sp, 24]
	add	x0, x0, 4
	str	x0, [sp, 24]
.L271:
	ldr	x1, [sp, 24]
	ldr	x0, [sp, 16]
	cmp	x1, x0
	bne	.L272
	nop
	nop
	add	sp, sp, 48
	.cfi_def_cfa_offset 0
	ret
	.cfi_endproc
.LFE3743:
	.size	_ZSt9__fill_a1IPjjEN9__gnu_cxx11__enable_ifIXsrSt11__is_scalarIT0_E7__valueEvE6__typeET_S8_RKS4_, .-_ZSt9__fill_a1IPjjEN9__gnu_cxx11__enable_ifIXsrSt11__is_scalarIT0_E7__valueEvE6__typeET_S8_RKS4_
	.section	.rodata
	.type	_ZNSt8__detail30__integer_to_chars_is_unsignedIjEE, %object
	.size	_ZNSt8__detail30__integer_to_chars_is_unsignedIjEE, 1
_ZNSt8__detail30__integer_to_chars_is_unsignedIjEE:
	.byte	1
	.type	_ZNSt8__detail30__integer_to_chars_is_unsignedImEE, %object
	.size	_ZNSt8__detail30__integer_to_chars_is_unsignedImEE, 1
_ZNSt8__detail30__integer_to_chars_is_unsignedImEE:
	.byte	1
	.type	_ZNSt8__detail30__integer_to_chars_is_unsignedIyEE, %object
	.size	_ZNSt8__detail30__integer_to_chars_is_unsignedIyEE, 1
_ZNSt8__detail30__integer_to_chars_is_unsignedIyEE:
	.byte	1
	.type	_ZSt12__is_ratio_vISt5ratioILl1ELl1000000000EEE, %object
	.size	_ZSt12__is_ratio_vISt5ratioILl1ELl1000000000EEE, 1
_ZSt12__is_ratio_vISt5ratioILl1ELl1000000000EEE:
	.byte	1
	.type	_ZSt12__is_ratio_vISt5ratioILl1ELl1EEE, %object
	.size	_ZSt12__is_ratio_vISt5ratioILl1ELl1EEE, 1
_ZSt12__is_ratio_vISt5ratioILl1ELl1EEE:
	.byte	1
	.type	_ZSt12__is_ratio_vISt5ratioILl1000000000ELl1EEE, %object
	.size	_ZSt12__is_ratio_vISt5ratioILl1000000000ELl1EEE, 1
_ZSt12__is_ratio_vISt5ratioILl1000000000ELl1EEE:
	.byte	1
	.hidden	DW.ref.__gxx_personality_v0
	.weak	DW.ref.__gxx_personality_v0
	.section	.data.rel.local.DW.ref.__gxx_personality_v0,"awG",@progbits,DW.ref.__gxx_personality_v0,comdat
	.align	3
	.type	DW.ref.__gxx_personality_v0, %object
	.size	DW.ref.__gxx_personality_v0, 8
DW.ref.__gxx_personality_v0:
	.xword	__gxx_personality_v0
	.ident	"GCC: (Ubuntu 13.3.0-6ubuntu2~24.04) 13.3.0"
	.section	.note.GNU-stack,"",@progbits
